ARM GAS  C:\Users\Kevin\AppData\Local\Temp\ccvEiSnJ.s 			page 1


   1              		.syntax unified
   2              		.cpu cortex-m4
   3              		.eabi_attribute 27, 3	@ Tag_ABI_HardFP_use
   4              		.eabi_attribute 28, 1	@ Tag_ABI_VFP_args
   5              		.fpu fpv4-sp-d16
   6              		.eabi_attribute 20, 1	@ Tag_ABI_FP_denormal
   7              		.eabi_attribute 21, 1	@ Tag_ABI_FP_exceptions
   8              		.eabi_attribute 23, 3	@ Tag_ABI_FP_number_model
   9              		.eabi_attribute 24, 1	@ Tag_ABI_align8_needed
  10              		.eabi_attribute 25, 1	@ Tag_ABI_align8_preserved
  11              		.eabi_attribute 26, 1	@ Tag_ABI_enum_size
  12              		.eabi_attribute 30, 4	@ Tag_ABI_optimization_goals
  13              		.eabi_attribute 34, 1	@ Tag_CPU_unaligned_access
  14              		.eabi_attribute 18, 4	@ Tag_ABI_PCS_wchar_t
  15              		.file	"nivek_system.c"
  16              	@ GNU C (Sourcery CodeBench Lite 2012.09-63) version 4.7.2 (arm-none-eabi)
  17              	@	compiled by GNU C version 4.3.2, GMP version 5.0.5, MPFR version 3.1.1-p2, MPC version 1.0.1
  18              	@ GGC heuristics: --param ggc-min-expand=100 --param ggc-min-heapsize=131072
  19              	@ options passed:  -I . -I \STMSPINCDDIR -I .\stm32f4periph\inc
  20              	@ -I .\CMSIS\Include -I .\inc\commo\usb -I .\inc\commo -I .\inc\common
  21              	@ -I .\inc -imultilib thumb2
  22              	@ -iprefix k:\electronics\gcc\bin\../lib/gcc/arm-none-eabi/4.7.2/
  23              	@ -isysroot k:\electronics\gcc\bin\../arm-none-eabi
  24              	@ -MD .\src\nivek_system.d -MF .dep\nivek_system.o.d -MP
  25              	@ -MQ .\src\nivek_system.o -D__USES_INITFINI__ -D STM32F0XX
  26              	@ -D USE_STDPERIPH_DRIVER -D RUN_FROM_FLASH=1
  27              	@ -D __CS_SOURCERYGXX_MAJ__=2012 -D __CS_SOURCERYGXX_MIN__=9
  28              	@ -D __CS_SOURCERYGXX_REV__=63 .\src\nivek_system.c -mcpu=cortex-m4
  29              	@ -mfpu=fpv4-sp-d16 -mfloat-abi=hard -mthumb
  30              	@ -auxbase-strip .\src\nivek_system.o -gdwarf-2 -Os -Wall
  31              	@ -Wstrict-prototypes -std=gnu99 -fomit-frame-pointer -fverbose-asm
  32              	@ options enabled:  -fauto-inc-dec -fbranch-count-reg -fcaller-saves
  33              	@ -fcombine-stack-adjustments -fcommon -fcompare-elim -fcprop-registers
  34              	@ -fcrossjumping -fcse-follow-jumps -fdebug-types-section -fdefer-pop
  35              	@ -fdelete-null-pointer-checks -fdevirtualize -fdwarf2-cfi-asm
  36              	@ -fearly-inlining -feliminate-unused-debug-types -fexpensive-optimizations
  37              	@ -fextension-elimination -fforward-propagate -ffunction-cse -fgcse
  38              	@ -fgcse-lm -fgnu-runtime -fguess-branch-probability -fident
  39              	@ -fif-conversion -fif-conversion2 -findirect-inlining -finline
  40              	@ -finline-atomics -finline-functions -finline-functions-called-once
  41              	@ -finline-small-functions -fipa-cp -fipa-profile -fipa-pure-const
  42              	@ -fipa-reference -fipa-sra -fira-share-save-slots -fira-share-spill-slots
  43              	@ -fivopts -fkeep-static-consts -fleading-underscore -fmath-errno
  44              	@ -fmerge-constants -fmerge-debug-strings -fmove-loop-invariants
  45              	@ -fomit-frame-pointer -foptimize-register-move -foptimize-sibling-calls
  46              	@ -fpartial-inlining -fpeephole -fpeephole2 -fprefetch-loop-arrays
  47              	@ -freg-struct-return -fregmove -freorder-blocks -freorder-functions
  48              	@ -frerun-cse-after-loop -fsched-critical-path-heuristic
  49              	@ -fsched-dep-count-heuristic -fsched-group-heuristic -fsched-interblock
  50              	@ -fsched-last-insn-heuristic -fsched-rank-heuristic -fsched-spec
  51              	@ -fsched-spec-insn-heuristic -fsched-stalled-insns-dep -fschedule-insns2
  52              	@ -fsection-anchors -fshow-column -fshrink-wrap -fsigned-zeros
  53              	@ -fsplit-ivs-in-unroller -fsplit-wide-types -fstrict-aliasing
  54              	@ -fstrict-overflow -fstrict-volatile-bitfields -fthread-jumps
  55              	@ -ftoplevel-reorder -ftrapping-math -ftree-bit-ccp -ftree-builtin-call-dce
  56              	@ -ftree-ccp -ftree-ch -ftree-copy-prop -ftree-copyrename -ftree-cselim
  57              	@ -ftree-dce -ftree-dominator-opts -ftree-dse -ftree-forwprop -ftree-fre
ARM GAS  C:\Users\Kevin\AppData\Local\Temp\ccvEiSnJ.s 			page 2


  58              	@ -ftree-if-to-switch-conversion -ftree-loop-if-convert -ftree-loop-im
  59              	@ -ftree-loop-ivcanon -ftree-loop-optimize -ftree-parallelize-loops=
  60              	@ -ftree-phiprop -ftree-pre -ftree-pta -ftree-reassoc -ftree-scev-cprop
  61              	@ -ftree-sink -ftree-slp-vectorize -ftree-sra -ftree-switch-conversion
  62              	@ -ftree-tail-merge -ftree-ter -ftree-vect-loop-version -ftree-vrp
  63              	@ -funit-at-a-time -fvar-tracking -fvar-tracking-assignments -fverbose-asm
  64              	@ -fzero-initialized-in-bss -mlittle-endian -msched-prolog -mthumb
  65              	@ -munaligned-access -mvectorize-with-neon-quad
  66              	
  67              		.text
  68              	.Ltext0:
  69              		.cfi_sections	.debug_frame
  70              		.align	1
  71              		.global	TWB_Sys_Init
  72              		.thumb
  73              		.thumb_func
  74              		.type	TWB_Sys_Init, %function
  75              	TWB_Sys_Init:
  76              	.LFB110:
  77              		.file 1 ".\\src\\nivek_system.c"
   1:.\src/nivek_system.c **** /*
   2:.\src/nivek_system.c ****  * nivek_system.c
   3:.\src/nivek_system.c ****  *
   4:.\src/nivek_system.c ****  *  Created on: Jul 14, 2013
   5:.\src/nivek_system.c ****  *      Author: Kevin
   6:.\src/nivek_system.c ****  */
   7:.\src/nivek_system.c **** 
   8:.\src/nivek_system.c **** 
   9:.\src/nivek_system.c **** #include "nivek_system.h"
  10:.\src/nivek_system.c **** 
  11:.\src/nivek_system.c **** #include <string.h>
  12:.\src/nivek_system.c **** #include "common/twb_debug.h"
  13:.\src/nivek_system.c **** #include "common/twb_leds.h"
  14:.\src/nivek_system.c **** #include "twb_eeprom.h"
  15:.\src/nivek_system.c **** #include "common/twb_serial_eeprom.h"
  16:.\src/nivek_system.c **** #include "commo/message_ids.h"
  17:.\src/nivek_system.c **** #include "memory_mgmt.h"
  18:.\src/nivek_system.c **** #include "commo/wifi.h"
  19:.\src/nivek_system.c **** 
  20:.\src/nivek_system.c **** uint8_t *NiVekName = null;
  21:.\src/nivek_system.c **** uint8_t StartupPhase = 255;
  22:.\src/nivek_system.c **** 
  23:.\src/nivek_system.c **** iOpResult_e TWB_Sys_Init(void){
  78              		.loc 1 23 0
  79              		.cfi_startproc
  80              		@ args = 0, pretend = 0, frame = 0
  81              		@ frame_needed = 0, uses_anonymous_args = 0
  82 0000 10B5     		push	{r4, lr}	@
  83              	.LCFI0:
  84              		.cfi_def_cfa_offset 8
  85              		.cfi_offset 4, -8
  86              		.cfi_offset 14, -4
  24:.\src/nivek_system.c **** 	TWB_SE_ReadBuffer(NIVEK_NAME_OFFSET, NiVekName, NIVEK_NAME_SIZE);
  87              		.loc 1 24 0
  88 0002 094C     		ldr	r4, .L2	@ tmp137,
  89 0004 1822     		movs	r2, #24	@,
  90 0006 2168     		ldr	r1, [r4, #0]	@, NiVekName
ARM GAS  C:\Users\Kevin\AppData\Local\Temp\ccvEiSnJ.s 			page 3


  91 0008 4FF48050 		mov	r0, #4096	@,
  92 000c FFF7FEFF 		bl	TWB_SE_ReadBuffer	@
  93              	.LVL0:
  25:.\src/nivek_system.c **** 	TWB_Debug_Print("Name: ");
  94              		.loc 1 25 0
  95 0010 0648     		ldr	r0, .L2+4	@,
  96 0012 FFF7FEFF 		bl	TWB_Debug_Print	@
  97              	.LVL1:
  26:.\src/nivek_system.c **** 	TWB_Debug_Print((const char *)NiVekName);
  98              		.loc 1 26 0
  99 0016 2068     		ldr	r0, [r4, #0]	@, NiVekName
 100 0018 FFF7FEFF 		bl	TWB_Debug_Print	@
 101              	.LVL2:
  27:.\src/nivek_system.c **** 	TWB_Debug_Print("\r\n");
 102              		.loc 1 27 0
 103 001c 0448     		ldr	r0, .L2+8	@,
 104 001e FFF7FEFF 		bl	TWB_Debug_Print	@
 105              	.LVL3:
  28:.\src/nivek_system.c **** 
  29:.\src/nivek_system.c **** 	return OK;
  30:.\src/nivek_system.c **** }
 106              		.loc 1 30 0
 107 0022 0020     		movs	r0, #0	@,
 108 0024 10BD     		pop	{r4, pc}	@
 109              	.L3:
 110 0026 00BF     		.align	2
 111              	.L2:
 112 0028 00000000 		.word	.LANCHOR0
 113 002c 00000000 		.word	.LC0
 114 0030 07000000 		.word	.LC1
 115              		.cfi_endproc
 116              	.LFE110:
 117              		.size	TWB_Sys_Init, .-TWB_Sys_Init
 118              		.align	1
 119              		.global	TWB_Sys_Get_ShouldForwardDebugToConsole
 120              		.thumb
 121              		.thumb_func
 122              		.type	TWB_Sys_Get_ShouldForwardDebugToConsole, %function
 123              	TWB_Sys_Get_ShouldForwardDebugToConsole:
 124              	.LFB111:
  31:.\src/nivek_system.c **** 
  32:.\src/nivek_system.c **** iOpResult_e TWB_Sys_Get_ShouldForwardDebugToConsole(ForwardDebugMessages_e *shoudForward){
 125              		.loc 1 32 0
 126              		.cfi_startproc
 127              		@ args = 0, pretend = 0, frame = 0
 128              		@ frame_needed = 0, uses_anonymous_args = 0
 129              	.LVL4:
 130 0034 10B5     		push	{r4, lr}	@
 131              	.LCFI1:
 132              		.cfi_def_cfa_offset 8
 133              		.cfi_offset 4, -8
 134              		.cfi_offset 14, -4
 135              		.loc 1 32 0
 136 0036 0446     		mov	r4, r0	@ shoudForward, shoudForward
  33:.\src/nivek_system.c **** 	assert_succeed(TWB_SE_ReadU8(FORWARD_DEBUG_MSG_VIA_USB_ADDRESS, shoudForward));
 137              		.loc 1 33 0
 138 0038 2146     		mov	r1, r4	@, shoudForward
ARM GAS  C:\Users\Kevin\AppData\Local\Temp\ccvEiSnJ.s 			page 4


 139 003a 42F21800 		movw	r0, #8216	@,
 140              	.LVL5:
 141 003e FFF7FEFF 		bl	TWB_SE_ReadU8	@
 142              	.LVL6:
 143 0042 30B1     		cbz	r0, .L5	@,
 144              		.loc 1 33 0 is_stmt 0 discriminator 1
 145 0044 42F21800 		movw	r0, #8216	@,
 146 0048 2146     		mov	r1, r4	@, shoudForward
  34:.\src/nivek_system.c **** 	return OK;
  35:.\src/nivek_system.c **** }
 147              		.loc 1 35 0 is_stmt 1 discriminator 1
 148 004a BDE81040 		pop	{r4, lr}	@
  33:.\src/nivek_system.c **** 	assert_succeed(TWB_SE_ReadU8(FORWARD_DEBUG_MSG_VIA_USB_ADDRESS, shoudForward));
 149              		.loc 1 33 0 discriminator 1
 150 004e FFF7FEBF 		b	TWB_SE_ReadU8	@
 151              	.LVL7:
 152              	.L5:
 153              		.loc 1 35 0
 154 0052 10BD     		pop	{r4, pc}	@
 155              		.cfi_endproc
 156              	.LFE111:
 157              		.size	TWB_Sys_Get_ShouldForwardDebugToConsole, .-TWB_Sys_Get_ShouldForwardDebugToConsole
 158              		.align	1
 159              		.global	TWB_Sys_Set_ShouldForwardDebugToConsole
 160              		.thumb
 161              		.thumb_func
 162              		.type	TWB_Sys_Set_ShouldForwardDebugToConsole, %function
 163              	TWB_Sys_Set_ShouldForwardDebugToConsole:
 164              	.LFB112:
  36:.\src/nivek_system.c **** 
  37:.\src/nivek_system.c **** iOpResult_e TWB_Sys_Set_ShouldForwardDebugToConsole(ForwardDebugMessages_e shoudForward){
 165              		.loc 1 37 0
 166              		.cfi_startproc
 167              		@ args = 0, pretend = 0, frame = 0
 168              		@ frame_needed = 0, uses_anonymous_args = 0
 169              	.LVL8:
 170 0054 10B5     		push	{r4, lr}	@
 171              	.LCFI2:
 172              		.cfi_def_cfa_offset 8
 173              		.cfi_offset 4, -8
 174              		.cfi_offset 14, -4
 175              		.loc 1 37 0
 176 0056 0446     		mov	r4, r0	@ shoudForward, shoudForward
  38:.\src/nivek_system.c **** 	assert_succeed(TWB_SE_WriteU8(FORWARD_DEBUG_MSG_VIA_USB_ADDRESS, shoudForward));
 177              		.loc 1 38 0
 178 0058 2146     		mov	r1, r4	@, shoudForward
 179 005a 42F21800 		movw	r0, #8216	@,
 180              	.LVL9:
 181 005e FFF7FEFF 		bl	TWB_SE_WriteU8	@
 182              	.LVL10:
 183 0062 30B1     		cbz	r0, .L7	@,
 184              		.loc 1 38 0 is_stmt 0 discriminator 1
 185 0064 42F21800 		movw	r0, #8216	@,
 186 0068 2146     		mov	r1, r4	@, shoudForward
  39:.\src/nivek_system.c **** 	return OK;
  40:.\src/nivek_system.c **** }
 187              		.loc 1 40 0 is_stmt 1 discriminator 1
ARM GAS  C:\Users\Kevin\AppData\Local\Temp\ccvEiSnJ.s 			page 5


 188 006a BDE81040 		pop	{r4, lr}	@
  38:.\src/nivek_system.c **** 	assert_succeed(TWB_SE_WriteU8(FORWARD_DEBUG_MSG_VIA_USB_ADDRESS, shoudForward));
 189              		.loc 1 38 0 discriminator 1
 190 006e FFF7FEBF 		b	TWB_SE_WriteU8	@
 191              	.LVL11:
 192              	.L7:
 193              		.loc 1 40 0
 194 0072 10BD     		pop	{r4, pc}	@
 195              		.cfi_endproc
 196              	.LFE112:
 197              		.size	TWB_Sys_Set_ShouldForwardDebugToConsole, .-TWB_Sys_Set_ShouldForwardDebugToConsole
 198              		.align	1
 199              		.global	TWB_Sys_GetBaudRate
 200              		.thumb
 201              		.thumb_func
 202              		.type	TWB_Sys_GetBaudRate, %function
 203              	TWB_Sys_GetBaudRate:
 204              	.LFB113:
  41:.\src/nivek_system.c **** 
  42:.\src/nivek_system.c **** 
  43:.\src/nivek_system.c **** iOpResult_e TWB_Sys_GetBaudRate(BaudRates_e *baud){
 205              		.loc 1 43 0
 206              		.cfi_startproc
 207              		@ args = 0, pretend = 0, frame = 0
 208              		@ frame_needed = 0, uses_anonymous_args = 0
 209              	.LVL12:
 210 0074 10B5     		push	{r4, lr}	@
 211              	.LCFI3:
 212              		.cfi_def_cfa_offset 8
 213              		.cfi_offset 4, -8
 214              		.cfi_offset 14, -4
 215              		.loc 1 43 0
 216 0076 0446     		mov	r4, r0	@ baud, baud
  44:.\src/nivek_system.c **** 	assert_succeed(TWB_SE_ReadU8(BAUD_RATE_ADDRESS, baud));
 217              		.loc 1 44 0
 218 0078 2146     		mov	r1, r4	@, baud
 219 007a 41F21800 		movw	r0, #4120	@,
 220              	.LVL13:
 221 007e FFF7FEFF 		bl	TWB_SE_ReadU8	@
 222              	.LVL14:
 223 0082 30B1     		cbz	r0, .L9	@,
 224              		.loc 1 44 0 is_stmt 0 discriminator 1
 225 0084 41F21800 		movw	r0, #4120	@,
 226 0088 2146     		mov	r1, r4	@, baud
  45:.\src/nivek_system.c **** 	return OK;
  46:.\src/nivek_system.c **** }
 227              		.loc 1 46 0 is_stmt 1 discriminator 1
 228 008a BDE81040 		pop	{r4, lr}	@
  44:.\src/nivek_system.c **** 	assert_succeed(TWB_SE_ReadU8(BAUD_RATE_ADDRESS, baud));
 229              		.loc 1 44 0 discriminator 1
 230 008e FFF7FEBF 		b	TWB_SE_ReadU8	@
 231              	.LVL15:
 232              	.L9:
 233              		.loc 1 46 0
 234 0092 10BD     		pop	{r4, pc}	@
 235              		.cfi_endproc
 236              	.LFE113:
ARM GAS  C:\Users\Kevin\AppData\Local\Temp\ccvEiSnJ.s 			page 6


 237              		.size	TWB_Sys_GetBaudRate, .-TWB_Sys_GetBaudRate
 238              		.align	1
 239              		.global	TWB_Sys_SetBaudRate
 240              		.thumb
 241              		.thumb_func
 242              		.type	TWB_Sys_SetBaudRate, %function
 243              	TWB_Sys_SetBaudRate:
 244              	.LFB114:
  47:.\src/nivek_system.c **** 
  48:.\src/nivek_system.c **** iOpResult_e TWB_Sys_SetBaudRate(BaudRates_e baud){
 245              		.loc 1 48 0
 246              		.cfi_startproc
 247              		@ args = 0, pretend = 0, frame = 0
 248              		@ frame_needed = 0, uses_anonymous_args = 0
 249              	.LVL16:
 250 0094 10B5     		push	{r4, lr}	@
 251              	.LCFI4:
 252              		.cfi_def_cfa_offset 8
 253              		.cfi_offset 4, -8
 254              		.cfi_offset 14, -4
 255              		.loc 1 48 0
 256 0096 0446     		mov	r4, r0	@ baud, baud
  49:.\src/nivek_system.c **** 	assert_succeed(TWB_SE_WriteU8(BAUD_RATE_ADDRESS, baud));
 257              		.loc 1 49 0
 258 0098 2146     		mov	r1, r4	@, baud
 259 009a 41F21800 		movw	r0, #4120	@,
 260              	.LVL17:
 261 009e FFF7FEFF 		bl	TWB_SE_WriteU8	@
 262              	.LVL18:
 263 00a2 30B1     		cbz	r0, .L11	@,
 264              		.loc 1 49 0 is_stmt 0 discriminator 1
 265 00a4 41F21800 		movw	r0, #4120	@,
 266 00a8 2146     		mov	r1, r4	@, baud
  50:.\src/nivek_system.c **** 	return OK;
  51:.\src/nivek_system.c **** }
 267              		.loc 1 51 0 is_stmt 1 discriminator 1
 268 00aa BDE81040 		pop	{r4, lr}	@
  49:.\src/nivek_system.c **** 	assert_succeed(TWB_SE_WriteU8(BAUD_RATE_ADDRESS, baud));
 269              		.loc 1 49 0 discriminator 1
 270 00ae FFF7FEBF 		b	TWB_SE_WriteU8	@
 271              	.LVL19:
 272              	.L11:
 273              		.loc 1 51 0
 274 00b2 10BD     		pop	{r4, pc}	@
 275              		.cfi_endproc
 276              	.LFE114:
 277              		.size	TWB_Sys_SetBaudRate, .-TWB_Sys_SetBaudRate
 278              		.align	1
 279              		.global	TWB_Sys_RestoreDefaults
 280              		.thumb
 281              		.thumb_func
 282              		.type	TWB_Sys_RestoreDefaults, %function
 283              	TWB_Sys_RestoreDefaults:
 284              	.LFB115:
  52:.\src/nivek_system.c **** 
  53:.\src/nivek_system.c **** iOpResult_e TWB_Sys_RestoreDefaults(void){
 285              		.loc 1 53 0
ARM GAS  C:\Users\Kevin\AppData\Local\Temp\ccvEiSnJ.s 			page 7


 286              		.cfi_startproc
 287              		@ args = 0, pretend = 0, frame = 0
 288              		@ frame_needed = 0, uses_anonymous_args = 0
 289              	.LVL20:
 290 00b4 38B5     		push	{r3, r4, r5, lr}	@
 291              	.LCFI5:
 292              		.cfi_def_cfa_offset 16
 293              		.cfi_offset 3, -16
 294              		.cfi_offset 4, -12
 295              		.cfi_offset 5, -8
 296              		.cfi_offset 14, -4
 297              	.LBB2:
  54:.\src/nivek_system.c **** 	for(uint8_t idx = 0; idx < NIVEK_NAME_SIZE;++idx)
  55:.\src/nivek_system.c **** 		NiVekName[idx] = 0x00;
 298              		.loc 1 55 0
 299 00b6 1849     		ldr	r1, .L19	@ tmp167,
 300              	.LBE2:
  53:.\src/nivek_system.c **** iOpResult_e TWB_Sys_RestoreDefaults(void){
 301              		.loc 1 53 0
 302 00b8 0024     		movs	r4, #0	@ D.9246,
 303              	.LBB3:
 304              		.loc 1 55 0
 305 00ba 2246     		mov	r2, r4	@ tmp168, D.9246
 306              	.LVL21:
 307              	.L13:
 308              		.loc 1 55 0 is_stmt 0 discriminator 2
 309 00bc 0B68     		ldr	r3, [r1, #0]	@ NiVekName, NiVekName
 310 00be 164D     		ldr	r5, .L19	@ tmp150,
 311 00c0 1A55     		strb	r2, [r3, r4]	@ tmp168, *D.9247_6
 312 00c2 0134     		adds	r4, r4, #1	@ D.9246, D.9246,
  54:.\src/nivek_system.c **** 	for(uint8_t idx = 0; idx < NIVEK_NAME_SIZE;++idx)
 313              		.loc 1 54 0 is_stmt 1 discriminator 2
 314 00c4 182C     		cmp	r4, #24	@ D.9246,
 315 00c6 F9D1     		bne	.L13	@,
 316              	.LBE3:
  56:.\src/nivek_system.c **** 
  57:.\src/nivek_system.c **** 	assert_succeed(TWB_SE_WriteBufferPause(NIVEK_NAME_OFFSET, NiVekName, NIVEK_NAME_SIZE));
 317              		.loc 1 57 0
 318 00c8 4FF48050 		mov	r0, #4096	@,
 319 00cc 2968     		ldr	r1, [r5, #0]	@, NiVekName
 320 00ce 2246     		mov	r2, r4	@, D.9246
 321 00d0 FFF7FEFF 		bl	TWB_SE_WriteBufferPause	@
 322              	.LVL22:
 323 00d4 38B1     		cbz	r0, .L14	@,
 324              		.loc 1 57 0 is_stmt 0 discriminator 1
 325 00d6 2968     		ldr	r1, [r5, #0]	@, NiVekName
 326 00d8 4FF48050 		mov	r0, #4096	@,
 327 00dc 2246     		mov	r2, r4	@, D.9246
  58:.\src/nivek_system.c **** 	assert_succeed(TWB_SE_WriteU8Pause(BAUD_RATE_ADDRESS, Baud_230400));
  59:.\src/nivek_system.c **** 	assert_succeed(TWB_SE_WriteU8Pause(FORWARD_DEBUG_MSG_VIA_USB_ADDRESS, ForwardDebugMessages_Off));
  60:.\src/nivek_system.c **** 
  61:.\src/nivek_system.c **** 	return OK;
  62:.\src/nivek_system.c **** }
 328              		.loc 1 62 0 is_stmt 1 discriminator 1
 329 00de BDE83840 		pop	{r3, r4, r5, lr}	@
  57:.\src/nivek_system.c **** 	assert_succeed(TWB_SE_WriteBufferPause(NIVEK_NAME_OFFSET, NiVekName, NIVEK_NAME_SIZE));
 330              		.loc 1 57 0 discriminator 1
ARM GAS  C:\Users\Kevin\AppData\Local\Temp\ccvEiSnJ.s 			page 8


 331 00e2 FFF7FEBF 		b	TWB_SE_WriteBufferPause	@
 332              	.LVL23:
 333              	.L14:
  58:.\src/nivek_system.c **** 	assert_succeed(TWB_SE_WriteU8Pause(BAUD_RATE_ADDRESS, Baud_230400));
 334              		.loc 1 58 0
 335 00e6 41F21800 		movw	r0, #4120	@,
 336 00ea 0221     		movs	r1, #2	@,
 337 00ec FFF7FEFF 		bl	TWB_SE_WriteU8Pause	@
 338              	.LVL24:
 339 00f0 0446     		mov	r4, r0	@ tmp159,
 340 00f2 18B1     		cbz	r0, .L15	@ tmp159,
  58:.\src/nivek_system.c **** 	assert_succeed(TWB_SE_WriteU8Pause(BAUD_RATE_ADDRESS, Baud_230400));
 341              		.loc 1 58 0 is_stmt 0 discriminator 1
 342 00f4 41F21800 		movw	r0, #4120	@,
 343 00f8 0221     		movs	r1, #2	@,
 344 00fa 08E0     		b	.L18	@
 345              	.L15:
  59:.\src/nivek_system.c **** 	assert_succeed(TWB_SE_WriteU8Pause(FORWARD_DEBUG_MSG_VIA_USB_ADDRESS, ForwardDebugMessages_Off));
 346              		.loc 1 59 0 is_stmt 1
 347 00fc 42F21800 		movw	r0, #8216	@,
 348 0100 2146     		mov	r1, r4	@, tmp159
 349 0102 FFF7FEFF 		bl	TWB_SE_WriteU8Pause	@
 350              	.LVL25:
 351 0106 30B1     		cbz	r0, .L16	@,
  59:.\src/nivek_system.c **** 	assert_succeed(TWB_SE_WriteU8Pause(FORWARD_DEBUG_MSG_VIA_USB_ADDRESS, ForwardDebugMessages_Off));
 352              		.loc 1 59 0 is_stmt 0 discriminator 1
 353 0108 42F21800 		movw	r0, #8216	@,
 354 010c 2146     		mov	r1, r4	@, tmp159
 355              	.L18:
 356              		.loc 1 62 0 is_stmt 1 discriminator 1
 357 010e BDE83840 		pop	{r3, r4, r5, lr}	@
  59:.\src/nivek_system.c **** 	assert_succeed(TWB_SE_WriteU8Pause(FORWARD_DEBUG_MSG_VIA_USB_ADDRESS, ForwardDebugMessages_Off));
 358              		.loc 1 59 0 discriminator 1
 359 0112 FFF7FEBF 		b	TWB_SE_WriteU8Pause	@
 360              	.LVL26:
 361              	.L16:
 362              		.loc 1 62 0
 363 0116 38BD     		pop	{r3, r4, r5, pc}	@
 364              	.L20:
 365              		.align	2
 366              	.L19:
 367 0118 00000000 		.word	.LANCHOR0
 368              		.cfi_endproc
 369              	.LFE115:
 370              		.size	TWB_Sys_RestoreDefaults, .-TWB_Sys_RestoreDefaults
 371              		.align	1
 372              		.global	TWB_Sys_HandleMessage
 373              		.thumb
 374              		.thumb_func
 375              		.type	TWB_Sys_HandleMessage, %function
 376              	TWB_Sys_HandleMessage:
 377              	.LFB116:
  63:.\src/nivek_system.c **** 
  64:.\src/nivek_system.c **** iOpResult_e TWB_Sys_HandleMessage(TWB_Commo_Message_t *msg) {
 378              		.loc 1 64 0
 379              		.cfi_startproc
 380              		@ args = 0, pretend = 0, frame = 0
ARM GAS  C:\Users\Kevin\AppData\Local\Temp\ccvEiSnJ.s 			page 9


 381              		@ frame_needed = 0, uses_anonymous_args = 0
 382              	.LVL27:
 383 011c 10B5     		push	{r4, lr}	@
 384              	.LCFI6:
 385              		.cfi_def_cfa_offset 8
 386              		.cfi_offset 4, -8
 387              		.cfi_offset 14, -4
  65:.\src/nivek_system.c **** 	switch(msg->TypeId){
 388              		.loc 1 65 0
 389 011e 8378     		ldrb	r3, [r0, #2]	@ zero_extendqisi2	@ D.9219, msg_2(D)->TypeId
 390 0120 C82B     		cmp	r3, #200	@ D.9219,
  64:.\src/nivek_system.c **** iOpResult_e TWB_Sys_HandleMessage(TWB_Commo_Message_t *msg) {
 391              		.loc 1 64 0
 392 0122 0446     		mov	r4, r0	@ msg, msg
 393              		.loc 1 65 0
 394 0124 32D0     		beq	.L24	@,
 395 0126 04D8     		bhi	.L26	@,
 396 0128 A3F16402 		sub	r2, r3, #100	@ tmp162, D.9219,
 397 012c 012A     		cmp	r2, #1	@ tmp162,
 398 012e 58D8     		bhi	.L22	@,
 399 0130 02E0     		b	.L36	@
 400              	.L26:
 401 0132 C92B     		cmp	r3, #201	@ D.9219,
 402 0134 55D1     		bne	.L22	@,
 403 0136 4DE0     		b	.L25	@
 404              	.L36:
  66:.\src/nivek_system.c **** 		case MSG_PING:
  67:.\src/nivek_system.c **** 		case MSG_WELCOME_PING:
  68:.\src/nivek_system.c **** 			//If we were previously disconnected make sure
  69:.\src/nivek_system.c **** 			//Send a welcome ping and set connection status.
  70:.\src/nivek_system.c **** 			if(msg->TypeId == MSG_WELCOME_PING){
 405              		.loc 1 70 0
 406 0138 652B     		cmp	r3, #101	@ D.9219,
 407 013a 08D1     		bne	.L27	@,
  71:.\src/nivek_system.c **** 				TWB_Debug_Print("WiFi Connected, send welcome ping\r\n");
 408              		.loc 1 71 0
 409 013c 2A48     		ldr	r0, .L37	@,
 410              	.LVL28:
 411 013e FFF7FEFF 		bl	TWB_Debug_Print	@
 412              	.LVL29:
  72:.\src/nivek_system.c **** 				TWB_Commo_SendMessage(MOD_System, MSG_PING, null, 0);
 413              		.loc 1 72 0
 414 0142 6420     		movs	r0, #100	@,
 415 0144 0022     		movs	r2, #0	@,
 416 0146 0146     		mov	r1, r0	@,
 417 0148 1346     		mov	r3, r2	@,
 418 014a FFF7FEFF 		bl	TWB_Commo_SendMessage	@
 419              	.LVL30:
 420              	.L27:
  73:.\src/nivek_system.c **** 			}
  74:.\src/nivek_system.c **** 
  75:.\src/nivek_system.c **** 			//Along with the Ping comes settings for control inputs.
  76:.\src/nivek_system.c **** 			WiFiThrottle = msg->MsgBuffer[0];
 421              		.loc 1 76 0
 422 014e E368     		ldr	r3, [r4, #12]	@ D.9223, msg_2(D)->MsgBuffer
 423 0150 264A     		ldr	r2, .L37+4	@ tmp166,
 424 0152 1978     		ldrb	r1, [r3, #0]	@ zero_extendqisi2	@ WiFiThrottle.0, *D.9223_6
ARM GAS  C:\Users\Kevin\AppData\Local\Temp\ccvEiSnJ.s 			page 10


 425              	.LVL31:
  77:.\src/nivek_system.c **** 			WiFiPitch = msg->MsgBuffer[1];
  78:.\src/nivek_system.c **** 			WiFiRoll = msg->MsgBuffer[2];
  79:.\src/nivek_system.c **** 			WiFiYaw = msg->MsgBuffer[3];
  80:.\src/nivek_system.c **** 
  81:.\src/nivek_system.c **** 			TWB_Timer_Enable(WiFiInWatchDog);
  82:.\src/nivek_system.c **** 			WiFiIsConnected = WiFiConnected;
 426              		.loc 1 82 0
 427 0154 264C     		ldr	r4, .L37+8	@ tmp178,
 428              	.LVL32:
  76:.\src/nivek_system.c **** 			WiFiThrottle = msg->MsgBuffer[0];
 429              		.loc 1 76 0
 430 0156 1170     		strb	r1, [r2, #0]	@ WiFiThrottle.0, WiFiThrottle
  77:.\src/nivek_system.c **** 			WiFiPitch = msg->MsgBuffer[1];
 431              		.loc 1 77 0
 432 0158 5978     		ldrb	r1, [r3, #1]	@ zero_extendqisi2	@ MEM[(uint8_t *)D.9223_6 + 1B], MEM[(uint8_t *)D.9223_6 + 1B
 433              	.LVL33:
 434 015a 264A     		ldr	r2, .L37+12	@ tmp168,
 435 015c 1170     		strb	r1, [r2, #0]	@ MEM[(uint8_t *)D.9223_6 + 1B], WiFiPitch
  78:.\src/nivek_system.c **** 			WiFiRoll = msg->MsgBuffer[2];
 436              		.loc 1 78 0
 437 015e 9978     		ldrb	r1, [r3, #2]	@ zero_extendqisi2	@ MEM[(uint8_t *)D.9223_6 + 2B], MEM[(uint8_t *)D.9223_6 + 2B
 438 0160 254A     		ldr	r2, .L37+16	@ tmp171,
 439 0162 1170     		strb	r1, [r2, #0]	@ MEM[(uint8_t *)D.9223_6 + 2B], WiFiRoll
  79:.\src/nivek_system.c **** 			WiFiYaw = msg->MsgBuffer[3];
 440              		.loc 1 79 0
 441 0164 DA78     		ldrb	r2, [r3, #3]	@ zero_extendqisi2	@ MEM[(uint8_t *)D.9223_6 + 3B], MEM[(uint8_t *)D.9223_6 + 3B
 442 0166 254B     		ldr	r3, .L37+20	@ tmp174,
 443 0168 1A70     		strb	r2, [r3, #0]	@ MEM[(uint8_t *)D.9223_6 + 3B], WiFiYaw
  81:.\src/nivek_system.c **** 			TWB_Timer_Enable(WiFiInWatchDog);
 444              		.loc 1 81 0
 445 016a 254B     		ldr	r3, .L37+24	@ tmp177,
 446 016c 1868     		ldr	r0, [r3, #0]	@, WiFiInWatchDog
 447 016e FFF7FEFF 		bl	TWB_Timer_Enable	@
 448              	.LVL34:
  83:.\src/nivek_system.c **** 			TWB_LEDS_SetState(LED_WiFi_Connected, LED_On);
 449              		.loc 1 83 0
 450 0172 0020     		movs	r0, #0	@,
  82:.\src/nivek_system.c **** 			WiFiIsConnected = WiFiConnected;
 451              		.loc 1 82 0
 452 0174 FF23     		movs	r3, #255	@ tmp179,
 453              		.loc 1 83 0
 454 0176 0146     		mov	r1, r0	@,
  82:.\src/nivek_system.c **** 			WiFiIsConnected = WiFiConnected;
 455              		.loc 1 82 0
 456 0178 2370     		strb	r3, [r4, #0]	@ tmp179, WiFiIsConnected
 457              		.loc 1 83 0
 458 017a FFF7FEFF 		bl	TWB_LEDS_SetState	@
 459              	.LVL35:
  84:.\src/nivek_system.c **** 
  85:.\src/nivek_system.c **** 			if(WiFiIsConnected == WiFiDisconnected)
 460              		.loc 1 85 0
 461 017e 2378     		ldrb	r3, [r4, #0]	@ zero_extendqisi2	@ WiFiIsConnected, WiFiIsConnected
 462 0180 002B     		cmp	r3, #0	@ WiFiIsConnected
 463 0182 2ED1     		bne	.L22	@
  86:.\src/nivek_system.c **** 				TWB_Debug_Print("\r\nTelemetry Connected\r\n\r\n");
 464              		.loc 1 86 0
ARM GAS  C:\Users\Kevin\AppData\Local\Temp\ccvEiSnJ.s 			page 11


 465 0184 1F48     		ldr	r0, .L37+28	@,
 466 0186 FFF7FEFF 		bl	TWB_Debug_Print	@
 467              	.LVL36:
 468 018a 2AE0     		b	.L22	@
 469              	.LVL37:
 470              	.L24:
  87:.\src/nivek_system.c **** 
  88:.\src/nivek_system.c **** 		break;
  89:.\src/nivek_system.c **** 		case MSG_SET_NAME:
  90:.\src/nivek_system.c **** 			memcpy(NiVekName, msg->MsgBuffer, NIVEK_NAME_SIZE);
 471              		.loc 1 90 0
 472 018c 1E4A     		ldr	r2, .L37+32	@ tmp184,
 473 018e C368     		ldr	r3, [r0, #12]	@ msg_2(D)->MsgBuffer, msg_2(D)->MsgBuffer
 474 0190 1268     		ldr	r2, [r2, #0]	@ NiVekName, NiVekName
 475 0192 03F11801 		add	r1, r3, #24	@ tmp189, msg_2(D)->MsgBuffer,
 476              	.LVL38:
 477              	.L29:
 478 0196 53F8040B 		ldr	r0, [r3], #4	@ unaligned	@ tmp190,
 479 019a 8B42     		cmp	r3, r1	@ msg_2(D)->MsgBuffer, tmp189
 480 019c 42F8040B 		str	r0, [r2], #4	@ unaligned	@ tmp190,
 481 01a0 F9D1     		bne	.L29	@,
  91:.\src/nivek_system.c **** 
  92:.\src/nivek_system.c **** 			TWB_Debug_Print("NiVek's new name: ");
 482              		.loc 1 92 0
 483 01a2 1A48     		ldr	r0, .L37+36	@,
 484 01a4 FFF7FEFF 		bl	TWB_Debug_Print	@
 485              	.LVL39:
  93:.\src/nivek_system.c **** 			TWB_Debug_Print((const char *)NiVekName);
 486              		.loc 1 93 0
 487 01a8 174B     		ldr	r3, .L37+32	@ tmp194,
 488 01aa 1868     		ldr	r0, [r3, #0]	@, NiVekName
 489 01ac FFF7FEFF 		bl	TWB_Debug_Print	@
 490              	.LVL40:
  94:.\src/nivek_system.c **** 			TWB_Debug_Print("\r\n");
 491              		.loc 1 94 0
 492 01b0 1748     		ldr	r0, .L37+40	@,
 493 01b2 FFF7FEFF 		bl	TWB_Debug_Print	@
 494              	.LVL41:
  95:.\src/nivek_system.c **** 			assert_succeed(TWB_SE_WriteBuffer(NIVEK_NAME_OFFSET, msg->MsgBuffer, NIVEK_NAME_SIZE));
 495              		.loc 1 95 0
 496 01b6 4FF48050 		mov	r0, #4096	@,
 497 01ba E168     		ldr	r1, [r4, #12]	@, msg_2(D)->MsgBuffer
 498 01bc 1822     		movs	r2, #24	@,
 499 01be FFF7FEFF 		bl	TWB_SE_WriteBuffer	@
 500              	.LVL42:
 501 01c2 70B1     		cbz	r0, .L22	@,
 502              		.loc 1 95 0 is_stmt 0 discriminator 1
 503 01c4 E168     		ldr	r1, [r4, #12]	@, msg_2(D)->MsgBuffer
 504 01c6 4FF48050 		mov	r0, #4096	@,
 505 01ca 1822     		movs	r2, #24	@,
  96:.\src/nivek_system.c **** 			break;
  97:.\src/nivek_system.c **** 		case MSG_GET_NAME:
  98:.\src/nivek_system.c **** 			TWB_Commo_SendMessage(MOD_System, MSG_NIVEK_NAME, NiVekName, NIVEK_NAME_SIZE);
  99:.\src/nivek_system.c **** 
 100:.\src/nivek_system.c **** 			break;
 101:.\src/nivek_system.c **** 	}
 102:.\src/nivek_system.c **** 
ARM GAS  C:\Users\Kevin\AppData\Local\Temp\ccvEiSnJ.s 			page 12


 103:.\src/nivek_system.c **** 	return OK;
 104:.\src/nivek_system.c **** }
 506              		.loc 1 104 0 is_stmt 1 discriminator 1
 507 01cc BDE81040 		pop	{r4, lr}	@
  95:.\src/nivek_system.c **** 			assert_succeed(TWB_SE_WriteBuffer(NIVEK_NAME_OFFSET, msg->MsgBuffer, NIVEK_NAME_SIZE));
 508              		.loc 1 95 0 discriminator 1
 509 01d0 FFF7FEBF 		b	TWB_SE_WriteBuffer	@
 510              	.LVL43:
 511              	.L25:
  98:.\src/nivek_system.c **** 			TWB_Commo_SendMessage(MOD_System, MSG_NIVEK_NAME, NiVekName, NIVEK_NAME_SIZE);
 512              		.loc 1 98 0
 513 01d4 0C4B     		ldr	r3, .L37+32	@ tmp198,
 514 01d6 6420     		movs	r0, #100	@,
 515              	.LVL44:
 516 01d8 1A68     		ldr	r2, [r3, #0]	@, NiVekName
 517 01da C821     		movs	r1, #200	@,
 518 01dc 1823     		movs	r3, #24	@,
 519 01de FFF7FEFF 		bl	TWB_Commo_SendMessage	@
 520              	.LVL45:
 521              	.L22:
 522              		.loc 1 104 0
 523 01e2 0020     		movs	r0, #0	@,
 524 01e4 10BD     		pop	{r4, pc}	@
 525              	.L38:
 526 01e6 00BF     		.align	2
 527              	.L37:
 528 01e8 0A000000 		.word	.LC2
 529 01ec 00000000 		.word	WiFiThrottle
 530 01f0 00000000 		.word	WiFiIsConnected
 531 01f4 00000000 		.word	WiFiPitch
 532 01f8 00000000 		.word	WiFiRoll
 533 01fc 00000000 		.word	WiFiYaw
 534 0200 00000000 		.word	WiFiInWatchDog
 535 0204 2E000000 		.word	.LC3
 536 0208 00000000 		.word	.LANCHOR0
 537 020c 48000000 		.word	.LC4
 538 0210 07000000 		.word	.LC1
 539              		.cfi_endproc
 540              	.LFE116:
 541              		.size	TWB_Sys_HandleMessage, .-TWB_Sys_HandleMessage
 542              		.global	StartupPhase
 543              		.global	NiVekName
 544              		.section	.rodata.str1.1,"aMS",%progbits,1
 545              	.LC0:
 546 0000 4E616D65 		.ascii	"Name: \000"
 546      3A2000
 547              	.LC1:
 548 0007 0D0A00   		.ascii	"\015\012\000"
 549              	.LC2:
 550 000a 57694669 		.ascii	"WiFi Connected, send welcome ping\015\012\000"
 550      20436F6E 
 550      6E656374 
 550      65642C20 
 550      73656E64 
 551              	.LC3:
 552 002e 0D0A5465 		.ascii	"\015\012Telemetry Connected\015\012\015\012\000"
 552      6C656D65 
ARM GAS  C:\Users\Kevin\AppData\Local\Temp\ccvEiSnJ.s 			page 13


 552      74727920 
 552      436F6E6E 
 552      65637465 
 553              	.LC4:
 554 0048 4E695665 		.ascii	"NiVek's new name: \000"
 554      6B277320 
 554      6E657720 
 554      6E616D65 
 554      3A2000
 555              		.data
 556              		.type	StartupPhase, %object
 557              		.size	StartupPhase, 1
 558              	StartupPhase:
 559 0000 FF       		.byte	-1
 560              		.bss
 561              		.align	2
 562              		.set	.LANCHOR0,. + 0
 563              		.type	NiVekName, %object
 564              		.size	NiVekName, 4
 565              	NiVekName:
 566 0000 00000000 		.space	4
 567              		.text
 568              	.Letext0:
 569              		.file 2 "k:\\electronics\\gcc\\bin\\../lib/gcc/arm-none-eabi/4.7.2/../../../../arm-none-eabi/inclu
 570              		.file 3 ".\\inc/twb_config.h"
 571              		.file 4 ".\\inc\\common/twb_common.h"
 572              		.file 5 ".\\inc/commo/message_ids.h"
 573              		.file 6 ".\\inc/common/twb_timer.h"
 574              		.file 7 ".\\inc\\commo/commo.h"
 575              		.file 8 ".\\inc/commo/wifi.h"
 576              		.file 9 ".\\inc/common/twb_debug.h"
 577              		.file 10 ".\\inc/common/twb_leds.h"
 578              		.file 11 ".\\inc/core_cm4.h"
 579              		.file 12 ".\\inc/common/twb_serial_eeprom.h"