ARM GAS  C:\Users\Kevin\AppData\Local\Temp\cchDF9HP.s 			page 1


   1              		.syntax unified
   2              		.cpu cortex-m4
   3              		.eabi_attribute 27, 3	@ Tag_ABI_HardFP_use
   4              		.eabi_attribute 28, 1	@ Tag_ABI_VFP_args
   5              		.fpu fpv4-sp-d16
   6              		.eabi_attribute 20, 1	@ Tag_ABI_FP_denormal
   7              		.eabi_attribute 21, 1	@ Tag_ABI_FP_exceptions
   8              		.eabi_attribute 23, 3	@ Tag_ABI_FP_number_model
   9              		.eabi_attribute 24, 1	@ Tag_ABI_align8_needed
  10              		.eabi_attribute 25, 1	@ Tag_ABI_align8_preserved
  11              		.eabi_attribute 26, 1	@ Tag_ABI_enum_size
  12              		.eabi_attribute 30, 4	@ Tag_ABI_optimization_goals
  13              		.eabi_attribute 34, 1	@ Tag_CPU_unaligned_access
  14              		.eabi_attribute 18, 4	@ Tag_ABI_PCS_wchar_t
  15              		.file	"stm32f4xx_it.c"
  16              	@ GNU C (Sourcery CodeBench Lite 2012.09-63) version 4.7.2 (arm-none-eabi)
  17              	@	compiled by GNU C version 4.3.2, GMP version 5.0.5, MPFR version 3.1.1-p2, MPC version 1.0.1
  18              	@ GGC heuristics: --param ggc-min-expand=100 --param ggc-min-heapsize=131072
  19              	@ options passed:  -I . -I \STMSPINCDDIR -I .\stm32f4periph\inc
  20              	@ -I .\CMSIS\Include -I .\inc\commo\usb -I .\inc\commo -I .\inc\common
  21              	@ -I .\inc -imultilib thumb2
  22              	@ -iprefix k:\electronics\gcc\bin\../lib/gcc/arm-none-eabi/4.7.2/
  23              	@ -isysroot k:\electronics\gcc\bin\../arm-none-eabi
  24              	@ -MD .\src\stm32f4xx_it.d -MF .dep\stm32f4xx_it.o.d -MP
  25              	@ -MQ .\src\stm32f4xx_it.o -D__USES_INITFINI__ -D STM32F0XX
  26              	@ -D USE_STDPERIPH_DRIVER -D RUN_FROM_FLASH=1
  27              	@ -D __CS_SOURCERYGXX_MAJ__=2012 -D __CS_SOURCERYGXX_MIN__=9
  28              	@ -D __CS_SOURCERYGXX_REV__=63 .\src\stm32f4xx_it.c -mcpu=cortex-m4
  29              	@ -mfpu=fpv4-sp-d16 -mfloat-abi=hard -mthumb
  30              	@ -auxbase-strip .\src\stm32f4xx_it.o -gdwarf-2 -Os -Wall
  31              	@ -Wstrict-prototypes -std=gnu99 -fomit-frame-pointer -fverbose-asm
  32              	@ options enabled:  -fauto-inc-dec -fbranch-count-reg -fcaller-saves
  33              	@ -fcombine-stack-adjustments -fcommon -fcompare-elim -fcprop-registers
  34              	@ -fcrossjumping -fcse-follow-jumps -fdebug-types-section -fdefer-pop
  35              	@ -fdelete-null-pointer-checks -fdevirtualize -fdwarf2-cfi-asm
  36              	@ -fearly-inlining -feliminate-unused-debug-types -fexpensive-optimizations
  37              	@ -fextension-elimination -fforward-propagate -ffunction-cse -fgcse
  38              	@ -fgcse-lm -fgnu-runtime -fguess-branch-probability -fident
  39              	@ -fif-conversion -fif-conversion2 -findirect-inlining -finline
  40              	@ -finline-atomics -finline-functions -finline-functions-called-once
  41              	@ -finline-small-functions -fipa-cp -fipa-profile -fipa-pure-const
  42              	@ -fipa-reference -fipa-sra -fira-share-save-slots -fira-share-spill-slots
  43              	@ -fivopts -fkeep-static-consts -fleading-underscore -fmath-errno
  44              	@ -fmerge-constants -fmerge-debug-strings -fmove-loop-invariants
  45              	@ -fomit-frame-pointer -foptimize-register-move -foptimize-sibling-calls
  46              	@ -fpartial-inlining -fpeephole -fpeephole2 -fprefetch-loop-arrays
  47              	@ -freg-struct-return -fregmove -freorder-blocks -freorder-functions
  48              	@ -frerun-cse-after-loop -fsched-critical-path-heuristic
  49              	@ -fsched-dep-count-heuristic -fsched-group-heuristic -fsched-interblock
  50              	@ -fsched-last-insn-heuristic -fsched-rank-heuristic -fsched-spec
  51              	@ -fsched-spec-insn-heuristic -fsched-stalled-insns-dep -fschedule-insns2
  52              	@ -fsection-anchors -fshow-column -fshrink-wrap -fsigned-zeros
  53              	@ -fsplit-ivs-in-unroller -fsplit-wide-types -fstrict-aliasing
  54              	@ -fstrict-overflow -fstrict-volatile-bitfields -fthread-jumps
  55              	@ -ftoplevel-reorder -ftrapping-math -ftree-bit-ccp -ftree-builtin-call-dce
  56              	@ -ftree-ccp -ftree-ch -ftree-copy-prop -ftree-copyrename -ftree-cselim
  57              	@ -ftree-dce -ftree-dominator-opts -ftree-dse -ftree-forwprop -ftree-fre
ARM GAS  C:\Users\Kevin\AppData\Local\Temp\cchDF9HP.s 			page 2


  58              	@ -ftree-if-to-switch-conversion -ftree-loop-if-convert -ftree-loop-im
  59              	@ -ftree-loop-ivcanon -ftree-loop-optimize -ftree-parallelize-loops=
  60              	@ -ftree-phiprop -ftree-pre -ftree-pta -ftree-reassoc -ftree-scev-cprop
  61              	@ -ftree-sink -ftree-slp-vectorize -ftree-sra -ftree-switch-conversion
  62              	@ -ftree-tail-merge -ftree-ter -ftree-vect-loop-version -ftree-vrp
  63              	@ -funit-at-a-time -fvar-tracking -fvar-tracking-assignments -fverbose-asm
  64              	@ -fzero-initialized-in-bss -mlittle-endian -msched-prolog -mthumb
  65              	@ -munaligned-access -mvectorize-with-neon-quad
  66              	
  67              		.text
  68              	.Ltext0:
  69              		.cfi_sections	.debug_frame
  70              		.align	1
  71              		.global	NMI_Handler
  72              		.thumb
  73              		.thumb_func
  74              		.type	NMI_Handler, %function
  75              	NMI_Handler:
  76              	.LFB110:
  77              		.file 1 ".\\src\\stm32f4xx_it.c"
   1:.\src/stm32f4xx_it.c **** #include "stdio.h"
   2:.\src/stm32f4xx_it.c **** #include "common/twb_common.h"
   3:.\src/stm32f4xx_it.c **** 
   4:.\src/stm32f4xx_it.c **** #include "sensors/gps.h"
   5:.\src/stm32f4xx_it.c **** #include "sensors/snsr_main.h"
   6:.\src/stm32f4xx_it.c **** #include "sensors/bmp085.h"
   7:.\src/stm32f4xx_it.c **** #include "system/cli.h"
   8:.\src/stm32f4xx_it.c **** #include "commo/msg_parser.h"
   9:.\src/stm32f4xx_it.c **** #include "commo/wifi.h"
  10:.\src/stm32f4xx_it.c **** 
  11:.\src/stm32f4xx_it.c **** #include "common/twb_debug.h"
  12:.\src/stm32f4xx_it.c **** #include "common/twb_timer.h"
  13:.\src/stm32f4xx_it.c **** 
  14:.\src/stm32f4xx_it.c **** #include "flight/pwm_capture.h"
  15:.\src/stm32f4xx_it.c **** 
  16:.\src/stm32f4xx_it.c **** /* Handle the really important stuff */
  17:.\src/stm32f4xx_it.c **** void NMI_Handler(void){
  78              		.loc 1 17 0
  79              		.cfi_startproc
  80              		@ args = 0, pretend = 0, frame = 0
  81              		@ frame_needed = 0, uses_anonymous_args = 0
  82 0000 08B5     		push	{r3, lr}	@
  83              	.LCFI0:
  84              		.cfi_def_cfa_offset 8
  85              		.cfi_offset 3, -8
  86              		.cfi_offset 14, -4
  18:.\src/stm32f4xx_it.c **** 	 if (RCC_GetITStatus(RCC_IT_CSS) != RESET)    {
  87              		.loc 1 18 0
  88 0002 8020     		movs	r0, #128	@,
  89 0004 FFF7FEFF 		bl	RCC_GetITStatus	@
  90              	.LVL0:
  91 0008 78B1     		cbz	r0, .L1	@,
  19:.\src/stm32f4xx_it.c **** 		 /* At this stage: HSE, PLL are disabled (but no change on PLL config) and HSI        is selected
  20:.\src/stm32f4xx_it.c **** 		 /* Enable HSE */
  21:.\src/stm32f4xx_it.c **** 		 RCC_HSEConfig( RCC_HSE_ON);
  92              		.loc 1 21 0
  93 000a 0120     		movs	r0, #1	@,
ARM GAS  C:\Users\Kevin\AppData\Local\Temp\cchDF9HP.s 			page 3


  94 000c FFF7FEFF 		bl	RCC_HSEConfig	@
  95              	.LVL1:
  22:.\src/stm32f4xx_it.c **** 		 /* Enable HSE Ready interrupt */
  23:.\src/stm32f4xx_it.c **** 		 RCC_ITConfig(RCC_IT_HSERDY, ENABLE);
  96              		.loc 1 23 0
  97 0010 0820     		movs	r0, #8	@,
  98 0012 0121     		movs	r1, #1	@,
  99 0014 FFF7FEFF 		bl	RCC_ITConfig	@
 100              	.LVL2:
  24:.\src/stm32f4xx_it.c **** 		 /* Enable PLL Ready interrupt */
  25:.\src/stm32f4xx_it.c **** 		 RCC_ITConfig(RCC_IT_PLLRDY, ENABLE);        /* Clear Clock Security System interrupt pending bit
 101              		.loc 1 25 0
 102 0018 1020     		movs	r0, #16	@,
 103 001a 0121     		movs	r1, #1	@,
 104 001c FFF7FEFF 		bl	RCC_ITConfig	@
 105              	.LVL3:
  26:.\src/stm32f4xx_it.c **** 		 RCC_ClearITPendingBit( RCC_IT_CSS);
 106              		.loc 1 26 0
 107 0020 8020     		movs	r0, #128	@,
  27:.\src/stm32f4xx_it.c **** 	 }
  28:.\src/stm32f4xx_it.c **** }
 108              		.loc 1 28 0
 109 0022 BDE80840 		pop	{r3, lr}	@
  26:.\src/stm32f4xx_it.c **** 		 RCC_ClearITPendingBit( RCC_IT_CSS);
 110              		.loc 1 26 0
 111 0026 FFF7FEBF 		b	RCC_ClearITPendingBit	@
 112              	.LVL4:
 113              	.L1:
 114 002a 08BD     		pop	{r3, pc}	@
 115              		.cfi_endproc
 116              	.LFE110:
 117              		.size	NMI_Handler, .-NMI_Handler
 118              		.align	1
 119              		.global	__sendChSync
 120              		.thumb
 121              		.thumb_func
 122              		.type	__sendChSync, %function
 123              	__sendChSync:
 124              	.LFB111:
  29:.\src/stm32f4xx_it.c **** 
  30:.\src/stm32f4xx_it.c **** 
  31:.\src/stm32f4xx_it.c **** extern char *__hexLookup;
  32:.\src/stm32f4xx_it.c **** 
  33:.\src/stm32f4xx_it.c **** void __sendChSync(const char ch){
 125              		.loc 1 33 0
 126              		.cfi_startproc
 127              		@ args = 0, pretend = 0, frame = 0
 128              		@ frame_needed = 0, uses_anonymous_args = 0
 129              	.LVL5:
 130 002c 0146     		mov	r1, r0	@ ch, ch
 131 002e 08B5     		push	{r3, lr}	@
 132              	.LCFI1:
 133              		.cfi_def_cfa_offset 8
 134              		.cfi_offset 3, -8
 135              		.cfi_offset 14, -4
  34:.\src/stm32f4xx_it.c **** 	USART_SendData(USART1, ch);
 136              		.loc 1 34 0
ARM GAS  C:\Users\Kevin\AppData\Local\Temp\cchDF9HP.s 			page 4


 137 0030 0548     		ldr	r0, .L9	@,
 138              	.LVL6:
 139 0032 FFF7FEFF 		bl	USART_SendData	@
 140              	.LVL7:
  35:.\src/stm32f4xx_it.c **** 	while(!(USART1->SR & 0x00000040));
 141              		.loc 1 35 0
 142 0036 044A     		ldr	r2, .L9	@ tmp144,
 143              	.L4:
 144              		.loc 1 35 0 is_stmt 0 discriminator 1
 145 0038 1388     		ldrh	r3, [r2, #0]	@, MEM[(struct USART_TypeDef *)1073811456B].SR
 146 003a 03F04003 		and	r3, r3, #64	@ tmp142, MEM[(struct USART_TypeDef *)1073811456B].SR,
 147 003e 9BB2     		uxth	r3, r3	@ tmp143, tmp142
 148 0040 002B     		cmp	r3, #0	@ tmp143
 149 0042 F9D0     		beq	.L4	@
  36:.\src/stm32f4xx_it.c **** }
 150              		.loc 1 36 0 is_stmt 1
 151 0044 08BD     		pop	{r3, pc}	@
 152              	.L10:
 153 0046 00BF     		.align	2
 154              	.L9:
 155 0048 00100140 		.word	1073811456
 156              		.cfi_endproc
 157              	.LFE111:
 158              		.size	__sendChSync, .-__sendChSync
 159              		.align	1
 160              		.global	__printHexByteSync
 161              		.thumb
 162              		.thumb_func
 163              		.type	__printHexByteSync, %function
 164              	__printHexByteSync:
 165              	.LFB112:
  37:.\src/stm32f4xx_it.c **** 
  38:.\src/stm32f4xx_it.c **** void __printHexByteSync(uint8_t byte) {
 166              		.loc 1 38 0
 167              		.cfi_startproc
 168              		@ args = 0, pretend = 0, frame = 0
 169              		@ frame_needed = 0, uses_anonymous_args = 0
 170              	.LVL8:
 171 004c 38B5     		push	{r3, r4, r5, lr}	@
 172              	.LCFI2:
 173              		.cfi_def_cfa_offset 16
 174              		.cfi_offset 3, -16
 175              		.cfi_offset 4, -12
 176              		.cfi_offset 5, -8
 177              		.cfi_offset 14, -4
  39:.\src/stm32f4xx_it.c **** 	__sendChSync(__hexLookup[(byte >> 4)]);
 178              		.loc 1 39 0
 179 004e 074C     		ldr	r4, .L12	@ tmp148,
 180 0050 0209     		lsrs	r2, r0, #4	@ tmp146, byte,
 181 0052 2368     		ldr	r3, [r4, #0]	@ __hexLookup, __hexLookup
  38:.\src/stm32f4xx_it.c **** void __printHexByteSync(uint8_t byte) {
 182              		.loc 1 38 0
 183 0054 0546     		mov	r5, r0	@ byte, byte
 184              		.loc 1 39 0
 185 0056 985C     		ldrb	r0, [r3, r2]	@ zero_extendqisi2	@, *D.10222_5
 186              	.LVL9:
 187 0058 FFF7FEFF 		bl	__sendChSync	@
ARM GAS  C:\Users\Kevin\AppData\Local\Temp\cchDF9HP.s 			page 5


 188              	.LVL10:
  40:.\src/stm32f4xx_it.c **** 	__sendChSync(__hexLookup[(byte & 0x0F)]);
 189              		.loc 1 40 0
 190 005c 05F00F05 		and	r5, r5, #15	@ tmp151, byte,
 191 0060 2368     		ldr	r3, [r4, #0]	@ __hexLookup, __hexLookup
 192 0062 585D     		ldrb	r0, [r3, r5]	@ zero_extendqisi2	@, *D.10226_10
  41:.\src/stm32f4xx_it.c **** }
 193              		.loc 1 41 0
 194 0064 BDE83840 		pop	{r3, r4, r5, lr}	@
  40:.\src/stm32f4xx_it.c **** 	__sendChSync(__hexLookup[(byte & 0x0F)]);
 195              		.loc 1 40 0
 196 0068 FFF7FEBF 		b	__sendChSync	@
 197              	.LVL11:
 198              	.L13:
 199              		.align	2
 200              	.L12:
 201 006c 00000000 		.word	__hexLookup
 202              		.cfi_endproc
 203              	.LFE112:
 204              		.size	__printHexByteSync, .-__printHexByteSync
 205              		.align	1
 206              		.global	__printLongSync
 207              		.thumb
 208              		.thumb_func
 209              		.type	__printLongSync, %function
 210              	__printLongSync:
 211              	.LFB113:
  42:.\src/stm32f4xx_it.c **** 
  43:.\src/stm32f4xx_it.c **** void __printLongSync(unsigned long numb){
 212              		.loc 1 43 0
 213              		.cfi_startproc
 214              		@ args = 0, pretend = 0, frame = 0
 215              		@ frame_needed = 0, uses_anonymous_args = 0
 216              	.LVL12:
 217 0070 10B5     		push	{r4, lr}	@
 218              	.LCFI3:
 219              		.cfi_def_cfa_offset 8
 220              		.cfi_offset 4, -8
 221              		.cfi_offset 14, -4
 222              		.loc 1 43 0
 223 0072 0446     		mov	r4, r0	@ numb, numb
  44:.\src/stm32f4xx_it.c **** 	__sendChSync('0');
 224              		.loc 1 44 0
 225 0074 3020     		movs	r0, #48	@,
 226              	.LVL13:
 227 0076 FFF7FEFF 		bl	__sendChSync	@
 228              	.LVL14:
  45:.\src/stm32f4xx_it.c **** 	__sendChSync('x');
 229              		.loc 1 45 0
 230 007a 7820     		movs	r0, #120	@,
 231 007c FFF7FEFF 		bl	__sendChSync	@
 232              	.LVL15:
  46:.\src/stm32f4xx_it.c **** 
  47:.\src/stm32f4xx_it.c **** 	__printHexByteSync((numb >> (3 * 8)) & 0xFF);
 233              		.loc 1 47 0
 234 0080 200E     		lsrs	r0, r4, #24	@, numb,
 235 0082 FFF7FEFF 		bl	__printHexByteSync	@
ARM GAS  C:\Users\Kevin\AppData\Local\Temp\cchDF9HP.s 			page 6


 236              	.LVL16:
  48:.\src/stm32f4xx_it.c **** 	__printHexByteSync((numb >> (2 * 8)) & 0xFF);
 237              		.loc 1 48 0
 238 0086 C4F30740 		ubfx	r0, r4, #16, #8	@, numb,,
 239 008a FFF7FEFF 		bl	__printHexByteSync	@
 240              	.LVL17:
  49:.\src/stm32f4xx_it.c **** 	__printHexByteSync((numb >> (1 * 8)) & 0xFF);
 241              		.loc 1 49 0
 242 008e C4F30720 		ubfx	r0, r4, #8, #8	@, numb,,
 243 0092 FFF7FEFF 		bl	__printHexByteSync	@
 244              	.LVL18:
  50:.\src/stm32f4xx_it.c **** 	__printHexByteSync(numb & 0xFF);
 245              		.loc 1 50 0
 246 0096 E0B2     		uxtb	r0, r4	@, numb
  51:.\src/stm32f4xx_it.c **** }
 247              		.loc 1 51 0
 248 0098 BDE81040 		pop	{r4, lr}	@
  50:.\src/stm32f4xx_it.c **** 	__printHexByteSync(numb & 0xFF);
 249              		.loc 1 50 0
 250 009c FFF7FEBF 		b	__printHexByteSync	@
 251              	.LVL19:
 252              		.cfi_endproc
 253              	.LFE113:
 254              		.size	__printLongSync, .-__printLongSync
 255              		.align	1
 256              		.global	__printStrSync
 257              		.thumb
 258              		.thumb_func
 259              		.type	__printStrSync, %function
 260              	__printStrSync:
 261              	.LFB114:
  52:.\src/stm32f4xx_it.c **** 
  53:.\src/stm32f4xx_it.c **** void __printStrSync(const char * str){
 262              		.loc 1 53 0
 263              		.cfi_startproc
 264              		@ args = 0, pretend = 0, frame = 0
 265              		@ frame_needed = 0, uses_anonymous_args = 0
 266              	.LVL20:
 267 00a0 10B5     		push	{r4, lr}	@
 268              	.LCFI4:
 269              		.cfi_def_cfa_offset 8
 270              		.cfi_offset 4, -8
 271              		.cfi_offset 14, -4
 272              		.loc 1 53 0
 273 00a2 0446     		mov	r4, r0	@ str, str
  54:.\src/stm32f4xx_it.c **** 	char ch;
  55:.\src/stm32f4xx_it.c **** 	while((ch = *str++) != '\0')
 274              		.loc 1 55 0
 275 00a4 01E0     		b	.L16	@
 276              	.LVL21:
 277              	.L17:
  56:.\src/stm32f4xx_it.c **** 		__sendChSync(ch);
 278              		.loc 1 56 0
 279 00a6 FFF7FEFF 		bl	__sendChSync	@
 280              	.LVL22:
 281              	.L16:
  55:.\src/stm32f4xx_it.c **** 	while((ch = *str++) != '\0')
ARM GAS  C:\Users\Kevin\AppData\Local\Temp\cchDF9HP.s 			page 7


 282              		.loc 1 55 0 discriminator 1
 283 00aa 14F8010B 		ldrb	r0, [r4], #1	@ zero_extendqisi2	@ ch, MEM[base: str_1, offset: 0B]
 284              	.LVL23:
 285 00ae 0028     		cmp	r0, #0	@ ch
 286 00b0 F9D1     		bne	.L17	@
  57:.\src/stm32f4xx_it.c **** }
 287              		.loc 1 57 0
 288 00b2 10BD     		pop	{r4, pc}	@
 289              		.cfi_endproc
 290              	.LFE114:
 291              		.size	__printStrSync, .-__printStrSync
 292              		.align	1
 293              		.global	__printRegister
 294              		.thumb
 295              		.thumb_func
 296              		.type	__printRegister, %function
 297              	__printRegister:
 298              	.LFB115:
  58:.\src/stm32f4xx_it.c **** 
  59:.\src/stm32f4xx_it.c **** void __printRegister(const char *reg, unsigned long addr){
 299              		.loc 1 59 0
 300              		.cfi_startproc
 301              		@ args = 0, pretend = 0, frame = 0
 302              		@ frame_needed = 0, uses_anonymous_args = 0
 303              	.LVL24:
 304 00b4 10B5     		push	{r4, lr}	@
 305              	.LCFI5:
 306              		.cfi_def_cfa_offset 8
 307              		.cfi_offset 4, -8
 308              		.cfi_offset 14, -4
 309              		.loc 1 59 0
 310 00b6 0C46     		mov	r4, r1	@ addr, addr
  60:.\src/stm32f4xx_it.c **** 	  __printStrSync(reg);
 311              		.loc 1 60 0
 312 00b8 FFF7FEFF 		bl	__printStrSync	@
 313              	.LVL25:
  61:.\src/stm32f4xx_it.c **** 	  __printStrSync(": ");
 314              		.loc 1 61 0
 315 00bc 0548     		ldr	r0, .L19	@,
 316 00be FFF7FEFF 		bl	__printStrSync	@
 317              	.LVL26:
  62:.\src/stm32f4xx_it.c **** 	  __printLongSync(addr);
 318              		.loc 1 62 0
 319 00c2 2046     		mov	r0, r4	@, addr
 320 00c4 FFF7FEFF 		bl	__printLongSync	@
 321              	.LVL27:
  63:.\src/stm32f4xx_it.c **** 	  __printStrSync("\r\n");
 322              		.loc 1 63 0
 323 00c8 0348     		ldr	r0, .L19+4	@,
  64:.\src/stm32f4xx_it.c **** }
 324              		.loc 1 64 0
 325 00ca BDE81040 		pop	{r4, lr}	@
  63:.\src/stm32f4xx_it.c **** 	  __printStrSync("\r\n");
 326              		.loc 1 63 0
 327 00ce FFF7FEBF 		b	__printStrSync	@
 328              	.LVL28:
 329              	.L20:
ARM GAS  C:\Users\Kevin\AppData\Local\Temp\cchDF9HP.s 			page 8


 330 00d2 00BF     		.align	2
 331              	.L19:
 332 00d4 00000000 		.word	.LC0
 333 00d8 03000000 		.word	.LC1
 334              		.cfi_endproc
 335              	.LFE115:
 336              		.size	__printRegister, .-__printRegister
 337              		.align	1
 338              		.global	hard_fault_handler_c
 339              		.thumb
 340              		.thumb_func
 341              		.type	hard_fault_handler_c, %function
 342              	hard_fault_handler_c:
 343              	.LFB116:
  65:.\src/stm32f4xx_it.c **** 
  66:.\src/stm32f4xx_it.c **** unsigned int __hf_stacked_pc;
  67:.\src/stm32f4xx_it.c **** 
  68:.\src/stm32f4xx_it.c **** //TODO: Should either reset or start flashing an LED.
  69:.\src/stm32f4xx_it.c **** void hard_fault_handler_c (unsigned int *hardfault_args){
 344              		.loc 1 69 0
 345              		.cfi_startproc
 346              		@ args = 0, pretend = 0, frame = 16
 347              		@ frame_needed = 0, uses_anonymous_args = 0
 348              	.LVL29:
 349 00dc 1FB5     		push	{r0, r1, r2, r3, r4, lr}	@
 350              	.LCFI6:
 351              		.cfi_def_cfa_offset 24
 352              		.cfi_offset 0, -24
 353              		.cfi_offset 1, -20
 354              		.cfi_offset 2, -16
 355              		.cfi_offset 3, -12
 356              		.cfi_offset 4, -8
 357              		.cfi_offset 14, -4
  70:.\src/stm32f4xx_it.c **** 	  USART_ITConfig(USART1, USART_IT_TXE, DISABLE);
 358              		.loc 1 70 0
 359 00de 0022     		movs	r2, #0	@,
  69:.\src/stm32f4xx_it.c **** void hard_fault_handler_c (unsigned int *hardfault_args){
 360              		.loc 1 69 0
 361 00e0 0446     		mov	r4, r0	@ hardfault_args, hardfault_args
 362              		.loc 1 70 0
 363 00e2 40F22771 		movw	r1, #1831	@,
 364 00e6 3148     		ldr	r0, .L27	@,
 365              	.LVL30:
 366 00e8 FFF7FEFF 		bl	USART_ITConfig	@
 367              	.LVL31:
  71:.\src/stm32f4xx_it.c **** 	  __printStrSync("\r\nHARD FAULT\r\n");
 368              		.loc 1 71 0
 369 00ec 3048     		ldr	r0, .L27+4	@,
 370 00ee FFF7FEFF 		bl	__printStrSync	@
 371              	.LVL32:
  72:.\src/stm32f4xx_it.c **** 	  __printStrSync("==================\r\n");
 372              		.loc 1 72 0
 373 00f2 3048     		ldr	r0, .L27+8	@,
 374 00f4 FFF7FEFF 		bl	__printStrSync	@
 375              	.LVL33:
  73:.\src/stm32f4xx_it.c **** 
  74:.\src/stm32f4xx_it.c **** 	  __printRegister("ro ", (unsigned long) hardfault_args[0]);
ARM GAS  C:\Users\Kevin\AppData\Local\Temp\cchDF9HP.s 			page 9


 376              		.loc 1 74 0
 377 00f8 2168     		ldr	r1, [r4, #0]	@, *hardfault_args_1(D)
 378 00fa 2F48     		ldr	r0, .L27+12	@,
 379 00fc FFF7FEFF 		bl	__printRegister	@
 380              	.LVL34:
  75:.\src/stm32f4xx_it.c **** 	  __printRegister("r1 ", (unsigned long) hardfault_args[1]);
 381              		.loc 1 75 0
 382 0100 6168     		ldr	r1, [r4, #4]	@, MEM[(unsigned int *)hardfault_args_1(D) + 4B]
 383 0102 2E48     		ldr	r0, .L27+16	@,
 384 0104 FFF7FEFF 		bl	__printRegister	@
 385              	.LVL35:
  76:.\src/stm32f4xx_it.c **** 	  __printRegister("r2 ", (unsigned long) hardfault_args[2]);
 386              		.loc 1 76 0
 387 0108 A168     		ldr	r1, [r4, #8]	@, MEM[(unsigned int *)hardfault_args_1(D) + 8B]
 388 010a 2D48     		ldr	r0, .L27+20	@,
 389 010c FFF7FEFF 		bl	__printRegister	@
 390              	.LVL36:
  77:.\src/stm32f4xx_it.c **** 	  __printRegister("r3 ", (unsigned long) hardfault_args[3]);
 391              		.loc 1 77 0
 392 0110 E168     		ldr	r1, [r4, #12]	@, MEM[(unsigned int *)hardfault_args_1(D) + 12B]
 393 0112 2C48     		ldr	r0, .L27+24	@,
 394 0114 FFF7FEFF 		bl	__printRegister	@
 395              	.LVL37:
  78:.\src/stm32f4xx_it.c **** 	  __printRegister("r12", (unsigned long) hardfault_args[4]);
 396              		.loc 1 78 0
 397 0118 2169     		ldr	r1, [r4, #16]	@, MEM[(unsigned int *)hardfault_args_1(D) + 16B]
 398 011a 2B48     		ldr	r0, .L27+28	@,
 399 011c FFF7FEFF 		bl	__printRegister	@
 400              	.LVL38:
  79:.\src/stm32f4xx_it.c **** 
  80:.\src/stm32f4xx_it.c **** 	  __printRegister("lr ", (unsigned long) hardfault_args[5]);
 401              		.loc 1 80 0
 402 0120 6169     		ldr	r1, [r4, #20]	@, MEM[(unsigned int *)hardfault_args_1(D) + 20B]
 403 0122 2A48     		ldr	r0, .L27+32	@,
 404 0124 FFF7FEFF 		bl	__printRegister	@
 405              	.LVL39:
  81:.\src/stm32f4xx_it.c **** 	  __printRegister("pc ", (unsigned long) hardfault_args[6]);
 406              		.loc 1 81 0
 407 0128 A169     		ldr	r1, [r4, #24]	@, MEM[(unsigned int *)hardfault_args_1(D) + 24B]
 408 012a 2948     		ldr	r0, .L27+36	@,
 409 012c FFF7FEFF 		bl	__printRegister	@
 410              	.LVL40:
  82:.\src/stm32f4xx_it.c **** 	  __printRegister("psr", (unsigned long) hardfault_args[7]);
 411              		.loc 1 82 0
 412 0130 E169     		ldr	r1, [r4, #28]	@, MEM[(unsigned int *)hardfault_args_1(D) + 28B]
 413 0132 2848     		ldr	r0, .L27+40	@,
 414 0134 FFF7FEFF 		bl	__printRegister	@
 415              	.LVL41:
  83:.\src/stm32f4xx_it.c **** 
  84:.\src/stm32f4xx_it.c **** 	  __printStrSync("==================\r\n");
 416              		.loc 1 84 0
 417 0138 1E48     		ldr	r0, .L27+8	@,
 418 013a FFF7FEFF 		bl	__printStrSync	@
 419              	.LVL42:
  85:.\src/stm32f4xx_it.c **** 
  86:.\src/stm32f4xx_it.c **** 
  87:.\src/stm32f4xx_it.c **** 	RCC_AHB1PeriphClockCmd(RCC_AHB1Periph_GPIOC, ENABLE);
ARM GAS  C:\Users\Kevin\AppData\Local\Temp\cchDF9HP.s 			page 10


 420              		.loc 1 87 0
 421 013e 0420     		movs	r0, #4	@,
 422 0140 0121     		movs	r1, #1	@,
 423 0142 FFF7FEFF 		bl	RCC_AHB1PeriphClockCmd	@
 424              	.LVL43:
  88:.\src/stm32f4xx_it.c **** 	GPIO_InitTypeDef pwmPinConfig;
  89:.\src/stm32f4xx_it.c **** 	pwmPinConfig.GPIO_Pin = GPIO_Pin_14 | GPIO_Pin_13;
 425              		.loc 1 89 0
 426 0146 4FF4C043 		mov	r3, #24576	@ tmp160,
 427 014a 0293     		str	r3, [sp, #8]	@ tmp160, pwmPinConfig.GPIO_Pin
  90:.\src/stm32f4xx_it.c **** 	pwmPinConfig.GPIO_Mode = GPIO_Mode_OUT;
  91:.\src/stm32f4xx_it.c **** 	pwmPinConfig.GPIO_Speed = GPIO_Speed_50MHz;
 428              		.loc 1 91 0
 429 014c 0223     		movs	r3, #2	@ tmp163,
  90:.\src/stm32f4xx_it.c **** 	pwmPinConfig.GPIO_Mode = GPIO_Mode_OUT;
 430              		.loc 1 90 0
 431 014e 0124     		movs	r4, #1	@ tmp161,
 432              	.LVL44:
 433              		.loc 1 91 0
 434 0150 8DF80D30 		strb	r3, [sp, #13]	@ tmp163, pwmPinConfig.GPIO_Speed
  92:.\src/stm32f4xx_it.c **** 	pwmPinConfig.GPIO_OType = GPIO_OType_PP;
  93:.\src/stm32f4xx_it.c **** 	pwmPinConfig.GPIO_PuPd = GPIO_PuPd_UP ;
  94:.\src/stm32f4xx_it.c **** 	GPIO_Init(GPIOC, &pwmPinConfig);
 435              		.loc 1 94 0
 436 0154 2048     		ldr	r0, .L27+44	@,
  90:.\src/stm32f4xx_it.c **** 	pwmPinConfig.GPIO_Mode = GPIO_Mode_OUT;
 437              		.loc 1 90 0
 438 0156 8DF80C40 		strb	r4, [sp, #12]	@ tmp161, pwmPinConfig.GPIO_Mode
  92:.\src/stm32f4xx_it.c **** 	pwmPinConfig.GPIO_OType = GPIO_OType_PP;
 439              		.loc 1 92 0
 440 015a 0023     		movs	r3, #0	@ tmp165,
 441              		.loc 1 94 0
 442 015c 02A9     		add	r1, sp, #8	@,,
  92:.\src/stm32f4xx_it.c **** 	pwmPinConfig.GPIO_OType = GPIO_OType_PP;
 443              		.loc 1 92 0
 444 015e 8DF80E30 		strb	r3, [sp, #14]	@ tmp165, pwmPinConfig.GPIO_OType
  93:.\src/stm32f4xx_it.c **** 	pwmPinConfig.GPIO_PuPd = GPIO_PuPd_UP ;
 445              		.loc 1 93 0
 446 0162 8DF80F40 		strb	r4, [sp, #15]	@ tmp161, pwmPinConfig.GPIO_PuPd
 447              		.loc 1 94 0
 448 0166 FFF7FEFF 		bl	GPIO_Init	@
 449              	.LVL45:
  95:.\src/stm32f4xx_it.c **** 
  96:.\src/stm32f4xx_it.c **** 	GPIO_WriteBit(GPIOC, GPIO_Pin_13,  SET);
 450              		.loc 1 96 0
 451 016a 2246     		mov	r2, r4	@, tmp161
 452 016c 1A48     		ldr	r0, .L27+44	@,
  97:.\src/stm32f4xx_it.c **** 
  98:.\src/stm32f4xx_it.c **** 	volatile uint32_t idx;
  99:.\src/stm32f4xx_it.c **** 
 100:.\src/stm32f4xx_it.c **** 	while(1){
 101:.\src/stm32f4xx_it.c **** 		idx = 168000 * 10;
 453              		.loc 1 101 0
 454 016e 1B4C     		ldr	r4, .L27+48	@ tmp177,
  96:.\src/stm32f4xx_it.c **** 	GPIO_WriteBit(GPIOC, GPIO_Pin_13,  SET);
 455              		.loc 1 96 0
 456 0170 4FF40051 		mov	r1, #8192	@,
ARM GAS  C:\Users\Kevin\AppData\Local\Temp\cchDF9HP.s 			page 11


 457 0174 FFF7FEFF 		bl	GPIO_WriteBit	@
 458              	.LVL46:
 459              	.L24:
 102:.\src/stm32f4xx_it.c **** 		GPIO_WriteBit(GPIOC, GPIO_Pin_14,  SET);
 460              		.loc 1 102 0
 461 0178 1748     		ldr	r0, .L27+44	@,
 101:.\src/stm32f4xx_it.c **** 		idx = 168000 * 10;
 462              		.loc 1 101 0
 463 017a 0194     		str	r4, [sp, #4]	@ tmp177, idx
 464              		.loc 1 102 0
 465 017c 4FF48041 		mov	r1, #16384	@,
 466 0180 0122     		movs	r2, #1	@,
 467 0182 FFF7FEFF 		bl	GPIO_WriteBit	@
 468              	.LVL47:
 469              	.L22:
 103:.\src/stm32f4xx_it.c ****     	while (idx-- > 0);
 470              		.loc 1 103 0 discriminator 1
 471 0186 019A     		ldr	r2, [sp, #4]	@ idx.19, idx
 472 0188 531E     		subs	r3, r2, #1	@ idx.20, idx.19,
 473              	.LVL48:
 474 018a 0193     		str	r3, [sp, #4]	@ idx.20, idx
 475              	.LVL49:
 476 018c 002A     		cmp	r2, #0	@ idx.19
 477 018e FAD1     		bne	.L22	@
 104:.\src/stm32f4xx_it.c **** 
 105:.\src/stm32f4xx_it.c ****     	idx = 168000 * 10;
 478              		.loc 1 105 0
 479 0190 124B     		ldr	r3, .L27+48	@ tmp176,
 106:.\src/stm32f4xx_it.c **** 		GPIO_WriteBit(GPIOC, GPIO_Pin_14,  RESET);
 480              		.loc 1 106 0
 481 0192 1148     		ldr	r0, .L27+44	@,
 105:.\src/stm32f4xx_it.c ****     	idx = 168000 * 10;
 482              		.loc 1 105 0
 483 0194 0193     		str	r3, [sp, #4]	@ tmp176, idx
 484              	.LVL50:
 485              		.loc 1 106 0
 486 0196 4FF48041 		mov	r1, #16384	@,
 487 019a FFF7FEFF 		bl	GPIO_WriteBit	@
 488              	.LVL51:
 489              	.L23:
 107:.\src/stm32f4xx_it.c **** 		while (idx-- > 0);
 490              		.loc 1 107 0 discriminator 1
 491 019e 019B     		ldr	r3, [sp, #4]	@ idx.21, idx
 492 01a0 5A1E     		subs	r2, r3, #1	@ idx.22, idx.21,
 493              	.LVL52:
 494 01a2 0192     		str	r2, [sp, #4]	@ idx.22, idx
 495              	.LVL53:
 496 01a4 002B     		cmp	r3, #0	@ idx.21
 497 01a6 FAD1     		bne	.L23	@
 498 01a8 E6E7     		b	.L24	@
 499              	.L28:
 500 01aa 00BF     		.align	2
 501              	.L27:
 502 01ac 00100140 		.word	1073811456
 503 01b0 06000000 		.word	.LC2
 504 01b4 15000000 		.word	.LC3
 505 01b8 2A000000 		.word	.LC4
ARM GAS  C:\Users\Kevin\AppData\Local\Temp\cchDF9HP.s 			page 12


 506 01bc 2E000000 		.word	.LC5
 507 01c0 32000000 		.word	.LC6
 508 01c4 36000000 		.word	.LC7
 509 01c8 3A000000 		.word	.LC8
 510 01cc 3E000000 		.word	.LC9
 511 01d0 42000000 		.word	.LC10
 512 01d4 46000000 		.word	.LC11
 513 01d8 00080240 		.word	1073874944
 514 01dc 80A21900 		.word	1680000
 515              		.cfi_endproc
 516              	.LFE116:
 517              		.size	hard_fault_handler_c, .-hard_fault_handler_c
 518              		.align	1
 519              		.global	USART1_IRQHandler
 520              		.thumb
 521              		.thumb_func
 522              		.type	USART1_IRQHandler, %function
 523              	USART1_IRQHandler:
 524              	.LFB117:
 108:.\src/stm32f4xx_it.c **** 	}
 109:.\src/stm32f4xx_it.c **** }
 110:.\src/stm32f4xx_it.c **** 
 111:.\src/stm32f4xx_it.c **** uint32_t isr;
 112:.\src/stm32f4xx_it.c **** 
 113:.\src/stm32f4xx_it.c **** //USART1 - Connected to debug port and GPS
 114:.\src/stm32f4xx_it.c **** void USART1_IRQHandler(void){
 525              		.loc 1 114 0
 526              		.cfi_startproc
 527              		@ args = 0, pretend = 0, frame = 0
 528              		@ frame_needed = 0, uses_anonymous_args = 0
 529              		@ link register save eliminated.
 115:.\src/stm32f4xx_it.c **** 	if((USART1->SR & USART_SR_RXNE) == USART_SR_RXNE){
 530              		.loc 1 115 0
 531 01e0 0C4B     		ldr	r3, .L33	@ tmp142,
 532 01e2 1A88     		ldrh	r2, [r3, #0]	@, MEM[(struct USART_TypeDef *)1073811456B].SR
 533 01e4 02F02002 		and	r2, r2, #32	@ tmp145, MEM[(struct USART_TypeDef *)1073811456B].SR,
 534 01e8 92B2     		uxth	r2, r2	@ tmp146, tmp145
 535 01ea 1AB1     		cbz	r2, .L30	@ tmp146,
 116:.\src/stm32f4xx_it.c **** 		TWB_GPS_HandleRX_IRQ(USART1->DR);
 536              		.loc 1 116 0
 537 01ec 9888     		ldrh	r0, [r3, #4]	@, MEM[(struct USART_TypeDef *)1073811456B].DR
 538 01ee C0B2     		uxtb	r0, r0	@, MEM[(struct USART_TypeDef *)1073811456B].DR
 117:.\src/stm32f4xx_it.c **** 	}
 118:.\src/stm32f4xx_it.c **** 	else if((USART1->SR & USART_SR_ORE) == USART_SR_ORE){
 119:.\src/stm32f4xx_it.c **** 		TWB_GPS_HandleRX_Overrun();
 120:.\src/stm32f4xx_it.c **** 	}
 121:.\src/stm32f4xx_it.c **** 	else
 122:.\src/stm32f4xx_it.c **** 		if((USART1->SR & USART_SR_TXE) == USART_SR_TXE)
 123:.\src/stm32f4xx_it.c **** 			TWB_Debug_HandleTXE();
 124:.\src/stm32f4xx_it.c **** 
 125:.\src/stm32f4xx_it.c **** 	//For now we just stream out any debug info on USART1,
 126:.\src/stm32f4xx_it.c **** }
 539              		.loc 1 126 0
 116:.\src/stm32f4xx_it.c **** 		TWB_GPS_HandleRX_IRQ(USART1->DR);
 540              		.loc 1 116 0
 541 01f0 FFF7FEBF 		b	TWB_GPS_HandleRX_IRQ	@
 542              	.LVL54:
ARM GAS  C:\Users\Kevin\AppData\Local\Temp\cchDF9HP.s 			page 13


 543              	.L30:
 118:.\src/stm32f4xx_it.c **** 	else if((USART1->SR & USART_SR_ORE) == USART_SR_ORE){
 544              		.loc 1 118 0
 545 01f4 1A88     		ldrh	r2, [r3, #0]	@, MEM[(struct USART_TypeDef *)1073811456B].SR
 546 01f6 02F00802 		and	r2, r2, #8	@ tmp154, MEM[(struct USART_TypeDef *)1073811456B].SR,
 547 01fa 92B2     		uxth	r2, r2	@ tmp155, tmp154
 548 01fc 0AB1     		cbz	r2, .L31	@ tmp155,
 549              		.loc 1 126 0
 119:.\src/stm32f4xx_it.c **** 		TWB_GPS_HandleRX_Overrun();
 550              		.loc 1 119 0
 551 01fe FFF7FEBF 		b	TWB_GPS_HandleRX_Overrun	@
 552              	.LVL55:
 553              	.L31:
 122:.\src/stm32f4xx_it.c **** 		if((USART1->SR & USART_SR_TXE) == USART_SR_TXE)
 554              		.loc 1 122 0
 555 0202 1B88     		ldrh	r3, [r3, #0]	@, MEM[(struct USART_TypeDef *)1073811456B].SR
 556 0204 03F08003 		and	r3, r3, #128	@ tmp159, MEM[(struct USART_TypeDef *)1073811456B].SR,
 557 0208 9BB2     		uxth	r3, r3	@ tmp160, tmp159
 558 020a 0BB1     		cbz	r3, .L29	@ tmp160,
 559              		.loc 1 126 0
 123:.\src/stm32f4xx_it.c **** 			TWB_Debug_HandleTXE();
 560              		.loc 1 123 0
 561 020c FFF7FEBF 		b	TWB_Debug_HandleTXE	@
 562              	.LVL56:
 563              	.L29:
 564 0210 7047     		bx	lr	@
 565              	.L34:
 566 0212 00BF     		.align	2
 567              	.L33:
 568 0214 00100140 		.word	1073811456
 569              		.cfi_endproc
 570              	.LFE117:
 571              		.size	USART1_IRQHandler, .-USART1_IRQHandler
 572              		.align	1
 573              		.global	USART2_IRQHandler
 574              		.thumb
 575              		.thumb_func
 576              		.type	USART2_IRQHandler, %function
 577              	USART2_IRQHandler:
 578              	.LFB118:
 127:.\src/stm32f4xx_it.c **** 
 128:.\src/stm32f4xx_it.c **** //TODO: Currently we have no command mode with the UART device.
 129:.\src/stm32f4xx_it.c **** //USART2 - Connected to XBee Soccket.
 130:.\src/stm32f4xx_it.c **** void USART2_IRQHandler(void){
 579              		.loc 1 130 0
 580              		.cfi_startproc
 581              		@ args = 0, pretend = 0, frame = 0
 582              		@ frame_needed = 0, uses_anonymous_args = 0
 583              		@ link register save eliminated.
 131:.\src/stm32f4xx_it.c **** 	//There will be about a 500 millisecond delay after we switch
 132:.\src/stm32f4xx_it.c **** 	//from to the command mode until it becomes active.
 133:.\src/stm32f4xx_it.c **** 	//The only time we will send messages will be in the Ready state
 134:.\src/stm32f4xx_it.c **** 	//therefore no new messages will come in while in the PendingCommandMode state
 135:.\src/stm32f4xx_it.c **** 	//but if a message is in process, we want to continue sending it.
 136:.\src/stm32f4xx_it.c **** 	//
 137:.\src/stm32f4xx_it.c **** 	//While in the command mode, ignore any incoming messages from the WiFly
 138:.\src/stm32f4xx_it.c **** 
ARM GAS  C:\Users\Kevin\AppData\Local\Temp\cchDF9HP.s 			page 14


 139:.\src/stm32f4xx_it.c **** 	isr =USART2->SR;
 584              		.loc 1 139 0
 585 0218 204A     		ldr	r2, .L54	@ tmp152,
 586 021a 2149     		ldr	r1, .L54+4	@ tmp154,
 587 021c 1388     		ldrh	r3, [r2, #0]	@, MEM[(struct USART_TypeDef *)1073759232B].SR
 588 021e 9BB2     		uxth	r3, r3	@ D.10127, MEM[(struct USART_TypeDef *)1073759232B].SR
 589 0220 0B60     		str	r3, [r1, #0]	@ D.10127, isr
 140:.\src/stm32f4xx_it.c **** 
 141:.\src/stm32f4xx_it.c **** 	if(WiFiState == WiFi_CLIMode){
 590              		.loc 1 141 0
 591 0222 2049     		ldr	r1, .L54+8	@ tmp155,
 592 0224 0878     		ldrb	r0, [r1, #0]	@ zero_extendqisi2	@ WiFiState.17, WiFiState
 593 0226 0828     		cmp	r0, #8	@ WiFiState.17,
 594 0228 03F02001 		and	r1, r3, #32	@ tmp195, D.10127,
 595 022c 11D1     		bne	.L36	@,
 142:.\src/stm32f4xx_it.c **** 		if((isr & USART_SR_RXNE) == USART_SR_RXNE)
 596              		.loc 1 142 0
 597 022e 19B1     		cbz	r1, .L37	@ tmp195,
 143:.\src/stm32f4xx_it.c **** 			TWB_CLI_HandleRX(USART2->DR);
 598              		.loc 1 143 0
 599 0230 9088     		ldrh	r0, [r2, #4]	@, MEM[(struct USART_TypeDef *)1073759232B].DR
 600 0232 C0B2     		uxtb	r0, r0	@, MEM[(struct USART_TypeDef *)1073759232B].DR
 144:.\src/stm32f4xx_it.c **** 		else if((isr & USART_SR_ORE) == USART_SR_ORE)
 145:.\src/stm32f4xx_it.c **** 			TWB_CLI_HandleRX_Overrun();
 146:.\src/stm32f4xx_it.c **** 		else if((isr & USART_SR_TXE) == USART_SR_TXE)
 147:.\src/stm32f4xx_it.c **** 			TWB_CLI_HandleTXE();
 148:.\src/stm32f4xx_it.c **** 	}
 149:.\src/stm32f4xx_it.c **** 	else if(WiFiState == WiFi_Ready ||
 150:.\src/stm32f4xx_it.c **** 	   WiFiState == WiFi_PendingCommandMode){
 151:.\src/stm32f4xx_it.c **** 
 152:.\src/stm32f4xx_it.c **** 		if((isr & USART_SR_RXNE) == USART_SR_RXNE)
 153:.\src/stm32f4xx_it.c **** 			TWB_MsgParser_HandleRX(USART2->DR);
 154:.\src/stm32f4xx_it.c **** 		else if((isr & USART_SR_ORE) == USART_SR_ORE)
 155:.\src/stm32f4xx_it.c **** 			TWB_MsgParser_HandleRX_Overrun();
 156:.\src/stm32f4xx_it.c **** 		else if((isr & USART_SR_TXE) == USART_SR_TXE)
 157:.\src/stm32f4xx_it.c **** 			TWB_MsgParser_HandleTXE();
 158:.\src/stm32f4xx_it.c **** 
 159:.\src/stm32f4xx_it.c **** 	}
 160:.\src/stm32f4xx_it.c **** 	else{
 161:.\src/stm32f4xx_it.c **** 		if((isr & USART_SR_RXNE) == USART_SR_RXNE)
 162:.\src/stm32f4xx_it.c **** 			TWB_WiFi_HandleRX(USART2->DR);
 163:.\src/stm32f4xx_it.c **** 		else if((isr & USART_SR_ORE) == USART_SR_ORE)
 164:.\src/stm32f4xx_it.c **** 			TWB_MsgParser_HandleRX_Overrun();
 165:.\src/stm32f4xx_it.c **** 		else if((isr & USART_SR_TXE) == USART_SR_TXE)
 166:.\src/stm32f4xx_it.c **** 			TWB_WiFi_HandleTXE();
 167:.\src/stm32f4xx_it.c **** 	}
 168:.\src/stm32f4xx_it.c **** }
 601              		.loc 1 168 0
 143:.\src/stm32f4xx_it.c **** 			TWB_CLI_HandleRX(USART2->DR);
 602              		.loc 1 143 0
 603 0234 FFF7FEBF 		b	TWB_CLI_HandleRX	@
 604              	.LVL57:
 605              	.L37:
 144:.\src/stm32f4xx_it.c **** 		else if((isr & USART_SR_ORE) == USART_SR_ORE)
 606              		.loc 1 144 0
 607 0238 03F00802 		and	r2, r3, #8	@ tmp164, D.10127,
 608 023c 92B2     		uxth	r2, r2	@ tmp165, tmp164
ARM GAS  C:\Users\Kevin\AppData\Local\Temp\cchDF9HP.s 			page 15


 609 023e 0AB1     		cbz	r2, .L38	@ tmp165,
 610              		.loc 1 168 0
 145:.\src/stm32f4xx_it.c **** 			TWB_CLI_HandleRX_Overrun();
 611              		.loc 1 145 0
 612 0240 FFF7FEBF 		b	TWB_CLI_HandleRX_Overrun	@
 613              	.LVL58:
 614              	.L38:
 146:.\src/stm32f4xx_it.c **** 		else if((isr & USART_SR_TXE) == USART_SR_TXE)
 615              		.loc 1 146 0
 616 0244 03F08003 		and	r3, r3, #128	@ tmp167, D.10127,
 617 0248 9BB2     		uxth	r3, r3	@ tmp168, tmp167
 618 024a 002B     		cmp	r3, #0	@ tmp168
 619 024c 25D0     		beq	.L35	@
 620              		.loc 1 168 0
 147:.\src/stm32f4xx_it.c **** 			TWB_CLI_HandleTXE();
 621              		.loc 1 147 0
 622 024e FFF7FEBF 		b	TWB_CLI_HandleTXE	@
 623              	.LVL59:
 624              	.L36:
 149:.\src/stm32f4xx_it.c **** 	else if(WiFiState == WiFi_Ready ||
 625              		.loc 1 149 0
 626 0252 0128     		cmp	r0, #1	@ WiFiState.17,
 627 0254 11D8     		bhi	.L40	@,
 152:.\src/stm32f4xx_it.c **** 		if((isr & USART_SR_RXNE) == USART_SR_RXNE)
 628              		.loc 1 152 0
 629 0256 19B1     		cbz	r1, .L41	@ tmp195,
 153:.\src/stm32f4xx_it.c **** 			TWB_MsgParser_HandleRX(USART2->DR);
 630              		.loc 1 153 0
 631 0258 9088     		ldrh	r0, [r2, #4]	@, MEM[(struct USART_TypeDef *)1073759232B].DR
 632 025a C0B2     		uxtb	r0, r0	@, MEM[(struct USART_TypeDef *)1073759232B].DR
 633              		.loc 1 168 0
 153:.\src/stm32f4xx_it.c **** 			TWB_MsgParser_HandleRX(USART2->DR);
 634              		.loc 1 153 0
 635 025c FFF7FEBF 		b	TWB_MsgParser_HandleRX	@
 636              	.LVL60:
 637              	.L41:
 154:.\src/stm32f4xx_it.c **** 		else if((isr & USART_SR_ORE) == USART_SR_ORE)
 638              		.loc 1 154 0
 639 0260 03F00802 		and	r2, r3, #8	@ tmp177, D.10127,
 640 0264 92B2     		uxth	r2, r2	@ tmp178, tmp177
 641 0266 0AB1     		cbz	r2, .L42	@ tmp178,
 642              	.L44:
 643              		.loc 1 168 0
 155:.\src/stm32f4xx_it.c **** 			TWB_MsgParser_HandleRX_Overrun();
 644              		.loc 1 155 0
 645 0268 FFF7FEBF 		b	TWB_MsgParser_HandleRX_Overrun	@
 646              	.LVL61:
 647              	.L42:
 156:.\src/stm32f4xx_it.c **** 		else if((isr & USART_SR_TXE) == USART_SR_TXE)
 648              		.loc 1 156 0
 649 026c 03F08003 		and	r3, r3, #128	@ tmp180, D.10127,
 650 0270 9BB2     		uxth	r3, r3	@ tmp181, tmp180
 651 0272 002B     		cmp	r3, #0	@ tmp181
 652 0274 11D0     		beq	.L35	@
 653              		.loc 1 168 0
 157:.\src/stm32f4xx_it.c **** 			TWB_MsgParser_HandleTXE();
 654              		.loc 1 157 0
ARM GAS  C:\Users\Kevin\AppData\Local\Temp\cchDF9HP.s 			page 16


 655 0276 FFF7FEBF 		b	TWB_MsgParser_HandleTXE	@
 656              	.LVL62:
 657              	.L40:
 161:.\src/stm32f4xx_it.c **** 		if((isr & USART_SR_RXNE) == USART_SR_RXNE)
 658              		.loc 1 161 0
 659 027a 19B1     		cbz	r1, .L43	@ tmp195,
 162:.\src/stm32f4xx_it.c **** 			TWB_WiFi_HandleRX(USART2->DR);
 660              		.loc 1 162 0
 661 027c 9088     		ldrh	r0, [r2, #4]	@, MEM[(struct USART_TypeDef *)1073759232B].DR
 662 027e C0B2     		uxtb	r0, r0	@, MEM[(struct USART_TypeDef *)1073759232B].DR
 663              		.loc 1 168 0
 162:.\src/stm32f4xx_it.c **** 			TWB_WiFi_HandleRX(USART2->DR);
 664              		.loc 1 162 0
 665 0280 FFF7FEBF 		b	TWB_WiFi_HandleRX	@
 666              	.LVL63:
 667              	.L43:
 163:.\src/stm32f4xx_it.c **** 		else if((isr & USART_SR_ORE) == USART_SR_ORE)
 668              		.loc 1 163 0
 669 0284 03F00802 		and	r2, r3, #8	@ tmp190, D.10127,
 670 0288 92B2     		uxth	r2, r2	@ tmp191, tmp190
 671 028a 002A     		cmp	r2, #0	@ tmp191
 672 028c ECD1     		bne	.L44	@
 165:.\src/stm32f4xx_it.c **** 		else if((isr & USART_SR_TXE) == USART_SR_TXE)
 673              		.loc 1 165 0
 674 028e 03F08003 		and	r3, r3, #128	@ tmp193, D.10127,
 675 0292 9BB2     		uxth	r3, r3	@ tmp194, tmp193
 676 0294 0BB1     		cbz	r3, .L35	@ tmp194,
 677              		.loc 1 168 0
 166:.\src/stm32f4xx_it.c **** 			TWB_WiFi_HandleTXE();
 678              		.loc 1 166 0
 679 0296 FFF7FEBF 		b	TWB_WiFi_HandleTXE	@
 680              	.LVL64:
 681              	.L35:
 682 029a 7047     		bx	lr	@
 683              	.L55:
 684              		.align	2
 685              	.L54:
 686 029c 00440040 		.word	1073759232
 687 02a0 00000000 		.word	isr
 688 02a4 00000000 		.word	WiFiState
 689              		.cfi_endproc
 690              	.LFE118:
 691              		.size	USART2_IRQHandler, .-USART2_IRQHandler
 692              		.align	1
 693              		.global	EXTI0_IRQHandler
 694              		.thumb
 695              		.thumb_func
 696              		.type	EXTI0_IRQHandler, %function
 697              	EXTI0_IRQHandler:
 698              	.LFB119:
 169:.\src/stm32f4xx_it.c **** 
 170:.\src/stm32f4xx_it.c **** /* For Rev II boards, here are the associated IRQ's we care about
 171:.\src/stm32f4xx_it.c ****  *
 172:.\src/stm32f4xx_it.c ****  * Pin 1 - AVAILABLE
 173:.\src/stm32f4xx_it.c ****  * Pin 2, Port B, Sonar Echo
 174:.\src/stm32f4xx_it.c ****  * Pin 3, Port C, BMP085
 175:.\src/stm32f4xx_it.c ****  * Pin 4, Port B Pitch/RC1
ARM GAS  C:\Users\Kevin\AppData\Local\Temp\cchDF9HP.s 			page 17


 176:.\src/stm32f4xx_it.c ****  * Pin 5, Port B Roll/RC2
 177:.\src/stm32f4xx_it.c ****  * Pin 6, Port B Yaw/RC3
 178:.\src/stm32f4xx_it.c ****  * Pin 7, Port B Throttle/RC4
 179:.\src/stm32f4xx_it.c ****  * Pin 8 - AVAILABLE
 180:.\src/stm32f4xx_it.c ****  * Pin 9 Port B ITG3200
 181:.\src/stm32f4xx_it.c ****  * Pin 10, Port C L3GD20 IRQ
 182:.\src/stm32f4xx_it.c ****  * Pin 11, Port C Aux1
 183:.\src/stm32f4xx_it.c ****  * Pin 12, Port C Aux2
 184:.\src/stm32f4xx_it.c ****  * Pin 13, Available
 185:.\src/stm32f4xx_it.c ****  */
 186:.\src/stm32f4xx_it.c **** void EXTI0_IRQHandler(void){
 699              		.loc 1 186 0
 700              		.cfi_startproc
 701              		@ args = 0, pretend = 0, frame = 0
 702              		@ frame_needed = 0, uses_anonymous_args = 0
 703              		@ link register save eliminated.
 704 02a8 7047     		bx	lr	@
 705              		.cfi_endproc
 706              	.LFE119:
 707              		.size	EXTI0_IRQHandler, .-EXTI0_IRQHandler
 708              		.align	1
 709              		.global	EXTI1_IRQHandler
 710              		.thumb
 711              		.thumb_func
 712              		.type	EXTI1_IRQHandler, %function
 713              	EXTI1_IRQHandler:
 714              	.LFB120:
 187:.\src/stm32f4xx_it.c **** 
 188:.\src/stm32f4xx_it.c **** }
 189:.\src/stm32f4xx_it.c **** 
 190:.\src/stm32f4xx_it.c **** void EXTI1_IRQHandler(void){
 715              		.loc 1 190 0
 716              		.cfi_startproc
 717              		@ args = 0, pretend = 0, frame = 0
 718              		@ frame_needed = 0, uses_anonymous_args = 0
 719              		@ link register save eliminated.
 720 02aa 7047     		bx	lr	@
 721              		.cfi_endproc
 722              	.LFE120:
 723              		.size	EXTI1_IRQHandler, .-EXTI1_IRQHandler
 724              		.align	1
 725              		.global	EXTI4_IRQHandler
 726              		.thumb
 727              		.thumb_func
 728              		.type	EXTI4_IRQHandler, %function
 729              	EXTI4_IRQHandler:
 730              	.LFB121:
 191:.\src/stm32f4xx_it.c **** 
 192:.\src/stm32f4xx_it.c **** }
 193:.\src/stm32f4xx_it.c **** 
 194:.\src/stm32f4xx_it.c **** void EXTI4_IRQHandler(void){
 731              		.loc 1 194 0
 732              		.cfi_startproc
 733              		@ args = 0, pretend = 0, frame = 8
 734              		@ frame_needed = 0, uses_anonymous_args = 0
 735              		.loc 1 194 0
 736 02ac 07B5     		push	{r0, r1, r2, lr}	@
ARM GAS  C:\Users\Kevin\AppData\Local\Temp\cchDF9HP.s 			page 18


 737              	.LCFI7:
 738              		.cfi_def_cfa_offset 16
 739              		.cfi_offset 0, -16
 740              		.cfi_offset 1, -12
 741              		.cfi_offset 2, -8
 742              		.cfi_offset 14, -4
 195:.\src/stm32f4xx_it.c **** 	volatile uint16_t thisCount = (uint16_t)TMR_PWM_CAPTURE->CNT;
 743              		.loc 1 195 0
 744 02ae 084B     		ldr	r3, .L62	@ tmp140,
 745 02b0 5B6A     		ldr	r3, [r3, #36]	@ D.10116, MEM[(struct TIM_TypeDef *)1073750016B].CNT
 746              	.LVL65:
 747 02b2 ADF80630 		strh	r3, [sp, #6]	@ movhi	@ thisCount.13, thisCount
 196:.\src/stm32f4xx_it.c **** 
 197:.\src/stm32f4xx_it.c **** 	if((GPIOB->IDR & GPIO_Pin_4) == GPIO_Pin_4)
 748              		.loc 1 197 0
 749 02b6 074B     		ldr	r3, .L62+4	@ tmp142,
 750              	.LVL66:
 751 02b8 1B69     		ldr	r3, [r3, #16]	@ D.10119, MEM[(struct GPIO_TypeDef *)1073873920B].IDR
 198:.\src/stm32f4xx_it.c **** 		__rcInRise[PWM_In_Pitch] = thisCount;
 752              		.loc 1 198 0
 753 02ba BDF80620 		ldrh	r2, [sp, #6]	@, thisCount
 197:.\src/stm32f4xx_it.c **** 	if((GPIOB->IDR & GPIO_Pin_4) == GPIO_Pin_4)
 754              		.loc 1 197 0
 755 02be DB06     		lsls	r3, r3, #27	@, D.10119,
 756              		.loc 1 198 0
 757 02c0 4CBF     		ite	mi
 758 02c2 054B     		ldrmi	r3, .L62+8	@ tmp146,
 199:.\src/stm32f4xx_it.c **** 	else
 200:.\src/stm32f4xx_it.c **** 		__rcInFall[PWM_In_Pitch] = thisCount;
 759              		.loc 1 200 0
 760 02c4 054B     		ldrpl	r3, .L62+12	@ tmp150,
 201:.\src/stm32f4xx_it.c **** 
 202:.\src/stm32f4xx_it.c **** 	EXTI_ClearITPendingBit(EXTI_Line4);
 761              		.loc 1 202 0
 762 02c6 1020     		movs	r0, #16	@,
 200:.\src/stm32f4xx_it.c **** 		__rcInFall[PWM_In_Pitch] = thisCount;
 763              		.loc 1 200 0
 764 02c8 1A80     		strh	r2, [r3, #0]	@ movhi	@ thisCount,
 765              		.loc 1 202 0
 766 02ca FFF7FEFF 		bl	EXTI_ClearITPendingBit	@
 767              	.LVL67:
 203:.\src/stm32f4xx_it.c **** }
 768              		.loc 1 203 0
 769 02ce 0EBD     		pop	{r1, r2, r3, pc}
 770              	.L63:
 771              		.align	2
 772              	.L62:
 773 02d0 00200040 		.word	1073750016
 774 02d4 00040240 		.word	1073873920
 775 02d8 00000000 		.word	__rcInRise
 776 02dc 00000000 		.word	__rcInFall
 777              		.cfi_endproc
 778              	.LFE121:
 779              		.size	EXTI4_IRQHandler, .-EXTI4_IRQHandler
 780              		.align	1
 781              		.global	EXTI9_5_IRQHandler
 782              		.thumb
ARM GAS  C:\Users\Kevin\AppData\Local\Temp\cchDF9HP.s 			page 19


 783              		.thumb_func
 784              		.type	EXTI9_5_IRQHandler, %function
 785              	EXTI9_5_IRQHandler:
 786              	.LFB122:
 204:.\src/stm32f4xx_it.c **** 
 205:.\src/stm32f4xx_it.c **** uint16_t thisCount;
 206:.\src/stm32f4xx_it.c **** 
 207:.\src/stm32f4xx_it.c **** void EXTI9_5_IRQHandler(void){
 787              		.loc 1 207 0
 788              		.cfi_startproc
 789              		@ args = 0, pretend = 0, frame = 0
 790              		@ frame_needed = 0, uses_anonymous_args = 0
 791 02e0 08B5     		push	{r3, lr}	@
 792              	.LCFI8:
 793              		.cfi_def_cfa_offset 8
 794              		.cfi_offset 3, -8
 795              		.cfi_offset 14, -4
 208:.\src/stm32f4xx_it.c **** 	 thisCount = (uint16_t)TMR_PWM_CAPTURE->CNT;
 796              		.loc 1 208 0
 797 02e2 334B     		ldr	r3, .L119	@ tmp172,
 798 02e4 334A     		ldr	r2, .L119+4	@ tmp173,
 799 02e6 5B6A     		ldr	r3, [r3, #36]	@ D.10042, MEM[(struct TIM_TypeDef *)1073750016B].CNT
 800 02e8 1380     		strh	r3, [r2, #0]	@ movhi	@ thisCount.9, thisCount
 209:.\src/stm32f4xx_it.c **** 
 210:.\src/stm32f4xx_it.c **** 	if(((EXTI->PR & EXTI_Line5) != (uint32_t)RESET) && ((EXTI->IMR & EXTI_Line5) != (uint32_t)RESET)){
 801              		.loc 1 210 0
 802 02ea 334A     		ldr	r2, .L119+8	@ tmp175,
 803 02ec 5169     		ldr	r1, [r2, #20]	@ D.10045, MEM[(struct EXTI_TypeDef *)1073822720B].PR
 804 02ee 8906     		lsls	r1, r1, #26	@, D.10045,
 805 02f0 0CD5     		bpl	.L65	@,
 806              		.loc 1 210 0 is_stmt 0 discriminator 1
 807 02f2 1268     		ldr	r2, [r2, #0]	@ D.10049, MEM[(struct EXTI_TypeDef *)1073822720B].IMR
 808 02f4 9006     		lsls	r0, r2, #26	@, D.10049,
 809 02f6 09D5     		bpl	.L65	@,
 211:.\src/stm32f4xx_it.c **** 		if((GPIOB->IDR & GPIO_Pin_5) == GPIO_Pin_5)
 810              		.loc 1 211 0 is_stmt 1
 811 02f8 304A     		ldr	r2, .L119+12	@ tmp179,
 812 02fa 1269     		ldr	r2, [r2, #16]	@ D.10054, MEM[(struct GPIO_TypeDef *)1073873920B].IDR
 813 02fc 9106     		lsls	r1, r2, #26	@, D.10054,
 212:.\src/stm32f4xx_it.c **** 			__rcInRise[PWM_In_Roll] = thisCount;
 814              		.loc 1 212 0
 815 02fe 4CBF     		ite	mi
 816 0300 2F4A     		ldrmi	r2, .L119+16	@ tmp181,
 213:.\src/stm32f4xx_it.c **** 		else
 214:.\src/stm32f4xx_it.c **** 			__rcInFall[PWM_In_Roll] = thisCount;
 817              		.loc 1 214 0
 818 0302 304A     		ldrpl	r2, .L119+20	@ tmp183,
 215:.\src/stm32f4xx_it.c **** 
 216:.\src/stm32f4xx_it.c **** 		EXTI_ClearITPendingBit(EXTI_Line5);
 819              		.loc 1 216 0
 820 0304 2020     		movs	r0, #32	@,
 214:.\src/stm32f4xx_it.c **** 			__rcInFall[PWM_In_Roll] = thisCount;
 821              		.loc 1 214 0
 822 0306 5380     		strh	r3, [r2, #2]	@ movhi	@ thisCount.9,
 823              		.loc 1 216 0
 824 0308 FFF7FEFF 		bl	EXTI_ClearITPendingBit	@
 825              	.LVL68:
ARM GAS  C:\Users\Kevin\AppData\Local\Temp\cchDF9HP.s 			page 20


 826              	.L65:
 217:.\src/stm32f4xx_it.c **** 	}
 218:.\src/stm32f4xx_it.c **** 
 219:.\src/stm32f4xx_it.c **** 	if(((EXTI->PR & EXTI_Line6) != (uint32_t)RESET) && ((EXTI->IMR & EXTI_Line6) != (uint32_t)RESET)){
 827              		.loc 1 219 0
 828 030c 2A4B     		ldr	r3, .L119+8	@ tmp185,
 829 030e 5A69     		ldr	r2, [r3, #20]	@ D.10060, MEM[(struct EXTI_TypeDef *)1073822720B].PR
 830 0310 5206     		lsls	r2, r2, #25	@, D.10060,
 831 0312 0FD5     		bpl	.L68	@,
 832              		.loc 1 219 0 is_stmt 0 discriminator 1
 833 0314 1B68     		ldr	r3, [r3, #0]	@ D.10064, MEM[(struct EXTI_TypeDef *)1073822720B].IMR
 834 0316 5B06     		lsls	r3, r3, #25	@, D.10064,
 835 0318 0CD5     		bpl	.L68	@,
 220:.\src/stm32f4xx_it.c **** 		if((GPIOB->IDR & GPIO_Pin_6) == GPIO_Pin_6)
 836              		.loc 1 220 0 is_stmt 1
 837 031a 284B     		ldr	r3, .L119+12	@ tmp189,
 838 031c 1B69     		ldr	r3, [r3, #16]	@ D.10068, MEM[(struct GPIO_TypeDef *)1073873920B].IDR
 839 031e 13F0400F 		tst	r3, #64	@ D.10068,
 840 0322 244B     		ldr	r3, .L119+4	@ tmp227,
 221:.\src/stm32f4xx_it.c **** 			__rcInRise[PWM_In_Yaw] = thisCount;
 841              		.loc 1 221 0
 842 0324 1A88     		ldrh	r2, [r3, #0]	@, thisCount
 843 0326 14BF     		ite	ne
 844 0328 254B     		ldrne	r3, .L119+16	@ tmp191,
 222:.\src/stm32f4xx_it.c **** 		else
 223:.\src/stm32f4xx_it.c **** 			__rcInFall[PWM_In_Yaw] = thisCount;
 845              		.loc 1 223 0
 846 032a 264B     		ldreq	r3, .L119+20	@ tmp194,
 224:.\src/stm32f4xx_it.c **** 
 225:.\src/stm32f4xx_it.c **** 		EXTI_ClearITPendingBit(EXTI_Line6);
 847              		.loc 1 225 0
 848 032c 4020     		movs	r0, #64	@,
 223:.\src/stm32f4xx_it.c **** 			__rcInFall[PWM_In_Yaw] = thisCount;
 849              		.loc 1 223 0
 850 032e 9A80     		strh	r2, [r3, #4]	@ movhi	@ thisCount,
 851              		.loc 1 225 0
 852 0330 FFF7FEFF 		bl	EXTI_ClearITPendingBit	@
 853              	.LVL69:
 854              	.L68:
 226:.\src/stm32f4xx_it.c **** 	}
 227:.\src/stm32f4xx_it.c **** 
 228:.\src/stm32f4xx_it.c **** 	if(((EXTI->PR & EXTI_Line7) != (uint32_t)RESET) && ((EXTI->IMR & EXTI_Line7) != (uint32_t)RESET)){
 855              		.loc 1 228 0
 856 0334 204B     		ldr	r3, .L119+8	@ tmp197,
 857 0336 5A69     		ldr	r2, [r3, #20]	@ D.10073, MEM[(struct EXTI_TypeDef *)1073822720B].PR
 858 0338 1006     		lsls	r0, r2, #24	@, D.10073,
 859 033a 0FD5     		bpl	.L71	@,
 860              		.loc 1 228 0 is_stmt 0 discriminator 1
 861 033c 1B68     		ldr	r3, [r3, #0]	@ D.10077, MEM[(struct EXTI_TypeDef *)1073822720B].IMR
 862 033e 1906     		lsls	r1, r3, #24	@, D.10077,
 863 0340 0CD5     		bpl	.L71	@,
 229:.\src/stm32f4xx_it.c **** 		if((GPIOB->IDR & GPIO_Pin_7) == GPIO_Pin_7)
 864              		.loc 1 229 0 is_stmt 1
 865 0342 1E4B     		ldr	r3, .L119+12	@ tmp201,
 866 0344 1B69     		ldr	r3, [r3, #16]	@ D.10081, MEM[(struct GPIO_TypeDef *)1073873920B].IDR
 867 0346 13F0800F 		tst	r3, #128	@ D.10081,
 868 034a 1A4B     		ldr	r3, .L119+4	@ tmp228,
ARM GAS  C:\Users\Kevin\AppData\Local\Temp\cchDF9HP.s 			page 21


 230:.\src/stm32f4xx_it.c **** 			__rcInRise[PWM_In_Throttle] = thisCount;
 869              		.loc 1 230 0
 870 034c 1A88     		ldrh	r2, [r3, #0]	@, thisCount
 871 034e 14BF     		ite	ne
 872 0350 1B4B     		ldrne	r3, .L119+16	@ tmp203,
 231:.\src/stm32f4xx_it.c **** 		else
 232:.\src/stm32f4xx_it.c **** 			__rcInFall[PWM_In_Throttle] = thisCount;
 873              		.loc 1 232 0
 874 0352 1C4B     		ldreq	r3, .L119+20	@ tmp206,
 233:.\src/stm32f4xx_it.c **** 
 234:.\src/stm32f4xx_it.c **** 		EXTI_ClearITPendingBit(EXTI_Line7);
 875              		.loc 1 234 0
 876 0354 8020     		movs	r0, #128	@,
 232:.\src/stm32f4xx_it.c **** 			__rcInFall[PWM_In_Throttle] = thisCount;
 877              		.loc 1 232 0
 878 0356 DA80     		strh	r2, [r3, #6]	@ movhi	@ thisCount,
 879              		.loc 1 234 0
 880 0358 FFF7FEFF 		bl	EXTI_ClearITPendingBit	@
 881              	.LVL70:
 882              	.L71:
 235:.\src/stm32f4xx_it.c **** 	}
 236:.\src/stm32f4xx_it.c **** 
 237:.\src/stm32f4xx_it.c **** 	if(((EXTI->PR & EXTI_Line8) != (uint32_t)RESET) && ((EXTI->IMR & EXTI_Line8) != (uint32_t)RESET)){
 883              		.loc 1 237 0
 884 035c 164B     		ldr	r3, .L119+8	@ tmp209,
 885 035e 5A69     		ldr	r2, [r3, #20]	@ D.10086, MEM[(struct EXTI_TypeDef *)1073822720B].PR
 886 0360 D205     		lsls	r2, r2, #23	@, D.10086,
 887 0362 16D5     		bpl	.L74	@,
 888              		.loc 1 237 0 is_stmt 0 discriminator 1
 889 0364 1B68     		ldr	r3, [r3, #0]	@ D.10090, MEM[(struct EXTI_TypeDef *)1073822720B].IMR
 890 0366 D805     		lsls	r0, r3, #23	@, D.10090,
 891 0368 13D5     		bpl	.L74	@,
 238:.\src/stm32f4xx_it.c **** 		if((GPIOA->IDR & GPIO_Pin_8) == 0x00){
 892              		.loc 1 238 0 is_stmt 1
 893 036a 174B     		ldr	r3, .L119+24	@ tmp213,
 894 036c 1B69     		ldr	r3, [r3, #16]	@ D.10095, MEM[(struct GPIO_TypeDef *)1073872896B].IDR
 895 036e 13F48072 		ands	r2, r3, #256	@ tmp214, D.10095,
 896 0372 0AD1     		bne	.L76	@,
 239:.\src/stm32f4xx_it.c **** 			if(GyroITG3200Sensor->IsEnabled)
 897              		.loc 1 239 0
 898 0374 154B     		ldr	r3, .L119+28	@ tmp215,
 899 0376 1B68     		ldr	r3, [r3, #0]	@ GyroITG3200Sensor.11, GyroITG3200Sensor
 900 0378 5979     		ldrb	r1, [r3, #5]	@ zero_extendqisi2	@ GyroITG3200Sensor.11_46->IsEnabled, GyroITG3200Sensor.11_46
 901 037a 01B1     		cbz	r1, .L77	@ GyroITG3200Sensor.11_46->IsEnabled,
 240:.\src/stm32f4xx_it.c **** 				GyroITG3200Sensor->DataReady = DataReady;
 902              		.loc 1 240 0
 903 037c DA72     		strb	r2, [r3, #11]	@ tmp214, GyroITG3200Sensor.11_46->DataReady
 904              	.L77:
 241:.\src/stm32f4xx_it.c **** 
 242:.\src/stm32f4xx_it.c **** 			if(GyroMPU60x0Sensor->IsEnabled)
 905              		.loc 1 242 0
 906 037e 144B     		ldr	r3, .L119+32	@ tmp219,
 907 0380 1B68     		ldr	r3, [r3, #0]	@ GyroMPU60x0Sensor.12, GyroMPU60x0Sensor
 908 0382 5A79     		ldrb	r2, [r3, #5]	@ zero_extendqisi2	@ GyroMPU60x0Sensor.12_49->IsEnabled, GyroMPU60x0Sensor.12_49
 909 0384 0AB1     		cbz	r2, .L76	@ GyroMPU60x0Sensor.12_49->IsEnabled,
 243:.\src/stm32f4xx_it.c **** 				GyroMPU60x0Sensor->DataReady = DataReady;
 910              		.loc 1 243 0
ARM GAS  C:\Users\Kevin\AppData\Local\Temp\cchDF9HP.s 			page 22


 911 0386 0022     		movs	r2, #0	@ tmp221,
 912 0388 DA72     		strb	r2, [r3, #11]	@ tmp221, GyroMPU60x0Sensor.12_49->DataReady
 913              	.L76:
 244:.\src/stm32f4xx_it.c **** 		}
 245:.\src/stm32f4xx_it.c **** 
 246:.\src/stm32f4xx_it.c **** 		EXTI_ClearITPendingBit(EXTI_Line8);
 914              		.loc 1 246 0
 915 038a 4FF48070 		mov	r0, #256	@,
 916 038e FFF7FEFF 		bl	EXTI_ClearITPendingBit	@
 917              	.LVL71:
 918              	.L74:
 247:.\src/stm32f4xx_it.c **** 	}
 248:.\src/stm32f4xx_it.c **** 
 249:.\src/stm32f4xx_it.c **** 	if(((EXTI->PR & EXTI_Line9) != (uint32_t)RESET) && ((EXTI->IMR & EXTI_Line9) != (uint32_t)RESET)){
 919              		.loc 1 249 0
 920 0392 094B     		ldr	r3, .L119+8	@ tmp223,
 921 0394 5A69     		ldr	r2, [r3, #20]	@ D.10107, MEM[(struct EXTI_TypeDef *)1073822720B].PR
 922 0396 9105     		lsls	r1, r2, #22	@, D.10107,
 923 0398 08D5     		bpl	.L64	@,
 924              		.loc 1 249 0 is_stmt 0 discriminator 1
 925 039a 1B68     		ldr	r3, [r3, #0]	@ D.10111, MEM[(struct EXTI_TypeDef *)1073822720B].IMR
 926 039c 9A05     		lsls	r2, r3, #22	@, D.10111,
 927 039e 05D5     		bpl	.L64	@,
 250:.\src/stm32f4xx_it.c **** 
 251:.\src/stm32f4xx_it.c **** 		EXTI_ClearITPendingBit(EXTI_Line9);
 928              		.loc 1 251 0 is_stmt 1
 929 03a0 4FF40070 		mov	r0, #512	@,
 252:.\src/stm32f4xx_it.c **** 	}
 253:.\src/stm32f4xx_it.c **** }
 930              		.loc 1 253 0
 931 03a4 BDE80840 		pop	{r3, lr}	@
 251:.\src/stm32f4xx_it.c **** 		EXTI_ClearITPendingBit(EXTI_Line9);
 932              		.loc 1 251 0
 933 03a8 FFF7FEBF 		b	EXTI_ClearITPendingBit	@
 934              	.LVL72:
 935              	.L64:
 936 03ac 08BD     		pop	{r3, pc}	@
 937              	.L120:
 938 03ae 00BF     		.align	2
 939              	.L119:
 940 03b0 00200040 		.word	1073750016
 941 03b4 00000000 		.word	thisCount
 942 03b8 003C0140 		.word	1073822720
 943 03bc 00040240 		.word	1073873920
 944 03c0 00000000 		.word	__rcInRise
 945 03c4 00000000 		.word	__rcInFall
 946 03c8 00000240 		.word	1073872896
 947 03cc 00000000 		.word	GyroITG3200Sensor
 948 03d0 00000000 		.word	GyroMPU60x0Sensor
 949              		.cfi_endproc
 950              	.LFE122:
 951              		.size	EXTI9_5_IRQHandler, .-EXTI9_5_IRQHandler
 952              		.align	1
 953              		.global	EXTI15_10_IRQHandler
 954              		.thumb
 955              		.thumb_func
 956              		.type	EXTI15_10_IRQHandler, %function
ARM GAS  C:\Users\Kevin\AppData\Local\Temp\cchDF9HP.s 			page 23


 957              	EXTI15_10_IRQHandler:
 958              	.LFB123:
 254:.\src/stm32f4xx_it.c **** 
 255:.\src/stm32f4xx_it.c **** 
 256:.\src/stm32f4xx_it.c **** void EXTI15_10_IRQHandler(void){
 959              		.loc 1 256 0
 960              		.cfi_startproc
 961              		@ args = 0, pretend = 0, frame = 8
 962              		@ frame_needed = 0, uses_anonymous_args = 0
 963 03d4 13B5     		push	{r0, r1, r4, lr}	@
 964              	.LCFI9:
 965              		.cfi_def_cfa_offset 16
 966              		.cfi_offset 0, -16
 967              		.cfi_offset 1, -12
 968              		.cfi_offset 4, -8
 969              		.cfi_offset 14, -4
 257:.\src/stm32f4xx_it.c **** 	volatile uint16_t thisCount = (uint16_t)TMR_PWM_CAPTURE->CNT;
 970              		.loc 1 257 0
 971 03d6 314B     		ldr	r3, .L163	@ tmp171,
 258:.\src/stm32f4xx_it.c **** 
 259:.\src/stm32f4xx_it.c **** 	if(((EXTI->PR & EXTI_Line10) != (uint32_t)RESET) &&	((EXTI->IMR & EXTI_Line10) != (uint32_t)RESET)
 972              		.loc 1 259 0
 973 03d8 314C     		ldr	r4, .L163+4	@ tmp173,
 257:.\src/stm32f4xx_it.c **** 	volatile uint16_t thisCount = (uint16_t)TMR_PWM_CAPTURE->CNT;
 974              		.loc 1 257 0
 975 03da 5B6A     		ldr	r3, [r3, #36]	@ D.9968, MEM[(struct TIM_TypeDef *)1073750016B].CNT
 976              	.LVL73:
 977 03dc ADF80630 		strh	r3, [sp, #6]	@ movhi	@ thisCount.0, thisCount
 978              		.loc 1 259 0
 979 03e0 6369     		ldr	r3, [r4, #20]	@ D.9971, MEM[(struct EXTI_TypeDef *)1073822720B].PR
 980              	.LVL74:
 981 03e2 5B05     		lsls	r3, r3, #21	@, D.9971,
 982 03e4 0ED5     		bpl	.L122	@,
 983              		.loc 1 259 0 is_stmt 0 discriminator 1
 984 03e6 2368     		ldr	r3, [r4, #0]	@ D.9975, MEM[(struct EXTI_TypeDef *)1073822720B].IMR
 985 03e8 5805     		lsls	r0, r3, #21	@, D.9975,
 986 03ea 0BD5     		bpl	.L122	@,
 260:.\src/stm32f4xx_it.c **** 		if((GPIOC->IDR & GPIO_Pin_10) == 0x00)
 987              		.loc 1 260 0 is_stmt 1
 988 03ec 2D4B     		ldr	r3, .L163+8	@ tmp177,
 989 03ee 1B69     		ldr	r3, [r3, #16]	@ D.9980, MEM[(struct GPIO_TypeDef *)1073874944B].IDR
 990 03f0 13F48063 		ands	r3, r3, #1024	@ tmp178, D.9980,
 991 03f4 02D1     		bne	.L123	@,
 261:.\src/stm32f4xx_it.c **** 			GyroL3GD20Sensor->DataReady = DataReady;
 992              		.loc 1 261 0
 993 03f6 2C4A     		ldr	r2, .L163+12	@ tmp180,
 994 03f8 1268     		ldr	r2, [r2, #0]	@ GyroL3GD20Sensor, GyroL3GD20Sensor
 995 03fa D372     		strb	r3, [r2, #11]	@ tmp178, GyroL3GD20Sensor.1_13->DataReady
 996              	.L123:
 262:.\src/stm32f4xx_it.c **** 
 263:.\src/stm32f4xx_it.c **** 		EXTI_ClearITPendingBit(EXTI_Line10);
 997              		.loc 1 263 0
 998 03fc 4FF48060 		mov	r0, #1024	@,
 999 0400 FFF7FEFF 		bl	EXTI_ClearITPendingBit	@
 1000              	.LVL75:
 1001              	.L122:
 264:.\src/stm32f4xx_it.c **** 	}
ARM GAS  C:\Users\Kevin\AppData\Local\Temp\cchDF9HP.s 			page 24


 265:.\src/stm32f4xx_it.c **** 
 266:.\src/stm32f4xx_it.c **** 	if(((EXTI->PR & EXTI_Line11) != (uint32_t)RESET) &&	((EXTI->IMR & EXTI_Line11) != (uint32_t)RESET)
 1002              		.loc 1 266 0
 1003 0404 6369     		ldr	r3, [r4, #20]	@ D.9985, MEM[(struct EXTI_TypeDef *)1073822720B].PR
 1004 0406 1905     		lsls	r1, r3, #20	@, D.9985,
 1005 0408 10D5     		bpl	.L124	@,
 1006              		.loc 1 266 0 is_stmt 0 discriminator 1
 1007 040a 254B     		ldr	r3, .L163+4	@ tmp183,
 1008 040c 1B68     		ldr	r3, [r3, #0]	@ D.9989, MEM[(struct EXTI_TypeDef *)1073822720B].IMR
 1009 040e 1A05     		lsls	r2, r3, #20	@, D.9989,
 1010 0410 0CD5     		bpl	.L124	@,
 267:.\src/stm32f4xx_it.c **** 		if((GPIOC->IDR & GPIO_Pin_11) == GPIO_Pin_11)
 1011              		.loc 1 267 0 is_stmt 1
 1012 0412 244B     		ldr	r3, .L163+8	@ tmp187,
 1013 0414 1B69     		ldr	r3, [r3, #16]	@ D.9993, MEM[(struct GPIO_TypeDef *)1073874944B].IDR
 268:.\src/stm32f4xx_it.c **** 			__rcInRise[PWM_In_Aux1] = thisCount;
 1014              		.loc 1 268 0
 1015 0416 BDF80620 		ldrh	r2, [sp, #6]	@, thisCount
 267:.\src/stm32f4xx_it.c **** 		if((GPIOC->IDR & GPIO_Pin_11) == GPIO_Pin_11)
 1016              		.loc 1 267 0
 1017 041a 1B05     		lsls	r3, r3, #20	@, D.9993,
 1018              		.loc 1 268 0
 1019 041c 4CBF     		ite	mi
 1020 041e 234B     		ldrmi	r3, .L163+16	@ tmp191,
 269:.\src/stm32f4xx_it.c **** 		else
 270:.\src/stm32f4xx_it.c **** 			__rcInFall[PWM_In_Aux1] = thisCount;
 1021              		.loc 1 270 0
 1022 0420 234B     		ldrpl	r3, .L163+20	@ tmp195,
 271:.\src/stm32f4xx_it.c **** 
 272:.\src/stm32f4xx_it.c **** 		EXTI_ClearITPendingBit(EXTI_Line11);
 1023              		.loc 1 272 0
 1024 0422 4FF40060 		mov	r0, #2048	@,
 1025              	.LVL76:
 270:.\src/stm32f4xx_it.c **** 			__rcInFall[PWM_In_Aux1] = thisCount;
 1026              		.loc 1 270 0
 1027 0426 1A81     		strh	r2, [r3, #8]	@ movhi	@ thisCount,
 1028              		.loc 1 272 0
 1029 0428 FFF7FEFF 		bl	EXTI_ClearITPendingBit	@
 1030              	.LVL77:
 1031              	.L124:
 273:.\src/stm32f4xx_it.c **** 	}
 274:.\src/stm32f4xx_it.c **** 
 275:.\src/stm32f4xx_it.c **** 	if(((EXTI->PR & EXTI_Line12) != (uint32_t)RESET) &&	((EXTI->IMR & EXTI_Line12) != (uint32_t)RESET)
 1032              		.loc 1 275 0
 1033 042c 1C4B     		ldr	r3, .L163+4	@ tmp197,
 1034 042e 5A69     		ldr	r2, [r3, #20]	@ D.10000, MEM[(struct EXTI_TypeDef *)1073822720B].PR
 1035 0430 D404     		lsls	r4, r2, #19	@, D.10000,
 1036 0432 0CD5     		bpl	.L127	@,
 1037              		.loc 1 275 0 is_stmt 0 discriminator 1
 1038 0434 1B68     		ldr	r3, [r3, #0]	@ D.10004, MEM[(struct EXTI_TypeDef *)1073822720B].IMR
 1039 0436 D804     		lsls	r0, r3, #19	@, D.10004,
 1040 0438 09D5     		bpl	.L127	@,
 276:.\src/stm32f4xx_it.c **** 		if((GPIOC->IDR & GPIO_Pin_12) == GPIO_Pin_11)
 1041              		.loc 1 276 0 is_stmt 1
 1042 043a 1A4B     		ldr	r3, .L163+8	@ tmp201,
 1043 043c 1B69     		ldr	r3, [r3, #16]	@ vol.4, MEM[(struct GPIO_TypeDef *)1073874944B].IDR
 277:.\src/stm32f4xx_it.c **** 			__rcInRise[PWM_In_Aux2] = thisCount;
ARM GAS  C:\Users\Kevin\AppData\Local\Temp\cchDF9HP.s 			page 25


 278:.\src/stm32f4xx_it.c **** 		else
 279:.\src/stm32f4xx_it.c **** 			__rcInFall[PWM_In_Aux2] = thisCount;
 1044              		.loc 1 279 0
 1045 043e BDF80620 		ldrh	r2, [sp, #6]	@, thisCount
 1046 0442 1B4B     		ldr	r3, .L163+20	@ tmp204,
 280:.\src/stm32f4xx_it.c **** 
 281:.\src/stm32f4xx_it.c **** 		EXTI_ClearITPendingBit(EXTI_Line12);
 1047              		.loc 1 281 0
 1048 0444 4FF48050 		mov	r0, #4096	@,
 1049              	.LVL78:
 279:.\src/stm32f4xx_it.c **** 			__rcInFall[PWM_In_Aux2] = thisCount;
 1050              		.loc 1 279 0
 1051 0448 5A81     		strh	r2, [r3, #10]	@ movhi	@ thisCount, __rcInFall
 1052              		.loc 1 281 0
 1053 044a FFF7FEFF 		bl	EXTI_ClearITPendingBit	@
 1054              	.LVL79:
 1055              	.L127:
 282:.\src/stm32f4xx_it.c **** 	}
 283:.\src/stm32f4xx_it.c **** 
 284:.\src/stm32f4xx_it.c **** 	if(((EXTI->PR & EXTI_Line13) != (uint32_t)RESET) &&	((EXTI->IMR & EXTI_Line13) != (uint32_t)RESET)
 1056              		.loc 1 284 0
 1057 044e 144C     		ldr	r4, .L163+4	@ tmp206,
 1058 0450 6369     		ldr	r3, [r4, #20]	@ D.10014, MEM[(struct EXTI_TypeDef *)1073822720B].PR
 1059 0452 9904     		lsls	r1, r3, #18	@, D.10014,
 1060 0454 0ED5     		bpl	.L128	@,
 1061              		.loc 1 284 0 is_stmt 0 discriminator 1
 1062 0456 2368     		ldr	r3, [r4, #0]	@ D.10018, MEM[(struct EXTI_TypeDef *)1073822720B].IMR
 1063 0458 9A04     		lsls	r2, r3, #18	@, D.10018,
 1064 045a 0BD5     		bpl	.L128	@,
 285:.\src/stm32f4xx_it.c **** 		if((GPIOB->IDR & GPIO_Pin_13) == 0x00)
 1065              		.loc 1 285 0 is_stmt 1
 1066 045c 154B     		ldr	r3, .L163+24	@ tmp210,
 1067 045e 1B69     		ldr	r3, [r3, #16]	@ D.10023, MEM[(struct GPIO_TypeDef *)1073873920B].IDR
 1068 0460 13F40053 		ands	r3, r3, #8192	@ tmp211, D.10023,
 1069 0464 02D1     		bne	.L129	@,
 286:.\src/stm32f4xx_it.c **** 			AccLSM303Sensor->DataReady = DataReady;
 1070              		.loc 1 286 0
 1071 0466 144A     		ldr	r2, .L163+28	@ tmp213,
 1072 0468 1268     		ldr	r2, [r2, #0]	@ AccLSM303Sensor, AccLSM303Sensor
 1073 046a D372     		strb	r3, [r2, #11]	@ tmp211, AccLSM303Sensor.7_43->DataReady
 1074              	.L129:
 287:.\src/stm32f4xx_it.c **** 
 288:.\src/stm32f4xx_it.c **** 		EXTI_ClearITPendingBit(EXTI_Line13);
 1075              		.loc 1 288 0
 1076 046c 4FF40050 		mov	r0, #8192	@,
 1077 0470 FFF7FEFF 		bl	EXTI_ClearITPendingBit	@
 1078              	.LVL80:
 1079              	.L128:
 289:.\src/stm32f4xx_it.c **** 	}
 290:.\src/stm32f4xx_it.c **** 
 291:.\src/stm32f4xx_it.c **** 	if(((EXTI->PR & EXTI_Line14) != (uint32_t)RESET) &&	((EXTI->IMR & EXTI_Line14) != (uint32_t)RESET)
 1080              		.loc 1 291 0
 1081 0474 6369     		ldr	r3, [r4, #20]	@ D.10028, MEM[(struct EXTI_TypeDef *)1073822720B].PR
 1082 0476 5B04     		lsls	r3, r3, #17	@, D.10028,
 1083 0478 0FD5     		bpl	.L121	@,
 1084              		.loc 1 291 0 is_stmt 0 discriminator 1
 1085 047a 094B     		ldr	r3, .L163+4	@ tmp216,
ARM GAS  C:\Users\Kevin\AppData\Local\Temp\cchDF9HP.s 			page 26


 1086 047c 1B68     		ldr	r3, [r3, #0]	@ D.10032, MEM[(struct EXTI_TypeDef *)1073822720B].IMR
 1087 047e 5804     		lsls	r0, r3, #17	@, D.10032,
 1088 0480 0BD5     		bpl	.L121	@,
 292:.\src/stm32f4xx_it.c **** 		if((GPIOB->IDR & GPIO_Pin_14) == 0x00)
 1089              		.loc 1 292 0 is_stmt 1
 1090 0482 0C4B     		ldr	r3, .L163+24	@ tmp220,
 1091 0484 1B69     		ldr	r3, [r3, #16]	@ D.10036, MEM[(struct GPIO_TypeDef *)1073873920B].IDR
 1092 0486 13F48043 		ands	r3, r3, #16384	@ tmp221, D.10036,
 1093 048a 02D1     		bne	.L131	@,
 293:.\src/stm32f4xx_it.c **** 			AccADXL345Sensor->DataReady = DataReady;
 1094              		.loc 1 293 0
 1095 048c 0B4A     		ldr	r2, .L163+32	@ tmp223,
 1096 048e 1268     		ldr	r2, [r2, #0]	@ AccADXL345Sensor, AccADXL345Sensor
 1097 0490 D372     		strb	r3, [r2, #11]	@ tmp221, AccADXL345Sensor.8_53->DataReady
 1098              	.L131:
 294:.\src/stm32f4xx_it.c **** 
 295:.\src/stm32f4xx_it.c **** 		EXTI_ClearITPendingBit(EXTI_Line14);
 1099              		.loc 1 295 0
 1100 0492 4FF48040 		mov	r0, #16384	@,
 1101 0496 FFF7FEFF 		bl	EXTI_ClearITPendingBit	@
 1102              	.LVL81:
 1103              	.L121:
 296:.\src/stm32f4xx_it.c **** 	}
 297:.\src/stm32f4xx_it.c **** }
 1104              		.loc 1 297 0
 1105 049a 1CBD     		pop	{r2, r3, r4, pc}
 1106              	.L164:
 1107              		.align	2
 1108              	.L163:
 1109 049c 00200040 		.word	1073750016
 1110 04a0 003C0140 		.word	1073822720
 1111 04a4 00080240 		.word	1073874944
 1112 04a8 00000000 		.word	GyroL3GD20Sensor
 1113 04ac 00000000 		.word	__rcInRise
 1114 04b0 00000000 		.word	__rcInFall
 1115 04b4 00040240 		.word	1073873920
 1116 04b8 00000000 		.word	AccLSM303Sensor
 1117 04bc 00000000 		.word	AccADXL345Sensor
 1118              		.cfi_endproc
 1119              	.LFE123:
 1120              		.size	EXTI15_10_IRQHandler, .-EXTI15_10_IRQHandler
 1121              		.align	1
 1122              		.global	RCC_IRQHandler
 1123              		.thumb
 1124              		.thumb_func
 1125              		.type	RCC_IRQHandler, %function
 1126              	RCC_IRQHandler:
 1127              	.LFB124:
 298:.\src/stm32f4xx_it.c **** 
 299:.\src/stm32f4xx_it.c **** void RCC_IRQHandler(void){
 1128              		.loc 1 299 0
 1129              		.cfi_startproc
 1130              		@ args = 0, pretend = 0, frame = 0
 1131              		@ frame_needed = 0, uses_anonymous_args = 0
 1132 04c0 08B5     		push	{r3, lr}	@
 1133              	.LCFI10:
 1134              		.cfi_def_cfa_offset 8
ARM GAS  C:\Users\Kevin\AppData\Local\Temp\cchDF9HP.s 			page 27


 1135              		.cfi_offset 3, -8
 1136              		.cfi_offset 14, -4
 300:.\src/stm32f4xx_it.c **** 	if(RCC_GetITStatus(RCC_IT_HSERDY) != RESET){
 1137              		.loc 1 300 0
 1138 04c2 0820     		movs	r0, #8	@,
 1139 04c4 FFF7FEFF 		bl	RCC_GetITStatus	@
 1140              	.LVL82:
 1141 04c8 48B1     		cbz	r0, .L167	@,
 301:.\src/stm32f4xx_it.c **** 		RCC_ClearITPendingBit(RCC_IT_HSERDY);
 1142              		.loc 1 301 0
 1143 04ca 0820     		movs	r0, #8	@,
 1144 04cc FFF7FEFF 		bl	RCC_ClearITPendingBit	@
 1145              	.LVL83:
 302:.\src/stm32f4xx_it.c **** 
 303:.\src/stm32f4xx_it.c ****     if (RCC_GetFlagStatus(RCC_FLAG_HSERDY) != RESET){
 1146              		.loc 1 303 0
 1147 04d0 3120     		movs	r0, #49	@,
 1148 04d2 FFF7FEFF 		bl	RCC_GetFlagStatus	@
 1149              	.LVL84:
 1150 04d6 10B1     		cbz	r0, .L167	@,
 304:.\src/stm32f4xx_it.c ****     		RCC_PLLCmd(ENABLE);
 1151              		.loc 1 304 0
 1152 04d8 0120     		movs	r0, #1	@,
 1153 04da FFF7FEFF 		bl	RCC_PLLCmd	@
 1154              	.LVL85:
 1155              	.L167:
 305:.\src/stm32f4xx_it.c ****     	}
 306:.\src/stm32f4xx_it.c **** 	}
 307:.\src/stm32f4xx_it.c **** 
 308:.\src/stm32f4xx_it.c **** 	if(RCC_GetITStatus(RCC_IT_PLLRDY) != RESET){
 1156              		.loc 1 308 0
 1157 04de 1020     		movs	r0, #16	@,
 1158 04e0 FFF7FEFF 		bl	RCC_GetITStatus	@
 1159              	.LVL86:
 1160 04e4 58B1     		cbz	r0, .L165	@,
 309:.\src/stm32f4xx_it.c **** 		RCC_ClearITPendingBit(RCC_IT_PLLRDY);
 1161              		.loc 1 309 0
 1162 04e6 1020     		movs	r0, #16	@,
 1163 04e8 FFF7FEFF 		bl	RCC_ClearITPendingBit	@
 1164              	.LVL87:
 310:.\src/stm32f4xx_it.c **** 
 311:.\src/stm32f4xx_it.c **** 		if (RCC_GetFlagStatus(RCC_FLAG_PLLRDY) != RESET){
 1165              		.loc 1 311 0
 1166 04ec 3920     		movs	r0, #57	@,
 1167 04ee FFF7FEFF 		bl	RCC_GetFlagStatus	@
 1168              	.LVL88:
 1169 04f2 20B1     		cbz	r0, .L165	@,
 312:.\src/stm32f4xx_it.c **** 			RCC_SYSCLKConfig(RCC_SYSCLKSource_PLLCLK);
 1170              		.loc 1 312 0
 1171 04f4 0220     		movs	r0, #2	@,
 313:.\src/stm32f4xx_it.c **** 		}
 314:.\src/stm32f4xx_it.c **** 	}
 315:.\src/stm32f4xx_it.c **** }
 1172              		.loc 1 315 0
 1173 04f6 BDE80840 		pop	{r3, lr}	@
 312:.\src/stm32f4xx_it.c **** 			RCC_SYSCLKConfig(RCC_SYSCLKSource_PLLCLK);
 1174              		.loc 1 312 0
ARM GAS  C:\Users\Kevin\AppData\Local\Temp\cchDF9HP.s 			page 28


 1175 04fa FFF7FEBF 		b	RCC_SYSCLKConfig	@
 1176              	.LVL89:
 1177              	.L165:
 1178 04fe 08BD     		pop	{r3, pc}	@
 1179              		.cfi_endproc
 1180              	.LFE124:
 1181              		.size	RCC_IRQHandler, .-RCC_IRQHandler
 1182              		.align	1
 1183              		.global	SVC_Handler
 1184              		.thumb
 1185              		.thumb_func
 1186              		.type	SVC_Handler, %function
 1187              	SVC_Handler:
 1188              	.LFB125:
 316:.\src/stm32f4xx_it.c **** 
 317:.\src/stm32f4xx_it.c **** /*
 318:.\src/stm32f4xx_it.c **** //#ifdef USE_USB_OTG_FS
 319:.\src/stm32f4xx_it.c **** void OTG_FS_WKUP_IRQHandler(void)
 320:.\src/stm32f4xx_it.c **** {
 321:.\src/stm32f4xx_it.c ****   if(USB_OTG_dev.cfg.low_power)
 322:.\src/stm32f4xx_it.c ****   {
 323:.\src/stm32f4xx_it.c ****     *(uint32_t *)(0xE000ED10) &= 0xFFFFFFF9 ;
 324:.\src/stm32f4xx_it.c ****     SystemInit();
 325:.\src/stm32f4xx_it.c ****     USB_OTG_UngateClock(&USB_OTG_dev);
 326:.\src/stm32f4xx_it.c ****   }
 327:.\src/stm32f4xx_it.c ****   EXTI_ClearITPendingBit(EXTI_Line18);
 328:.\src/stm32f4xx_it.c **** }*/
 329:.\src/stm32f4xx_it.c **** //#endif
 330:.\src/stm32f4xx_it.c **** 
 331:.\src/stm32f4xx_it.c **** /**
 332:.\src/stm32f4xx_it.c ****   * @brief  This function handles EXTI15_10_IRQ Handler.
 333:.\src/stm32f4xx_it.c ****   * @param  None
 334:.\src/stm32f4xx_it.c ****   * @retval None
 335:.\src/stm32f4xx_it.c ****   */
 336:.\src/stm32f4xx_it.c **** #ifdef USE_USB_OTG_HS
 337:.\src/stm32f4xx_it.c **** void OTG_HS_WKUP_IRQHandler(void)
 338:.\src/stm32f4xx_it.c **** {
 339:.\src/stm32f4xx_it.c ****   if(USB_OTG_dev.cfg.low_power)
 340:.\src/stm32f4xx_it.c ****   {
 341:.\src/stm32f4xx_it.c ****     *(uint32_t *)(0xE000ED10) &= 0xFFFFFFF9 ;
 342:.\src/stm32f4xx_it.c ****     SystemInit();
 343:.\src/stm32f4xx_it.c ****     USB_OTG_UngateClock(&USB_OTG_dev);
 344:.\src/stm32f4xx_it.c ****   }
 345:.\src/stm32f4xx_it.c ****   EXTI_ClearITPendingBit(EXTI_Line20);
 346:.\src/stm32f4xx_it.c **** }
 347:.\src/stm32f4xx_it.c **** #endif
 348:.\src/stm32f4xx_it.c **** 
 349:.\src/stm32f4xx_it.c **** /**
 350:.\src/stm32f4xx_it.c ****   * @brief  This function handles OTG_HS Handler.
 351:.\src/stm32f4xx_it.c ****   * @param  None
 352:.\src/stm32f4xx_it.c ****   * @retval None
 353:.\src/stm32f4xx_it.c ****   */
 354:.\src/stm32f4xx_it.c **** 
 355:.\src/stm32f4xx_it.c **** #ifdef USB_OTG_HS_DEDICATED_EP1_ENABLED
 356:.\src/stm32f4xx_it.c **** /**
 357:.\src/stm32f4xx_it.c ****   * @brief  This function handles EP1_IN Handler.
 358:.\src/stm32f4xx_it.c ****   * @param  None
ARM GAS  C:\Users\Kevin\AppData\Local\Temp\cchDF9HP.s 			page 29


 359:.\src/stm32f4xx_it.c ****   * @retval None
 360:.\src/stm32f4xx_it.c ****   */
 361:.\src/stm32f4xx_it.c **** void OTG_HS_EP1_IN_IRQHandler(void)
 362:.\src/stm32f4xx_it.c **** {
 363:.\src/stm32f4xx_it.c ****   USBD_OTG_EP1IN_ISR_Handler (&USB_OTG_dev);
 364:.\src/stm32f4xx_it.c **** }
 365:.\src/stm32f4xx_it.c **** 
 366:.\src/stm32f4xx_it.c **** /**
 367:.\src/stm32f4xx_it.c ****   * @brief  This function handles EP1_OUT Handler.
 368:.\src/stm32f4xx_it.c ****   * @param  None
 369:.\src/stm32f4xx_it.c ****   * @retval None
 370:.\src/stm32f4xx_it.c ****   */
 371:.\src/stm32f4xx_it.c **** void OTG_HS_EP1_OUT_IRQHandler(void)
 372:.\src/stm32f4xx_it.c **** {
 373:.\src/stm32f4xx_it.c ****   USBD_OTG_EP1OUT_ISR_Handler (&USB_OTG_dev);
 374:.\src/stm32f4xx_it.c **** }
 375:.\src/stm32f4xx_it.c **** #endif
 376:.\src/stm32f4xx_it.c **** 
 377:.\src/stm32f4xx_it.c **** 
 378:.\src/stm32f4xx_it.c **** void SVC_Handler(void) {}
 1189              		.loc 1 378 0
 1190              		.cfi_startproc
 1191              		@ args = 0, pretend = 0, frame = 0
 1192              		@ frame_needed = 0, uses_anonymous_args = 0
 1193              		@ link register save eliminated.
 1194 0500 7047     		bx	lr	@
 1195              		.cfi_endproc
 1196              	.LFE125:
 1197              		.size	SVC_Handler, .-SVC_Handler
 1198              		.align	1
 1199              		.global	PendSV_Handler
 1200              		.thumb
 1201              		.thumb_func
 1202              		.type	PendSV_Handler, %function
 1203              	PendSV_Handler:
 1204              	.LFB126:
 379:.\src/stm32f4xx_it.c **** void PendSV_Handler(void) {}
 1205              		.loc 1 379 0
 1206              		.cfi_startproc
 1207              		@ args = 0, pretend = 0, frame = 0
 1208              		@ frame_needed = 0, uses_anonymous_args = 0
 1209              		@ link register save eliminated.
 1210 0502 7047     		bx	lr	@
 1211              		.cfi_endproc
 1212              	.LFE126:
 1213              		.size	PendSV_Handler, .-PendSV_Handler
 1214              		.comm	thisCount,2,2
 1215              		.comm	isr,4,4
 1216              		.comm	__hf_stacked_pc,4,4
 1217              		.comm	I2CZeroJob,4,4
 1218              		.section	.rodata.str1.1,"aMS",%progbits,1
 1219              	.LC0:
 1220 0000 3A2000   		.ascii	": \000"
 1221              	.LC1:
 1222 0003 0D0A00   		.ascii	"\015\012\000"
 1223              	.LC2:
 1224 0006 0D0A4841 		.ascii	"\015\012HARD FAULT\015\012\000"
ARM GAS  C:\Users\Kevin\AppData\Local\Temp\cchDF9HP.s 			page 30


 1224      52442046 
 1224      41554C54 
 1224      0D0A00
 1225              	.LC3:
 1226 0015 3D3D3D3D 		.ascii	"==================\015\012\000"
 1226      3D3D3D3D 
 1226      3D3D3D3D 
 1226      3D3D3D3D 
 1226      3D3D0D0A 
 1227              	.LC4:
 1228 002a 726F2000 		.ascii	"ro \000"
 1229              	.LC5:
 1230 002e 72312000 		.ascii	"r1 \000"
 1231              	.LC6:
 1232 0032 72322000 		.ascii	"r2 \000"
 1233              	.LC7:
 1234 0036 72332000 		.ascii	"r3 \000"
 1235              	.LC8:
 1236 003a 72313200 		.ascii	"r12\000"
 1237              	.LC9:
 1238 003e 6C722000 		.ascii	"lr \000"
 1239              	.LC10:
 1240 0042 70632000 		.ascii	"pc \000"
 1241              	.LC11:
 1242 0046 70737200 		.ascii	"psr\000"
 1243              		.text
 1244              	.Letext0:
 1245              		.file 2 "k:\\electronics\\gcc\\bin\\../lib/gcc/arm-none-eabi/4.7.2/../../../../arm-none-eabi/inclu
 1246              		.file 3 ".\\inc/stm32f4xx.h"
 1247              		.file 4 ".\\stm32f4periph\\inc/stm32f4xx_gpio.h"
 1248              		.file 5 ".\\inc/twb_config.h"
 1249              		.file 6 ".\\inc/common/twb_common.h"
 1250              		.file 7 ".\\inc/common/twb_i2c.h"
 1251              		.file 8 ".\\inc/sensors/snsr_main.h"
 1252              		.file 9 ".\\inc/commo/wifi.h"
 1253              		.file 10 ".\\inc/core_cm4.h"
 1254              		.file 11 ".\\inc/flight/pwm_capture.h"
 1255              		.file 12 ".\\stm32f4periph\\inc/stm32f4xx_rcc.h"
 1256              		.file 13 ".\\stm32f4periph\\inc/stm32f4xx_usart.h"
 1257              		.file 14 ".\\inc/sensors/gps.h"
 1258              		.file 15 ".\\inc/common/twb_debug.h"
 1259              		.file 16 ".\\inc/system/cli.h"
 1260              		.file 17 ".\\inc/commo/msg_parser.h"
 1261              		.file 18 ".\\stm32f4periph\\inc/stm32f4xx_exti.h"