ARM GAS  C:\Users\Kevin\AppData\Local\Temp\cc2AQj48.s 			page 1


   1              		.syntax unified
   2              		.cpu cortex-m4
   3              		.eabi_attribute 27, 3	@ Tag_ABI_HardFP_use
   4              		.eabi_attribute 28, 1	@ Tag_ABI_VFP_args
   5              		.fpu fpv4-sp-d16
   6              		.eabi_attribute 20, 1	@ Tag_ABI_FP_denormal
   7              		.eabi_attribute 21, 1	@ Tag_ABI_FP_exceptions
   8              		.eabi_attribute 23, 3	@ Tag_ABI_FP_number_model
   9              		.eabi_attribute 24, 1	@ Tag_ABI_align8_needed
  10              		.eabi_attribute 25, 1	@ Tag_ABI_align8_preserved
  11              		.eabi_attribute 26, 1	@ Tag_ABI_enum_size
  12              		.eabi_attribute 30, 4	@ Tag_ABI_optimization_goals
  13              		.eabi_attribute 34, 1	@ Tag_CPU_unaligned_access
  14              		.eabi_attribute 18, 4	@ Tag_ABI_PCS_wchar_t
  15              		.file	"stm32f4xx_i2c.c"
  16              	@ GNU C (Sourcery CodeBench Lite 2012.09-63) version 4.7.2 (arm-none-eabi)
  17              	@	compiled by GNU C version 4.3.2, GMP version 5.0.5, MPFR version 3.1.1-p2, MPC version 1.0.1
  18              	@ GGC heuristics: --param ggc-min-expand=100 --param ggc-min-heapsize=131072
  19              	@ options passed:  -I . -I \STMSPINCDDIR -I .\stm32f4periph\inc
  20              	@ -I .\CMSIS\Include -I .\inc\commo\usb -I .\inc\commo -I .\inc\common
  21              	@ -I .\inc -imultilib thumb2
  22              	@ -iprefix k:\electronics\gcc\bin\../lib/gcc/arm-none-eabi/4.7.2/
  23              	@ -isysroot k:\electronics\gcc\bin\../arm-none-eabi
  24              	@ -MD .\stm32f4periph\src\stm32f4xx_i2c.d -MF .dep\stm32f4xx_i2c.o.d -MP
  25              	@ -MQ .\stm32f4periph\src\stm32f4xx_i2c.o -D__USES_INITFINI__ -D STM32F0XX
  26              	@ -D USE_STDPERIPH_DRIVER -D RUN_FROM_FLASH=1
  27              	@ -D __CS_SOURCERYGXX_MAJ__=2012 -D __CS_SOURCERYGXX_MIN__=9
  28              	@ -D __CS_SOURCERYGXX_REV__=63 .\stm32f4periph\src\stm32f4xx_i2c.c
  29              	@ -mcpu=cortex-m4 -mfpu=fpv4-sp-d16 -mfloat-abi=hard -mthumb
  30              	@ -auxbase-strip .\stm32f4periph\src\stm32f4xx_i2c.o -gdwarf-2 -Os -Wall
  31              	@ -Wstrict-prototypes -std=gnu99 -fomit-frame-pointer -fverbose-asm
  32              	@ options enabled:  -fauto-inc-dec -fbranch-count-reg -fcaller-saves
  33              	@ -fcombine-stack-adjustments -fcommon -fcompare-elim -fcprop-registers
  34              	@ -fcrossjumping -fcse-follow-jumps -fdebug-types-section -fdefer-pop
  35              	@ -fdelete-null-pointer-checks -fdevirtualize -fdwarf2-cfi-asm
  36              	@ -fearly-inlining -feliminate-unused-debug-types -fexpensive-optimizations
  37              	@ -fextension-elimination -fforward-propagate -ffunction-cse -fgcse
  38              	@ -fgcse-lm -fgnu-runtime -fguess-branch-probability -fident
  39              	@ -fif-conversion -fif-conversion2 -findirect-inlining -finline
  40              	@ -finline-atomics -finline-functions -finline-functions-called-once
  41              	@ -finline-small-functions -fipa-cp -fipa-profile -fipa-pure-const
  42              	@ -fipa-reference -fipa-sra -fira-share-save-slots -fira-share-spill-slots
  43              	@ -fivopts -fkeep-static-consts -fleading-underscore -fmath-errno
  44              	@ -fmerge-constants -fmerge-debug-strings -fmove-loop-invariants
  45              	@ -fomit-frame-pointer -foptimize-register-move -foptimize-sibling-calls
  46              	@ -fpartial-inlining -fpeephole -fpeephole2 -fprefetch-loop-arrays
  47              	@ -freg-struct-return -fregmove -freorder-blocks -freorder-functions
  48              	@ -frerun-cse-after-loop -fsched-critical-path-heuristic
  49              	@ -fsched-dep-count-heuristic -fsched-group-heuristic -fsched-interblock
  50              	@ -fsched-last-insn-heuristic -fsched-rank-heuristic -fsched-spec
  51              	@ -fsched-spec-insn-heuristic -fsched-stalled-insns-dep -fschedule-insns2
  52              	@ -fsection-anchors -fshow-column -fshrink-wrap -fsigned-zeros
  53              	@ -fsplit-ivs-in-unroller -fsplit-wide-types -fstrict-aliasing
  54              	@ -fstrict-overflow -fstrict-volatile-bitfields -fthread-jumps
  55              	@ -ftoplevel-reorder -ftrapping-math -ftree-bit-ccp -ftree-builtin-call-dce
  56              	@ -ftree-ccp -ftree-ch -ftree-copy-prop -ftree-copyrename -ftree-cselim
  57              	@ -ftree-dce -ftree-dominator-opts -ftree-dse -ftree-forwprop -ftree-fre
ARM GAS  C:\Users\Kevin\AppData\Local\Temp\cc2AQj48.s 			page 2


  58              	@ -ftree-if-to-switch-conversion -ftree-loop-if-convert -ftree-loop-im
  59              	@ -ftree-loop-ivcanon -ftree-loop-optimize -ftree-parallelize-loops=
  60              	@ -ftree-phiprop -ftree-pre -ftree-pta -ftree-reassoc -ftree-scev-cprop
  61              	@ -ftree-sink -ftree-slp-vectorize -ftree-sra -ftree-switch-conversion
  62              	@ -ftree-tail-merge -ftree-ter -ftree-vect-loop-version -ftree-vrp
  63              	@ -funit-at-a-time -fvar-tracking -fvar-tracking-assignments -fverbose-asm
  64              	@ -fzero-initialized-in-bss -mlittle-endian -msched-prolog -mthumb
  65              	@ -munaligned-access -mvectorize-with-neon-quad
  66              	
  67              		.text
  68              	.Ltext0:
  69              		.cfi_sections	.debug_frame
  70              		.align	1
  71              		.global	I2C_DeInit
  72              		.thumb
  73              		.thumb_func
  74              		.type	I2C_DeInit, %function
  75              	I2C_DeInit:
  76              	.LFB110:
  77              		.file 1 ".\\stm32f4periph\\src\\stm32f4xx_i2c.c"
   1:.\stm32f4periph\src/stm32f4xx_i2c.c **** /**
   2:.\stm32f4periph\src/stm32f4xx_i2c.c ****   ******************************************************************************
   3:.\stm32f4periph\src/stm32f4xx_i2c.c ****   * @file    stm32f4xx_i2c.c
   4:.\stm32f4periph\src/stm32f4xx_i2c.c ****   * @author  MCD Application Team
   5:.\stm32f4periph\src/stm32f4xx_i2c.c ****   * @version V1.0.2
   6:.\stm32f4periph\src/stm32f4xx_i2c.c ****   * @date    05-March-2012
   7:.\stm32f4periph\src/stm32f4xx_i2c.c ****   * @brief   This file provides firmware functions to manage the following 
   8:.\stm32f4periph\src/stm32f4xx_i2c.c ****   *          functionalities of the Inter-integrated circuit (I2C)
   9:.\stm32f4periph\src/stm32f4xx_i2c.c ****   *           - Initialization and Configuration
  10:.\stm32f4periph\src/stm32f4xx_i2c.c ****   *           - Data transfers
  11:.\stm32f4periph\src/stm32f4xx_i2c.c ****   *           - PEC management
  12:.\stm32f4periph\src/stm32f4xx_i2c.c ****   *           - DMA transfers management
  13:.\stm32f4periph\src/stm32f4xx_i2c.c ****   *           - Interrupts, events and flags management 
  14:.\stm32f4periph\src/stm32f4xx_i2c.c ****   *           
  15:.\stm32f4periph\src/stm32f4xx_i2c.c ****   *  @verbatim
  16:.\stm32f4periph\src/stm32f4xx_i2c.c ****   *    
  17:.\stm32f4periph\src/stm32f4xx_i2c.c ****   *          ===================================================================
  18:.\stm32f4periph\src/stm32f4xx_i2c.c ****   *                                 How to use this driver
  19:.\stm32f4periph\src/stm32f4xx_i2c.c ****   *          ===================================================================
  20:.\stm32f4periph\src/stm32f4xx_i2c.c ****   *          1. Enable peripheral clock using RCC_APB1PeriphClockCmd(RCC_APB1Periph_I2Cx, ENABLE)
  21:.\stm32f4periph\src/stm32f4xx_i2c.c ****   *             function for I2C1, I2C2 or I2C3.
  22:.\stm32f4periph\src/stm32f4xx_i2c.c ****   *
  23:.\stm32f4periph\src/stm32f4xx_i2c.c ****   *          2. Enable SDA, SCL  and SMBA (when used) GPIO clocks using 
  24:.\stm32f4periph\src/stm32f4xx_i2c.c ****   *             RCC_AHBPeriphClockCmd() function. 
  25:.\stm32f4periph\src/stm32f4xx_i2c.c ****   *
  26:.\stm32f4periph\src/stm32f4xx_i2c.c ****   *          3. Peripherals alternate function: 
  27:.\stm32f4periph\src/stm32f4xx_i2c.c ****   *                 - Connect the pin to the desired peripherals' Alternate 
  28:.\stm32f4periph\src/stm32f4xx_i2c.c ****   *                   Function (AF) using GPIO_PinAFConfig() function
  29:.\stm32f4periph\src/stm32f4xx_i2c.c ****   *                 - Configure the desired pin in alternate function by:
  30:.\stm32f4periph\src/stm32f4xx_i2c.c ****   *                   GPIO_InitStruct->GPIO_Mode = GPIO_Mode_AF
  31:.\stm32f4periph\src/stm32f4xx_i2c.c ****   *                 - Select the type, pull-up/pull-down and output speed via 
  32:.\stm32f4periph\src/stm32f4xx_i2c.c ****   *                   GPIO_PuPd, GPIO_OType and GPIO_Speed members
  33:.\stm32f4periph\src/stm32f4xx_i2c.c ****   *                 - Call GPIO_Init() function
  34:.\stm32f4periph\src/stm32f4xx_i2c.c ****   *                 Recommended configuration is Push-Pull, Pull-up, Open-Drain.
  35:.\stm32f4periph\src/stm32f4xx_i2c.c ****   *                 Add an external pull up if necessary (typically 4.7 KOhm).      
  36:.\stm32f4periph\src/stm32f4xx_i2c.c ****   *        
  37:.\stm32f4periph\src/stm32f4xx_i2c.c ****   *          4. Program the Mode, duty cycle , Own address, Ack, Speed and Acknowledged
ARM GAS  C:\Users\Kevin\AppData\Local\Temp\cc2AQj48.s 			page 3


  38:.\stm32f4periph\src/stm32f4xx_i2c.c ****   *             Address using the I2C_Init() function.
  39:.\stm32f4periph\src/stm32f4xx_i2c.c ****   *
  40:.\stm32f4periph\src/stm32f4xx_i2c.c ****   *          5. Optionally you can enable/configure the following parameters without
  41:.\stm32f4periph\src/stm32f4xx_i2c.c ****   *             re-initialization (i.e there is no need to call again I2C_Init() function):
  42:.\stm32f4periph\src/stm32f4xx_i2c.c ****   *              - Enable the acknowledge feature using I2C_AcknowledgeConfig() function
  43:.\stm32f4periph\src/stm32f4xx_i2c.c ****   *              - Enable the dual addressing mode using I2C_DualAddressCmd() function
  44:.\stm32f4periph\src/stm32f4xx_i2c.c ****   *              - Enable the general call using the I2C_GeneralCallCmd() function
  45:.\stm32f4periph\src/stm32f4xx_i2c.c ****   *              - Enable the clock stretching using I2C_StretchClockCmd() function
  46:.\stm32f4periph\src/stm32f4xx_i2c.c ****   *              - Enable the fast mode duty cycle using the I2C_FastModeDutyCycleConfig()
  47:.\stm32f4periph\src/stm32f4xx_i2c.c ****   *                function.
  48:.\stm32f4periph\src/stm32f4xx_i2c.c ****   *              - Configure the NACK position for Master Receiver mode in case of 
  49:.\stm32f4periph\src/stm32f4xx_i2c.c ****   *                2 bytes reception using the function I2C_NACKPositionConfig().  
  50:.\stm32f4periph\src/stm32f4xx_i2c.c ****   *              - Enable the PEC Calculation using I2C_CalculatePEC() function
  51:.\stm32f4periph\src/stm32f4xx_i2c.c ****   *              - For SMBus Mode: 
  52:.\stm32f4periph\src/stm32f4xx_i2c.c ****   *                   - Enable the Address Resolution Protocol (ARP) using I2C_ARPCmd() function
  53:.\stm32f4periph\src/stm32f4xx_i2c.c ****   *                   - Configure the SMBusAlert pin using I2C_SMBusAlertConfig() function
  54:.\stm32f4periph\src/stm32f4xx_i2c.c ****   *
  55:.\stm32f4periph\src/stm32f4xx_i2c.c ****   *          6. Enable the NVIC and the corresponding interrupt using the function 
  56:.\stm32f4periph\src/stm32f4xx_i2c.c ****   *             I2C_ITConfig() if you need to use interrupt mode. 
  57:.\stm32f4periph\src/stm32f4xx_i2c.c ****   *
  58:.\stm32f4periph\src/stm32f4xx_i2c.c ****   *          7. When using the DMA mode 
  59:.\stm32f4periph\src/stm32f4xx_i2c.c ****   *                   - Configure the DMA using DMA_Init() function
  60:.\stm32f4periph\src/stm32f4xx_i2c.c ****   *                   - Active the needed channel Request using I2C_DMACmd() or
  61:.\stm32f4periph\src/stm32f4xx_i2c.c ****   *                     I2C_DMALastTransferCmd() function.
  62:.\stm32f4periph\src/stm32f4xx_i2c.c ****   *              @note When using DMA mode, I2C interrupts may be used at the same time to
  63:.\stm32f4periph\src/stm32f4xx_i2c.c ****   *                    control the communication flow (Start/Stop/Ack... events and errors).
  64:.\stm32f4periph\src/stm32f4xx_i2c.c ****   * 
  65:.\stm32f4periph\src/stm32f4xx_i2c.c ****   *          8. Enable the I2C using the I2C_Cmd() function.
  66:.\stm32f4periph\src/stm32f4xx_i2c.c ****   * 
  67:.\stm32f4periph\src/stm32f4xx_i2c.c ****   *          9. Enable the DMA using the DMA_Cmd() function when using DMA mode in the 
  68:.\stm32f4periph\src/stm32f4xx_i2c.c ****   *             transfers. 
  69:.\stm32f4periph\src/stm32f4xx_i2c.c ****   *
  70:.\stm32f4periph\src/stm32f4xx_i2c.c ****   *  @endverbatim
  71:.\stm32f4periph\src/stm32f4xx_i2c.c ****   *  
  72:.\stm32f4periph\src/stm32f4xx_i2c.c ****   ******************************************************************************
  73:.\stm32f4periph\src/stm32f4xx_i2c.c ****   * @attention
  74:.\stm32f4periph\src/stm32f4xx_i2c.c ****   *
  75:.\stm32f4periph\src/stm32f4xx_i2c.c ****   * <h2><center>&copy; COPYRIGHT 2012 STMicroelectronics</center></h2>
  76:.\stm32f4periph\src/stm32f4xx_i2c.c ****   *
  77:.\stm32f4periph\src/stm32f4xx_i2c.c ****   * Licensed under MCD-ST Liberty SW License Agreement V2, (the "License");
  78:.\stm32f4periph\src/stm32f4xx_i2c.c ****   * You may not use this file except in compliance with the License.
  79:.\stm32f4periph\src/stm32f4xx_i2c.c ****   * You may obtain a copy of the License at:
  80:.\stm32f4periph\src/stm32f4xx_i2c.c ****   *
  81:.\stm32f4periph\src/stm32f4xx_i2c.c ****   *        http://www.st.com/software_license_agreement_liberty_v2
  82:.\stm32f4periph\src/stm32f4xx_i2c.c ****   *
  83:.\stm32f4periph\src/stm32f4xx_i2c.c ****   * Unless required by applicable law or agreed to in writing, software 
  84:.\stm32f4periph\src/stm32f4xx_i2c.c ****   * distributed under the License is distributed on an "AS IS" BASIS, 
  85:.\stm32f4periph\src/stm32f4xx_i2c.c ****   * WITHOUT WARRANTIES OR CONDITIONS OF ANY KIND, either express or implied.
  86:.\stm32f4periph\src/stm32f4xx_i2c.c ****   * See the License for the specific language governing permissions and
  87:.\stm32f4periph\src/stm32f4xx_i2c.c ****   * limitations under the License.
  88:.\stm32f4periph\src/stm32f4xx_i2c.c ****   *
  89:.\stm32f4periph\src/stm32f4xx_i2c.c ****   ******************************************************************************
  90:.\stm32f4periph\src/stm32f4xx_i2c.c ****   */ 
  91:.\stm32f4periph\src/stm32f4xx_i2c.c **** 
  92:.\stm32f4periph\src/stm32f4xx_i2c.c **** /* Includes ------------------------------------------------------------------*/
  93:.\stm32f4periph\src/stm32f4xx_i2c.c **** #include "stm32f4xx_i2c.h"
  94:.\stm32f4periph\src/stm32f4xx_i2c.c **** #include "stm32f4xx_rcc.h"
ARM GAS  C:\Users\Kevin\AppData\Local\Temp\cc2AQj48.s 			page 4


  95:.\stm32f4periph\src/stm32f4xx_i2c.c **** 
  96:.\stm32f4periph\src/stm32f4xx_i2c.c **** #define assert_param(expr) ((void)0)
  97:.\stm32f4periph\src/stm32f4xx_i2c.c **** 
  98:.\stm32f4periph\src/stm32f4xx_i2c.c **** /** @addtogroup STM32F4xx_StdPeriph_Driver
  99:.\stm32f4periph\src/stm32f4xx_i2c.c ****   * @{
 100:.\stm32f4periph\src/stm32f4xx_i2c.c ****   */
 101:.\stm32f4periph\src/stm32f4xx_i2c.c **** 
 102:.\stm32f4periph\src/stm32f4xx_i2c.c **** /** @defgroup I2C 
 103:.\stm32f4periph\src/stm32f4xx_i2c.c ****   * @brief I2C driver modules
 104:.\stm32f4periph\src/stm32f4xx_i2c.c ****   * @{
 105:.\stm32f4periph\src/stm32f4xx_i2c.c ****   */ 
 106:.\stm32f4periph\src/stm32f4xx_i2c.c **** 
 107:.\stm32f4periph\src/stm32f4xx_i2c.c **** /* Private typedef -----------------------------------------------------------*/
 108:.\stm32f4periph\src/stm32f4xx_i2c.c **** /* Private define ------------------------------------------------------------*/
 109:.\stm32f4periph\src/stm32f4xx_i2c.c **** 
 110:.\stm32f4periph\src/stm32f4xx_i2c.c **** #define CR1_CLEAR_MASK    ((uint16_t)0xFBF5)      /*<! I2C registers Masks */
 111:.\stm32f4periph\src/stm32f4xx_i2c.c **** #define FLAG_MASK         ((uint32_t)0x00FFFFFF)  /*<! I2C FLAG mask */
 112:.\stm32f4periph\src/stm32f4xx_i2c.c **** #define ITEN_MASK         ((uint32_t)0x07000000)  /*<! I2C Interrupt Enable mask */
 113:.\stm32f4periph\src/stm32f4xx_i2c.c **** 
 114:.\stm32f4periph\src/stm32f4xx_i2c.c **** /* Private macro -------------------------------------------------------------*/
 115:.\stm32f4periph\src/stm32f4xx_i2c.c **** /* Private variables ---------------------------------------------------------*/
 116:.\stm32f4periph\src/stm32f4xx_i2c.c **** /* Private function prototypes -----------------------------------------------*/
 117:.\stm32f4periph\src/stm32f4xx_i2c.c **** /* Private functions ---------------------------------------------------------*/
 118:.\stm32f4periph\src/stm32f4xx_i2c.c **** 
 119:.\stm32f4periph\src/stm32f4xx_i2c.c **** /** @defgroup I2C_Private_Functions
 120:.\stm32f4periph\src/stm32f4xx_i2c.c ****   * @{
 121:.\stm32f4periph\src/stm32f4xx_i2c.c ****   */
 122:.\stm32f4periph\src/stm32f4xx_i2c.c **** 
 123:.\stm32f4periph\src/stm32f4xx_i2c.c **** /** @defgroup I2C_Group1 Initialization and Configuration functions
 124:.\stm32f4periph\src/stm32f4xx_i2c.c ****  *  @brief   Initialization and Configuration functions 
 125:.\stm32f4periph\src/stm32f4xx_i2c.c ****  *
 126:.\stm32f4periph\src/stm32f4xx_i2c.c **** @verbatim   
 127:.\stm32f4periph\src/stm32f4xx_i2c.c ****  ===============================================================================
 128:.\stm32f4periph\src/stm32f4xx_i2c.c ****                    Initialization and Configuration functions
 129:.\stm32f4periph\src/stm32f4xx_i2c.c ****  ===============================================================================  
 130:.\stm32f4periph\src/stm32f4xx_i2c.c **** 
 131:.\stm32f4periph\src/stm32f4xx_i2c.c **** @endverbatim
 132:.\stm32f4periph\src/stm32f4xx_i2c.c ****   * @{
 133:.\stm32f4periph\src/stm32f4xx_i2c.c ****   */
 134:.\stm32f4periph\src/stm32f4xx_i2c.c **** 
 135:.\stm32f4periph\src/stm32f4xx_i2c.c **** /**
 136:.\stm32f4periph\src/stm32f4xx_i2c.c ****   * @brief  Deinitialize the I2Cx peripheral registers to their default reset values.
 137:.\stm32f4periph\src/stm32f4xx_i2c.c ****   * @param  I2Cx: where x can be 1, 2 or 3 to select the I2C peripheral.
 138:.\stm32f4periph\src/stm32f4xx_i2c.c ****   * @retval None
 139:.\stm32f4periph\src/stm32f4xx_i2c.c ****   */
 140:.\stm32f4periph\src/stm32f4xx_i2c.c **** void I2C_DeInit(I2C_TypeDef* I2Cx)
 141:.\stm32f4periph\src/stm32f4xx_i2c.c **** {
  78              		.loc 1 141 0
  79              		.cfi_startproc
  80              		@ args = 0, pretend = 0, frame = 0
  81              		@ frame_needed = 0, uses_anonymous_args = 0
  82              	.LVL0:
  83 0000 08B5     		push	{r3, lr}	@
  84              	.LCFI0:
  85              		.cfi_def_cfa_offset 8
  86              		.cfi_offset 3, -8
  87              		.cfi_offset 14, -4
ARM GAS  C:\Users\Kevin\AppData\Local\Temp\cc2AQj48.s 			page 5


 142:.\stm32f4periph\src/stm32f4xx_i2c.c ****   /* Check the parameters */
 143:.\stm32f4periph\src/stm32f4xx_i2c.c ****   assert_param(IS_I2C_ALL_PERIPH(I2Cx));
 144:.\stm32f4periph\src/stm32f4xx_i2c.c **** 
 145:.\stm32f4periph\src/stm32f4xx_i2c.c ****   if (I2Cx == I2C1)
  88              		.loc 1 145 0
  89 0002 134B     		ldr	r3, .L6	@ tmp135,
  90 0004 9842     		cmp	r0, r3	@ I2Cx, tmp135
  91 0006 07D1     		bne	.L2	@,
 146:.\stm32f4periph\src/stm32f4xx_i2c.c ****   {
 147:.\stm32f4periph\src/stm32f4xx_i2c.c ****     /* Enable I2C1 reset state */
 148:.\stm32f4periph\src/stm32f4xx_i2c.c ****     RCC_APB1PeriphResetCmd(RCC_APB1Periph_I2C1, ENABLE);
  92              		.loc 1 148 0
  93 0008 4FF40010 		mov	r0, #2097152	@,
  94              	.LVL1:
  95 000c 0121     		movs	r1, #1	@,
  96 000e FFF7FEFF 		bl	RCC_APB1PeriphResetCmd	@
  97              	.LVL2:
 149:.\stm32f4periph\src/stm32f4xx_i2c.c ****     /* Release I2C1 from reset state */
 150:.\stm32f4periph\src/stm32f4xx_i2c.c ****     RCC_APB1PeriphResetCmd(RCC_APB1Periph_I2C1, DISABLE);    
  98              		.loc 1 150 0
  99 0012 4FF40010 		mov	r0, #2097152	@,
 100 0016 14E0     		b	.L5	@
 101              	.LVL3:
 102              	.L2:
 151:.\stm32f4periph\src/stm32f4xx_i2c.c ****   }
 152:.\stm32f4periph\src/stm32f4xx_i2c.c ****   else if (I2Cx == I2C2)
 103              		.loc 1 152 0
 104 0018 0E4B     		ldr	r3, .L6+4	@ tmp136,
 105 001a 9842     		cmp	r0, r3	@ I2Cx, tmp136
 106 001c 07D1     		bne	.L3	@,
 153:.\stm32f4periph\src/stm32f4xx_i2c.c ****   {
 154:.\stm32f4periph\src/stm32f4xx_i2c.c ****     /* Enable I2C2 reset state */
 155:.\stm32f4periph\src/stm32f4xx_i2c.c ****     RCC_APB1PeriphResetCmd(RCC_APB1Periph_I2C2, ENABLE);
 107              		.loc 1 155 0
 108 001e 4FF48000 		mov	r0, #4194304	@,
 109              	.LVL4:
 110 0022 0121     		movs	r1, #1	@,
 111 0024 FFF7FEFF 		bl	RCC_APB1PeriphResetCmd	@
 112              	.LVL5:
 156:.\stm32f4periph\src/stm32f4xx_i2c.c ****     /* Release I2C2 from reset state */
 157:.\stm32f4periph\src/stm32f4xx_i2c.c ****     RCC_APB1PeriphResetCmd(RCC_APB1Periph_I2C2, DISABLE);      
 113              		.loc 1 157 0
 114 0028 4FF48000 		mov	r0, #4194304	@,
 115 002c 09E0     		b	.L5	@
 116              	.LVL6:
 117              	.L3:
 158:.\stm32f4periph\src/stm32f4xx_i2c.c ****   }
 159:.\stm32f4periph\src/stm32f4xx_i2c.c ****   else 
 160:.\stm32f4periph\src/stm32f4xx_i2c.c ****   {
 161:.\stm32f4periph\src/stm32f4xx_i2c.c ****     if (I2Cx == I2C3)
 118              		.loc 1 161 0
 119 002e 0A4B     		ldr	r3, .L6+8	@ tmp137,
 120 0030 9842     		cmp	r0, r3	@ I2Cx, tmp137
 121 0032 0BD1     		bne	.L1	@,
 162:.\stm32f4periph\src/stm32f4xx_i2c.c ****     {
 163:.\stm32f4periph\src/stm32f4xx_i2c.c ****       /* Enable I2C3 reset state */
 164:.\stm32f4periph\src/stm32f4xx_i2c.c ****       RCC_APB1PeriphResetCmd(RCC_APB1Periph_I2C3, ENABLE);
ARM GAS  C:\Users\Kevin\AppData\Local\Temp\cc2AQj48.s 			page 6


 122              		.loc 1 164 0
 123 0034 4FF40000 		mov	r0, #8388608	@,
 124              	.LVL7:
 125 0038 0121     		movs	r1, #1	@,
 126 003a FFF7FEFF 		bl	RCC_APB1PeriphResetCmd	@
 127              	.LVL8:
 165:.\stm32f4periph\src/stm32f4xx_i2c.c ****       /* Release I2C3 from reset state */
 166:.\stm32f4periph\src/stm32f4xx_i2c.c ****       RCC_APB1PeriphResetCmd(RCC_APB1Periph_I2C3, DISABLE);     
 128              		.loc 1 166 0
 129 003e 4FF40000 		mov	r0, #8388608	@,
 130              	.L5:
 131 0042 0021     		movs	r1, #0	@,
 167:.\stm32f4periph\src/stm32f4xx_i2c.c ****     }
 168:.\stm32f4periph\src/stm32f4xx_i2c.c ****   }
 169:.\stm32f4periph\src/stm32f4xx_i2c.c **** }
 132              		.loc 1 169 0
 133 0044 BDE80840 		pop	{r3, lr}	@
 166:.\stm32f4periph\src/stm32f4xx_i2c.c ****       RCC_APB1PeriphResetCmd(RCC_APB1Periph_I2C3, DISABLE);     
 134              		.loc 1 166 0
 135 0048 FFF7FEBF 		b	RCC_APB1PeriphResetCmd	@
 136              	.LVL9:
 137              	.L1:
 138 004c 08BD     		pop	{r3, pc}	@
 139              	.L7:
 140 004e 00BF     		.align	2
 141              	.L6:
 142 0050 00540040 		.word	1073763328
 143 0054 00580040 		.word	1073764352
 144 0058 005C0040 		.word	1073765376
 145              		.cfi_endproc
 146              	.LFE110:
 147              		.size	I2C_DeInit, .-I2C_DeInit
 148              		.align	1
 149              		.global	I2C_Init
 150              		.thumb
 151              		.thumb_func
 152              		.type	I2C_Init, %function
 153              	I2C_Init:
 154              	.LFB111:
 170:.\stm32f4periph\src/stm32f4xx_i2c.c **** 
 171:.\stm32f4periph\src/stm32f4xx_i2c.c **** /**
 172:.\stm32f4periph\src/stm32f4xx_i2c.c ****   * @brief  Initializes the I2Cx peripheral according to the specified 
 173:.\stm32f4periph\src/stm32f4xx_i2c.c ****   *         parameters in the I2C_InitStruct.
 174:.\stm32f4periph\src/stm32f4xx_i2c.c ****   *           
 175:.\stm32f4periph\src/stm32f4xx_i2c.c ****   * @note   To use the I2C at 400 KHz (in fast mode), the PCLK1 frequency 
 176:.\stm32f4periph\src/stm32f4xx_i2c.c ****   *         (I2C peripheral input clock) must be a multiple of 10 MHz.  
 177:.\stm32f4periph\src/stm32f4xx_i2c.c ****   *           
 178:.\stm32f4periph\src/stm32f4xx_i2c.c ****   * @param  I2Cx: where x can be 1, 2 or 3 to select the I2C peripheral.
 179:.\stm32f4periph\src/stm32f4xx_i2c.c ****   * @param  I2C_InitStruct: pointer to a I2C_InitTypeDef structure that contains 
 180:.\stm32f4periph\src/stm32f4xx_i2c.c ****   *         the configuration information for the specified I2C peripheral.
 181:.\stm32f4periph\src/stm32f4xx_i2c.c ****   * @retval None
 182:.\stm32f4periph\src/stm32f4xx_i2c.c ****   */
 183:.\stm32f4periph\src/stm32f4xx_i2c.c **** void I2C_Init(I2C_TypeDef* I2Cx, I2C_InitTypeDef* I2C_InitStruct)
 184:.\stm32f4periph\src/stm32f4xx_i2c.c **** {
 155              		.loc 1 184 0
 156              		.cfi_startproc
 157              		@ args = 0, pretend = 0, frame = 16
ARM GAS  C:\Users\Kevin\AppData\Local\Temp\cc2AQj48.s 			page 7


 158              		@ frame_needed = 0, uses_anonymous_args = 0
 159              	.LVL10:
 160 005c F0B5     		push	{r4, r5, r6, r7, lr}	@
 161              	.LCFI1:
 162              		.cfi_def_cfa_offset 20
 163              		.cfi_offset 4, -20
 164              		.cfi_offset 5, -16
 165              		.cfi_offset 6, -12
 166              		.cfi_offset 7, -8
 167              		.cfi_offset 14, -4
 168 005e 85B0     		sub	sp, sp, #20	@,,
 169              	.LCFI2:
 170              		.cfi_def_cfa_offset 40
 171              		.loc 1 184 0
 172 0060 0446     		mov	r4, r0	@ I2Cx, I2Cx
 185:.\stm32f4periph\src/stm32f4xx_i2c.c ****   uint16_t tmpreg = 0, freqrange = 0;
 186:.\stm32f4periph\src/stm32f4xx_i2c.c ****   uint16_t result = 0x04;
 187:.\stm32f4periph\src/stm32f4xx_i2c.c ****   uint32_t pclk1 = 8000000;
 188:.\stm32f4periph\src/stm32f4xx_i2c.c ****   RCC_ClocksTypeDef  rcc_clocks;
 189:.\stm32f4periph\src/stm32f4xx_i2c.c ****   /* Check the parameters */
 190:.\stm32f4periph\src/stm32f4xx_i2c.c ****   assert_param(IS_I2C_ALL_PERIPH(I2Cx));
 191:.\stm32f4periph\src/stm32f4xx_i2c.c ****   assert_param(IS_I2C_CLOCK_SPEED(I2C_InitStruct->I2C_ClockSpeed));
 192:.\stm32f4periph\src/stm32f4xx_i2c.c ****   assert_param(IS_I2C_MODE(I2C_InitStruct->I2C_Mode));
 193:.\stm32f4periph\src/stm32f4xx_i2c.c ****   assert_param(IS_I2C_DUTY_CYCLE(I2C_InitStruct->I2C_DutyCycle));
 194:.\stm32f4periph\src/stm32f4xx_i2c.c ****   assert_param(IS_I2C_OWN_ADDRESS1(I2C_InitStruct->I2C_OwnAddress1));
 195:.\stm32f4periph\src/stm32f4xx_i2c.c ****   assert_param(IS_I2C_ACK_STATE(I2C_InitStruct->I2C_Ack));
 196:.\stm32f4periph\src/stm32f4xx_i2c.c ****   assert_param(IS_I2C_ACKNOWLEDGE_ADDRESS(I2C_InitStruct->I2C_AcknowledgedAddress));
 197:.\stm32f4periph\src/stm32f4xx_i2c.c **** 
 198:.\stm32f4periph\src/stm32f4xx_i2c.c **** /*---------------------------- I2Cx CR2 Configuration ------------------------*/
 199:.\stm32f4periph\src/stm32f4xx_i2c.c ****   /* Get the I2Cx CR2 value */
 200:.\stm32f4periph\src/stm32f4xx_i2c.c ****   tmpreg = I2Cx->CR2;
 173              		.loc 1 200 0
 174 0062 8688     		ldrh	r6, [r0, #4]	@, I2Cx_9(D)->CR2
 175              	.LVL11:
 201:.\stm32f4periph\src/stm32f4xx_i2c.c ****   /* Clear frequency FREQ[5:0] bits */
 202:.\stm32f4periph\src/stm32f4xx_i2c.c ****   tmpreg &= (uint16_t)~((uint16_t)I2C_CR2_FREQ);
 203:.\stm32f4periph\src/stm32f4xx_i2c.c ****   /* Get pclk1 frequency value */
 204:.\stm32f4periph\src/stm32f4xx_i2c.c ****   RCC_GetClocksFreq(&rcc_clocks);
 176              		.loc 1 204 0
 177 0064 6846     		mov	r0, sp	@,
 178              	.LVL12:
 184:.\stm32f4periph\src/stm32f4xx_i2c.c **** {
 179              		.loc 1 184 0
 180 0066 0D46     		mov	r5, r1	@ I2C_InitStruct, I2C_InitStruct
 181              		.loc 1 204 0
 182 0068 FFF7FEFF 		bl	RCC_GetClocksFreq	@
 183              	.LVL13:
 205:.\stm32f4periph\src/stm32f4xx_i2c.c ****   pclk1 = rcc_clocks.PCLK1_Frequency;
 184              		.loc 1 205 0
 185 006c 0299     		ldr	r1, [sp, #8]	@ pclk1, rcc_clocks.PCLK1_Frequency
 206:.\stm32f4periph\src/stm32f4xx_i2c.c ****   /* Set frequency bits depending on pclk1 value */
 207:.\stm32f4periph\src/stm32f4xx_i2c.c ****   freqrange = (uint16_t)(pclk1 / 1000000);
 186              		.loc 1 207 0
 187 006e 2B48     		ldr	r0, .L17	@ tmp178,
 208:.\stm32f4periph\src/stm32f4xx_i2c.c ****   tmpreg |= freqrange;
 209:.\stm32f4periph\src/stm32f4xx_i2c.c ****   /* Write to I2Cx CR2 */
 210:.\stm32f4periph\src/stm32f4xx_i2c.c ****   I2Cx->CR2 = tmpreg;
ARM GAS  C:\Users\Kevin\AppData\Local\Temp\cc2AQj48.s 			page 8


 211:.\stm32f4periph\src/stm32f4xx_i2c.c **** 
 212:.\stm32f4periph\src/stm32f4xx_i2c.c **** /*---------------------------- I2Cx CCR Configuration ------------------------*/
 213:.\stm32f4periph\src/stm32f4xx_i2c.c ****   /* Disable the selected I2C peripheral to configure TRISE */
 214:.\stm32f4periph\src/stm32f4xx_i2c.c ****   I2Cx->CR1 &= (uint16_t)~((uint16_t)I2C_CR1_PE);
 215:.\stm32f4periph\src/stm32f4xx_i2c.c ****   /* Reset tmpreg value */
 216:.\stm32f4periph\src/stm32f4xx_i2c.c ****   /* Clear F/S, DUTY and CCR[11:0] bits */
 217:.\stm32f4periph\src/stm32f4xx_i2c.c ****   tmpreg = 0;
 218:.\stm32f4periph\src/stm32f4xx_i2c.c **** 
 219:.\stm32f4periph\src/stm32f4xx_i2c.c ****   /* Configure speed in standard mode */
 220:.\stm32f4periph\src/stm32f4xx_i2c.c ****   if (I2C_InitStruct->I2C_ClockSpeed <= 100000)
 188              		.loc 1 220 0
 189 0070 2B68     		ldr	r3, [r5, #0]	@ D.7653, I2C_InitStruct_19(D)->I2C_ClockSpeed
 202:.\stm32f4periph\src/stm32f4xx_i2c.c ****   tmpreg &= (uint16_t)~((uint16_t)I2C_CR2_FREQ);
 190              		.loc 1 202 0
 191 0072 26F03F06 		bic	r6, r6, #63	@ tmpreg, I2Cx_9(D)->CR2,
 192              	.LVL14:
 193 0076 3604     		lsls	r6, r6, #16	@ tmpreg, tmpreg,
 207:.\stm32f4periph\src/stm32f4xx_i2c.c ****   freqrange = (uint16_t)(pclk1 / 1000000);
 194              		.loc 1 207 0
 195 0078 B1FBF0F0 		udiv	r0, r1, r0	@ D.7701, pclk1, tmp178
 202:.\stm32f4periph\src/stm32f4xx_i2c.c ****   tmpreg &= (uint16_t)~((uint16_t)I2C_CR2_FREQ);
 196              		.loc 1 202 0
 197 007c 360C     		lsrs	r6, r6, #16	@ tmpreg, tmpreg,
 198              	.LVL15:
 207:.\stm32f4periph\src/stm32f4xx_i2c.c ****   freqrange = (uint16_t)(pclk1 / 1000000);
 199              		.loc 1 207 0
 200 007e 87B2     		uxth	r7, r0	@ freqrange, D.7701
 201              	.LVL16:
 208:.\stm32f4periph\src/stm32f4xx_i2c.c ****   tmpreg |= freqrange;
 202              		.loc 1 208 0
 203 0080 3E43     		orrs	r6, r6, r7	@, tmpreg, tmpreg, freqrange
 204              	.LVL17:
 210:.\stm32f4periph\src/stm32f4xx_i2c.c ****   I2Cx->CR2 = tmpreg;
 205              		.loc 1 210 0
 206 0082 A680     		strh	r6, [r4, #4]	@ movhi	@ tmpreg, I2Cx_9(D)->CR2
 214:.\stm32f4periph\src/stm32f4xx_i2c.c ****   I2Cx->CR1 &= (uint16_t)~((uint16_t)I2C_CR1_PE);
 207              		.loc 1 214 0
 208 0084 2288     		ldrh	r2, [r4, #0]	@, I2Cx_9(D)->CR1
 209 0086 22F00102 		bic	r2, r2, #1	@ D.7652, I2Cx_9(D)->CR1,
 210 008a 1204     		lsls	r2, r2, #16	@ D.7652, D.7652,
 211 008c 120C     		lsrs	r2, r2, #16	@ D.7652, D.7652,
 212 008e 2280     		strh	r2, [r4, #0]	@ movhi	@ D.7652, I2Cx_9(D)->CR1
 213              	.LVL18:
 214              		.loc 1 220 0
 215 0090 234A     		ldr	r2, .L17+4	@ tmp184,
 216 0092 9342     		cmp	r3, r2	@ D.7653, tmp184
 217 0094 09D8     		bhi	.L9	@,
 221:.\stm32f4periph\src/stm32f4xx_i2c.c ****   {
 222:.\stm32f4periph\src/stm32f4xx_i2c.c ****     /* Standard mode speed calculate */
 223:.\stm32f4periph\src/stm32f4xx_i2c.c ****     result = (uint16_t)(pclk1 / (I2C_InitStruct->I2C_ClockSpeed << 1));
 218              		.loc 1 223 0
 219 0096 5B00     		lsls	r3, r3, #1	@ tmp185, D.7653,
 220 0098 B1FBF3F3 		udiv	r3, r1, r3	@ tmp187, pclk1, tmp185
 221 009c 9BB2     		uxth	r3, r3	@ result, tmp187
 222              	.LVL19:
 224:.\stm32f4periph\src/stm32f4xx_i2c.c ****     /* Test if CCR value is under 0x4*/
 225:.\stm32f4periph\src/stm32f4xx_i2c.c ****     if (result < 0x04)
ARM GAS  C:\Users\Kevin\AppData\Local\Temp\cc2AQj48.s 			page 9


 226:.\stm32f4periph\src/stm32f4xx_i2c.c ****     {
 227:.\stm32f4periph\src/stm32f4xx_i2c.c ****       /* Set minimum allowed value */
 228:.\stm32f4periph\src/stm32f4xx_i2c.c ****       result = 0x04;  
 229:.\stm32f4periph\src/stm32f4xx_i2c.c ****     }
 230:.\stm32f4periph\src/stm32f4xx_i2c.c ****     /* Set speed value for standard mode */
 231:.\stm32f4periph\src/stm32f4xx_i2c.c ****     tmpreg |= result;	  
 232:.\stm32f4periph\src/stm32f4xx_i2c.c ****     /* Set Maximum Rise Time for standard mode */
 233:.\stm32f4periph\src/stm32f4xx_i2c.c ****     I2Cx->TRISE = freqrange + 1; 
 223              		.loc 1 233 0
 224 009e 0137     		adds	r7, r7, #1	@ tmp188, freqrange,
 225 00a0 2784     		strh	r7, [r4, #32]	@ movhi	@ D.7660, I2Cx_9(D)->TRISE
 231:.\stm32f4periph\src/stm32f4xx_i2c.c ****     tmpreg |= result;	  
 226              		.loc 1 231 0
 227 00a2 032B     		cmp	r3, #3	@ result,
 228 00a4 98BF     		it	ls	@
 229 00a6 0423     		movls	r3, #4	@, tmpreg,
 230              	.LVL20:
 231 00a8 1FE0     		b	.L11	@
 232              	.LVL21:
 233              	.L9:
 234:.\stm32f4periph\src/stm32f4xx_i2c.c ****   }
 235:.\stm32f4periph\src/stm32f4xx_i2c.c ****   /* Configure speed in fast mode */
 236:.\stm32f4periph\src/stm32f4xx_i2c.c ****   /* To use the I2C at 400 KHz (in fast mode), the PCLK1 frequency (I2C peripheral
 237:.\stm32f4periph\src/stm32f4xx_i2c.c ****      input clock) must be a multiple of 10 MHz */
 238:.\stm32f4periph\src/stm32f4xx_i2c.c ****   else /*(I2C_InitStruct->I2C_ClockSpeed <= 400000)*/
 239:.\stm32f4periph\src/stm32f4xx_i2c.c ****   {
 240:.\stm32f4periph\src/stm32f4xx_i2c.c ****     if (I2C_InitStruct->I2C_DutyCycle == I2C_DutyCycle_2)
 234              		.loc 1 240 0
 235 00aa EE88     		ldrh	r6, [r5, #6]	@ I2C_InitStruct_19(D)->I2C_DutyCycle, I2C_InitStruct_19(D)->I2C_DutyCycle
 236 00ac 4BF6FF72 		movw	r2, #49151	@ tmp191,
 237 00b0 9642     		cmp	r6, r2	@ I2C_InitStruct_19(D)->I2C_DutyCycle, tmp191
 238 00b2 04D1     		bne	.L12	@,
 241:.\stm32f4periph\src/stm32f4xx_i2c.c ****     {
 242:.\stm32f4periph\src/stm32f4xx_i2c.c ****       /* Fast mode speed calculate: Tlow/Thigh = 2 */
 243:.\stm32f4periph\src/stm32f4xx_i2c.c ****       result = (uint16_t)(pclk1 / (I2C_InitStruct->I2C_ClockSpeed * 3));
 239              		.loc 1 243 0
 240 00b4 0322     		movs	r2, #3	@ tmp193,
 241 00b6 5343     		muls	r3, r2, r3	@ tmp192, tmp193
 242 00b8 B1FBF3F3 		udiv	r3, r1, r3	@ tmp195, pclk1, tmp192
 243 00bc 05E0     		b	.L16	@
 244              	.L12:
 245              	.LVL22:
 244:.\stm32f4periph\src/stm32f4xx_i2c.c ****     }
 245:.\stm32f4periph\src/stm32f4xx_i2c.c ****     else /*I2C_InitStruct->I2C_DutyCycle == I2C_DutyCycle_16_9*/
 246:.\stm32f4periph\src/stm32f4xx_i2c.c ****     {
 247:.\stm32f4periph\src/stm32f4xx_i2c.c ****       /* Fast mode speed calculate: Tlow/Thigh = 16/9 */
 248:.\stm32f4periph\src/stm32f4xx_i2c.c ****       result = (uint16_t)(pclk1 / (I2C_InitStruct->I2C_ClockSpeed * 25));
 246              		.loc 1 248 0
 247 00be 1922     		movs	r2, #25	@ tmp197,
 248 00c0 5343     		muls	r3, r2, r3	@ tmp196, tmp197
 249              	.LVL23:
 250 00c2 B1FBF3F3 		udiv	r3, r1, r3	@ tmp199, pclk1, tmp196
 249:.\stm32f4periph\src/stm32f4xx_i2c.c ****       /* Set DUTY bit */
 250:.\stm32f4periph\src/stm32f4xx_i2c.c ****       result |= I2C_DutyCycle_16_9;
 251              		.loc 1 250 0
 252 00c6 43F48043 		orr	r3, r3, #16384	@ tmp200, tmp199,
 253              	.LVL24:
ARM GAS  C:\Users\Kevin\AppData\Local\Temp\cc2AQj48.s 			page 10


 254              	.L16:
 255 00ca 9BB2     		uxth	r3, r3	@ result, tmp200
 256              	.LVL25:
 251:.\stm32f4periph\src/stm32f4xx_i2c.c ****     }
 252:.\stm32f4periph\src/stm32f4xx_i2c.c **** 
 253:.\stm32f4periph\src/stm32f4xx_i2c.c ****     /* Test if CCR value is under 0x1*/
 254:.\stm32f4periph\src/stm32f4xx_i2c.c ****     if ((result & I2C_CCR_CCR) == 0)
 257              		.loc 1 254 0
 258 00cc 1A05     		lsls	r2, r3, #20	@, result,
 255:.\stm32f4periph\src/stm32f4xx_i2c.c ****     {
 256:.\stm32f4periph\src/stm32f4xx_i2c.c ****       /* Set minimum allowed value */
 257:.\stm32f4periph\src/stm32f4xx_i2c.c ****       result |= (uint16_t)0x0001;  
 258:.\stm32f4periph\src/stm32f4xx_i2c.c ****     }
 259:.\stm32f4periph\src/stm32f4xx_i2c.c ****     /* Set speed value and set F/S bit for fast mode */
 260:.\stm32f4periph\src/stm32f4xx_i2c.c ****     tmpreg |= (uint16_t)(result | I2C_CCR_FS);
 261:.\stm32f4periph\src/stm32f4xx_i2c.c ****     /* Set Maximum Rise Time for fast mode */
 262:.\stm32f4periph\src/stm32f4xx_i2c.c ****     I2Cx->TRISE = (uint16_t)(((freqrange * (uint16_t)300) / (uint16_t)1000) + (uint16_t)1);  
 259              		.loc 1 262 0
 260 00ce 4FF49672 		mov	r2, #300	@ tmp209,
 257:.\stm32f4periph\src/stm32f4xx_i2c.c ****       result |= (uint16_t)0x0001;  
 261              		.loc 1 257 0
 262 00d2 08BF     		it	eq
 263 00d4 43F00103 		orreq	r3, r3, #1	@ result, result,
 264              	.LVL26:
 265              		.loc 1 262 0
 266 00d8 5043     		muls	r0, r2, r0	@ tmp208, tmp209
 267              	.LVL27:
 268 00da 4FF47A72 		mov	r2, #1000	@ tmp212,
 269 00de 90FBF2F0 		sdiv	r0, r0, r2	@ tmp211, tmp208, tmp212
 270 00e2 0130     		adds	r0, r0, #1	@ tmp214, tmp211,
 260:.\stm32f4periph\src/stm32f4xx_i2c.c ****     tmpreg |= (uint16_t)(result | I2C_CCR_FS);
 271              		.loc 1 260 0
 272 00e4 43F40043 		orr	r3, r3, #32768	@ tmpreg, result,
 273              	.LVL28:
 274              		.loc 1 262 0
 275 00e8 2084     		strh	r0, [r4, #32]	@ movhi	@ D.7679, I2Cx_9(D)->TRISE
 276              	.LVL29:
 277              	.L11:
 263:.\stm32f4periph\src/stm32f4xx_i2c.c ****   }
 264:.\stm32f4periph\src/stm32f4xx_i2c.c **** 
 265:.\stm32f4periph\src/stm32f4xx_i2c.c ****   /* Write to I2Cx CCR */
 266:.\stm32f4periph\src/stm32f4xx_i2c.c ****   I2Cx->CCR = tmpreg;
 278              		.loc 1 266 0
 279 00ea A383     		strh	r3, [r4, #28]	@ movhi	@ tmpreg, I2Cx_9(D)->CCR
 267:.\stm32f4periph\src/stm32f4xx_i2c.c ****   /* Enable the selected I2C peripheral */
 268:.\stm32f4periph\src/stm32f4xx_i2c.c ****   I2Cx->CR1 |= I2C_CR1_PE;
 280              		.loc 1 268 0
 281 00ec 2388     		ldrh	r3, [r4, #0]	@, I2Cx_9(D)->CR1
 282              	.LVL30:
 269:.\stm32f4periph\src/stm32f4xx_i2c.c **** 
 270:.\stm32f4periph\src/stm32f4xx_i2c.c **** /*---------------------------- I2Cx CR1 Configuration ------------------------*/
 271:.\stm32f4periph\src/stm32f4xx_i2c.c ****   /* Get the I2Cx CR1 value */
 272:.\stm32f4periph\src/stm32f4xx_i2c.c ****   tmpreg = I2Cx->CR1;
 273:.\stm32f4periph\src/stm32f4xx_i2c.c ****   /* Clear ACK, SMBTYPE and  SMBUS bits */
 274:.\stm32f4periph\src/stm32f4xx_i2c.c ****   tmpreg &= CR1_CLEAR_MASK;
 275:.\stm32f4periph\src/stm32f4xx_i2c.c ****   /* Configure I2Cx: mode and acknowledgement */
 276:.\stm32f4periph\src/stm32f4xx_i2c.c ****   /* Set SMBTYPE and SMBUS bits according to I2C_Mode value */
ARM GAS  C:\Users\Kevin\AppData\Local\Temp\cc2AQj48.s 			page 11


 277:.\stm32f4periph\src/stm32f4xx_i2c.c ****   /* Set ACK bit according to I2C_Ack value */
 278:.\stm32f4periph\src/stm32f4xx_i2c.c ****   tmpreg |= (uint16_t)((uint32_t)I2C_InitStruct->I2C_Mode | I2C_InitStruct->I2C_Ack);
 283              		.loc 1 278 0
 284 00ee 6989     		ldrh	r1, [r5, #10]	@, I2C_InitStruct_19(D)->I2C_Ack
 285              	.LVL31:
 286 00f0 AA88     		ldrh	r2, [r5, #4]	@, I2C_InitStruct_19(D)->I2C_Mode
 268:.\stm32f4periph\src/stm32f4xx_i2c.c ****   I2Cx->CR1 |= I2C_CR1_PE;
 287              		.loc 1 268 0
 288 00f2 9BB2     		uxth	r3, r3	@ D.7680, I2Cx_9(D)->CR1
 289 00f4 43F00103 		orr	r3, r3, #1	@ D.7681, D.7680,
 290 00f8 2380     		strh	r3, [r4, #0]	@ movhi	@ D.7681, I2Cx_9(D)->CR1
 272:.\stm32f4periph\src/stm32f4xx_i2c.c ****   tmpreg = I2Cx->CR1;
 291              		.loc 1 272 0
 292 00fa 2388     		ldrh	r3, [r4, #0]	@, I2Cx_9(D)->CR1
 293              	.LVL32:
 274:.\stm32f4periph\src/stm32f4xx_i2c.c ****   tmpreg &= CR1_CLEAR_MASK;
 294              		.loc 1 274 0
 295 00fc 23F48163 		bic	r3, r3, #1032	@ tmpreg, I2Cx_9(D)->CR1,
 296              	.LVL33:
 297 0100 23F00203 		bic	r3, r3, #2	@ tmpreg, tmpreg,
 298 0104 1B04     		lsls	r3, r3, #16	@ tmpreg, tmpreg,
 299              		.loc 1 278 0
 300 0106 0A43     		orrs	r2, r2, r1	@, tmp225, I2C_InitStruct_19(D)->I2C_Mode, I2C_InitStruct_19(D)->I2C_Ack
 274:.\stm32f4periph\src/stm32f4xx_i2c.c ****   tmpreg &= CR1_CLEAR_MASK;
 301              		.loc 1 274 0
 302 0108 1B0C     		lsrs	r3, r3, #16	@ tmpreg, tmpreg,
 303              	.LVL34:
 304              		.loc 1 278 0
 305 010a 1343     		orrs	r3, r3, r2	@, tmp227, tmpreg, tmp225
 306              	.LVL35:
 279:.\stm32f4periph\src/stm32f4xx_i2c.c ****   /* Write to I2Cx CR1 */
 280:.\stm32f4periph\src/stm32f4xx_i2c.c ****   I2Cx->CR1 = tmpreg;
 307              		.loc 1 280 0
 308 010c 2380     		strh	r3, [r4, #0]	@ movhi	@ tmpreg, I2Cx_9(D)->CR1
 281:.\stm32f4periph\src/stm32f4xx_i2c.c **** 
 282:.\stm32f4periph\src/stm32f4xx_i2c.c **** /*---------------------------- I2Cx OAR1 Configuration -----------------------*/
 283:.\stm32f4periph\src/stm32f4xx_i2c.c ****   /* Set I2Cx Own Address1 and acknowledged address */
 284:.\stm32f4periph\src/stm32f4xx_i2c.c ****   I2Cx->OAR1 = (I2C_InitStruct->I2C_AcknowledgedAddress | I2C_InitStruct->I2C_OwnAddress1);
 309              		.loc 1 284 0
 310 010e 2A89     		ldrh	r2, [r5, #8]	@, I2C_InitStruct_19(D)->I2C_OwnAddress1
 311 0110 AB89     		ldrh	r3, [r5, #12]	@, I2C_InitStruct_19(D)->I2C_AcknowledgedAddress
 312              	.LVL36:
 313 0112 1343     		orrs	r3, r3, r2	@, tmp231, I2C_InitStruct_19(D)->I2C_AcknowledgedAddress, I2C_InitStruct_19(D)->I2
 314 0114 2381     		strh	r3, [r4, #8]	@ movhi	@ D.7687, I2Cx_9(D)->OAR1
 285:.\stm32f4periph\src/stm32f4xx_i2c.c **** }
 315              		.loc 1 285 0
 316 0116 05B0     		add	sp, sp, #20	@,,
 317 0118 F0BD     		pop	{r4, r5, r6, r7, pc}
 318              	.L18:
 319 011a 00BF     		.align	2
 320              	.L17:
 321 011c 40420F00 		.word	1000000
 322 0120 A0860100 		.word	100000
 323              		.cfi_endproc
 324              	.LFE111:
 325              		.size	I2C_Init, .-I2C_Init
 326              		.align	1
ARM GAS  C:\Users\Kevin\AppData\Local\Temp\cc2AQj48.s 			page 12


 327              		.global	I2C_StructInit
 328              		.thumb
 329              		.thumb_func
 330              		.type	I2C_StructInit, %function
 331              	I2C_StructInit:
 332              	.LFB112:
 286:.\stm32f4periph\src/stm32f4xx_i2c.c **** 
 287:.\stm32f4periph\src/stm32f4xx_i2c.c **** /**
 288:.\stm32f4periph\src/stm32f4xx_i2c.c ****   * @brief  Fills each I2C_InitStruct member with its default value.
 289:.\stm32f4periph\src/stm32f4xx_i2c.c ****   * @param  I2C_InitStruct: pointer to an I2C_InitTypeDef structure which will be initialized.
 290:.\stm32f4periph\src/stm32f4xx_i2c.c ****   * @retval None
 291:.\stm32f4periph\src/stm32f4xx_i2c.c ****   */
 292:.\stm32f4periph\src/stm32f4xx_i2c.c **** void I2C_StructInit(I2C_InitTypeDef* I2C_InitStruct)
 293:.\stm32f4periph\src/stm32f4xx_i2c.c **** {
 333              		.loc 1 293 0
 334              		.cfi_startproc
 335              		@ args = 0, pretend = 0, frame = 0
 336              		@ frame_needed = 0, uses_anonymous_args = 0
 337              		@ link register save eliminated.
 338              	.LVL37:
 294:.\stm32f4periph\src/stm32f4xx_i2c.c **** /*---------------- Reset I2C init structure parameters values ----------------*/
 295:.\stm32f4periph\src/stm32f4xx_i2c.c ****   /* initialize the I2C_ClockSpeed member */
 296:.\stm32f4periph\src/stm32f4xx_i2c.c ****   I2C_InitStruct->I2C_ClockSpeed = 5000;
 339              		.loc 1 296 0
 340 0124 41F28833 		movw	r3, #5000	@ tmp135,
 341 0128 0360     		str	r3, [r0, #0]	@ tmp135, I2C_InitStruct_1(D)->I2C_ClockSpeed
 297:.\stm32f4periph\src/stm32f4xx_i2c.c ****   /* Initialize the I2C_Mode member */
 298:.\stm32f4periph\src/stm32f4xx_i2c.c ****   I2C_InitStruct->I2C_Mode = I2C_Mode_I2C;
 342              		.loc 1 298 0
 343 012a 0023     		movs	r3, #0	@ tmp137,
 344 012c 8380     		strh	r3, [r0, #4]	@ movhi	@ tmp137, I2C_InitStruct_1(D)->I2C_Mode
 299:.\stm32f4periph\src/stm32f4xx_i2c.c ****   /* Initialize the I2C_DutyCycle member */
 300:.\stm32f4periph\src/stm32f4xx_i2c.c ****   I2C_InitStruct->I2C_DutyCycle = I2C_DutyCycle_2;
 345              		.loc 1 300 0
 346 012e 4BF6FF72 		movw	r2, #49151	@ tmp139,
 301:.\stm32f4periph\src/stm32f4xx_i2c.c ****   /* Initialize the I2C_OwnAddress1 member */
 302:.\stm32f4periph\src/stm32f4xx_i2c.c ****   I2C_InitStruct->I2C_OwnAddress1 = 0;
 347              		.loc 1 302 0
 348 0132 0381     		strh	r3, [r0, #8]	@ movhi	@ tmp137, I2C_InitStruct_1(D)->I2C_OwnAddress1
 303:.\stm32f4periph\src/stm32f4xx_i2c.c ****   /* Initialize the I2C_Ack member */
 304:.\stm32f4periph\src/stm32f4xx_i2c.c ****   I2C_InitStruct->I2C_Ack = I2C_Ack_Disable;
 349              		.loc 1 304 0
 350 0134 4381     		strh	r3, [r0, #10]	@ movhi	@ tmp137, I2C_InitStruct_1(D)->I2C_Ack
 305:.\stm32f4periph\src/stm32f4xx_i2c.c ****   /* Initialize the I2C_AcknowledgedAddress member */
 306:.\stm32f4periph\src/stm32f4xx_i2c.c ****   I2C_InitStruct->I2C_AcknowledgedAddress = I2C_AcknowledgedAddress_7bit;
 351              		.loc 1 306 0
 352 0136 4FF48043 		mov	r3, #16384	@ tmp145,
 300:.\stm32f4periph\src/stm32f4xx_i2c.c ****   I2C_InitStruct->I2C_DutyCycle = I2C_DutyCycle_2;
 353              		.loc 1 300 0
 354 013a C280     		strh	r2, [r0, #6]	@ movhi	@ tmp139, I2C_InitStruct_1(D)->I2C_DutyCycle
 355              		.loc 1 306 0
 356 013c 8381     		strh	r3, [r0, #12]	@ movhi	@ tmp145, I2C_InitStruct_1(D)->I2C_AcknowledgedAddress
 357 013e 7047     		bx	lr	@
 358              		.cfi_endproc
 359              	.LFE112:
 360              		.size	I2C_StructInit, .-I2C_StructInit
 361              		.align	1
ARM GAS  C:\Users\Kevin\AppData\Local\Temp\cc2AQj48.s 			page 13


 362              		.global	I2C_Cmd
 363              		.thumb
 364              		.thumb_func
 365              		.type	I2C_Cmd, %function
 366              	I2C_Cmd:
 367              	.LFB113:
 307:.\stm32f4periph\src/stm32f4xx_i2c.c **** }
 308:.\stm32f4periph\src/stm32f4xx_i2c.c **** 
 309:.\stm32f4periph\src/stm32f4xx_i2c.c **** /**
 310:.\stm32f4periph\src/stm32f4xx_i2c.c ****   * @brief  Enables or disables the specified I2C peripheral.
 311:.\stm32f4periph\src/stm32f4xx_i2c.c ****   * @param  I2Cx: where x can be 1, 2 or 3 to select the I2C peripheral.
 312:.\stm32f4periph\src/stm32f4xx_i2c.c ****   * @param  NewState: new state of the I2Cx peripheral. 
 313:.\stm32f4periph\src/stm32f4xx_i2c.c ****   *          This parameter can be: ENABLE or DISABLE.
 314:.\stm32f4periph\src/stm32f4xx_i2c.c ****   * @retval None
 315:.\stm32f4periph\src/stm32f4xx_i2c.c ****   */
 316:.\stm32f4periph\src/stm32f4xx_i2c.c **** void I2C_Cmd(I2C_TypeDef* I2Cx, FunctionalState NewState)
 317:.\stm32f4periph\src/stm32f4xx_i2c.c **** {
 368              		.loc 1 317 0
 369              		.cfi_startproc
 370              		@ args = 0, pretend = 0, frame = 0
 371              		@ frame_needed = 0, uses_anonymous_args = 0
 372              		@ link register save eliminated.
 373              	.LVL38:
 318:.\stm32f4periph\src/stm32f4xx_i2c.c ****   /* Check the parameters */
 319:.\stm32f4periph\src/stm32f4xx_i2c.c ****   assert_param(IS_I2C_ALL_PERIPH(I2Cx));
 320:.\stm32f4periph\src/stm32f4xx_i2c.c ****   assert_param(IS_FUNCTIONAL_STATE(NewState));
 321:.\stm32f4periph\src/stm32f4xx_i2c.c ****   if (NewState != DISABLE)
 322:.\stm32f4periph\src/stm32f4xx_i2c.c ****   {
 323:.\stm32f4periph\src/stm32f4xx_i2c.c ****     /* Enable the selected I2C peripheral */
 324:.\stm32f4periph\src/stm32f4xx_i2c.c ****     I2Cx->CR1 |= I2C_CR1_PE;
 374              		.loc 1 324 0
 375 0140 0388     		ldrh	r3, [r0, #0]	@,* I2Cx
 321:.\stm32f4periph\src/stm32f4xx_i2c.c ****   if (NewState != DISABLE)
 376              		.loc 1 321 0
 377 0142 19B1     		cbz	r1, .L21	@ NewState,
 378              		.loc 1 324 0
 379 0144 9BB2     		uxth	r3, r3	@ D.7645, I2Cx_2(D)->CR1
 380 0146 43F00103 		orr	r3, r3, #1	@ D.7646, D.7645,
 381 014a 03E0     		b	.L23	@
 382              	.L21:
 325:.\stm32f4periph\src/stm32f4xx_i2c.c ****   }
 326:.\stm32f4periph\src/stm32f4xx_i2c.c ****   else
 327:.\stm32f4periph\src/stm32f4xx_i2c.c ****   {
 328:.\stm32f4periph\src/stm32f4xx_i2c.c ****     /* Disable the selected I2C peripheral */
 329:.\stm32f4periph\src/stm32f4xx_i2c.c ****     I2Cx->CR1 &= (uint16_t)~((uint16_t)I2C_CR1_PE);
 383              		.loc 1 329 0
 384 014c 23F00103 		bic	r3, r3, #1	@ D.7649, I2Cx_2(D)->CR1,
 385 0150 1B04     		lsls	r3, r3, #16	@ D.7649, D.7649,
 386 0152 1B0C     		lsrs	r3, r3, #16	@ D.7649, D.7649,
 387              	.L23:
 388 0154 0380     		strh	r3, [r0, #0]	@ movhi	@ D.7649,* I2Cx
 389 0156 7047     		bx	lr	@
 390              		.cfi_endproc
 391              	.LFE113:
 392              		.size	I2C_Cmd, .-I2C_Cmd
 393              		.align	1
 394              		.global	I2C_GenerateSTART
ARM GAS  C:\Users\Kevin\AppData\Local\Temp\cc2AQj48.s 			page 14


 395              		.thumb
 396              		.thumb_func
 397              		.type	I2C_GenerateSTART, %function
 398              	I2C_GenerateSTART:
 399              	.LFB114:
 330:.\stm32f4periph\src/stm32f4xx_i2c.c ****   }
 331:.\stm32f4periph\src/stm32f4xx_i2c.c **** }
 332:.\stm32f4periph\src/stm32f4xx_i2c.c **** 
 333:.\stm32f4periph\src/stm32f4xx_i2c.c **** /**
 334:.\stm32f4periph\src/stm32f4xx_i2c.c ****   * @brief  Generates I2Cx communication START condition.
 335:.\stm32f4periph\src/stm32f4xx_i2c.c ****   * @param  I2Cx: where x can be 1, 2 or 3 to select the I2C peripheral.
 336:.\stm32f4periph\src/stm32f4xx_i2c.c ****   * @param  NewState: new state of the I2C START condition generation.
 337:.\stm32f4periph\src/stm32f4xx_i2c.c ****   *          This parameter can be: ENABLE or DISABLE.
 338:.\stm32f4periph\src/stm32f4xx_i2c.c ****   * @retval None.
 339:.\stm32f4periph\src/stm32f4xx_i2c.c ****   */
 340:.\stm32f4periph\src/stm32f4xx_i2c.c **** void I2C_GenerateSTART(I2C_TypeDef* I2Cx, FunctionalState NewState)
 341:.\stm32f4periph\src/stm32f4xx_i2c.c **** {
 400              		.loc 1 341 0
 401              		.cfi_startproc
 402              		@ args = 0, pretend = 0, frame = 0
 403              		@ frame_needed = 0, uses_anonymous_args = 0
 404              		@ link register save eliminated.
 405              	.LVL39:
 342:.\stm32f4periph\src/stm32f4xx_i2c.c ****   /* Check the parameters */
 343:.\stm32f4periph\src/stm32f4xx_i2c.c ****   assert_param(IS_I2C_ALL_PERIPH(I2Cx));
 344:.\stm32f4periph\src/stm32f4xx_i2c.c ****   assert_param(IS_FUNCTIONAL_STATE(NewState));
 345:.\stm32f4periph\src/stm32f4xx_i2c.c ****   if (NewState != DISABLE)
 346:.\stm32f4periph\src/stm32f4xx_i2c.c ****   {
 347:.\stm32f4periph\src/stm32f4xx_i2c.c ****     /* Generate a START condition */
 348:.\stm32f4periph\src/stm32f4xx_i2c.c ****     I2Cx->CR1 |= I2C_CR1_START;
 406              		.loc 1 348 0
 407 0158 0388     		ldrh	r3, [r0, #0]	@,* I2Cx
 345:.\stm32f4periph\src/stm32f4xx_i2c.c ****   if (NewState != DISABLE)
 408              		.loc 1 345 0
 409 015a 19B1     		cbz	r1, .L25	@ NewState,
 410              		.loc 1 348 0
 411 015c 9BB2     		uxth	r3, r3	@ D.7638, I2Cx_2(D)->CR1
 412 015e 43F48073 		orr	r3, r3, #256	@ D.7639, D.7638,
 413 0162 03E0     		b	.L27	@
 414              	.L25:
 349:.\stm32f4periph\src/stm32f4xx_i2c.c ****   }
 350:.\stm32f4periph\src/stm32f4xx_i2c.c ****   else
 351:.\stm32f4periph\src/stm32f4xx_i2c.c ****   {
 352:.\stm32f4periph\src/stm32f4xx_i2c.c ****     /* Disable the START condition generation */
 353:.\stm32f4periph\src/stm32f4xx_i2c.c ****     I2Cx->CR1 &= (uint16_t)~((uint16_t)I2C_CR1_START);
 415              		.loc 1 353 0
 416 0164 23F48073 		bic	r3, r3, #256	@ D.7642, I2Cx_2(D)->CR1,
 417 0168 1B04     		lsls	r3, r3, #16	@ D.7642, D.7642,
 418 016a 1B0C     		lsrs	r3, r3, #16	@ D.7642, D.7642,
 419              	.L27:
 420 016c 0380     		strh	r3, [r0, #0]	@ movhi	@ D.7642,* I2Cx
 421 016e 7047     		bx	lr	@
 422              		.cfi_endproc
 423              	.LFE114:
 424              		.size	I2C_GenerateSTART, .-I2C_GenerateSTART
 425              		.align	1
 426              		.global	I2C_GenerateSTOP
ARM GAS  C:\Users\Kevin\AppData\Local\Temp\cc2AQj48.s 			page 15


 427              		.thumb
 428              		.thumb_func
 429              		.type	I2C_GenerateSTOP, %function
 430              	I2C_GenerateSTOP:
 431              	.LFB115:
 354:.\stm32f4periph\src/stm32f4xx_i2c.c ****   }
 355:.\stm32f4periph\src/stm32f4xx_i2c.c **** }
 356:.\stm32f4periph\src/stm32f4xx_i2c.c **** 
 357:.\stm32f4periph\src/stm32f4xx_i2c.c **** /**
 358:.\stm32f4periph\src/stm32f4xx_i2c.c ****   * @brief  Generates I2Cx communication STOP condition.
 359:.\stm32f4periph\src/stm32f4xx_i2c.c ****   * @param  I2Cx: where x can be 1, 2 or 3 to select the I2C peripheral.
 360:.\stm32f4periph\src/stm32f4xx_i2c.c ****   * @param  NewState: new state of the I2C STOP condition generation.
 361:.\stm32f4periph\src/stm32f4xx_i2c.c ****   *          This parameter can be: ENABLE or DISABLE.
 362:.\stm32f4periph\src/stm32f4xx_i2c.c ****   * @retval None.
 363:.\stm32f4periph\src/stm32f4xx_i2c.c ****   */
 364:.\stm32f4periph\src/stm32f4xx_i2c.c **** void I2C_GenerateSTOP(I2C_TypeDef* I2Cx, FunctionalState NewState)
 365:.\stm32f4periph\src/stm32f4xx_i2c.c **** {
 432              		.loc 1 365 0
 433              		.cfi_startproc
 434              		@ args = 0, pretend = 0, frame = 0
 435              		@ frame_needed = 0, uses_anonymous_args = 0
 436              		@ link register save eliminated.
 437              	.LVL40:
 366:.\stm32f4periph\src/stm32f4xx_i2c.c ****   /* Check the parameters */
 367:.\stm32f4periph\src/stm32f4xx_i2c.c ****   assert_param(IS_I2C_ALL_PERIPH(I2Cx));
 368:.\stm32f4periph\src/stm32f4xx_i2c.c ****   assert_param(IS_FUNCTIONAL_STATE(NewState));
 369:.\stm32f4periph\src/stm32f4xx_i2c.c ****   if (NewState != DISABLE)
 370:.\stm32f4periph\src/stm32f4xx_i2c.c ****   {
 371:.\stm32f4periph\src/stm32f4xx_i2c.c ****     /* Generate a STOP condition */
 372:.\stm32f4periph\src/stm32f4xx_i2c.c ****     I2Cx->CR1 |= I2C_CR1_STOP;
 438              		.loc 1 372 0
 439 0170 0388     		ldrh	r3, [r0, #0]	@,* I2Cx
 369:.\stm32f4periph\src/stm32f4xx_i2c.c ****   if (NewState != DISABLE)
 440              		.loc 1 369 0
 441 0172 19B1     		cbz	r1, .L29	@ NewState,
 442              		.loc 1 372 0
 443 0174 9BB2     		uxth	r3, r3	@ D.7631, I2Cx_2(D)->CR1
 444 0176 43F40073 		orr	r3, r3, #512	@ D.7632, D.7631,
 445 017a 03E0     		b	.L31	@
 446              	.L29:
 373:.\stm32f4periph\src/stm32f4xx_i2c.c ****   }
 374:.\stm32f4periph\src/stm32f4xx_i2c.c ****   else
 375:.\stm32f4periph\src/stm32f4xx_i2c.c ****   {
 376:.\stm32f4periph\src/stm32f4xx_i2c.c ****     /* Disable the STOP condition generation */
 377:.\stm32f4periph\src/stm32f4xx_i2c.c ****     I2Cx->CR1 &= (uint16_t)~((uint16_t)I2C_CR1_STOP);
 447              		.loc 1 377 0
 448 017c 23F40073 		bic	r3, r3, #512	@ D.7635, I2Cx_2(D)->CR1,
 449 0180 1B04     		lsls	r3, r3, #16	@ D.7635, D.7635,
 450 0182 1B0C     		lsrs	r3, r3, #16	@ D.7635, D.7635,
 451              	.L31:
 452 0184 0380     		strh	r3, [r0, #0]	@ movhi	@ D.7635,* I2Cx
 453 0186 7047     		bx	lr	@
 454              		.cfi_endproc
 455              	.LFE115:
 456              		.size	I2C_GenerateSTOP, .-I2C_GenerateSTOP
 457              		.align	1
 458              		.global	I2C_Send7bitAddress
ARM GAS  C:\Users\Kevin\AppData\Local\Temp\cc2AQj48.s 			page 16


 459              		.thumb
 460              		.thumb_func
 461              		.type	I2C_Send7bitAddress, %function
 462              	I2C_Send7bitAddress:
 463              	.LFB116:
 378:.\stm32f4periph\src/stm32f4xx_i2c.c ****   }
 379:.\stm32f4periph\src/stm32f4xx_i2c.c **** }
 380:.\stm32f4periph\src/stm32f4xx_i2c.c **** 
 381:.\stm32f4periph\src/stm32f4xx_i2c.c **** /**
 382:.\stm32f4periph\src/stm32f4xx_i2c.c ****   * @brief  Transmits the address byte to select the slave device.
 383:.\stm32f4periph\src/stm32f4xx_i2c.c ****   * @param  I2Cx: where x can be 1, 2 or 3 to select the I2C peripheral.
 384:.\stm32f4periph\src/stm32f4xx_i2c.c ****   * @param  Address: specifies the slave address which will be transmitted
 385:.\stm32f4periph\src/stm32f4xx_i2c.c ****   * @param  I2C_Direction: specifies whether the I2C device will be a Transmitter
 386:.\stm32f4periph\src/stm32f4xx_i2c.c ****   *         or a Receiver. 
 387:.\stm32f4periph\src/stm32f4xx_i2c.c ****   *          This parameter can be one of the following values
 388:.\stm32f4periph\src/stm32f4xx_i2c.c ****   *            @arg I2C_Direction_Transmitter: Transmitter mode
 389:.\stm32f4periph\src/stm32f4xx_i2c.c ****   *            @arg I2C_Direction_Receiver: Receiver mode
 390:.\stm32f4periph\src/stm32f4xx_i2c.c ****   * @retval None.
 391:.\stm32f4periph\src/stm32f4xx_i2c.c ****   */
 392:.\stm32f4periph\src/stm32f4xx_i2c.c **** void I2C_Send7bitAddress(I2C_TypeDef* I2Cx, uint8_t Address, uint8_t I2C_Direction)
 393:.\stm32f4periph\src/stm32f4xx_i2c.c **** {
 464              		.loc 1 393 0
 465              		.cfi_startproc
 466              		@ args = 0, pretend = 0, frame = 0
 467              		@ frame_needed = 0, uses_anonymous_args = 0
 468              		@ link register save eliminated.
 469              	.LVL41:
 394:.\stm32f4periph\src/stm32f4xx_i2c.c ****   /* Check the parameters */
 395:.\stm32f4periph\src/stm32f4xx_i2c.c ****   assert_param(IS_I2C_ALL_PERIPH(I2Cx));
 396:.\stm32f4periph\src/stm32f4xx_i2c.c ****   assert_param(IS_I2C_DIRECTION(I2C_Direction));
 397:.\stm32f4periph\src/stm32f4xx_i2c.c ****   /* Test on the direction to set/reset the read/write bit */
 398:.\stm32f4periph\src/stm32f4xx_i2c.c ****   if (I2C_Direction != I2C_Direction_Transmitter)
 470              		.loc 1 398 0
 471 0188 12B1     		cbz	r2, .L33	@ I2C_Direction,
 399:.\stm32f4periph\src/stm32f4xx_i2c.c ****   {
 400:.\stm32f4periph\src/stm32f4xx_i2c.c ****     /* Set the address bit0 for read */
 401:.\stm32f4periph\src/stm32f4xx_i2c.c ****     Address |= I2C_OAR1_ADD0;
 472              		.loc 1 401 0
 473 018a 41F00101 		orr	r1, r1, #1	@ Address, Address,
 474              	.LVL42:
 475 018e 01E0     		b	.L34	@
 476              	.L33:
 402:.\stm32f4periph\src/stm32f4xx_i2c.c ****   }
 403:.\stm32f4periph\src/stm32f4xx_i2c.c ****   else
 404:.\stm32f4periph\src/stm32f4xx_i2c.c ****   {
 405:.\stm32f4periph\src/stm32f4xx_i2c.c ****     /* Reset the address bit0 for write */
 406:.\stm32f4periph\src/stm32f4xx_i2c.c ****     Address &= (uint8_t)~((uint8_t)I2C_OAR1_ADD0);
 477              		.loc 1 406 0
 478 0190 01F0FE01 		and	r1, r1, #254	@ Address, Address,
 479              	.LVL43:
 480              	.L34:
 407:.\stm32f4periph\src/stm32f4xx_i2c.c ****   }
 408:.\stm32f4periph\src/stm32f4xx_i2c.c ****   /* Send the address */
 409:.\stm32f4periph\src/stm32f4xx_i2c.c ****   I2Cx->DR = Address;
 481              		.loc 1 409 0
 482 0194 0182     		strh	r1, [r0, #16]	@ movhi	@ Address, I2Cx_7(D)->DR
 483 0196 7047     		bx	lr	@
ARM GAS  C:\Users\Kevin\AppData\Local\Temp\cc2AQj48.s 			page 17


 484              		.cfi_endproc
 485              	.LFE116:
 486              		.size	I2C_Send7bitAddress, .-I2C_Send7bitAddress
 487              		.align	1
 488              		.global	I2C_AcknowledgeConfig
 489              		.thumb
 490              		.thumb_func
 491              		.type	I2C_AcknowledgeConfig, %function
 492              	I2C_AcknowledgeConfig:
 493              	.LFB117:
 410:.\stm32f4periph\src/stm32f4xx_i2c.c **** }
 411:.\stm32f4periph\src/stm32f4xx_i2c.c **** 
 412:.\stm32f4periph\src/stm32f4xx_i2c.c **** /**
 413:.\stm32f4periph\src/stm32f4xx_i2c.c ****   * @brief  Enables or disables the specified I2C acknowledge feature.
 414:.\stm32f4periph\src/stm32f4xx_i2c.c ****   * @param  I2Cx: where x can be 1, 2 or 3 to select the I2C peripheral.
 415:.\stm32f4periph\src/stm32f4xx_i2c.c ****   * @param  NewState: new state of the I2C Acknowledgement.
 416:.\stm32f4periph\src/stm32f4xx_i2c.c ****   *          This parameter can be: ENABLE or DISABLE.
 417:.\stm32f4periph\src/stm32f4xx_i2c.c ****   * @retval None.
 418:.\stm32f4periph\src/stm32f4xx_i2c.c ****   */
 419:.\stm32f4periph\src/stm32f4xx_i2c.c **** void I2C_AcknowledgeConfig(I2C_TypeDef* I2Cx, FunctionalState NewState)
 420:.\stm32f4periph\src/stm32f4xx_i2c.c **** {
 494              		.loc 1 420 0
 495              		.cfi_startproc
 496              		@ args = 0, pretend = 0, frame = 0
 497              		@ frame_needed = 0, uses_anonymous_args = 0
 498              		@ link register save eliminated.
 499              	.LVL44:
 421:.\stm32f4periph\src/stm32f4xx_i2c.c ****   /* Check the parameters */
 422:.\stm32f4periph\src/stm32f4xx_i2c.c ****   assert_param(IS_I2C_ALL_PERIPH(I2Cx));
 423:.\stm32f4periph\src/stm32f4xx_i2c.c ****   assert_param(IS_FUNCTIONAL_STATE(NewState));
 424:.\stm32f4periph\src/stm32f4xx_i2c.c ****   if (NewState != DISABLE)
 425:.\stm32f4periph\src/stm32f4xx_i2c.c ****   {
 426:.\stm32f4periph\src/stm32f4xx_i2c.c ****     /* Enable the acknowledgement */
 427:.\stm32f4periph\src/stm32f4xx_i2c.c ****     I2Cx->CR1 |= I2C_CR1_ACK;
 500              		.loc 1 427 0
 501 0198 0388     		ldrh	r3, [r0, #0]	@,* I2Cx
 424:.\stm32f4periph\src/stm32f4xx_i2c.c ****   if (NewState != DISABLE)
 502              		.loc 1 424 0
 503 019a 19B1     		cbz	r1, .L36	@ NewState,
 504              		.loc 1 427 0
 505 019c 9BB2     		uxth	r3, r3	@ D.7620, I2Cx_2(D)->CR1
 506 019e 43F48063 		orr	r3, r3, #1024	@ D.7621, D.7620,
 507 01a2 03E0     		b	.L38	@
 508              	.L36:
 428:.\stm32f4periph\src/stm32f4xx_i2c.c ****   }
 429:.\stm32f4periph\src/stm32f4xx_i2c.c ****   else
 430:.\stm32f4periph\src/stm32f4xx_i2c.c ****   {
 431:.\stm32f4periph\src/stm32f4xx_i2c.c ****     /* Disable the acknowledgement */
 432:.\stm32f4periph\src/stm32f4xx_i2c.c ****     I2Cx->CR1 &= (uint16_t)~((uint16_t)I2C_CR1_ACK);
 509              		.loc 1 432 0
 510 01a4 23F48063 		bic	r3, r3, #1024	@ D.7624, I2Cx_2(D)->CR1,
 511 01a8 1B04     		lsls	r3, r3, #16	@ D.7624, D.7624,
 512 01aa 1B0C     		lsrs	r3, r3, #16	@ D.7624, D.7624,
 513              	.L38:
 514 01ac 0380     		strh	r3, [r0, #0]	@ movhi	@ D.7624,* I2Cx
 515 01ae 7047     		bx	lr	@
 516              		.cfi_endproc
ARM GAS  C:\Users\Kevin\AppData\Local\Temp\cc2AQj48.s 			page 18


 517              	.LFE117:
 518              		.size	I2C_AcknowledgeConfig, .-I2C_AcknowledgeConfig
 519              		.align	1
 520              		.global	I2C_OwnAddress2Config
 521              		.thumb
 522              		.thumb_func
 523              		.type	I2C_OwnAddress2Config, %function
 524              	I2C_OwnAddress2Config:
 525              	.LFB118:
 433:.\stm32f4periph\src/stm32f4xx_i2c.c ****   }
 434:.\stm32f4periph\src/stm32f4xx_i2c.c **** }
 435:.\stm32f4periph\src/stm32f4xx_i2c.c **** 
 436:.\stm32f4periph\src/stm32f4xx_i2c.c **** /**
 437:.\stm32f4periph\src/stm32f4xx_i2c.c ****   * @brief  Configures the specified I2C own address2.
 438:.\stm32f4periph\src/stm32f4xx_i2c.c ****   * @param  I2Cx: where x can be 1, 2 or 3 to select the I2C peripheral.
 439:.\stm32f4periph\src/stm32f4xx_i2c.c ****   * @param  Address: specifies the 7bit I2C own address2.
 440:.\stm32f4periph\src/stm32f4xx_i2c.c ****   * @retval None.
 441:.\stm32f4periph\src/stm32f4xx_i2c.c ****   */
 442:.\stm32f4periph\src/stm32f4xx_i2c.c **** void I2C_OwnAddress2Config(I2C_TypeDef* I2Cx, uint8_t Address)
 443:.\stm32f4periph\src/stm32f4xx_i2c.c **** {
 526              		.loc 1 443 0
 527              		.cfi_startproc
 528              		@ args = 0, pretend = 0, frame = 0
 529              		@ frame_needed = 0, uses_anonymous_args = 0
 530              		@ link register save eliminated.
 531              	.LVL45:
 444:.\stm32f4periph\src/stm32f4xx_i2c.c ****   uint16_t tmpreg = 0;
 445:.\stm32f4periph\src/stm32f4xx_i2c.c **** 
 446:.\stm32f4periph\src/stm32f4xx_i2c.c ****   /* Check the parameters */
 447:.\stm32f4periph\src/stm32f4xx_i2c.c ****   assert_param(IS_I2C_ALL_PERIPH(I2Cx));
 448:.\stm32f4periph\src/stm32f4xx_i2c.c **** 
 449:.\stm32f4periph\src/stm32f4xx_i2c.c ****   /* Get the old register value */
 450:.\stm32f4periph\src/stm32f4xx_i2c.c ****   tmpreg = I2Cx->OAR2;
 532              		.loc 1 450 0
 533 01b0 8389     		ldrh	r3, [r0, #12]	@, I2Cx_2(D)->OAR2
 534 01b2 9BB2     		uxth	r3, r3	@ tmpreg, I2Cx_2(D)->OAR2
 535              	.LVL46:
 451:.\stm32f4periph\src/stm32f4xx_i2c.c **** 
 452:.\stm32f4periph\src/stm32f4xx_i2c.c ****   /* Reset I2Cx Own address2 bit [7:1] */
 453:.\stm32f4periph\src/stm32f4xx_i2c.c ****   tmpreg &= (uint16_t)~((uint16_t)I2C_OAR2_ADD2);
 454:.\stm32f4periph\src/stm32f4xx_i2c.c **** 
 455:.\stm32f4periph\src/stm32f4xx_i2c.c ****   /* Set I2Cx Own address2 */
 456:.\stm32f4periph\src/stm32f4xx_i2c.c ****   tmpreg |= (uint16_t)((uint16_t)Address & (uint16_t)0x00FE);
 536              		.loc 1 456 0
 537 01b4 01F0FE01 		and	r1, r1, #254	@ tmp147, Address,
 538              	.LVL47:
 453:.\stm32f4periph\src/stm32f4xx_i2c.c ****   tmpreg &= (uint16_t)~((uint16_t)I2C_OAR2_ADD2);
 539              		.loc 1 453 0
 540 01b8 23F0FE03 		bic	r3, r3, #254	@ tmp148, tmpreg,
 541              	.LVL48:
 542              		.loc 1 456 0
 543 01bc 0B43     		orrs	r3, r3, r1	@, tmpreg, tmp148, tmp147
 544              	.LVL49:
 457:.\stm32f4periph\src/stm32f4xx_i2c.c **** 
 458:.\stm32f4periph\src/stm32f4xx_i2c.c ****   /* Store the new register value */
 459:.\stm32f4periph\src/stm32f4xx_i2c.c ****   I2Cx->OAR2 = tmpreg;
 545              		.loc 1 459 0
ARM GAS  C:\Users\Kevin\AppData\Local\Temp\cc2AQj48.s 			page 19


 546 01be 8381     		strh	r3, [r0, #12]	@ movhi	@ tmpreg, I2Cx_2(D)->OAR2
 547 01c0 7047     		bx	lr	@
 548              		.cfi_endproc
 549              	.LFE118:
 550              		.size	I2C_OwnAddress2Config, .-I2C_OwnAddress2Config
 551              		.align	1
 552              		.global	I2C_DualAddressCmd
 553              		.thumb
 554              		.thumb_func
 555              		.type	I2C_DualAddressCmd, %function
 556              	I2C_DualAddressCmd:
 557              	.LFB119:
 460:.\stm32f4periph\src/stm32f4xx_i2c.c **** }
 461:.\stm32f4periph\src/stm32f4xx_i2c.c **** 
 462:.\stm32f4periph\src/stm32f4xx_i2c.c **** /**
 463:.\stm32f4periph\src/stm32f4xx_i2c.c ****   * @brief  Enables or disables the specified I2C dual addressing mode.
 464:.\stm32f4periph\src/stm32f4xx_i2c.c ****   * @param  I2Cx: where x can be 1, 2 or 3 to select the I2C peripheral.
 465:.\stm32f4periph\src/stm32f4xx_i2c.c ****   * @param  NewState: new state of the I2C dual addressing mode.
 466:.\stm32f4periph\src/stm32f4xx_i2c.c ****   *          This parameter can be: ENABLE or DISABLE.
 467:.\stm32f4periph\src/stm32f4xx_i2c.c ****   * @retval None
 468:.\stm32f4periph\src/stm32f4xx_i2c.c ****   */
 469:.\stm32f4periph\src/stm32f4xx_i2c.c **** void I2C_DualAddressCmd(I2C_TypeDef* I2Cx, FunctionalState NewState)
 470:.\stm32f4periph\src/stm32f4xx_i2c.c **** {
 558              		.loc 1 470 0
 559              		.cfi_startproc
 560              		@ args = 0, pretend = 0, frame = 0
 561              		@ frame_needed = 0, uses_anonymous_args = 0
 562              		@ link register save eliminated.
 563              	.LVL50:
 471:.\stm32f4periph\src/stm32f4xx_i2c.c ****   /* Check the parameters */
 472:.\stm32f4periph\src/stm32f4xx_i2c.c ****   assert_param(IS_I2C_ALL_PERIPH(I2Cx));
 473:.\stm32f4periph\src/stm32f4xx_i2c.c ****   assert_param(IS_FUNCTIONAL_STATE(NewState));
 474:.\stm32f4periph\src/stm32f4xx_i2c.c ****   if (NewState != DISABLE)
 475:.\stm32f4periph\src/stm32f4xx_i2c.c ****   {
 476:.\stm32f4periph\src/stm32f4xx_i2c.c ****     /* Enable dual addressing mode */
 477:.\stm32f4periph\src/stm32f4xx_i2c.c ****     I2Cx->OAR2 |= I2C_OAR2_ENDUAL;
 564              		.loc 1 477 0
 565 01c2 8389     		ldrh	r3, [r0, #12]	@,
 474:.\stm32f4periph\src/stm32f4xx_i2c.c ****   if (NewState != DISABLE)
 566              		.loc 1 474 0
 567 01c4 19B1     		cbz	r1, .L41	@ NewState,
 568              		.loc 1 477 0
 569 01c6 9BB2     		uxth	r3, r3	@ D.7609, I2Cx_2(D)->OAR2
 570 01c8 43F00103 		orr	r3, r3, #1	@ D.7610, D.7609,
 571 01cc 03E0     		b	.L43	@
 572              	.L41:
 478:.\stm32f4periph\src/stm32f4xx_i2c.c ****   }
 479:.\stm32f4periph\src/stm32f4xx_i2c.c ****   else
 480:.\stm32f4periph\src/stm32f4xx_i2c.c ****   {
 481:.\stm32f4periph\src/stm32f4xx_i2c.c ****     /* Disable dual addressing mode */
 482:.\stm32f4periph\src/stm32f4xx_i2c.c ****     I2Cx->OAR2 &= (uint16_t)~((uint16_t)I2C_OAR2_ENDUAL);
 573              		.loc 1 482 0
 574 01ce 23F00103 		bic	r3, r3, #1	@ D.7613, I2Cx_2(D)->OAR2,
 575 01d2 1B04     		lsls	r3, r3, #16	@ D.7613, D.7613,
 576 01d4 1B0C     		lsrs	r3, r3, #16	@ D.7613, D.7613,
 577              	.L43:
 578 01d6 8381     		strh	r3, [r0, #12]	@ movhi	@ D.7613,
ARM GAS  C:\Users\Kevin\AppData\Local\Temp\cc2AQj48.s 			page 20


 579 01d8 7047     		bx	lr	@
 580              		.cfi_endproc
 581              	.LFE119:
 582              		.size	I2C_DualAddressCmd, .-I2C_DualAddressCmd
 583              		.align	1
 584              		.global	I2C_GeneralCallCmd
 585              		.thumb
 586              		.thumb_func
 587              		.type	I2C_GeneralCallCmd, %function
 588              	I2C_GeneralCallCmd:
 589              	.LFB120:
 483:.\stm32f4periph\src/stm32f4xx_i2c.c ****   }
 484:.\stm32f4periph\src/stm32f4xx_i2c.c **** }
 485:.\stm32f4periph\src/stm32f4xx_i2c.c **** 
 486:.\stm32f4periph\src/stm32f4xx_i2c.c **** /**
 487:.\stm32f4periph\src/stm32f4xx_i2c.c ****   * @brief  Enables or disables the specified I2C general call feature.
 488:.\stm32f4periph\src/stm32f4xx_i2c.c ****   * @param  I2Cx: where x can be 1, 2 or 3 to select the I2C peripheral.
 489:.\stm32f4periph\src/stm32f4xx_i2c.c ****   * @param  NewState: new state of the I2C General call.
 490:.\stm32f4periph\src/stm32f4xx_i2c.c ****   *          This parameter can be: ENABLE or DISABLE.
 491:.\stm32f4periph\src/stm32f4xx_i2c.c ****   * @retval None
 492:.\stm32f4periph\src/stm32f4xx_i2c.c ****   */
 493:.\stm32f4periph\src/stm32f4xx_i2c.c **** void I2C_GeneralCallCmd(I2C_TypeDef* I2Cx, FunctionalState NewState)
 494:.\stm32f4periph\src/stm32f4xx_i2c.c **** {
 590              		.loc 1 494 0
 591              		.cfi_startproc
 592              		@ args = 0, pretend = 0, frame = 0
 593              		@ frame_needed = 0, uses_anonymous_args = 0
 594              		@ link register save eliminated.
 595              	.LVL51:
 495:.\stm32f4periph\src/stm32f4xx_i2c.c ****   /* Check the parameters */
 496:.\stm32f4periph\src/stm32f4xx_i2c.c ****   assert_param(IS_I2C_ALL_PERIPH(I2Cx));
 497:.\stm32f4periph\src/stm32f4xx_i2c.c ****   assert_param(IS_FUNCTIONAL_STATE(NewState));
 498:.\stm32f4periph\src/stm32f4xx_i2c.c ****   if (NewState != DISABLE)
 499:.\stm32f4periph\src/stm32f4xx_i2c.c ****   {
 500:.\stm32f4periph\src/stm32f4xx_i2c.c ****     /* Enable generall call */
 501:.\stm32f4periph\src/stm32f4xx_i2c.c ****     I2Cx->CR1 |= I2C_CR1_ENGC;
 596              		.loc 1 501 0
 597 01da 0388     		ldrh	r3, [r0, #0]	@,* I2Cx
 498:.\stm32f4periph\src/stm32f4xx_i2c.c ****   if (NewState != DISABLE)
 598              		.loc 1 498 0
 599 01dc 19B1     		cbz	r1, .L45	@ NewState,
 600              		.loc 1 501 0
 601 01de 9BB2     		uxth	r3, r3	@ D.7602, I2Cx_2(D)->CR1
 602 01e0 43F04003 		orr	r3, r3, #64	@ D.7603, D.7602,
 603 01e4 03E0     		b	.L47	@
 604              	.L45:
 502:.\stm32f4periph\src/stm32f4xx_i2c.c ****   }
 503:.\stm32f4periph\src/stm32f4xx_i2c.c ****   else
 504:.\stm32f4periph\src/stm32f4xx_i2c.c ****   {
 505:.\stm32f4periph\src/stm32f4xx_i2c.c ****     /* Disable generall call */
 506:.\stm32f4periph\src/stm32f4xx_i2c.c ****     I2Cx->CR1 &= (uint16_t)~((uint16_t)I2C_CR1_ENGC);
 605              		.loc 1 506 0
 606 01e6 23F04003 		bic	r3, r3, #64	@ D.7606, I2Cx_2(D)->CR1,
 607 01ea 1B04     		lsls	r3, r3, #16	@ D.7606, D.7606,
 608 01ec 1B0C     		lsrs	r3, r3, #16	@ D.7606, D.7606,
 609              	.L47:
 610 01ee 0380     		strh	r3, [r0, #0]	@ movhi	@ D.7606,* I2Cx
ARM GAS  C:\Users\Kevin\AppData\Local\Temp\cc2AQj48.s 			page 21


 611 01f0 7047     		bx	lr	@
 612              		.cfi_endproc
 613              	.LFE120:
 614              		.size	I2C_GeneralCallCmd, .-I2C_GeneralCallCmd
 615              		.align	1
 616              		.global	I2C_SoftwareResetCmd
 617              		.thumb
 618              		.thumb_func
 619              		.type	I2C_SoftwareResetCmd, %function
 620              	I2C_SoftwareResetCmd:
 621              	.LFB121:
 507:.\stm32f4periph\src/stm32f4xx_i2c.c ****   }
 508:.\stm32f4periph\src/stm32f4xx_i2c.c **** }
 509:.\stm32f4periph\src/stm32f4xx_i2c.c **** 
 510:.\stm32f4periph\src/stm32f4xx_i2c.c **** /**
 511:.\stm32f4periph\src/stm32f4xx_i2c.c ****   * @brief  Enables or disables the specified I2C software reset.
 512:.\stm32f4periph\src/stm32f4xx_i2c.c ****   * @note   When software reset is enabled, the I2C IOs are released (this can
 513:.\stm32f4periph\src/stm32f4xx_i2c.c ****   *         be useful to recover from bus errors).  
 514:.\stm32f4periph\src/stm32f4xx_i2c.c ****   * @param  I2Cx: where x can be 1, 2 or 3 to select the I2C peripheral.
 515:.\stm32f4periph\src/stm32f4xx_i2c.c ****   * @param  NewState: new state of the I2C software reset.
 516:.\stm32f4periph\src/stm32f4xx_i2c.c ****   *          This parameter can be: ENABLE or DISABLE.
 517:.\stm32f4periph\src/stm32f4xx_i2c.c ****   * @retval None
 518:.\stm32f4periph\src/stm32f4xx_i2c.c ****   */
 519:.\stm32f4periph\src/stm32f4xx_i2c.c **** void I2C_SoftwareResetCmd(I2C_TypeDef* I2Cx, FunctionalState NewState)
 520:.\stm32f4periph\src/stm32f4xx_i2c.c **** {
 622              		.loc 1 520 0
 623              		.cfi_startproc
 624              		@ args = 0, pretend = 0, frame = 0
 625              		@ frame_needed = 0, uses_anonymous_args = 0
 626              		@ link register save eliminated.
 627              	.LVL52:
 521:.\stm32f4periph\src/stm32f4xx_i2c.c ****   /* Check the parameters */
 522:.\stm32f4periph\src/stm32f4xx_i2c.c ****   assert_param(IS_I2C_ALL_PERIPH(I2Cx));
 523:.\stm32f4periph\src/stm32f4xx_i2c.c ****   assert_param(IS_FUNCTIONAL_STATE(NewState));
 524:.\stm32f4periph\src/stm32f4xx_i2c.c ****   if (NewState != DISABLE)
 525:.\stm32f4periph\src/stm32f4xx_i2c.c ****   {
 526:.\stm32f4periph\src/stm32f4xx_i2c.c ****     /* Peripheral under reset */
 527:.\stm32f4periph\src/stm32f4xx_i2c.c ****     I2Cx->CR1 |= I2C_CR1_SWRST;
 628              		.loc 1 527 0
 629 01f2 0388     		ldrh	r3, [r0, #0]	@,* I2Cx
 524:.\stm32f4periph\src/stm32f4xx_i2c.c ****   if (NewState != DISABLE)
 630              		.loc 1 524 0
 631 01f4 21B1     		cbz	r1, .L49	@ NewState,
 632              		.loc 1 527 0
 633 01f6 6FEA4343 		mvn	r3, r3, lsl #17	@ tmp141, I2Cx_2(D)->CR1,
 634 01fa 6FEA5343 		mvn	r3, r3, lsr #17	@ tmp141, tmp141,
 635 01fe 01E0     		b	.L51	@
 636              	.L49:
 528:.\stm32f4periph\src/stm32f4xx_i2c.c ****   }
 529:.\stm32f4periph\src/stm32f4xx_i2c.c ****   else
 530:.\stm32f4periph\src/stm32f4xx_i2c.c ****   {
 531:.\stm32f4periph\src/stm32f4xx_i2c.c ****     /* Peripheral not under reset */
 532:.\stm32f4periph\src/stm32f4xx_i2c.c ****     I2Cx->CR1 &= (uint16_t)~((uint16_t)I2C_CR1_SWRST);
 637              		.loc 1 532 0
 638 0200 5B04     		lsls	r3, r3, #17	@ tmp146, I2Cx_2(D)->CR1,
 639 0202 5B0C     		lsrs	r3, r3, #17	@ D.7599, tmp146,
 640              	.L51:
ARM GAS  C:\Users\Kevin\AppData\Local\Temp\cc2AQj48.s 			page 22


 641 0204 0380     		strh	r3, [r0, #0]	@ movhi	@ D.7599,* I2Cx
 642 0206 7047     		bx	lr	@
 643              		.cfi_endproc
 644              	.LFE121:
 645              		.size	I2C_SoftwareResetCmd, .-I2C_SoftwareResetCmd
 646              		.align	1
 647              		.global	I2C_StretchClockCmd
 648              		.thumb
 649              		.thumb_func
 650              		.type	I2C_StretchClockCmd, %function
 651              	I2C_StretchClockCmd:
 652              	.LFB122:
 533:.\stm32f4periph\src/stm32f4xx_i2c.c ****   }
 534:.\stm32f4periph\src/stm32f4xx_i2c.c **** }
 535:.\stm32f4periph\src/stm32f4xx_i2c.c **** 
 536:.\stm32f4periph\src/stm32f4xx_i2c.c **** /**
 537:.\stm32f4periph\src/stm32f4xx_i2c.c ****   * @brief  Enables or disables the specified I2C Clock stretching.
 538:.\stm32f4periph\src/stm32f4xx_i2c.c ****   * @param  I2Cx: where x can be 1, 2 or 3 to select the I2C peripheral.
 539:.\stm32f4periph\src/stm32f4xx_i2c.c ****   * @param  NewState: new state of the I2Cx Clock stretching.
 540:.\stm32f4periph\src/stm32f4xx_i2c.c ****   *          This parameter can be: ENABLE or DISABLE.
 541:.\stm32f4periph\src/stm32f4xx_i2c.c ****   * @retval None
 542:.\stm32f4periph\src/stm32f4xx_i2c.c ****   */
 543:.\stm32f4periph\src/stm32f4xx_i2c.c **** void I2C_StretchClockCmd(I2C_TypeDef* I2Cx, FunctionalState NewState)
 544:.\stm32f4periph\src/stm32f4xx_i2c.c **** {
 653              		.loc 1 544 0
 654              		.cfi_startproc
 655              		@ args = 0, pretend = 0, frame = 0
 656              		@ frame_needed = 0, uses_anonymous_args = 0
 657              		@ link register save eliminated.
 658              	.LVL53:
 545:.\stm32f4periph\src/stm32f4xx_i2c.c ****   /* Check the parameters */
 546:.\stm32f4periph\src/stm32f4xx_i2c.c ****   assert_param(IS_I2C_ALL_PERIPH(I2Cx));
 547:.\stm32f4periph\src/stm32f4xx_i2c.c ****   assert_param(IS_FUNCTIONAL_STATE(NewState));
 548:.\stm32f4periph\src/stm32f4xx_i2c.c ****   if (NewState == DISABLE)
 549:.\stm32f4periph\src/stm32f4xx_i2c.c ****   {
 550:.\stm32f4periph\src/stm32f4xx_i2c.c ****     /* Enable the selected I2C Clock stretching */
 551:.\stm32f4periph\src/stm32f4xx_i2c.c ****     I2Cx->CR1 |= I2C_CR1_NOSTRETCH;
 659              		.loc 1 551 0
 660 0208 0388     		ldrh	r3, [r0, #0]	@,* I2Cx
 548:.\stm32f4periph\src/stm32f4xx_i2c.c ****   if (NewState == DISABLE)
 661              		.loc 1 548 0
 662 020a 19B9     		cbnz	r1, .L53	@ NewState,
 663              		.loc 1 551 0
 664 020c 9BB2     		uxth	r3, r3	@ D.7588, I2Cx_2(D)->CR1
 665 020e 43F08003 		orr	r3, r3, #128	@ D.7589, D.7588,
 666 0212 03E0     		b	.L55	@
 667              	.L53:
 552:.\stm32f4periph\src/stm32f4xx_i2c.c ****   }
 553:.\stm32f4periph\src/stm32f4xx_i2c.c ****   else
 554:.\stm32f4periph\src/stm32f4xx_i2c.c ****   {
 555:.\stm32f4periph\src/stm32f4xx_i2c.c ****     /* Disable the selected I2C Clock stretching */
 556:.\stm32f4periph\src/stm32f4xx_i2c.c ****     I2Cx->CR1 &= (uint16_t)~((uint16_t)I2C_CR1_NOSTRETCH);
 668              		.loc 1 556 0
 669 0214 23F08003 		bic	r3, r3, #128	@ D.7592, I2Cx_2(D)->CR1,
 670 0218 1B04     		lsls	r3, r3, #16	@ D.7592, D.7592,
 671 021a 1B0C     		lsrs	r3, r3, #16	@ D.7592, D.7592,
 672              	.L55:
ARM GAS  C:\Users\Kevin\AppData\Local\Temp\cc2AQj48.s 			page 23


 673 021c 0380     		strh	r3, [r0, #0]	@ movhi	@ D.7592,* I2Cx
 674 021e 7047     		bx	lr	@
 675              		.cfi_endproc
 676              	.LFE122:
 677              		.size	I2C_StretchClockCmd, .-I2C_StretchClockCmd
 678              		.align	1
 679              		.global	I2C_FastModeDutyCycleConfig
 680              		.thumb
 681              		.thumb_func
 682              		.type	I2C_FastModeDutyCycleConfig, %function
 683              	I2C_FastModeDutyCycleConfig:
 684              	.LFB123:
 557:.\stm32f4periph\src/stm32f4xx_i2c.c ****   }
 558:.\stm32f4periph\src/stm32f4xx_i2c.c **** }
 559:.\stm32f4periph\src/stm32f4xx_i2c.c **** 
 560:.\stm32f4periph\src/stm32f4xx_i2c.c **** /**
 561:.\stm32f4periph\src/stm32f4xx_i2c.c ****   * @brief  Selects the specified I2C fast mode duty cycle.
 562:.\stm32f4periph\src/stm32f4xx_i2c.c ****   * @param  I2Cx: where x can be 1, 2 or 3 to select the I2C peripheral.
 563:.\stm32f4periph\src/stm32f4xx_i2c.c ****   * @param  I2C_DutyCycle: specifies the fast mode duty cycle.
 564:.\stm32f4periph\src/stm32f4xx_i2c.c ****   *          This parameter can be one of the following values:
 565:.\stm32f4periph\src/stm32f4xx_i2c.c ****   *            @arg I2C_DutyCycle_2: I2C fast mode Tlow/Thigh = 2
 566:.\stm32f4periph\src/stm32f4xx_i2c.c ****   *            @arg I2C_DutyCycle_16_9: I2C fast mode Tlow/Thigh = 16/9
 567:.\stm32f4periph\src/stm32f4xx_i2c.c ****   * @retval None
 568:.\stm32f4periph\src/stm32f4xx_i2c.c ****   */
 569:.\stm32f4periph\src/stm32f4xx_i2c.c **** void I2C_FastModeDutyCycleConfig(I2C_TypeDef* I2Cx, uint16_t I2C_DutyCycle)
 570:.\stm32f4periph\src/stm32f4xx_i2c.c **** {
 685              		.loc 1 570 0
 686              		.cfi_startproc
 687              		@ args = 0, pretend = 0, frame = 0
 688              		@ frame_needed = 0, uses_anonymous_args = 0
 689              		@ link register save eliminated.
 690              	.LVL54:
 571:.\stm32f4periph\src/stm32f4xx_i2c.c ****   /* Check the parameters */
 572:.\stm32f4periph\src/stm32f4xx_i2c.c ****   assert_param(IS_I2C_ALL_PERIPH(I2Cx));
 573:.\stm32f4periph\src/stm32f4xx_i2c.c ****   assert_param(IS_I2C_DUTY_CYCLE(I2C_DutyCycle));
 574:.\stm32f4periph\src/stm32f4xx_i2c.c ****   if (I2C_DutyCycle != I2C_DutyCycle_16_9)
 691              		.loc 1 574 0
 692 0220 B1F5804F 		cmp	r1, #16384	@ I2C_DutyCycle,
 575:.\stm32f4periph\src/stm32f4xx_i2c.c ****   {
 576:.\stm32f4periph\src/stm32f4xx_i2c.c ****     /* I2C fast mode Tlow/Thigh=2 */
 577:.\stm32f4periph\src/stm32f4xx_i2c.c ****     I2Cx->CCR &= I2C_DutyCycle_2;
 693              		.loc 1 577 0
 694 0224 838B     		ldrh	r3, [r0, #28]	@,
 574:.\stm32f4periph\src/stm32f4xx_i2c.c ****   if (I2C_DutyCycle != I2C_DutyCycle_16_9)
 695              		.loc 1 574 0
 696 0226 04D0     		beq	.L57	@,
 697              		.loc 1 577 0
 698 0228 23F48043 		bic	r3, r3, #16384	@ D.7582, I2Cx_2(D)->CCR,
 699 022c 1B04     		lsls	r3, r3, #16	@ D.7582, D.7582,
 700 022e 1B0C     		lsrs	r3, r3, #16	@ D.7582, D.7582,
 701 0230 02E0     		b	.L59	@
 702              	.L57:
 578:.\stm32f4periph\src/stm32f4xx_i2c.c ****   }
 579:.\stm32f4periph\src/stm32f4xx_i2c.c ****   else
 580:.\stm32f4periph\src/stm32f4xx_i2c.c ****   {
 581:.\stm32f4periph\src/stm32f4xx_i2c.c ****     /* I2C fast mode Tlow/Thigh=16/9 */
 582:.\stm32f4periph\src/stm32f4xx_i2c.c ****     I2Cx->CCR |= I2C_DutyCycle_16_9;
ARM GAS  C:\Users\Kevin\AppData\Local\Temp\cc2AQj48.s 			page 24


 703              		.loc 1 582 0
 704 0232 9BB2     		uxth	r3, r3	@ D.7584, I2Cx_2(D)->CCR
 705 0234 43F48043 		orr	r3, r3, #16384	@ D.7585, D.7584,
 706              	.L59:
 707 0238 8383     		strh	r3, [r0, #28]	@ movhi	@ D.7585,
 708 023a 7047     		bx	lr	@
 709              		.cfi_endproc
 710              	.LFE123:
 711              		.size	I2C_FastModeDutyCycleConfig, .-I2C_FastModeDutyCycleConfig
 712              		.align	1
 713              		.global	I2C_NACKPositionConfig
 714              		.thumb
 715              		.thumb_func
 716              		.type	I2C_NACKPositionConfig, %function
 717              	I2C_NACKPositionConfig:
 718              	.LFB124:
 583:.\stm32f4periph\src/stm32f4xx_i2c.c ****   }
 584:.\stm32f4periph\src/stm32f4xx_i2c.c **** }
 585:.\stm32f4periph\src/stm32f4xx_i2c.c **** 
 586:.\stm32f4periph\src/stm32f4xx_i2c.c **** /**
 587:.\stm32f4periph\src/stm32f4xx_i2c.c ****   * @brief  Selects the specified I2C NACK position in master receiver mode.
 588:.\stm32f4periph\src/stm32f4xx_i2c.c ****   * @note   This function is useful in I2C Master Receiver mode when the number
 589:.\stm32f4periph\src/stm32f4xx_i2c.c ****   *         of data to be received is equal to 2. In this case, this function 
 590:.\stm32f4periph\src/stm32f4xx_i2c.c ****   *         should be called (with parameter I2C_NACKPosition_Next) before data 
 591:.\stm32f4periph\src/stm32f4xx_i2c.c ****   *         reception starts,as described in the 2-byte reception procedure 
 592:.\stm32f4periph\src/stm32f4xx_i2c.c ****   *         recommended in Reference Manual in Section: Master receiver.                
 593:.\stm32f4periph\src/stm32f4xx_i2c.c ****   * @param  I2Cx: where x can be 1, 2 or 3 to select the I2C peripheral.
 594:.\stm32f4periph\src/stm32f4xx_i2c.c ****   * @param  I2C_NACKPosition: specifies the NACK position. 
 595:.\stm32f4periph\src/stm32f4xx_i2c.c ****   *          This parameter can be one of the following values:
 596:.\stm32f4periph\src/stm32f4xx_i2c.c ****   *            @arg I2C_NACKPosition_Next: indicates that the next byte will be the last
 597:.\stm32f4periph\src/stm32f4xx_i2c.c ****   *                                        received byte.  
 598:.\stm32f4periph\src/stm32f4xx_i2c.c ****   *            @arg I2C_NACKPosition_Current: indicates that current byte is the last 
 599:.\stm32f4periph\src/stm32f4xx_i2c.c ****   *                                           received byte.
 600:.\stm32f4periph\src/stm32f4xx_i2c.c ****   *            
 601:.\stm32f4periph\src/stm32f4xx_i2c.c ****   * @note    This function configures the same bit (POS) as I2C_PECPositionConfig() 
 602:.\stm32f4periph\src/stm32f4xx_i2c.c ****   *          but is intended to be used in I2C mode while I2C_PECPositionConfig() 
 603:.\stm32f4periph\src/stm32f4xx_i2c.c ****   *          is intended to used in SMBUS mode. 
 604:.\stm32f4periph\src/stm32f4xx_i2c.c ****   *            
 605:.\stm32f4periph\src/stm32f4xx_i2c.c ****   * @retval None
 606:.\stm32f4periph\src/stm32f4xx_i2c.c ****   */
 607:.\stm32f4periph\src/stm32f4xx_i2c.c **** void I2C_NACKPositionConfig(I2C_TypeDef* I2Cx, uint16_t I2C_NACKPosition)
 608:.\stm32f4periph\src/stm32f4xx_i2c.c **** {
 719              		.loc 1 608 0
 720              		.cfi_startproc
 721              		@ args = 0, pretend = 0, frame = 0
 722              		@ frame_needed = 0, uses_anonymous_args = 0
 723              		@ link register save eliminated.
 724              	.LVL55:
 609:.\stm32f4periph\src/stm32f4xx_i2c.c ****   /* Check the parameters */
 610:.\stm32f4periph\src/stm32f4xx_i2c.c ****   assert_param(IS_I2C_ALL_PERIPH(I2Cx));
 611:.\stm32f4periph\src/stm32f4xx_i2c.c ****   assert_param(IS_I2C_NACK_POSITION(I2C_NACKPosition));
 612:.\stm32f4periph\src/stm32f4xx_i2c.c ****   
 613:.\stm32f4periph\src/stm32f4xx_i2c.c ****   /* Check the input parameter */
 614:.\stm32f4periph\src/stm32f4xx_i2c.c ****   if (I2C_NACKPosition == I2C_NACKPosition_Next)
 725              		.loc 1 614 0
 726 023c B1F5006F 		cmp	r1, #2048	@ I2C_NACKPosition,
 615:.\stm32f4periph\src/stm32f4xx_i2c.c ****   {
ARM GAS  C:\Users\Kevin\AppData\Local\Temp\cc2AQj48.s 			page 25


 616:.\stm32f4periph\src/stm32f4xx_i2c.c ****     /* Next byte in shift register is the last received byte */
 617:.\stm32f4periph\src/stm32f4xx_i2c.c ****     I2Cx->CR1 |= I2C_NACKPosition_Next;
 727              		.loc 1 617 0
 728 0240 0388     		ldrh	r3, [r0, #0]	@,* I2Cx
 614:.\stm32f4periph\src/stm32f4xx_i2c.c ****   if (I2C_NACKPosition == I2C_NACKPosition_Next)
 729              		.loc 1 614 0
 730 0242 03D1     		bne	.L61	@,
 731              		.loc 1 617 0
 732 0244 9BB2     		uxth	r3, r3	@ D.7574, I2Cx_2(D)->CR1
 733 0246 43F40063 		orr	r3, r3, #2048	@ D.7575, D.7574,
 734 024a 03E0     		b	.L63	@
 735              	.L61:
 618:.\stm32f4periph\src/stm32f4xx_i2c.c ****   }
 619:.\stm32f4periph\src/stm32f4xx_i2c.c ****   else
 620:.\stm32f4periph\src/stm32f4xx_i2c.c ****   {
 621:.\stm32f4periph\src/stm32f4xx_i2c.c ****     /* Current byte in shift register is the last received byte */
 622:.\stm32f4periph\src/stm32f4xx_i2c.c ****     I2Cx->CR1 &= I2C_NACKPosition_Current;
 736              		.loc 1 622 0
 737 024c 23F40063 		bic	r3, r3, #2048	@ D.7578, I2Cx_2(D)->CR1,
 738 0250 1B04     		lsls	r3, r3, #16	@ D.7578, D.7578,
 739 0252 1B0C     		lsrs	r3, r3, #16	@ D.7578, D.7578,
 740              	.L63:
 741 0254 0380     		strh	r3, [r0, #0]	@ movhi	@ D.7578,* I2Cx
 742 0256 7047     		bx	lr	@
 743              		.cfi_endproc
 744              	.LFE124:
 745              		.size	I2C_NACKPositionConfig, .-I2C_NACKPositionConfig
 746              		.align	1
 747              		.global	I2C_SMBusAlertConfig
 748              		.thumb
 749              		.thumb_func
 750              		.type	I2C_SMBusAlertConfig, %function
 751              	I2C_SMBusAlertConfig:
 752              	.LFB125:
 623:.\stm32f4periph\src/stm32f4xx_i2c.c ****   }
 624:.\stm32f4periph\src/stm32f4xx_i2c.c **** }
 625:.\stm32f4periph\src/stm32f4xx_i2c.c **** 
 626:.\stm32f4periph\src/stm32f4xx_i2c.c **** /**
 627:.\stm32f4periph\src/stm32f4xx_i2c.c ****   * @brief  Drives the SMBusAlert pin high or low for the specified I2C.
 628:.\stm32f4periph\src/stm32f4xx_i2c.c ****   * @param  I2Cx: where x can be 1, 2 or 3 to select the I2C peripheral.
 629:.\stm32f4periph\src/stm32f4xx_i2c.c ****   * @param  I2C_SMBusAlert: specifies SMBAlert pin level. 
 630:.\stm32f4periph\src/stm32f4xx_i2c.c ****   *          This parameter can be one of the following values:
 631:.\stm32f4periph\src/stm32f4xx_i2c.c ****   *            @arg I2C_SMBusAlert_Low: SMBAlert pin driven low
 632:.\stm32f4periph\src/stm32f4xx_i2c.c ****   *            @arg I2C_SMBusAlert_High: SMBAlert pin driven high
 633:.\stm32f4periph\src/stm32f4xx_i2c.c ****   * @retval None
 634:.\stm32f4periph\src/stm32f4xx_i2c.c ****   */
 635:.\stm32f4periph\src/stm32f4xx_i2c.c **** void I2C_SMBusAlertConfig(I2C_TypeDef* I2Cx, uint16_t I2C_SMBusAlert)
 636:.\stm32f4periph\src/stm32f4xx_i2c.c **** {
 753              		.loc 1 636 0
 754              		.cfi_startproc
 755              		@ args = 0, pretend = 0, frame = 0
 756              		@ frame_needed = 0, uses_anonymous_args = 0
 757              		@ link register save eliminated.
 758              	.LVL56:
 637:.\stm32f4periph\src/stm32f4xx_i2c.c ****   /* Check the parameters */
 638:.\stm32f4periph\src/stm32f4xx_i2c.c ****   assert_param(IS_I2C_ALL_PERIPH(I2Cx));
 639:.\stm32f4periph\src/stm32f4xx_i2c.c ****   assert_param(IS_I2C_SMBUS_ALERT(I2C_SMBusAlert));
ARM GAS  C:\Users\Kevin\AppData\Local\Temp\cc2AQj48.s 			page 26


 640:.\stm32f4periph\src/stm32f4xx_i2c.c ****   if (I2C_SMBusAlert == I2C_SMBusAlert_Low)
 759              		.loc 1 640 0
 760 0258 B1F5005F 		cmp	r1, #8192	@ I2C_SMBusAlert,
 641:.\stm32f4periph\src/stm32f4xx_i2c.c ****   {
 642:.\stm32f4periph\src/stm32f4xx_i2c.c ****     /* Drive the SMBusAlert pin Low */
 643:.\stm32f4periph\src/stm32f4xx_i2c.c ****     I2Cx->CR1 |= I2C_SMBusAlert_Low;
 761              		.loc 1 643 0
 762 025c 0388     		ldrh	r3, [r0, #0]	@,* I2Cx
 640:.\stm32f4periph\src/stm32f4xx_i2c.c ****   if (I2C_SMBusAlert == I2C_SMBusAlert_Low)
 763              		.loc 1 640 0
 764 025e 03D1     		bne	.L65	@,
 765              		.loc 1 643 0
 766 0260 9BB2     		uxth	r3, r3	@ D.7567, I2Cx_2(D)->CR1
 767 0262 43F40053 		orr	r3, r3, #8192	@ D.7568, D.7567,
 768 0266 03E0     		b	.L67	@
 769              	.L65:
 644:.\stm32f4periph\src/stm32f4xx_i2c.c ****   }
 645:.\stm32f4periph\src/stm32f4xx_i2c.c ****   else
 646:.\stm32f4periph\src/stm32f4xx_i2c.c ****   {
 647:.\stm32f4periph\src/stm32f4xx_i2c.c ****     /* Drive the SMBusAlert pin High  */
 648:.\stm32f4periph\src/stm32f4xx_i2c.c ****     I2Cx->CR1 &= I2C_SMBusAlert_High;
 770              		.loc 1 648 0
 771 0268 23F40053 		bic	r3, r3, #8192	@ D.7571, I2Cx_2(D)->CR1,
 772 026c 1B04     		lsls	r3, r3, #16	@ D.7571, D.7571,
 773 026e 1B0C     		lsrs	r3, r3, #16	@ D.7571, D.7571,
 774              	.L67:
 775 0270 0380     		strh	r3, [r0, #0]	@ movhi	@ D.7571,* I2Cx
 776 0272 7047     		bx	lr	@
 777              		.cfi_endproc
 778              	.LFE125:
 779              		.size	I2C_SMBusAlertConfig, .-I2C_SMBusAlertConfig
 780              		.align	1
 781              		.global	I2C_ARPCmd
 782              		.thumb
 783              		.thumb_func
 784              		.type	I2C_ARPCmd, %function
 785              	I2C_ARPCmd:
 786              	.LFB126:
 649:.\stm32f4periph\src/stm32f4xx_i2c.c ****   }
 650:.\stm32f4periph\src/stm32f4xx_i2c.c **** }
 651:.\stm32f4periph\src/stm32f4xx_i2c.c **** 
 652:.\stm32f4periph\src/stm32f4xx_i2c.c **** /**
 653:.\stm32f4periph\src/stm32f4xx_i2c.c ****   * @brief  Enables or disables the specified I2C ARP.
 654:.\stm32f4periph\src/stm32f4xx_i2c.c ****   * @param  I2Cx: where x can be 1, 2 or 3 to select the I2C peripheral.
 655:.\stm32f4periph\src/stm32f4xx_i2c.c ****   * @param  NewState: new state of the I2Cx ARP. 
 656:.\stm32f4periph\src/stm32f4xx_i2c.c ****   *          This parameter can be: ENABLE or DISABLE.
 657:.\stm32f4periph\src/stm32f4xx_i2c.c ****   * @retval None
 658:.\stm32f4periph\src/stm32f4xx_i2c.c ****   */
 659:.\stm32f4periph\src/stm32f4xx_i2c.c **** void I2C_ARPCmd(I2C_TypeDef* I2Cx, FunctionalState NewState)
 660:.\stm32f4periph\src/stm32f4xx_i2c.c **** {
 787              		.loc 1 660 0
 788              		.cfi_startproc
 789              		@ args = 0, pretend = 0, frame = 0
 790              		@ frame_needed = 0, uses_anonymous_args = 0
 791              		@ link register save eliminated.
 792              	.LVL57:
 661:.\stm32f4periph\src/stm32f4xx_i2c.c ****   /* Check the parameters */
ARM GAS  C:\Users\Kevin\AppData\Local\Temp\cc2AQj48.s 			page 27


 662:.\stm32f4periph\src/stm32f4xx_i2c.c ****   assert_param(IS_I2C_ALL_PERIPH(I2Cx));
 663:.\stm32f4periph\src/stm32f4xx_i2c.c ****   assert_param(IS_FUNCTIONAL_STATE(NewState));
 664:.\stm32f4periph\src/stm32f4xx_i2c.c ****   if (NewState != DISABLE)
 665:.\stm32f4periph\src/stm32f4xx_i2c.c ****   {
 666:.\stm32f4periph\src/stm32f4xx_i2c.c ****     /* Enable the selected I2C ARP */
 667:.\stm32f4periph\src/stm32f4xx_i2c.c ****     I2Cx->CR1 |= I2C_CR1_ENARP;
 793              		.loc 1 667 0
 794 0274 0388     		ldrh	r3, [r0, #0]	@,* I2Cx
 664:.\stm32f4periph\src/stm32f4xx_i2c.c ****   if (NewState != DISABLE)
 795              		.loc 1 664 0
 796 0276 19B1     		cbz	r1, .L69	@ NewState,
 797              		.loc 1 667 0
 798 0278 9BB2     		uxth	r3, r3	@ D.7560, I2Cx_2(D)->CR1
 799 027a 43F01003 		orr	r3, r3, #16	@ D.7561, D.7560,
 800 027e 03E0     		b	.L71	@
 801              	.L69:
 668:.\stm32f4periph\src/stm32f4xx_i2c.c ****   }
 669:.\stm32f4periph\src/stm32f4xx_i2c.c ****   else
 670:.\stm32f4periph\src/stm32f4xx_i2c.c ****   {
 671:.\stm32f4periph\src/stm32f4xx_i2c.c ****     /* Disable the selected I2C ARP */
 672:.\stm32f4periph\src/stm32f4xx_i2c.c ****     I2Cx->CR1 &= (uint16_t)~((uint16_t)I2C_CR1_ENARP);
 802              		.loc 1 672 0
 803 0280 23F01003 		bic	r3, r3, #16	@ D.7564, I2Cx_2(D)->CR1,
 804 0284 1B04     		lsls	r3, r3, #16	@ D.7564, D.7564,
 805 0286 1B0C     		lsrs	r3, r3, #16	@ D.7564, D.7564,
 806              	.L71:
 807 0288 0380     		strh	r3, [r0, #0]	@ movhi	@ D.7564,* I2Cx
 808 028a 7047     		bx	lr	@
 809              		.cfi_endproc
 810              	.LFE126:
 811              		.size	I2C_ARPCmd, .-I2C_ARPCmd
 812              		.align	1
 813              		.global	I2C_SendData
 814              		.thumb
 815              		.thumb_func
 816              		.type	I2C_SendData, %function
 817              	I2C_SendData:
 818              	.LFB127:
 673:.\stm32f4periph\src/stm32f4xx_i2c.c ****   }
 674:.\stm32f4periph\src/stm32f4xx_i2c.c **** }
 675:.\stm32f4periph\src/stm32f4xx_i2c.c **** /**
 676:.\stm32f4periph\src/stm32f4xx_i2c.c ****   * @}
 677:.\stm32f4periph\src/stm32f4xx_i2c.c ****   */
 678:.\stm32f4periph\src/stm32f4xx_i2c.c **** 
 679:.\stm32f4periph\src/stm32f4xx_i2c.c **** /** @defgroup I2C_Group2 Data transfers functions
 680:.\stm32f4periph\src/stm32f4xx_i2c.c ****  *  @brief   Data transfers functions 
 681:.\stm32f4periph\src/stm32f4xx_i2c.c ****  *
 682:.\stm32f4periph\src/stm32f4xx_i2c.c **** @verbatim   
 683:.\stm32f4periph\src/stm32f4xx_i2c.c ****  ===============================================================================
 684:.\stm32f4periph\src/stm32f4xx_i2c.c ****                         Data transfers functions
 685:.\stm32f4periph\src/stm32f4xx_i2c.c ****  ===============================================================================  
 686:.\stm32f4periph\src/stm32f4xx_i2c.c **** 
 687:.\stm32f4periph\src/stm32f4xx_i2c.c **** @endverbatim
 688:.\stm32f4periph\src/stm32f4xx_i2c.c ****   * @{
 689:.\stm32f4periph\src/stm32f4xx_i2c.c ****   */
 690:.\stm32f4periph\src/stm32f4xx_i2c.c **** 
 691:.\stm32f4periph\src/stm32f4xx_i2c.c **** /**
ARM GAS  C:\Users\Kevin\AppData\Local\Temp\cc2AQj48.s 			page 28


 692:.\stm32f4periph\src/stm32f4xx_i2c.c ****   * @brief  Sends a data byte through the I2Cx peripheral.
 693:.\stm32f4periph\src/stm32f4xx_i2c.c ****   * @param  I2Cx: where x can be 1, 2 or 3 to select the I2C peripheral.
 694:.\stm32f4periph\src/stm32f4xx_i2c.c ****   * @param  Data: Byte to be transmitted..
 695:.\stm32f4periph\src/stm32f4xx_i2c.c ****   * @retval None
 696:.\stm32f4periph\src/stm32f4xx_i2c.c ****   */
 697:.\stm32f4periph\src/stm32f4xx_i2c.c **** void I2C_SendData(I2C_TypeDef* I2Cx, uint8_t Data)
 698:.\stm32f4periph\src/stm32f4xx_i2c.c **** {
 819              		.loc 1 698 0
 820              		.cfi_startproc
 821              		@ args = 0, pretend = 0, frame = 0
 822              		@ frame_needed = 0, uses_anonymous_args = 0
 823              		@ link register save eliminated.
 824              	.LVL58:
 699:.\stm32f4periph\src/stm32f4xx_i2c.c ****   /* Check the parameters */
 700:.\stm32f4periph\src/stm32f4xx_i2c.c ****   assert_param(IS_I2C_ALL_PERIPH(I2Cx));
 701:.\stm32f4periph\src/stm32f4xx_i2c.c ****   /* Write in the DR register the data to be sent */
 702:.\stm32f4periph\src/stm32f4xx_i2c.c ****   I2Cx->DR = Data;
 825              		.loc 1 702 0
 826 028c 0182     		strh	r1, [r0, #16]	@ movhi	@ Data, I2Cx_3(D)->DR
 827 028e 7047     		bx	lr	@
 828              		.cfi_endproc
 829              	.LFE127:
 830              		.size	I2C_SendData, .-I2C_SendData
 831              		.align	1
 832              		.global	I2C_ReceiveData
 833              		.thumb
 834              		.thumb_func
 835              		.type	I2C_ReceiveData, %function
 836              	I2C_ReceiveData:
 837              	.LFB128:
 703:.\stm32f4periph\src/stm32f4xx_i2c.c **** }
 704:.\stm32f4periph\src/stm32f4xx_i2c.c **** 
 705:.\stm32f4periph\src/stm32f4xx_i2c.c **** /**
 706:.\stm32f4periph\src/stm32f4xx_i2c.c ****   * @brief  Returns the most recent received data by the I2Cx peripheral.
 707:.\stm32f4periph\src/stm32f4xx_i2c.c ****   * @param  I2Cx: where x can be 1, 2 or 3 to select the I2C peripheral.
 708:.\stm32f4periph\src/stm32f4xx_i2c.c ****   * @retval The value of the received data.
 709:.\stm32f4periph\src/stm32f4xx_i2c.c ****   */
 710:.\stm32f4periph\src/stm32f4xx_i2c.c **** uint8_t I2C_ReceiveData(I2C_TypeDef* I2Cx)
 711:.\stm32f4periph\src/stm32f4xx_i2c.c **** {
 838              		.loc 1 711 0
 839              		.cfi_startproc
 840              		@ args = 0, pretend = 0, frame = 0
 841              		@ frame_needed = 0, uses_anonymous_args = 0
 842              		@ link register save eliminated.
 843              	.LVL59:
 712:.\stm32f4periph\src/stm32f4xx_i2c.c ****   /* Check the parameters */
 713:.\stm32f4periph\src/stm32f4xx_i2c.c ****   assert_param(IS_I2C_ALL_PERIPH(I2Cx));
 714:.\stm32f4periph\src/stm32f4xx_i2c.c ****   /* Return the data in the DR register */
 715:.\stm32f4periph\src/stm32f4xx_i2c.c ****   return (uint8_t)I2Cx->DR;
 844              		.loc 1 715 0
 845 0290 008A     		ldrh	r0, [r0, #16]	@, I2Cx_1(D)->DR
 846              	.LVL60:
 716:.\stm32f4periph\src/stm32f4xx_i2c.c **** }
 847              		.loc 1 716 0
 848 0292 C0B2     		uxtb	r0, r0	@, I2Cx_1(D)->DR
 849 0294 7047     		bx	lr	@
 850              		.cfi_endproc
ARM GAS  C:\Users\Kevin\AppData\Local\Temp\cc2AQj48.s 			page 29


 851              	.LFE128:
 852              		.size	I2C_ReceiveData, .-I2C_ReceiveData
 853              		.align	1
 854              		.global	I2C_TransmitPEC
 855              		.thumb
 856              		.thumb_func
 857              		.type	I2C_TransmitPEC, %function
 858              	I2C_TransmitPEC:
 859              	.LFB129:
 717:.\stm32f4periph\src/stm32f4xx_i2c.c **** 
 718:.\stm32f4periph\src/stm32f4xx_i2c.c **** /**
 719:.\stm32f4periph\src/stm32f4xx_i2c.c ****   * @}
 720:.\stm32f4periph\src/stm32f4xx_i2c.c ****   */
 721:.\stm32f4periph\src/stm32f4xx_i2c.c **** 
 722:.\stm32f4periph\src/stm32f4xx_i2c.c **** /** @defgroup I2C_Group3 PEC management functions
 723:.\stm32f4periph\src/stm32f4xx_i2c.c ****  *  @brief   PEC management functions 
 724:.\stm32f4periph\src/stm32f4xx_i2c.c ****  *
 725:.\stm32f4periph\src/stm32f4xx_i2c.c **** @verbatim   
 726:.\stm32f4periph\src/stm32f4xx_i2c.c ****  ===============================================================================
 727:.\stm32f4periph\src/stm32f4xx_i2c.c ****                          PEC management functions
 728:.\stm32f4periph\src/stm32f4xx_i2c.c ****  ===============================================================================  
 729:.\stm32f4periph\src/stm32f4xx_i2c.c **** 
 730:.\stm32f4periph\src/stm32f4xx_i2c.c **** @endverbatim
 731:.\stm32f4periph\src/stm32f4xx_i2c.c ****   * @{
 732:.\stm32f4periph\src/stm32f4xx_i2c.c ****   */
 733:.\stm32f4periph\src/stm32f4xx_i2c.c **** 
 734:.\stm32f4periph\src/stm32f4xx_i2c.c **** /**
 735:.\stm32f4periph\src/stm32f4xx_i2c.c ****   * @brief  Enables or disables the specified I2C PEC transfer.
 736:.\stm32f4periph\src/stm32f4xx_i2c.c ****   * @param  I2Cx: where x can be 1, 2 or 3 to select the I2C peripheral.
 737:.\stm32f4periph\src/stm32f4xx_i2c.c ****   * @param  NewState: new state of the I2C PEC transmission.
 738:.\stm32f4periph\src/stm32f4xx_i2c.c ****   *          This parameter can be: ENABLE or DISABLE.
 739:.\stm32f4periph\src/stm32f4xx_i2c.c ****   * @retval None
 740:.\stm32f4periph\src/stm32f4xx_i2c.c ****   */
 741:.\stm32f4periph\src/stm32f4xx_i2c.c **** void I2C_TransmitPEC(I2C_TypeDef* I2Cx, FunctionalState NewState)
 742:.\stm32f4periph\src/stm32f4xx_i2c.c **** {
 860              		.loc 1 742 0
 861              		.cfi_startproc
 862              		@ args = 0, pretend = 0, frame = 0
 863              		@ frame_needed = 0, uses_anonymous_args = 0
 864              		@ link register save eliminated.
 865              	.LVL61:
 743:.\stm32f4periph\src/stm32f4xx_i2c.c ****   /* Check the parameters */
 744:.\stm32f4periph\src/stm32f4xx_i2c.c ****   assert_param(IS_I2C_ALL_PERIPH(I2Cx));
 745:.\stm32f4periph\src/stm32f4xx_i2c.c ****   assert_param(IS_FUNCTIONAL_STATE(NewState));
 746:.\stm32f4periph\src/stm32f4xx_i2c.c ****   if (NewState != DISABLE)
 747:.\stm32f4periph\src/stm32f4xx_i2c.c ****   {
 748:.\stm32f4periph\src/stm32f4xx_i2c.c ****     /* Enable the selected I2C PEC transmission */
 749:.\stm32f4periph\src/stm32f4xx_i2c.c ****     I2Cx->CR1 |= I2C_CR1_PEC;
 866              		.loc 1 749 0
 867 0296 0388     		ldrh	r3, [r0, #0]	@,* I2Cx
 746:.\stm32f4periph\src/stm32f4xx_i2c.c ****   if (NewState != DISABLE)
 868              		.loc 1 746 0
 869 0298 19B1     		cbz	r1, .L75	@ NewState,
 870              		.loc 1 749 0
 871 029a 9BB2     		uxth	r3, r3	@ D.7549, I2Cx_2(D)->CR1
 872 029c 43F48053 		orr	r3, r3, #4096	@ D.7550, D.7549,
 873 02a0 03E0     		b	.L77	@
ARM GAS  C:\Users\Kevin\AppData\Local\Temp\cc2AQj48.s 			page 30


 874              	.L75:
 750:.\stm32f4periph\src/stm32f4xx_i2c.c ****   }
 751:.\stm32f4periph\src/stm32f4xx_i2c.c ****   else
 752:.\stm32f4periph\src/stm32f4xx_i2c.c ****   {
 753:.\stm32f4periph\src/stm32f4xx_i2c.c ****     /* Disable the selected I2C PEC transmission */
 754:.\stm32f4periph\src/stm32f4xx_i2c.c ****     I2Cx->CR1 &= (uint16_t)~((uint16_t)I2C_CR1_PEC);
 875              		.loc 1 754 0
 876 02a2 23F48053 		bic	r3, r3, #4096	@ D.7553, I2Cx_2(D)->CR1,
 877 02a6 1B04     		lsls	r3, r3, #16	@ D.7553, D.7553,
 878 02a8 1B0C     		lsrs	r3, r3, #16	@ D.7553, D.7553,
 879              	.L77:
 880 02aa 0380     		strh	r3, [r0, #0]	@ movhi	@ D.7553,* I2Cx
 881 02ac 7047     		bx	lr	@
 882              		.cfi_endproc
 883              	.LFE129:
 884              		.size	I2C_TransmitPEC, .-I2C_TransmitPEC
 885              		.align	1
 886              		.global	I2C_PECPositionConfig
 887              		.thumb
 888              		.thumb_func
 889              		.type	I2C_PECPositionConfig, %function
 890              	I2C_PECPositionConfig:
 891              	.LFB130:
 755:.\stm32f4periph\src/stm32f4xx_i2c.c ****   }
 756:.\stm32f4periph\src/stm32f4xx_i2c.c **** }
 757:.\stm32f4periph\src/stm32f4xx_i2c.c **** 
 758:.\stm32f4periph\src/stm32f4xx_i2c.c **** /**
 759:.\stm32f4periph\src/stm32f4xx_i2c.c ****   * @brief  Selects the specified I2C PEC position.
 760:.\stm32f4periph\src/stm32f4xx_i2c.c ****   * @param  I2Cx: where x can be 1, 2 or 3 to select the I2C peripheral.
 761:.\stm32f4periph\src/stm32f4xx_i2c.c ****   * @param  I2C_PECPosition: specifies the PEC position. 
 762:.\stm32f4periph\src/stm32f4xx_i2c.c ****   *          This parameter can be one of the following values:
 763:.\stm32f4periph\src/stm32f4xx_i2c.c ****   *            @arg I2C_PECPosition_Next: indicates that the next byte is PEC
 764:.\stm32f4periph\src/stm32f4xx_i2c.c ****   *            @arg I2C_PECPosition_Current: indicates that current byte is PEC
 765:.\stm32f4periph\src/stm32f4xx_i2c.c ****   *       
 766:.\stm32f4periph\src/stm32f4xx_i2c.c ****   * @note    This function configures the same bit (POS) as I2C_NACKPositionConfig()
 767:.\stm32f4periph\src/stm32f4xx_i2c.c ****   *          but is intended to be used in SMBUS mode while I2C_NACKPositionConfig() 
 768:.\stm32f4periph\src/stm32f4xx_i2c.c ****   *          is intended to used in I2C mode.
 769:.\stm32f4periph\src/stm32f4xx_i2c.c ****   *                
 770:.\stm32f4periph\src/stm32f4xx_i2c.c ****   * @retval None
 771:.\stm32f4periph\src/stm32f4xx_i2c.c ****   */
 772:.\stm32f4periph\src/stm32f4xx_i2c.c **** void I2C_PECPositionConfig(I2C_TypeDef* I2Cx, uint16_t I2C_PECPosition)
 773:.\stm32f4periph\src/stm32f4xx_i2c.c **** {
 892              		.loc 1 773 0
 893              		.cfi_startproc
 894              		@ args = 0, pretend = 0, frame = 0
 895              		@ frame_needed = 0, uses_anonymous_args = 0
 896              		@ link register save eliminated.
 897              	.LVL62:
 774:.\stm32f4periph\src/stm32f4xx_i2c.c ****   /* Check the parameters */
 775:.\stm32f4periph\src/stm32f4xx_i2c.c ****   assert_param(IS_I2C_ALL_PERIPH(I2Cx));
 776:.\stm32f4periph\src/stm32f4xx_i2c.c ****   assert_param(IS_I2C_PEC_POSITION(I2C_PECPosition));
 777:.\stm32f4periph\src/stm32f4xx_i2c.c ****   if (I2C_PECPosition == I2C_PECPosition_Next)
 898              		.loc 1 777 0
 899 02ae B1F5006F 		cmp	r1, #2048	@ I2C_PECPosition,
 778:.\stm32f4periph\src/stm32f4xx_i2c.c ****   {
 779:.\stm32f4periph\src/stm32f4xx_i2c.c ****     /* Next byte in shift register is PEC */
 780:.\stm32f4periph\src/stm32f4xx_i2c.c ****     I2Cx->CR1 |= I2C_PECPosition_Next;
ARM GAS  C:\Users\Kevin\AppData\Local\Temp\cc2AQj48.s 			page 31


 900              		.loc 1 780 0
 901 02b2 0388     		ldrh	r3, [r0, #0]	@,* I2Cx
 777:.\stm32f4periph\src/stm32f4xx_i2c.c ****   if (I2C_PECPosition == I2C_PECPosition_Next)
 902              		.loc 1 777 0
 903 02b4 03D1     		bne	.L79	@,
 904              		.loc 1 780 0
 905 02b6 9BB2     		uxth	r3, r3	@ D.7542, I2Cx_2(D)->CR1
 906 02b8 43F40063 		orr	r3, r3, #2048	@ D.7543, D.7542,
 907 02bc 03E0     		b	.L81	@
 908              	.L79:
 781:.\stm32f4periph\src/stm32f4xx_i2c.c ****   }
 782:.\stm32f4periph\src/stm32f4xx_i2c.c ****   else
 783:.\stm32f4periph\src/stm32f4xx_i2c.c ****   {
 784:.\stm32f4periph\src/stm32f4xx_i2c.c ****     /* Current byte in shift register is PEC */
 785:.\stm32f4periph\src/stm32f4xx_i2c.c ****     I2Cx->CR1 &= I2C_PECPosition_Current;
 909              		.loc 1 785 0
 910 02be 23F40063 		bic	r3, r3, #2048	@ D.7546, I2Cx_2(D)->CR1,
 911 02c2 1B04     		lsls	r3, r3, #16	@ D.7546, D.7546,
 912 02c4 1B0C     		lsrs	r3, r3, #16	@ D.7546, D.7546,
 913              	.L81:
 914 02c6 0380     		strh	r3, [r0, #0]	@ movhi	@ D.7546,* I2Cx
 915 02c8 7047     		bx	lr	@
 916              		.cfi_endproc
 917              	.LFE130:
 918              		.size	I2C_PECPositionConfig, .-I2C_PECPositionConfig
 919              		.align	1
 920              		.global	I2C_CalculatePEC
 921              		.thumb
 922              		.thumb_func
 923              		.type	I2C_CalculatePEC, %function
 924              	I2C_CalculatePEC:
 925              	.LFB131:
 786:.\stm32f4periph\src/stm32f4xx_i2c.c ****   }
 787:.\stm32f4periph\src/stm32f4xx_i2c.c **** }
 788:.\stm32f4periph\src/stm32f4xx_i2c.c **** 
 789:.\stm32f4periph\src/stm32f4xx_i2c.c **** /**
 790:.\stm32f4periph\src/stm32f4xx_i2c.c ****   * @brief  Enables or disables the PEC value calculation of the transferred bytes.
 791:.\stm32f4periph\src/stm32f4xx_i2c.c ****   * @param  I2Cx: where x can be 1, 2 or 3 to select the I2C peripheral.
 792:.\stm32f4periph\src/stm32f4xx_i2c.c ****   * @param  NewState: new state of the I2Cx PEC value calculation.
 793:.\stm32f4periph\src/stm32f4xx_i2c.c ****   *          This parameter can be: ENABLE or DISABLE.
 794:.\stm32f4periph\src/stm32f4xx_i2c.c ****   * @retval None
 795:.\stm32f4periph\src/stm32f4xx_i2c.c ****   */
 796:.\stm32f4periph\src/stm32f4xx_i2c.c **** void I2C_CalculatePEC(I2C_TypeDef* I2Cx, FunctionalState NewState)
 797:.\stm32f4periph\src/stm32f4xx_i2c.c **** {
 926              		.loc 1 797 0
 927              		.cfi_startproc
 928              		@ args = 0, pretend = 0, frame = 0
 929              		@ frame_needed = 0, uses_anonymous_args = 0
 930              		@ link register save eliminated.
 931              	.LVL63:
 798:.\stm32f4periph\src/stm32f4xx_i2c.c ****   /* Check the parameters */
 799:.\stm32f4periph\src/stm32f4xx_i2c.c ****   assert_param(IS_I2C_ALL_PERIPH(I2Cx));
 800:.\stm32f4periph\src/stm32f4xx_i2c.c ****   assert_param(IS_FUNCTIONAL_STATE(NewState));
 801:.\stm32f4periph\src/stm32f4xx_i2c.c ****   if (NewState != DISABLE)
 802:.\stm32f4periph\src/stm32f4xx_i2c.c ****   {
 803:.\stm32f4periph\src/stm32f4xx_i2c.c ****     /* Enable the selected I2C PEC calculation */
 804:.\stm32f4periph\src/stm32f4xx_i2c.c ****     I2Cx->CR1 |= I2C_CR1_ENPEC;
ARM GAS  C:\Users\Kevin\AppData\Local\Temp\cc2AQj48.s 			page 32


 932              		.loc 1 804 0
 933 02ca 0388     		ldrh	r3, [r0, #0]	@,* I2Cx
 801:.\stm32f4periph\src/stm32f4xx_i2c.c ****   if (NewState != DISABLE)
 934              		.loc 1 801 0
 935 02cc 19B1     		cbz	r1, .L83	@ NewState,
 936              		.loc 1 804 0
 937 02ce 9BB2     		uxth	r3, r3	@ D.7535, I2Cx_2(D)->CR1
 938 02d0 43F02003 		orr	r3, r3, #32	@ D.7536, D.7535,
 939 02d4 03E0     		b	.L85	@
 940              	.L83:
 805:.\stm32f4periph\src/stm32f4xx_i2c.c ****   }
 806:.\stm32f4periph\src/stm32f4xx_i2c.c ****   else
 807:.\stm32f4periph\src/stm32f4xx_i2c.c ****   {
 808:.\stm32f4periph\src/stm32f4xx_i2c.c ****     /* Disable the selected I2C PEC calculation */
 809:.\stm32f4periph\src/stm32f4xx_i2c.c ****     I2Cx->CR1 &= (uint16_t)~((uint16_t)I2C_CR1_ENPEC);
 941              		.loc 1 809 0
 942 02d6 23F02003 		bic	r3, r3, #32	@ D.7539, I2Cx_2(D)->CR1,
 943 02da 1B04     		lsls	r3, r3, #16	@ D.7539, D.7539,
 944 02dc 1B0C     		lsrs	r3, r3, #16	@ D.7539, D.7539,
 945              	.L85:
 946 02de 0380     		strh	r3, [r0, #0]	@ movhi	@ D.7539,* I2Cx
 947 02e0 7047     		bx	lr	@
 948              		.cfi_endproc
 949              	.LFE131:
 950              		.size	I2C_CalculatePEC, .-I2C_CalculatePEC
 951              		.align	1
 952              		.global	I2C_GetPEC
 953              		.thumb
 954              		.thumb_func
 955              		.type	I2C_GetPEC, %function
 956              	I2C_GetPEC:
 957              	.LFB132:
 810:.\stm32f4periph\src/stm32f4xx_i2c.c ****   }
 811:.\stm32f4periph\src/stm32f4xx_i2c.c **** }
 812:.\stm32f4periph\src/stm32f4xx_i2c.c **** 
 813:.\stm32f4periph\src/stm32f4xx_i2c.c **** /**
 814:.\stm32f4periph\src/stm32f4xx_i2c.c ****   * @brief  Returns the PEC value for the specified I2C.
 815:.\stm32f4periph\src/stm32f4xx_i2c.c ****   * @param  I2Cx: where x can be 1, 2 or 3 to select the I2C peripheral.
 816:.\stm32f4periph\src/stm32f4xx_i2c.c ****   * @retval The PEC value.
 817:.\stm32f4periph\src/stm32f4xx_i2c.c ****   */
 818:.\stm32f4periph\src/stm32f4xx_i2c.c **** uint8_t I2C_GetPEC(I2C_TypeDef* I2Cx)
 819:.\stm32f4periph\src/stm32f4xx_i2c.c **** {
 958              		.loc 1 819 0
 959              		.cfi_startproc
 960              		@ args = 0, pretend = 0, frame = 0
 961              		@ frame_needed = 0, uses_anonymous_args = 0
 962              		@ link register save eliminated.
 963              	.LVL64:
 820:.\stm32f4periph\src/stm32f4xx_i2c.c ****   /* Check the parameters */
 821:.\stm32f4periph\src/stm32f4xx_i2c.c ****   assert_param(IS_I2C_ALL_PERIPH(I2Cx));
 822:.\stm32f4periph\src/stm32f4xx_i2c.c ****   /* Return the selected I2C PEC value */
 823:.\stm32f4periph\src/stm32f4xx_i2c.c ****   return ((I2Cx->SR2) >> 8);
 964              		.loc 1 823 0
 965 02e2 008B     		ldrh	r0, [r0, #24]	@, I2Cx_1(D)->SR2
 966              	.LVL65:
 824:.\stm32f4periph\src/stm32f4xx_i2c.c **** }
 967              		.loc 1 824 0
ARM GAS  C:\Users\Kevin\AppData\Local\Temp\cc2AQj48.s 			page 33


 968 02e4 C0F30720 		ubfx	r0, r0, #8, #8	@, I2Cx_1(D)->SR2,,
 969 02e8 7047     		bx	lr	@
 970              		.cfi_endproc
 971              	.LFE132:
 972              		.size	I2C_GetPEC, .-I2C_GetPEC
 973              		.align	1
 974              		.global	I2C_DMACmd
 975              		.thumb
 976              		.thumb_func
 977              		.type	I2C_DMACmd, %function
 978              	I2C_DMACmd:
 979              	.LFB133:
 825:.\stm32f4periph\src/stm32f4xx_i2c.c **** 
 826:.\stm32f4periph\src/stm32f4xx_i2c.c **** /**
 827:.\stm32f4periph\src/stm32f4xx_i2c.c ****   * @}
 828:.\stm32f4periph\src/stm32f4xx_i2c.c ****   */
 829:.\stm32f4periph\src/stm32f4xx_i2c.c **** 
 830:.\stm32f4periph\src/stm32f4xx_i2c.c **** /** @defgroup I2C_Group4 DMA transfers management functions
 831:.\stm32f4periph\src/stm32f4xx_i2c.c ****  *  @brief   DMA transfers management functions 
 832:.\stm32f4periph\src/stm32f4xx_i2c.c ****  *
 833:.\stm32f4periph\src/stm32f4xx_i2c.c **** @verbatim   
 834:.\stm32f4periph\src/stm32f4xx_i2c.c ****  ===============================================================================
 835:.\stm32f4periph\src/stm32f4xx_i2c.c ****                          DMA transfers management functions
 836:.\stm32f4periph\src/stm32f4xx_i2c.c ****  ===============================================================================  
 837:.\stm32f4periph\src/stm32f4xx_i2c.c ****   This section provides functions allowing to configure the I2C DMA channels 
 838:.\stm32f4periph\src/stm32f4xx_i2c.c ****   requests.
 839:.\stm32f4periph\src/stm32f4xx_i2c.c ****   
 840:.\stm32f4periph\src/stm32f4xx_i2c.c **** @endverbatim
 841:.\stm32f4periph\src/stm32f4xx_i2c.c ****   * @{
 842:.\stm32f4periph\src/stm32f4xx_i2c.c ****   */
 843:.\stm32f4periph\src/stm32f4xx_i2c.c **** 
 844:.\stm32f4periph\src/stm32f4xx_i2c.c **** /**
 845:.\stm32f4periph\src/stm32f4xx_i2c.c ****   * @brief  Enables or disables the specified I2C DMA requests.
 846:.\stm32f4periph\src/stm32f4xx_i2c.c ****   * @param  I2Cx: where x can be 1, 2 or 3 to select the I2C peripheral.
 847:.\stm32f4periph\src/stm32f4xx_i2c.c ****   * @param  NewState: new state of the I2C DMA transfer.
 848:.\stm32f4periph\src/stm32f4xx_i2c.c ****   *          This parameter can be: ENABLE or DISABLE.
 849:.\stm32f4periph\src/stm32f4xx_i2c.c ****   * @retval None
 850:.\stm32f4periph\src/stm32f4xx_i2c.c ****   */
 851:.\stm32f4periph\src/stm32f4xx_i2c.c **** void I2C_DMACmd(I2C_TypeDef* I2Cx, FunctionalState NewState)
 852:.\stm32f4periph\src/stm32f4xx_i2c.c **** {
 980              		.loc 1 852 0
 981              		.cfi_startproc
 982              		@ args = 0, pretend = 0, frame = 0
 983              		@ frame_needed = 0, uses_anonymous_args = 0
 984              		@ link register save eliminated.
 985              	.LVL66:
 853:.\stm32f4periph\src/stm32f4xx_i2c.c ****   /* Check the parameters */
 854:.\stm32f4periph\src/stm32f4xx_i2c.c ****   assert_param(IS_I2C_ALL_PERIPH(I2Cx));
 855:.\stm32f4periph\src/stm32f4xx_i2c.c ****   assert_param(IS_FUNCTIONAL_STATE(NewState));
 856:.\stm32f4periph\src/stm32f4xx_i2c.c ****   if (NewState != DISABLE)
 857:.\stm32f4periph\src/stm32f4xx_i2c.c ****   {
 858:.\stm32f4periph\src/stm32f4xx_i2c.c ****     /* Enable the selected I2C DMA requests */
 859:.\stm32f4periph\src/stm32f4xx_i2c.c ****     I2Cx->CR2 |= I2C_CR2_DMAEN;
 986              		.loc 1 859 0
 987 02ea 8388     		ldrh	r3, [r0, #4]	@,
 856:.\stm32f4periph\src/stm32f4xx_i2c.c ****   if (NewState != DISABLE)
 988              		.loc 1 856 0
ARM GAS  C:\Users\Kevin\AppData\Local\Temp\cc2AQj48.s 			page 34


 989 02ec 19B1     		cbz	r1, .L88	@ NewState,
 990              		.loc 1 859 0
 991 02ee 9BB2     		uxth	r3, r3	@ D.7524, I2Cx_2(D)->CR2
 992 02f0 43F40063 		orr	r3, r3, #2048	@ D.7525, D.7524,
 993 02f4 03E0     		b	.L90	@
 994              	.L88:
 860:.\stm32f4periph\src/stm32f4xx_i2c.c ****   }
 861:.\stm32f4periph\src/stm32f4xx_i2c.c ****   else
 862:.\stm32f4periph\src/stm32f4xx_i2c.c ****   {
 863:.\stm32f4periph\src/stm32f4xx_i2c.c ****     /* Disable the selected I2C DMA requests */
 864:.\stm32f4periph\src/stm32f4xx_i2c.c ****     I2Cx->CR2 &= (uint16_t)~((uint16_t)I2C_CR2_DMAEN);
 995              		.loc 1 864 0
 996 02f6 23F40063 		bic	r3, r3, #2048	@ D.7528, I2Cx_2(D)->CR2,
 997 02fa 1B04     		lsls	r3, r3, #16	@ D.7528, D.7528,
 998 02fc 1B0C     		lsrs	r3, r3, #16	@ D.7528, D.7528,
 999              	.L90:
 1000 02fe 8380     		strh	r3, [r0, #4]	@ movhi	@ D.7528,
 1001 0300 7047     		bx	lr	@
 1002              		.cfi_endproc
 1003              	.LFE133:
 1004              		.size	I2C_DMACmd, .-I2C_DMACmd
 1005              		.align	1
 1006              		.global	I2C_DMALastTransferCmd
 1007              		.thumb
 1008              		.thumb_func
 1009              		.type	I2C_DMALastTransferCmd, %function
 1010              	I2C_DMALastTransferCmd:
 1011              	.LFB134:
 865:.\stm32f4periph\src/stm32f4xx_i2c.c ****   }
 866:.\stm32f4periph\src/stm32f4xx_i2c.c **** }
 867:.\stm32f4periph\src/stm32f4xx_i2c.c **** 
 868:.\stm32f4periph\src/stm32f4xx_i2c.c **** /**
 869:.\stm32f4periph\src/stm32f4xx_i2c.c ****   * @brief  Specifies that the next DMA transfer is the last one.
 870:.\stm32f4periph\src/stm32f4xx_i2c.c ****   * @param  I2Cx: where x can be 1, 2 or 3 to select the I2C peripheral.
 871:.\stm32f4periph\src/stm32f4xx_i2c.c ****   * @param  NewState: new state of the I2C DMA last transfer.
 872:.\stm32f4periph\src/stm32f4xx_i2c.c ****   *          This parameter can be: ENABLE or DISABLE.
 873:.\stm32f4periph\src/stm32f4xx_i2c.c ****   * @retval None
 874:.\stm32f4periph\src/stm32f4xx_i2c.c ****   */
 875:.\stm32f4periph\src/stm32f4xx_i2c.c **** void I2C_DMALastTransferCmd(I2C_TypeDef* I2Cx, FunctionalState NewState)
 876:.\stm32f4periph\src/stm32f4xx_i2c.c **** {
 1012              		.loc 1 876 0
 1013              		.cfi_startproc
 1014              		@ args = 0, pretend = 0, frame = 0
 1015              		@ frame_needed = 0, uses_anonymous_args = 0
 1016              		@ link register save eliminated.
 1017              	.LVL67:
 877:.\stm32f4periph\src/stm32f4xx_i2c.c ****   /* Check the parameters */
 878:.\stm32f4periph\src/stm32f4xx_i2c.c ****   assert_param(IS_I2C_ALL_PERIPH(I2Cx));
 879:.\stm32f4periph\src/stm32f4xx_i2c.c ****   assert_param(IS_FUNCTIONAL_STATE(NewState));
 880:.\stm32f4periph\src/stm32f4xx_i2c.c ****   if (NewState != DISABLE)
 881:.\stm32f4periph\src/stm32f4xx_i2c.c ****   {
 882:.\stm32f4periph\src/stm32f4xx_i2c.c ****     /* Next DMA transfer is the last transfer */
 883:.\stm32f4periph\src/stm32f4xx_i2c.c ****     I2Cx->CR2 |= I2C_CR2_LAST;
 1018              		.loc 1 883 0
 1019 0302 8388     		ldrh	r3, [r0, #4]	@,
 880:.\stm32f4periph\src/stm32f4xx_i2c.c ****   if (NewState != DISABLE)
 1020              		.loc 1 880 0
ARM GAS  C:\Users\Kevin\AppData\Local\Temp\cc2AQj48.s 			page 35


 1021 0304 19B1     		cbz	r1, .L92	@ NewState,
 1022              		.loc 1 883 0
 1023 0306 9BB2     		uxth	r3, r3	@ D.7517, I2Cx_2(D)->CR2
 1024 0308 43F48053 		orr	r3, r3, #4096	@ D.7518, D.7517,
 1025 030c 03E0     		b	.L94	@
 1026              	.L92:
 884:.\stm32f4periph\src/stm32f4xx_i2c.c ****   }
 885:.\stm32f4periph\src/stm32f4xx_i2c.c ****   else
 886:.\stm32f4periph\src/stm32f4xx_i2c.c ****   {
 887:.\stm32f4periph\src/stm32f4xx_i2c.c ****     /* Next DMA transfer is not the last transfer */
 888:.\stm32f4periph\src/stm32f4xx_i2c.c ****     I2Cx->CR2 &= (uint16_t)~((uint16_t)I2C_CR2_LAST);
 1027              		.loc 1 888 0
 1028 030e 23F48053 		bic	r3, r3, #4096	@ D.7521, I2Cx_2(D)->CR2,
 1029 0312 1B04     		lsls	r3, r3, #16	@ D.7521, D.7521,
 1030 0314 1B0C     		lsrs	r3, r3, #16	@ D.7521, D.7521,
 1031              	.L94:
 1032 0316 8380     		strh	r3, [r0, #4]	@ movhi	@ D.7521,
 1033 0318 7047     		bx	lr	@
 1034              		.cfi_endproc
 1035              	.LFE134:
 1036              		.size	I2C_DMALastTransferCmd, .-I2C_DMALastTransferCmd
 1037              		.align	1
 1038              		.global	I2C_ReadRegister
 1039              		.thumb
 1040              		.thumb_func
 1041              		.type	I2C_ReadRegister, %function
 1042              	I2C_ReadRegister:
 1043              	.LFB135:
 889:.\stm32f4periph\src/stm32f4xx_i2c.c ****   }
 890:.\stm32f4periph\src/stm32f4xx_i2c.c **** }
 891:.\stm32f4periph\src/stm32f4xx_i2c.c **** 
 892:.\stm32f4periph\src/stm32f4xx_i2c.c **** /**
 893:.\stm32f4periph\src/stm32f4xx_i2c.c ****   * @}
 894:.\stm32f4periph\src/stm32f4xx_i2c.c ****   */
 895:.\stm32f4periph\src/stm32f4xx_i2c.c **** 
 896:.\stm32f4periph\src/stm32f4xx_i2c.c **** /** @defgroup I2C_Group5 Interrupts events and flags management functions
 897:.\stm32f4periph\src/stm32f4xx_i2c.c ****  *  @brief   Interrupts, events and flags management functions
 898:.\stm32f4periph\src/stm32f4xx_i2c.c ****  *
 899:.\stm32f4periph\src/stm32f4xx_i2c.c **** @verbatim   
 900:.\stm32f4periph\src/stm32f4xx_i2c.c ****  ===============================================================================
 901:.\stm32f4periph\src/stm32f4xx_i2c.c ****                 Interrupts, events and flags management functions
 902:.\stm32f4periph\src/stm32f4xx_i2c.c ****  ===============================================================================  
 903:.\stm32f4periph\src/stm32f4xx_i2c.c ****   This section provides functions allowing to configure the I2C Interrupts 
 904:.\stm32f4periph\src/stm32f4xx_i2c.c ****   sources and check or clear the flags or pending bits status.
 905:.\stm32f4periph\src/stm32f4xx_i2c.c ****   The user should identify which mode will be used in his application to manage 
 906:.\stm32f4periph\src/stm32f4xx_i2c.c ****   the communication: Polling mode, Interrupt mode or DMA mode. 
 907:.\stm32f4periph\src/stm32f4xx_i2c.c **** 
 908:.\stm32f4periph\src/stm32f4xx_i2c.c ****  ===============================================================================
 909:.\stm32f4periph\src/stm32f4xx_i2c.c ****                           I2C State Monitoring Functions                    
 910:.\stm32f4periph\src/stm32f4xx_i2c.c ****  ===============================================================================   
 911:.\stm32f4periph\src/stm32f4xx_i2c.c ****   This I2C driver provides three different ways for I2C state monitoring
 912:.\stm32f4periph\src/stm32f4xx_i2c.c ****   depending on the application requirements and constraints:
 913:.\stm32f4periph\src/stm32f4xx_i2c.c ****          
 914:.\stm32f4periph\src/stm32f4xx_i2c.c ****    
 915:.\stm32f4periph\src/stm32f4xx_i2c.c ****      1. Basic state monitoring (Using I2C_CheckEvent() function)
 916:.\stm32f4periph\src/stm32f4xx_i2c.c ****      -----------------------------------------------------------
 917:.\stm32f4periph\src/stm32f4xx_i2c.c ****         It compares the status registers (SR1 and SR2) content to a given event
ARM GAS  C:\Users\Kevin\AppData\Local\Temp\cc2AQj48.s 			page 36


 918:.\stm32f4periph\src/stm32f4xx_i2c.c ****         (can be the combination of one or more flags).
 919:.\stm32f4periph\src/stm32f4xx_i2c.c ****         It returns SUCCESS if the current status includes the given flags 
 920:.\stm32f4periph\src/stm32f4xx_i2c.c ****         and returns ERROR if one or more flags are missing in the current status.
 921:.\stm32f4periph\src/stm32f4xx_i2c.c **** 
 922:.\stm32f4periph\src/stm32f4xx_i2c.c ****           - When to use
 923:.\stm32f4periph\src/stm32f4xx_i2c.c ****              - This function is suitable for most applications as well as for startup 
 924:.\stm32f4periph\src/stm32f4xx_i2c.c ****                activity since the events are fully described in the product reference 
 925:.\stm32f4periph\src/stm32f4xx_i2c.c ****                manual (RM0090).
 926:.\stm32f4periph\src/stm32f4xx_i2c.c ****              - It is also suitable for users who need to define their own events.
 927:.\stm32f4periph\src/stm32f4xx_i2c.c **** 
 928:.\stm32f4periph\src/stm32f4xx_i2c.c ****           - Limitations
 929:.\stm32f4periph\src/stm32f4xx_i2c.c ****              - If an error occurs (ie. error flags are set besides to the monitored 
 930:.\stm32f4periph\src/stm32f4xx_i2c.c ****                flags), the I2C_CheckEvent() function may return SUCCESS despite 
 931:.\stm32f4periph\src/stm32f4xx_i2c.c ****                the communication hold or corrupted real state. 
 932:.\stm32f4periph\src/stm32f4xx_i2c.c ****                In this case, it is advised to use error interrupts to monitor 
 933:.\stm32f4periph\src/stm32f4xx_i2c.c ****                the error events and handle them in the interrupt IRQ handler.
 934:.\stm32f4periph\src/stm32f4xx_i2c.c ****          
 935:.\stm32f4periph\src/stm32f4xx_i2c.c ****      @note 
 936:.\stm32f4periph\src/stm32f4xx_i2c.c ****          For error management, it is advised to use the following functions:
 937:.\stm32f4periph\src/stm32f4xx_i2c.c ****            - I2C_ITConfig() to configure and enable the error interrupts (I2C_IT_ERR).
 938:.\stm32f4periph\src/stm32f4xx_i2c.c ****            - I2Cx_ER_IRQHandler() which is called when the error interrupt occurs.
 939:.\stm32f4periph\src/stm32f4xx_i2c.c ****              Where x is the peripheral instance (I2C1, I2C2 ...)
 940:.\stm32f4periph\src/stm32f4xx_i2c.c ****            - I2C_GetFlagStatus() or I2C_GetITStatus()  to be called into the 
 941:.\stm32f4periph\src/stm32f4xx_i2c.c ****              I2Cx_ER_IRQHandler() function in order to determine which error occurred.
 942:.\stm32f4periph\src/stm32f4xx_i2c.c ****            - I2C_ClearFlag() or I2C_ClearITPendingBit() and/or I2C_SoftwareResetCmd() 
 943:.\stm32f4periph\src/stm32f4xx_i2c.c ****              and/or I2C_GenerateStop() in order to clear the error flag and source 
 944:.\stm32f4periph\src/stm32f4xx_i2c.c ****              and return to correct  communication status.
 945:.\stm32f4periph\src/stm32f4xx_i2c.c ****              
 946:.\stm32f4periph\src/stm32f4xx_i2c.c ****  
 947:.\stm32f4periph\src/stm32f4xx_i2c.c ****      2. Advanced state monitoring (Using the function I2C_GetLastEvent())
 948:.\stm32f4periph\src/stm32f4xx_i2c.c ****      -------------------------------------------------------------------- 
 949:.\stm32f4periph\src/stm32f4xx_i2c.c ****         Using the function I2C_GetLastEvent() which returns the image of both status 
 950:.\stm32f4periph\src/stm32f4xx_i2c.c ****         registers in a single word (uint32_t) (Status Register 2 value is shifted left 
 951:.\stm32f4periph\src/stm32f4xx_i2c.c ****         by 16 bits and concatenated to Status Register 1).
 952:.\stm32f4periph\src/stm32f4xx_i2c.c **** 
 953:.\stm32f4periph\src/stm32f4xx_i2c.c ****           - When to use
 954:.\stm32f4periph\src/stm32f4xx_i2c.c ****              - This function is suitable for the same applications above but it 
 955:.\stm32f4periph\src/stm32f4xx_i2c.c ****                allows to overcome the mentioned limitation of I2C_GetFlagStatus() 
 956:.\stm32f4periph\src/stm32f4xx_i2c.c ****                function.
 957:.\stm32f4periph\src/stm32f4xx_i2c.c ****              - The returned value could be compared to events already defined in 
 958:.\stm32f4periph\src/stm32f4xx_i2c.c ****                the library (stm32f4xx_i2c.h) or to custom values defined by user.
 959:.\stm32f4periph\src/stm32f4xx_i2c.c ****                This function is suitable when multiple flags are monitored at the 
 960:.\stm32f4periph\src/stm32f4xx_i2c.c ****                same time.
 961:.\stm32f4periph\src/stm32f4xx_i2c.c ****              - At the opposite of I2C_CheckEvent() function, this function allows 
 962:.\stm32f4periph\src/stm32f4xx_i2c.c ****                user to choose when an event is accepted (when all events flags are 
 963:.\stm32f4periph\src/stm32f4xx_i2c.c ****                set and no other flags are set or just when the needed flags are set 
 964:.\stm32f4periph\src/stm32f4xx_i2c.c ****                like I2C_CheckEvent() function.
 965:.\stm32f4periph\src/stm32f4xx_i2c.c **** 
 966:.\stm32f4periph\src/stm32f4xx_i2c.c ****           - Limitations
 967:.\stm32f4periph\src/stm32f4xx_i2c.c ****              - User may need to define his own events.
 968:.\stm32f4periph\src/stm32f4xx_i2c.c ****              - Same remark concerning the error management is applicable for this 
 969:.\stm32f4periph\src/stm32f4xx_i2c.c ****                function if user decides to check only regular communication flags 
 970:.\stm32f4periph\src/stm32f4xx_i2c.c ****                (and ignores error flags).
 971:.\stm32f4periph\src/stm32f4xx_i2c.c ****       
 972:.\stm32f4periph\src/stm32f4xx_i2c.c ****  
 973:.\stm32f4periph\src/stm32f4xx_i2c.c ****      3. Flag-based state monitoring (Using the function I2C_GetFlagStatus())
 974:.\stm32f4periph\src/stm32f4xx_i2c.c ****      -----------------------------------------------------------------------
ARM GAS  C:\Users\Kevin\AppData\Local\Temp\cc2AQj48.s 			page 37


 975:.\stm32f4periph\src/stm32f4xx_i2c.c ****      
 976:.\stm32f4periph\src/stm32f4xx_i2c.c ****       Using the function I2C_GetFlagStatus() which simply returns the status of 
 977:.\stm32f4periph\src/stm32f4xx_i2c.c ****       one single flag (ie. I2C_FLAG_RXNE ...). 
 978:.\stm32f4periph\src/stm32f4xx_i2c.c **** 
 979:.\stm32f4periph\src/stm32f4xx_i2c.c ****           - When to use
 980:.\stm32f4periph\src/stm32f4xx_i2c.c ****              - This function could be used for specific applications or in debug 
 981:.\stm32f4periph\src/stm32f4xx_i2c.c ****                phase.
 982:.\stm32f4periph\src/stm32f4xx_i2c.c ****              - It is suitable when only one flag checking is needed (most I2C 
 983:.\stm32f4periph\src/stm32f4xx_i2c.c ****                events are monitored through multiple flags).
 984:.\stm32f4periph\src/stm32f4xx_i2c.c ****           - Limitations: 
 985:.\stm32f4periph\src/stm32f4xx_i2c.c ****              - When calling this function, the Status register is accessed. 
 986:.\stm32f4periph\src/stm32f4xx_i2c.c ****                Some flags are cleared when the status register is accessed. 
 987:.\stm32f4periph\src/stm32f4xx_i2c.c ****                So checking the status of one Flag, may clear other ones.
 988:.\stm32f4periph\src/stm32f4xx_i2c.c ****              - Function may need to be called twice or more in order to monitor 
 989:.\stm32f4periph\src/stm32f4xx_i2c.c ****                one single event.
 990:.\stm32f4periph\src/stm32f4xx_i2c.c ****  
 991:.\stm32f4periph\src/stm32f4xx_i2c.c ****    For detailed description of Events, please refer to section I2C_Events in 
 992:.\stm32f4periph\src/stm32f4xx_i2c.c ****    stm32f4xx_i2c.h file.
 993:.\stm32f4periph\src/stm32f4xx_i2c.c ****        
 994:.\stm32f4periph\src/stm32f4xx_i2c.c **** @endverbatim
 995:.\stm32f4periph\src/stm32f4xx_i2c.c ****   * @{
 996:.\stm32f4periph\src/stm32f4xx_i2c.c ****   */
 997:.\stm32f4periph\src/stm32f4xx_i2c.c ****    
 998:.\stm32f4periph\src/stm32f4xx_i2c.c **** /**
 999:.\stm32f4periph\src/stm32f4xx_i2c.c ****   * @brief  Reads the specified I2C register and returns its value.
1000:.\stm32f4periph\src/stm32f4xx_i2c.c ****   * @param  I2C_Register: specifies the register to read.
1001:.\stm32f4periph\src/stm32f4xx_i2c.c ****   *          This parameter can be one of the following values:
1002:.\stm32f4periph\src/stm32f4xx_i2c.c ****   *            @arg I2C_Register_CR1:  CR1 register.
1003:.\stm32f4periph\src/stm32f4xx_i2c.c ****   *            @arg I2C_Register_CR2:   CR2 register.
1004:.\stm32f4periph\src/stm32f4xx_i2c.c ****   *            @arg I2C_Register_OAR1:  OAR1 register.
1005:.\stm32f4periph\src/stm32f4xx_i2c.c ****   *            @arg I2C_Register_OAR2:  OAR2 register.
1006:.\stm32f4periph\src/stm32f4xx_i2c.c ****   *            @arg I2C_Register_DR:    DR register.
1007:.\stm32f4periph\src/stm32f4xx_i2c.c ****   *            @arg I2C_Register_SR1:   SR1 register.
1008:.\stm32f4periph\src/stm32f4xx_i2c.c ****   *            @arg I2C_Register_SR2:   SR2 register.
1009:.\stm32f4periph\src/stm32f4xx_i2c.c ****   *            @arg I2C_Register_CCR:   CCR register.
1010:.\stm32f4periph\src/stm32f4xx_i2c.c ****   *            @arg I2C_Register_TRISE: TRISE register.
1011:.\stm32f4periph\src/stm32f4xx_i2c.c ****   * @retval The value of the read register.
1012:.\stm32f4periph\src/stm32f4xx_i2c.c ****   */
1013:.\stm32f4periph\src/stm32f4xx_i2c.c **** uint16_t I2C_ReadRegister(I2C_TypeDef* I2Cx, uint8_t I2C_Register)
1014:.\stm32f4periph\src/stm32f4xx_i2c.c **** {
 1044              		.loc 1 1014 0
 1045              		.cfi_startproc
 1046              		@ args = 0, pretend = 0, frame = 8
 1047              		@ frame_needed = 0, uses_anonymous_args = 0
 1048              		@ link register save eliminated.
 1049              	.LVL68:
 1050 031a 82B0     		sub	sp, sp, #8	@,,
 1051              	.LCFI3:
 1052              		.cfi_def_cfa_offset 8
1015:.\stm32f4periph\src/stm32f4xx_i2c.c ****   __IO uint32_t tmp = 0;
 1053              		.loc 1 1015 0
 1054 031c 0023     		movs	r3, #0	@ tmp144,
 1055 031e 0193     		str	r3, [sp, #4]	@ tmp144, tmp
 1056              	.LVL69:
1016:.\stm32f4periph\src/stm32f4xx_i2c.c **** 
1017:.\stm32f4periph\src/stm32f4xx_i2c.c ****   /* Check the parameters */
1018:.\stm32f4periph\src/stm32f4xx_i2c.c ****   assert_param(IS_I2C_ALL_PERIPH(I2Cx));
ARM GAS  C:\Users\Kevin\AppData\Local\Temp\cc2AQj48.s 			page 38


1019:.\stm32f4periph\src/stm32f4xx_i2c.c ****   assert_param(IS_I2C_REGISTER(I2C_Register));
1020:.\stm32f4periph\src/stm32f4xx_i2c.c **** 
1021:.\stm32f4periph\src/stm32f4xx_i2c.c ****   tmp = (uint32_t) I2Cx;
 1057              		.loc 1 1021 0
 1058 0320 0190     		str	r0, [sp, #4]	@ I2Cx, tmp
1022:.\stm32f4periph\src/stm32f4xx_i2c.c ****   tmp += I2C_Register;
 1059              		.loc 1 1022 0
 1060 0322 019B     		ldr	r3, [sp, #4]	@ tmp.10, tmp
 1061 0324 C918     		adds	r1, r1, r3	@ tmp.11, I2C_Register, tmp.10
 1062              	.LVL70:
 1063 0326 0191     		str	r1, [sp, #4]	@ tmp.11, tmp
 1064              	.LVL71:
1023:.\stm32f4periph\src/stm32f4xx_i2c.c **** 
1024:.\stm32f4periph\src/stm32f4xx_i2c.c ****   /* Return the selected register value */
1025:.\stm32f4periph\src/stm32f4xx_i2c.c ****   return (*(__IO uint16_t *) tmp);
 1065              		.loc 1 1025 0
 1066 0328 019B     		ldr	r3, [sp, #4]	@ tmp.12, tmp
 1067 032a 1888     		ldrh	r0, [r3, #0]	@, *tmp.13_8
 1068              	.LVL72:
1026:.\stm32f4periph\src/stm32f4xx_i2c.c **** }
 1069              		.loc 1 1026 0
 1070 032c 80B2     		uxth	r0, r0	@, *tmp.13_8
 1071 032e 02B0     		add	sp, sp, #8	@,,
 1072 0330 7047     		bx	lr
 1073              		.cfi_endproc
 1074              	.LFE135:
 1075              		.size	I2C_ReadRegister, .-I2C_ReadRegister
 1076              		.align	1
 1077              		.global	I2C_ITConfig
 1078              		.thumb
 1079              		.thumb_func
 1080              		.type	I2C_ITConfig, %function
 1081              	I2C_ITConfig:
 1082              	.LFB136:
1027:.\stm32f4periph\src/stm32f4xx_i2c.c **** 
1028:.\stm32f4periph\src/stm32f4xx_i2c.c **** /**
1029:.\stm32f4periph\src/stm32f4xx_i2c.c ****   * @brief  Enables or disables the specified I2C interrupts.
1030:.\stm32f4periph\src/stm32f4xx_i2c.c ****   * @param  I2Cx: where x can be 1, 2 or 3 to select the I2C peripheral.
1031:.\stm32f4periph\src/stm32f4xx_i2c.c ****   * @param  I2C_IT: specifies the I2C interrupts sources to be enabled or disabled. 
1032:.\stm32f4periph\src/stm32f4xx_i2c.c ****   *          This parameter can be any combination of the following values:
1033:.\stm32f4periph\src/stm32f4xx_i2c.c ****   *            @arg I2C_IT_BUF: Buffer interrupt mask
1034:.\stm32f4periph\src/stm32f4xx_i2c.c ****   *            @arg I2C_IT_EVT: Event interrupt mask
1035:.\stm32f4periph\src/stm32f4xx_i2c.c ****   *            @arg I2C_IT_ERR: Error interrupt mask
1036:.\stm32f4periph\src/stm32f4xx_i2c.c ****   * @param  NewState: new state of the specified I2C interrupts.
1037:.\stm32f4periph\src/stm32f4xx_i2c.c ****   *          This parameter can be: ENABLE or DISABLE.
1038:.\stm32f4periph\src/stm32f4xx_i2c.c ****   * @retval None
1039:.\stm32f4periph\src/stm32f4xx_i2c.c ****   */
1040:.\stm32f4periph\src/stm32f4xx_i2c.c **** void I2C_ITConfig(I2C_TypeDef* I2Cx, uint16_t I2C_IT, FunctionalState NewState)
1041:.\stm32f4periph\src/stm32f4xx_i2c.c **** {
 1083              		.loc 1 1041 0
 1084              		.cfi_startproc
 1085              		@ args = 0, pretend = 0, frame = 0
 1086              		@ frame_needed = 0, uses_anonymous_args = 0
 1087              		@ link register save eliminated.
 1088              	.LVL73:
1042:.\stm32f4periph\src/stm32f4xx_i2c.c ****   /* Check the parameters */
1043:.\stm32f4periph\src/stm32f4xx_i2c.c ****   assert_param(IS_I2C_ALL_PERIPH(I2Cx));
ARM GAS  C:\Users\Kevin\AppData\Local\Temp\cc2AQj48.s 			page 39


1044:.\stm32f4periph\src/stm32f4xx_i2c.c ****   assert_param(IS_FUNCTIONAL_STATE(NewState));
1045:.\stm32f4periph\src/stm32f4xx_i2c.c ****   assert_param(IS_I2C_CONFIG_IT(I2C_IT));
1046:.\stm32f4periph\src/stm32f4xx_i2c.c ****   
1047:.\stm32f4periph\src/stm32f4xx_i2c.c ****   if (NewState != DISABLE)
1048:.\stm32f4periph\src/stm32f4xx_i2c.c ****   {
1049:.\stm32f4periph\src/stm32f4xx_i2c.c ****     /* Enable the selected I2C interrupts */
1050:.\stm32f4periph\src/stm32f4xx_i2c.c ****     I2Cx->CR2 |= I2C_IT;
 1089              		.loc 1 1050 0
 1090 0332 8388     		ldrh	r3, [r0, #4]	@,
 1091 0334 9BB2     		uxth	r3, r3	@ D.7501, I2Cx_2(D)->CR2
1047:.\stm32f4periph\src/stm32f4xx_i2c.c ****   if (NewState != DISABLE)
 1092              		.loc 1 1047 0
 1093 0336 0AB1     		cbz	r2, .L97	@ NewState,
 1094              		.loc 1 1050 0
 1095 0338 1943     		orrs	r1, r1, r3	@, D.7502, I2C_IT, D.7501
 1096              	.LVL74:
 1097 033a 01E0     		b	.L99	@
 1098              	.LVL75:
 1099              	.L97:
1051:.\stm32f4periph\src/stm32f4xx_i2c.c ****   }
1052:.\stm32f4periph\src/stm32f4xx_i2c.c ****   else
1053:.\stm32f4periph\src/stm32f4xx_i2c.c ****   {
1054:.\stm32f4periph\src/stm32f4xx_i2c.c ****     /* Disable the selected I2C interrupts */
1055:.\stm32f4periph\src/stm32f4xx_i2c.c ****     I2Cx->CR2 &= (uint16_t)~I2C_IT;
 1100              		.loc 1 1055 0
 1101 033c 23EA0101 		bic	r1, r3, r1	@ D.7506, D.7504, I2C_IT
 1102              	.LVL76:
 1103              	.L99:
 1104 0340 8180     		strh	r1, [r0, #4]	@ movhi	@ D.7506,
 1105 0342 7047     		bx	lr	@
 1106              		.cfi_endproc
 1107              	.LFE136:
 1108              		.size	I2C_ITConfig, .-I2C_ITConfig
 1109              		.align	1
 1110              		.global	I2C_CheckEvent
 1111              		.thumb
 1112              		.thumb_func
 1113              		.type	I2C_CheckEvent, %function
 1114              	I2C_CheckEvent:
 1115              	.LFB137:
1056:.\stm32f4periph\src/stm32f4xx_i2c.c ****   }
1057:.\stm32f4periph\src/stm32f4xx_i2c.c **** }
1058:.\stm32f4periph\src/stm32f4xx_i2c.c **** 
1059:.\stm32f4periph\src/stm32f4xx_i2c.c **** /*
1060:.\stm32f4periph\src/stm32f4xx_i2c.c ****  ===============================================================================
1061:.\stm32f4periph\src/stm32f4xx_i2c.c ****                           1. Basic state monitoring                    
1062:.\stm32f4periph\src/stm32f4xx_i2c.c ****  ===============================================================================  
1063:.\stm32f4periph\src/stm32f4xx_i2c.c ****  */
1064:.\stm32f4periph\src/stm32f4xx_i2c.c **** 
1065:.\stm32f4periph\src/stm32f4xx_i2c.c **** /**
1066:.\stm32f4periph\src/stm32f4xx_i2c.c ****   * @brief  Checks whether the last I2Cx Event is equal to the one passed
1067:.\stm32f4periph\src/stm32f4xx_i2c.c ****   *         as parameter.
1068:.\stm32f4periph\src/stm32f4xx_i2c.c ****   * @param  I2Cx: where x can be 1, 2 or 3 to select the I2C peripheral.
1069:.\stm32f4periph\src/stm32f4xx_i2c.c ****   * @param  I2C_EVENT: specifies the event to be checked. 
1070:.\stm32f4periph\src/stm32f4xx_i2c.c ****   *          This parameter can be one of the following values:
1071:.\stm32f4periph\src/stm32f4xx_i2c.c ****   *            @arg I2C_EVENT_SLAVE_TRANSMITTER_ADDRESS_MATCHED: EV1
1072:.\stm32f4periph\src/stm32f4xx_i2c.c ****   *            @arg I2C_EVENT_SLAVE_RECEIVER_ADDRESS_MATCHED: EV1
ARM GAS  C:\Users\Kevin\AppData\Local\Temp\cc2AQj48.s 			page 40


1073:.\stm32f4periph\src/stm32f4xx_i2c.c ****   *            @arg I2C_EVENT_SLAVE_TRANSMITTER_SECONDADDRESS_MATCHED: EV1
1074:.\stm32f4periph\src/stm32f4xx_i2c.c ****   *            @arg I2C_EVENT_SLAVE_RECEIVER_SECONDADDRESS_MATCHED: EV1
1075:.\stm32f4periph\src/stm32f4xx_i2c.c ****   *            @arg I2C_EVENT_SLAVE_GENERALCALLADDRESS_MATCHED: EV1
1076:.\stm32f4periph\src/stm32f4xx_i2c.c ****   *            @arg I2C_EVENT_SLAVE_BYTE_RECEIVED: EV2
1077:.\stm32f4periph\src/stm32f4xx_i2c.c ****   *            @arg (I2C_EVENT_SLAVE_BYTE_RECEIVED | I2C_FLAG_DUALF): EV2
1078:.\stm32f4periph\src/stm32f4xx_i2c.c ****   *            @arg (I2C_EVENT_SLAVE_BYTE_RECEIVED | I2C_FLAG_GENCALL): EV2
1079:.\stm32f4periph\src/stm32f4xx_i2c.c ****   *            @arg I2C_EVENT_SLAVE_BYTE_TRANSMITTED: EV3
1080:.\stm32f4periph\src/stm32f4xx_i2c.c ****   *            @arg (I2C_EVENT_SLAVE_BYTE_TRANSMITTED | I2C_FLAG_DUALF): EV3
1081:.\stm32f4periph\src/stm32f4xx_i2c.c ****   *            @arg (I2C_EVENT_SLAVE_BYTE_TRANSMITTED | I2C_FLAG_GENCALL): EV3
1082:.\stm32f4periph\src/stm32f4xx_i2c.c ****   *            @arg I2C_EVENT_SLAVE_ACK_FAILURE: EV3_2
1083:.\stm32f4periph\src/stm32f4xx_i2c.c ****   *            @arg I2C_EVENT_SLAVE_STOP_DETECTED: EV4
1084:.\stm32f4periph\src/stm32f4xx_i2c.c ****   *            @arg I2C_EVENT_MASTER_MODE_SELECT: EV5
1085:.\stm32f4periph\src/stm32f4xx_i2c.c ****   *            @arg I2C_EVENT_MASTER_TRANSMITTER_MODE_SELECTED: EV6     
1086:.\stm32f4periph\src/stm32f4xx_i2c.c ****   *            @arg I2C_EVENT_MASTER_RECEIVER_MODE_SELECTED: EV6
1087:.\stm32f4periph\src/stm32f4xx_i2c.c ****   *            @arg I2C_EVENT_MASTER_BYTE_RECEIVED: EV7
1088:.\stm32f4periph\src/stm32f4xx_i2c.c ****   *            @arg I2C_EVENT_MASTER_BYTE_TRANSMITTING: EV8
1089:.\stm32f4periph\src/stm32f4xx_i2c.c ****   *            @arg I2C_EVENT_MASTER_BYTE_TRANSMITTED: EV8_2
1090:.\stm32f4periph\src/stm32f4xx_i2c.c ****   *            @arg I2C_EVENT_MASTER_MODE_ADDRESS10: EV9
1091:.\stm32f4periph\src/stm32f4xx_i2c.c ****   *     
1092:.\stm32f4periph\src/stm32f4xx_i2c.c ****   * @note   For detailed description of Events, please refer to section I2C_Events
1093:.\stm32f4periph\src/stm32f4xx_i2c.c ****   *         in stm32f4xx_i2c.h file.
1094:.\stm32f4periph\src/stm32f4xx_i2c.c ****   *    
1095:.\stm32f4periph\src/stm32f4xx_i2c.c ****   * @retval An ErrorStatus enumeration value:
1096:.\stm32f4periph\src/stm32f4xx_i2c.c ****   *           - SUCCESS: Last event is equal to the I2C_EVENT
1097:.\stm32f4periph\src/stm32f4xx_i2c.c ****   *           - ERROR: Last event is different from the I2C_EVENT
1098:.\stm32f4periph\src/stm32f4xx_i2c.c ****   */
1099:.\stm32f4periph\src/stm32f4xx_i2c.c **** ErrorStatus I2C_CheckEvent(I2C_TypeDef* I2Cx, uint32_t I2C_EVENT)
1100:.\stm32f4periph\src/stm32f4xx_i2c.c **** {
 1116              		.loc 1 1100 0
 1117              		.cfi_startproc
 1118              		@ args = 0, pretend = 0, frame = 0
 1119              		@ frame_needed = 0, uses_anonymous_args = 0
 1120              		@ link register save eliminated.
 1121              	.LVL77:
1101:.\stm32f4periph\src/stm32f4xx_i2c.c ****   uint32_t lastevent = 0;
1102:.\stm32f4periph\src/stm32f4xx_i2c.c ****   uint32_t flag1 = 0, flag2 = 0;
1103:.\stm32f4periph\src/stm32f4xx_i2c.c ****   ErrorStatus status = ERROR;
1104:.\stm32f4periph\src/stm32f4xx_i2c.c **** 
1105:.\stm32f4periph\src/stm32f4xx_i2c.c ****   /* Check the parameters */
1106:.\stm32f4periph\src/stm32f4xx_i2c.c ****   assert_param(IS_I2C_ALL_PERIPH(I2Cx));
1107:.\stm32f4periph\src/stm32f4xx_i2c.c ****   assert_param(IS_I2C_EVENT(I2C_EVENT));
1108:.\stm32f4periph\src/stm32f4xx_i2c.c **** 
1109:.\stm32f4periph\src/stm32f4xx_i2c.c ****   /* Read the I2Cx status register */
1110:.\stm32f4periph\src/stm32f4xx_i2c.c ****   flag1 = I2Cx->SR1;
 1122              		.loc 1 1110 0
 1123 0344 838A     		ldrh	r3, [r0, #20]	@, I2Cx_6(D)->SR1
1111:.\stm32f4periph\src/stm32f4xx_i2c.c ****   flag2 = I2Cx->SR2;
 1124              		.loc 1 1111 0
 1125 0346 008B     		ldrh	r0, [r0, #24]	@, I2Cx_6(D)->SR2
 1126              	.LVL78:
1110:.\stm32f4periph\src/stm32f4xx_i2c.c ****   flag1 = I2Cx->SR1;
 1127              		.loc 1 1110 0
 1128 0348 9BB2     		uxth	r3, r3	@ D.7490, I2Cx_6(D)->SR1
 1129              	.LVL79:
1112:.\stm32f4periph\src/stm32f4xx_i2c.c ****   flag2 = flag2 << 16;
1113:.\stm32f4periph\src/stm32f4xx_i2c.c **** 
1114:.\stm32f4periph\src/stm32f4xx_i2c.c ****   /* Get the last event value from I2C status register */
ARM GAS  C:\Users\Kevin\AppData\Local\Temp\cc2AQj48.s 			page 41


1115:.\stm32f4periph\src/stm32f4xx_i2c.c ****   lastevent = (flag1 | flag2) & FLAG_MASK;
 1130              		.loc 1 1115 0
 1131 034a 43EA0040 		orr	r0, r3, r0, lsl #16	@, tmp153, D.7490, I2Cx_6(D)->SR2,
 1132              	.LVL80:
 1133 034e 0840     		ands	r0, r0, r1	@, tmp154, tmp153, I2C_EVENT
1116:.\stm32f4periph\src/stm32f4xx_i2c.c **** 
1117:.\stm32f4periph\src/stm32f4xx_i2c.c ****   /* Check whether the last event contains the I2C_EVENT */
1118:.\stm32f4periph\src/stm32f4xx_i2c.c ****   if ((lastevent & I2C_EVENT) == I2C_EVENT)
 1134              		.loc 1 1118 0
 1135 0350 20F07F40 		bic	r0, r0, #-16777216	@ tmp155, tmp154,
1119:.\stm32f4periph\src/stm32f4xx_i2c.c ****   {
1120:.\stm32f4periph\src/stm32f4xx_i2c.c ****     /* SUCCESS: last event is equal to I2C_EVENT */
1121:.\stm32f4periph\src/stm32f4xx_i2c.c ****     status = SUCCESS;
1122:.\stm32f4periph\src/stm32f4xx_i2c.c ****   }
1123:.\stm32f4periph\src/stm32f4xx_i2c.c ****   else
1124:.\stm32f4periph\src/stm32f4xx_i2c.c ****   {
1125:.\stm32f4periph\src/stm32f4xx_i2c.c ****     /* ERROR: last event is different from I2C_EVENT */
1126:.\stm32f4periph\src/stm32f4xx_i2c.c ****     status = ERROR;
1127:.\stm32f4periph\src/stm32f4xx_i2c.c ****   }
1128:.\stm32f4periph\src/stm32f4xx_i2c.c ****   /* Return status */
1129:.\stm32f4periph\src/stm32f4xx_i2c.c ****   return status;
1130:.\stm32f4periph\src/stm32f4xx_i2c.c **** }
 1136              		.loc 1 1130 0
 1137 0354 431A     		subs	r3, r0, r1	@, tmp155, I2C_EVENT
 1138              	.LVL81:
 1139 0356 5842     		rsbs	r0, r3, #0	@,,
 1140 0358 5841     		adcs	r0, r0, r3	@,,
 1141 035a 7047     		bx	lr	@
 1142              		.cfi_endproc
 1143              	.LFE137:
 1144              		.size	I2C_CheckEvent, .-I2C_CheckEvent
 1145              		.align	1
 1146              		.global	I2C_GetLastEvent
 1147              		.thumb
 1148              		.thumb_func
 1149              		.type	I2C_GetLastEvent, %function
 1150              	I2C_GetLastEvent:
 1151              	.LFB138:
1131:.\stm32f4periph\src/stm32f4xx_i2c.c **** 
1132:.\stm32f4periph\src/stm32f4xx_i2c.c **** /*
1133:.\stm32f4periph\src/stm32f4xx_i2c.c ****  ===============================================================================
1134:.\stm32f4periph\src/stm32f4xx_i2c.c ****                           2. Advanced state monitoring                   
1135:.\stm32f4periph\src/stm32f4xx_i2c.c ****  ===============================================================================  
1136:.\stm32f4periph\src/stm32f4xx_i2c.c ****  */
1137:.\stm32f4periph\src/stm32f4xx_i2c.c **** 
1138:.\stm32f4periph\src/stm32f4xx_i2c.c **** /**
1139:.\stm32f4periph\src/stm32f4xx_i2c.c ****   * @brief  Returns the last I2Cx Event.
1140:.\stm32f4periph\src/stm32f4xx_i2c.c ****   * @param  I2Cx: where x can be 1, 2 or 3 to select the I2C peripheral.
1141:.\stm32f4periph\src/stm32f4xx_i2c.c ****   *     
1142:.\stm32f4periph\src/stm32f4xx_i2c.c ****   * @note   For detailed description of Events, please refer to section I2C_Events
1143:.\stm32f4periph\src/stm32f4xx_i2c.c ****   *         in stm32f4xx_i2c.h file.
1144:.\stm32f4periph\src/stm32f4xx_i2c.c ****   *    
1145:.\stm32f4periph\src/stm32f4xx_i2c.c ****   * @retval The last event
1146:.\stm32f4periph\src/stm32f4xx_i2c.c ****   */
1147:.\stm32f4periph\src/stm32f4xx_i2c.c **** uint32_t I2C_GetLastEvent(I2C_TypeDef* I2Cx)
1148:.\stm32f4periph\src/stm32f4xx_i2c.c **** {
 1152              		.loc 1 1148 0
ARM GAS  C:\Users\Kevin\AppData\Local\Temp\cc2AQj48.s 			page 42


 1153              		.cfi_startproc
 1154              		@ args = 0, pretend = 0, frame = 0
 1155              		@ frame_needed = 0, uses_anonymous_args = 0
 1156              		@ link register save eliminated.
 1157              	.LVL82:
1149:.\stm32f4periph\src/stm32f4xx_i2c.c ****   uint32_t lastevent = 0;
1150:.\stm32f4periph\src/stm32f4xx_i2c.c ****   uint32_t flag1 = 0, flag2 = 0;
1151:.\stm32f4periph\src/stm32f4xx_i2c.c **** 
1152:.\stm32f4periph\src/stm32f4xx_i2c.c ****   /* Check the parameters */
1153:.\stm32f4periph\src/stm32f4xx_i2c.c ****   assert_param(IS_I2C_ALL_PERIPH(I2Cx));
1154:.\stm32f4periph\src/stm32f4xx_i2c.c **** 
1155:.\stm32f4periph\src/stm32f4xx_i2c.c ****   /* Read the I2Cx status register */
1156:.\stm32f4periph\src/stm32f4xx_i2c.c ****   flag1 = I2Cx->SR1;
 1158              		.loc 1 1156 0
 1159 035c 838A     		ldrh	r3, [r0, #20]	@, I2Cx_4(D)->SR1
1157:.\stm32f4periph\src/stm32f4xx_i2c.c ****   flag2 = I2Cx->SR2;
 1160              		.loc 1 1157 0
 1161 035e 008B     		ldrh	r0, [r0, #24]	@, I2Cx_4(D)->SR2
 1162              	.LVL83:
1156:.\stm32f4periph\src/stm32f4xx_i2c.c ****   flag1 = I2Cx->SR1;
 1163              		.loc 1 1156 0
 1164 0360 9BB2     		uxth	r3, r3	@ D.7485, I2Cx_4(D)->SR1
 1165              	.LVL84:
1158:.\stm32f4periph\src/stm32f4xx_i2c.c ****   flag2 = flag2 << 16;
1159:.\stm32f4periph\src/stm32f4xx_i2c.c **** 
1160:.\stm32f4periph\src/stm32f4xx_i2c.c ****   /* Get the last event value from I2C status register */
1161:.\stm32f4periph\src/stm32f4xx_i2c.c ****   lastevent = (flag1 | flag2) & FLAG_MASK;
 1166              		.loc 1 1161 0
 1167 0362 43EA0040 		orr	r0, r3, r0, lsl #16	@, tmp149, D.7485, I2Cx_4(D)->SR2,
 1168              	.LVL85:
1162:.\stm32f4periph\src/stm32f4xx_i2c.c **** 
1163:.\stm32f4periph\src/stm32f4xx_i2c.c ****   /* Return status */
1164:.\stm32f4periph\src/stm32f4xx_i2c.c ****   return lastevent;
1165:.\stm32f4periph\src/stm32f4xx_i2c.c **** }
 1169              		.loc 1 1165 0
 1170 0366 20F07F40 		bic	r0, r0, #-16777216	@, tmp149,
 1171 036a 7047     		bx	lr	@
 1172              		.cfi_endproc
 1173              	.LFE138:
 1174              		.size	I2C_GetLastEvent, .-I2C_GetLastEvent
 1175              		.align	1
 1176              		.global	I2C_GetFlagStatus
 1177              		.thumb
 1178              		.thumb_func
 1179              		.type	I2C_GetFlagStatus, %function
 1180              	I2C_GetFlagStatus:
 1181              	.LFB139:
1166:.\stm32f4periph\src/stm32f4xx_i2c.c **** 
1167:.\stm32f4periph\src/stm32f4xx_i2c.c **** /*
1168:.\stm32f4periph\src/stm32f4xx_i2c.c ****  ===============================================================================
1169:.\stm32f4periph\src/stm32f4xx_i2c.c ****                           3. Flag-based state monitoring                   
1170:.\stm32f4periph\src/stm32f4xx_i2c.c ****  ===============================================================================  
1171:.\stm32f4periph\src/stm32f4xx_i2c.c ****  */
1172:.\stm32f4periph\src/stm32f4xx_i2c.c **** 
1173:.\stm32f4periph\src/stm32f4xx_i2c.c **** /**
1174:.\stm32f4periph\src/stm32f4xx_i2c.c ****   * @brief  Checks whether the specified I2C flag is set or not.
1175:.\stm32f4periph\src/stm32f4xx_i2c.c ****   * @param  I2Cx: where x can be 1, 2 or 3 to select the I2C peripheral.
ARM GAS  C:\Users\Kevin\AppData\Local\Temp\cc2AQj48.s 			page 43


1176:.\stm32f4periph\src/stm32f4xx_i2c.c ****   * @param  I2C_FLAG: specifies the flag to check. 
1177:.\stm32f4periph\src/stm32f4xx_i2c.c ****   *          This parameter can be one of the following values:
1178:.\stm32f4periph\src/stm32f4xx_i2c.c ****   *            @arg I2C_FLAG_DUALF: Dual flag (Slave mode)
1179:.\stm32f4periph\src/stm32f4xx_i2c.c ****   *            @arg I2C_FLAG_SMBHOST: SMBus host header (Slave mode)
1180:.\stm32f4periph\src/stm32f4xx_i2c.c ****   *            @arg I2C_FLAG_SMBDEFAULT: SMBus default header (Slave mode)
1181:.\stm32f4periph\src/stm32f4xx_i2c.c ****   *            @arg I2C_FLAG_GENCALL: General call header flag (Slave mode)
1182:.\stm32f4periph\src/stm32f4xx_i2c.c ****   *            @arg I2C_FLAG_TRA: Transmitter/Receiver flag
1183:.\stm32f4periph\src/stm32f4xx_i2c.c ****   *            @arg I2C_FLAG_BUSY: Bus busy flag
1184:.\stm32f4periph\src/stm32f4xx_i2c.c ****   *            @arg I2C_FLAG_MSL: Master/Slave flag
1185:.\stm32f4periph\src/stm32f4xx_i2c.c ****   *            @arg I2C_FLAG_SMBALERT: SMBus Alert flag
1186:.\stm32f4periph\src/stm32f4xx_i2c.c ****   *            @arg I2C_FLAG_TIMEOUT: Timeout or Tlow error flag
1187:.\stm32f4periph\src/stm32f4xx_i2c.c ****   *            @arg I2C_FLAG_PECERR: PEC error in reception flag
1188:.\stm32f4periph\src/stm32f4xx_i2c.c ****   *            @arg I2C_FLAG_OVR: Overrun/Underrun flag (Slave mode)
1189:.\stm32f4periph\src/stm32f4xx_i2c.c ****   *            @arg I2C_FLAG_AF: Acknowledge failure flag
1190:.\stm32f4periph\src/stm32f4xx_i2c.c ****   *            @arg I2C_FLAG_ARLO: Arbitration lost flag (Master mode)
1191:.\stm32f4periph\src/stm32f4xx_i2c.c ****   *            @arg I2C_FLAG_BERR: Bus error flag
1192:.\stm32f4periph\src/stm32f4xx_i2c.c ****   *            @arg I2C_FLAG_TXE: Data register empty flag (Transmitter)
1193:.\stm32f4periph\src/stm32f4xx_i2c.c ****   *            @arg I2C_FLAG_RXNE: Data register not empty (Receiver) flag
1194:.\stm32f4periph\src/stm32f4xx_i2c.c ****   *            @arg I2C_FLAG_STOPF: Stop detection flag (Slave mode)
1195:.\stm32f4periph\src/stm32f4xx_i2c.c ****   *            @arg I2C_FLAG_ADD10: 10-bit header sent flag (Master mode)
1196:.\stm32f4periph\src/stm32f4xx_i2c.c ****   *            @arg I2C_FLAG_BTF: Byte transfer finished flag
1197:.\stm32f4periph\src/stm32f4xx_i2c.c ****   *            @arg I2C_FLAG_ADDR: Address sent flag (Master mode) "ADSL"
1198:.\stm32f4periph\src/stm32f4xx_i2c.c ****   *                                Address matched flag (Slave mode)"ENDAD"
1199:.\stm32f4periph\src/stm32f4xx_i2c.c ****   *            @arg I2C_FLAG_SB: Start bit flag (Master mode)
1200:.\stm32f4periph\src/stm32f4xx_i2c.c ****   * @retval The new state of I2C_FLAG (SET or RESET).
1201:.\stm32f4periph\src/stm32f4xx_i2c.c ****   */
1202:.\stm32f4periph\src/stm32f4xx_i2c.c **** FlagStatus I2C_GetFlagStatus(I2C_TypeDef* I2Cx, uint32_t I2C_FLAG)
1203:.\stm32f4periph\src/stm32f4xx_i2c.c **** {
 1182              		.loc 1 1203 0
 1183              		.cfi_startproc
 1184              		@ args = 0, pretend = 0, frame = 8
 1185              		@ frame_needed = 0, uses_anonymous_args = 0
 1186              		@ link register save eliminated.
 1187              	.LVL86:
 1188 036c 82B0     		sub	sp, sp, #8	@,,
 1189              	.LCFI4:
 1190              		.cfi_def_cfa_offset 8
1204:.\stm32f4periph\src/stm32f4xx_i2c.c ****   FlagStatus bitstatus = RESET;
1205:.\stm32f4periph\src/stm32f4xx_i2c.c ****   __IO uint32_t i2creg = 0, i2cxbase = 0;
 1191              		.loc 1 1205 0
 1192 036e 0023     		movs	r3, #0	@ tmp151,
 1193 0370 0093     		str	r3, [sp, #0]	@ tmp151, i2creg
 1194              	.LVL87:
 1195 0372 0193     		str	r3, [sp, #4]	@ tmp151, i2cxbase
 1196              	.LVL88:
1206:.\stm32f4periph\src/stm32f4xx_i2c.c **** 
1207:.\stm32f4periph\src/stm32f4xx_i2c.c ****   /* Check the parameters */
1208:.\stm32f4periph\src/stm32f4xx_i2c.c ****   assert_param(IS_I2C_ALL_PERIPH(I2Cx));
1209:.\stm32f4periph\src/stm32f4xx_i2c.c ****   assert_param(IS_I2C_GET_FLAG(I2C_FLAG));
1210:.\stm32f4periph\src/stm32f4xx_i2c.c **** 
1211:.\stm32f4periph\src/stm32f4xx_i2c.c ****   /* Get the I2Cx peripheral base address */
1212:.\stm32f4periph\src/stm32f4xx_i2c.c ****   i2cxbase = (uint32_t)I2Cx;
1213:.\stm32f4periph\src/stm32f4xx_i2c.c ****   
1214:.\stm32f4periph\src/stm32f4xx_i2c.c ****   /* Read flag register index */
1215:.\stm32f4periph\src/stm32f4xx_i2c.c ****   i2creg = I2C_FLAG >> 28;
 1197              		.loc 1 1215 0
 1198 0374 0B0F     		lsrs	r3, r1, #28	@ i2creg.1, I2C_FLAG,
ARM GAS  C:\Users\Kevin\AppData\Local\Temp\cc2AQj48.s 			page 44


 1199              	.LVL89:
1212:.\stm32f4periph\src/stm32f4xx_i2c.c ****   i2cxbase = (uint32_t)I2Cx;
 1200              		.loc 1 1212 0
 1201 0376 0190     		str	r0, [sp, #4]	@ I2Cx, i2cxbase
 1202              		.loc 1 1215 0
 1203 0378 0093     		str	r3, [sp, #0]	@ i2creg.1, i2creg
 1204              	.LVL90:
1216:.\stm32f4periph\src/stm32f4xx_i2c.c ****   
1217:.\stm32f4periph\src/stm32f4xx_i2c.c ****   /* Get bit[23:0] of the flag */
1218:.\stm32f4periph\src/stm32f4xx_i2c.c ****   I2C_FLAG &= FLAG_MASK;
1219:.\stm32f4periph\src/stm32f4xx_i2c.c ****   
1220:.\stm32f4periph\src/stm32f4xx_i2c.c ****   if(i2creg != 0)
 1205              		.loc 1 1220 0
 1206 037a 009B     		ldr	r3, [sp, #0]	@ i2creg.2, i2creg
 1207              	.LVL91:
1218:.\stm32f4periph\src/stm32f4xx_i2c.c ****   I2C_FLAG &= FLAG_MASK;
 1208              		.loc 1 1218 0
 1209 037c 21F07F41 		bic	r1, r1, #-16777216	@ I2C_FLAG, I2C_FLAG,
 1210              	.LVL92:
 1211              		.loc 1 1220 0
 1212 0380 13B1     		cbz	r3, .L103	@ i2creg.2,
1221:.\stm32f4periph\src/stm32f4xx_i2c.c ****   {
1222:.\stm32f4periph\src/stm32f4xx_i2c.c ****     /* Get the I2Cx SR1 register address */
1223:.\stm32f4periph\src/stm32f4xx_i2c.c ****     i2cxbase += 0x14;
 1213              		.loc 1 1223 0
 1214 0382 019B     		ldr	r3, [sp, #4]	@ i2cxbase.3, i2cxbase
 1215 0384 1433     		adds	r3, r3, #20	@ i2cxbase.4, i2cxbase.3,
 1216              	.LVL93:
 1217 0386 02E0     		b	.L105	@
 1218              	.LVL94:
 1219              	.L103:
1224:.\stm32f4periph\src/stm32f4xx_i2c.c ****   }
1225:.\stm32f4periph\src/stm32f4xx_i2c.c ****   else
1226:.\stm32f4periph\src/stm32f4xx_i2c.c ****   {
1227:.\stm32f4periph\src/stm32f4xx_i2c.c ****     /* Flag in I2Cx SR2 Register */
1228:.\stm32f4periph\src/stm32f4xx_i2c.c ****     I2C_FLAG = (uint32_t)(I2C_FLAG >> 16);
1229:.\stm32f4periph\src/stm32f4xx_i2c.c ****     /* Get the I2Cx SR2 register address */
1230:.\stm32f4periph\src/stm32f4xx_i2c.c ****     i2cxbase += 0x18;
 1220              		.loc 1 1230 0
 1221 0388 019B     		ldr	r3, [sp, #4]	@ i2cxbase.5, i2cxbase
1228:.\stm32f4periph\src/stm32f4xx_i2c.c ****     I2C_FLAG = (uint32_t)(I2C_FLAG >> 16);
 1222              		.loc 1 1228 0
 1223 038a 090C     		lsrs	r1, r1, #16	@ I2C_FLAG, I2C_FLAG,
 1224              	.LVL95:
 1225              		.loc 1 1230 0
 1226 038c 1833     		adds	r3, r3, #24	@ i2cxbase.6, i2cxbase.5,
 1227              	.LVL96:
 1228              	.L105:
 1229 038e 0193     		str	r3, [sp, #4]	@ i2cxbase.6, i2cxbase
1231:.\stm32f4periph\src/stm32f4xx_i2c.c ****   }
1232:.\stm32f4periph\src/stm32f4xx_i2c.c ****   
1233:.\stm32f4periph\src/stm32f4xx_i2c.c ****   if(((*(__IO uint32_t *)i2cxbase) & I2C_FLAG) != (uint32_t)RESET)
 1230              		.loc 1 1233 0
 1231 0390 019B     		ldr	r3, [sp, #4]	@ i2cxbase.7, i2cxbase
 1232              	.LVL97:
 1233 0392 1B68     		ldr	r3, [r3, #0]	@ D.7478, *i2cxbase.8_16
 1234              	.LVL98:
ARM GAS  C:\Users\Kevin\AppData\Local\Temp\cc2AQj48.s 			page 45


 1235 0394 1942     		tst	r1, r3	@ I2C_FLAG, D.7478
1234:.\stm32f4periph\src/stm32f4xx_i2c.c ****   {
1235:.\stm32f4periph\src/stm32f4xx_i2c.c ****     /* I2C_FLAG is set */
1236:.\stm32f4periph\src/stm32f4xx_i2c.c ****     bitstatus = SET;
1237:.\stm32f4periph\src/stm32f4xx_i2c.c ****   }
1238:.\stm32f4periph\src/stm32f4xx_i2c.c ****   else
1239:.\stm32f4periph\src/stm32f4xx_i2c.c ****   {
1240:.\stm32f4periph\src/stm32f4xx_i2c.c ****     /* I2C_FLAG is reset */
1241:.\stm32f4periph\src/stm32f4xx_i2c.c ****     bitstatus = RESET;
1242:.\stm32f4periph\src/stm32f4xx_i2c.c ****   }
1243:.\stm32f4periph\src/stm32f4xx_i2c.c ****   
1244:.\stm32f4periph\src/stm32f4xx_i2c.c ****   /* Return the I2C_FLAG status */
1245:.\stm32f4periph\src/stm32f4xx_i2c.c ****   return  bitstatus;
1246:.\stm32f4periph\src/stm32f4xx_i2c.c **** }
 1236              		.loc 1 1246 0
 1237 0396 0CBF     		ite	eq	@
 1238 0398 0020     		moveq	r0, #0	@,
 1239 039a 0120     		movne	r0, #1	@,
 1240              	.LVL99:
 1241 039c 02B0     		add	sp, sp, #8	@,,
 1242 039e 7047     		bx	lr
 1243              		.cfi_endproc
 1244              	.LFE139:
 1245              		.size	I2C_GetFlagStatus, .-I2C_GetFlagStatus
 1246              		.align	1
 1247              		.global	I2C_ClearFlag
 1248              		.thumb
 1249              		.thumb_func
 1250              		.type	I2C_ClearFlag, %function
 1251              	I2C_ClearFlag:
 1252              	.LFB140:
1247:.\stm32f4periph\src/stm32f4xx_i2c.c **** 
1248:.\stm32f4periph\src/stm32f4xx_i2c.c **** /**
1249:.\stm32f4periph\src/stm32f4xx_i2c.c ****   * @brief  Clears the I2Cx's pending flags.
1250:.\stm32f4periph\src/stm32f4xx_i2c.c ****   * @param  I2Cx: where x can be 1, 2 or 3 to select the I2C peripheral.
1251:.\stm32f4periph\src/stm32f4xx_i2c.c ****   * @param  I2C_FLAG: specifies the flag to clear. 
1252:.\stm32f4periph\src/stm32f4xx_i2c.c ****   *          This parameter can be any combination of the following values:
1253:.\stm32f4periph\src/stm32f4xx_i2c.c ****   *            @arg I2C_FLAG_SMBALERT: SMBus Alert flag
1254:.\stm32f4periph\src/stm32f4xx_i2c.c ****   *            @arg I2C_FLAG_TIMEOUT: Timeout or Tlow error flag
1255:.\stm32f4periph\src/stm32f4xx_i2c.c ****   *            @arg I2C_FLAG_PECERR: PEC error in reception flag
1256:.\stm32f4periph\src/stm32f4xx_i2c.c ****   *            @arg I2C_FLAG_OVR: Overrun/Underrun flag (Slave mode)
1257:.\stm32f4periph\src/stm32f4xx_i2c.c ****   *            @arg I2C_FLAG_AF: Acknowledge failure flag
1258:.\stm32f4periph\src/stm32f4xx_i2c.c ****   *            @arg I2C_FLAG_ARLO: Arbitration lost flag (Master mode)
1259:.\stm32f4periph\src/stm32f4xx_i2c.c ****   *            @arg I2C_FLAG_BERR: Bus error flag
1260:.\stm32f4periph\src/stm32f4xx_i2c.c ****   *   
1261:.\stm32f4periph\src/stm32f4xx_i2c.c ****   * @note   STOPF (STOP detection) is cleared by software sequence: a read operation 
1262:.\stm32f4periph\src/stm32f4xx_i2c.c ****   *          to I2C_SR1 register (I2C_GetFlagStatus()) followed by a write operation 
1263:.\stm32f4periph\src/stm32f4xx_i2c.c ****   *          to I2C_CR1 register (I2C_Cmd() to re-enable the I2C peripheral).
1264:.\stm32f4periph\src/stm32f4xx_i2c.c ****   * @note   ADD10 (10-bit header sent) is cleared by software sequence: a read 
1265:.\stm32f4periph\src/stm32f4xx_i2c.c ****   *          operation to I2C_SR1 (I2C_GetFlagStatus()) followed by writing the 
1266:.\stm32f4periph\src/stm32f4xx_i2c.c ****   *          second byte of the address in DR register.
1267:.\stm32f4periph\src/stm32f4xx_i2c.c ****   * @note   BTF (Byte Transfer Finished) is cleared by software sequence: a read 
1268:.\stm32f4periph\src/stm32f4xx_i2c.c ****   *          operation to I2C_SR1 register (I2C_GetFlagStatus()) followed by a 
1269:.\stm32f4periph\src/stm32f4xx_i2c.c ****   *          read/write to I2C_DR register (I2C_SendData()).
1270:.\stm32f4periph\src/stm32f4xx_i2c.c ****   * @note   ADDR (Address sent) is cleared by software sequence: a read operation to 
1271:.\stm32f4periph\src/stm32f4xx_i2c.c ****   *          I2C_SR1 register (I2C_GetFlagStatus()) followed by a read operation to 
1272:.\stm32f4periph\src/stm32f4xx_i2c.c ****   *          I2C_SR2 register ((void)(I2Cx->SR2)).
ARM GAS  C:\Users\Kevin\AppData\Local\Temp\cc2AQj48.s 			page 46


1273:.\stm32f4periph\src/stm32f4xx_i2c.c ****   * @note   SB (Start Bit) is cleared software sequence: a read operation to I2C_SR1
1274:.\stm32f4periph\src/stm32f4xx_i2c.c ****   *          register (I2C_GetFlagStatus()) followed by a write operation to I2C_DR
1275:.\stm32f4periph\src/stm32f4xx_i2c.c ****   *          register (I2C_SendData()).
1276:.\stm32f4periph\src/stm32f4xx_i2c.c ****   *  
1277:.\stm32f4periph\src/stm32f4xx_i2c.c ****   * @retval None
1278:.\stm32f4periph\src/stm32f4xx_i2c.c ****   */
1279:.\stm32f4periph\src/stm32f4xx_i2c.c **** void I2C_ClearFlag(I2C_TypeDef* I2Cx, uint32_t I2C_FLAG)
1280:.\stm32f4periph\src/stm32f4xx_i2c.c **** {
 1253              		.loc 1 1280 0
 1254              		.cfi_startproc
 1255              		@ args = 0, pretend = 0, frame = 0
 1256              		@ frame_needed = 0, uses_anonymous_args = 0
 1257              		@ link register save eliminated.
 1258              	.LVL100:
1281:.\stm32f4periph\src/stm32f4xx_i2c.c ****   uint32_t flagpos = 0;
1282:.\stm32f4periph\src/stm32f4xx_i2c.c ****   /* Check the parameters */
1283:.\stm32f4periph\src/stm32f4xx_i2c.c ****   assert_param(IS_I2C_ALL_PERIPH(I2Cx));
1284:.\stm32f4periph\src/stm32f4xx_i2c.c ****   assert_param(IS_I2C_CLEAR_FLAG(I2C_FLAG));
1285:.\stm32f4periph\src/stm32f4xx_i2c.c ****   /* Get the I2C flag position */
1286:.\stm32f4periph\src/stm32f4xx_i2c.c ****   flagpos = I2C_FLAG & FLAG_MASK;
1287:.\stm32f4periph\src/stm32f4xx_i2c.c ****   /* Clear the selected I2C flag */
1288:.\stm32f4periph\src/stm32f4xx_i2c.c ****   I2Cx->SR1 = (uint16_t)~flagpos;
 1259              		.loc 1 1288 0
 1260 03a0 C943     		mvns	r1, r1	@ tmp141, I2C_FLAG
 1261              	.LVL101:
 1262 03a2 8182     		strh	r1, [r0, #20]	@ movhi	@ D.7465, I2Cx_6(D)->SR1
 1263 03a4 7047     		bx	lr	@
 1264              		.cfi_endproc
 1265              	.LFE140:
 1266              		.size	I2C_ClearFlag, .-I2C_ClearFlag
 1267              		.align	1
 1268              		.global	I2C_GetITStatus
 1269              		.thumb
 1270              		.thumb_func
 1271              		.type	I2C_GetITStatus, %function
 1272              	I2C_GetITStatus:
 1273              	.LFB141:
1289:.\stm32f4periph\src/stm32f4xx_i2c.c **** }
1290:.\stm32f4periph\src/stm32f4xx_i2c.c **** 
1291:.\stm32f4periph\src/stm32f4xx_i2c.c **** /**
1292:.\stm32f4periph\src/stm32f4xx_i2c.c ****   * @brief  Checks whether the specified I2C interrupt has occurred or not.
1293:.\stm32f4periph\src/stm32f4xx_i2c.c ****   * @param  I2Cx: where x can be 1, 2 or 3 to select the I2C peripheral.
1294:.\stm32f4periph\src/stm32f4xx_i2c.c ****   * @param  I2C_IT: specifies the interrupt source to check. 
1295:.\stm32f4periph\src/stm32f4xx_i2c.c ****   *          This parameter can be one of the following values:
1296:.\stm32f4periph\src/stm32f4xx_i2c.c ****   *            @arg I2C_IT_SMBALERT: SMBus Alert flag
1297:.\stm32f4periph\src/stm32f4xx_i2c.c ****   *            @arg I2C_IT_TIMEOUT: Timeout or Tlow error flag
1298:.\stm32f4periph\src/stm32f4xx_i2c.c ****   *            @arg I2C_IT_PECERR: PEC error in reception flag
1299:.\stm32f4periph\src/stm32f4xx_i2c.c ****   *            @arg I2C_IT_OVR: Overrun/Underrun flag (Slave mode)
1300:.\stm32f4periph\src/stm32f4xx_i2c.c ****   *            @arg I2C_IT_AF: Acknowledge failure flag
1301:.\stm32f4periph\src/stm32f4xx_i2c.c ****   *            @arg I2C_IT_ARLO: Arbitration lost flag (Master mode)
1302:.\stm32f4periph\src/stm32f4xx_i2c.c ****   *            @arg I2C_IT_BERR: Bus error flag
1303:.\stm32f4periph\src/stm32f4xx_i2c.c ****   *            @arg I2C_IT_TXE: Data register empty flag (Transmitter)
1304:.\stm32f4periph\src/stm32f4xx_i2c.c ****   *            @arg I2C_IT_RXNE: Data register not empty (Receiver) flag
1305:.\stm32f4periph\src/stm32f4xx_i2c.c ****   *            @arg I2C_IT_STOPF: Stop detection flag (Slave mode)
1306:.\stm32f4periph\src/stm32f4xx_i2c.c ****   *            @arg I2C_IT_ADD10: 10-bit header sent flag (Master mode)
1307:.\stm32f4periph\src/stm32f4xx_i2c.c ****   *            @arg I2C_IT_BTF: Byte transfer finished flag
1308:.\stm32f4periph\src/stm32f4xx_i2c.c ****   *            @arg I2C_IT_ADDR: Address sent flag (Master mode) "ADSL"
ARM GAS  C:\Users\Kevin\AppData\Local\Temp\cc2AQj48.s 			page 47


1309:.\stm32f4periph\src/stm32f4xx_i2c.c ****   *                              Address matched flag (Slave mode)"ENDAD"
1310:.\stm32f4periph\src/stm32f4xx_i2c.c ****   *            @arg I2C_IT_SB: Start bit flag (Master mode)
1311:.\stm32f4periph\src/stm32f4xx_i2c.c ****   * @retval The new state of I2C_IT (SET or RESET).
1312:.\stm32f4periph\src/stm32f4xx_i2c.c ****   */
1313:.\stm32f4periph\src/stm32f4xx_i2c.c **** ITStatus I2C_GetITStatus(I2C_TypeDef* I2Cx, uint32_t I2C_IT)
1314:.\stm32f4periph\src/stm32f4xx_i2c.c **** {
 1274              		.loc 1 1314 0
 1275              		.cfi_startproc
 1276              		@ args = 0, pretend = 0, frame = 0
 1277              		@ frame_needed = 0, uses_anonymous_args = 0
 1278              		@ link register save eliminated.
 1279              	.LVL102:
1315:.\stm32f4periph\src/stm32f4xx_i2c.c ****   ITStatus bitstatus = RESET;
1316:.\stm32f4periph\src/stm32f4xx_i2c.c ****   uint32_t enablestatus = 0;
1317:.\stm32f4periph\src/stm32f4xx_i2c.c **** 
1318:.\stm32f4periph\src/stm32f4xx_i2c.c ****   /* Check the parameters */
1319:.\stm32f4periph\src/stm32f4xx_i2c.c ****   assert_param(IS_I2C_ALL_PERIPH(I2Cx));
1320:.\stm32f4periph\src/stm32f4xx_i2c.c ****   assert_param(IS_I2C_GET_IT(I2C_IT));
1321:.\stm32f4periph\src/stm32f4xx_i2c.c **** 
1322:.\stm32f4periph\src/stm32f4xx_i2c.c ****   /* Check if the interrupt source is enabled or not */
1323:.\stm32f4periph\src/stm32f4xx_i2c.c ****   enablestatus = (uint32_t)(((I2C_IT & ITEN_MASK) >> 16) & (I2Cx->CR2)) ;
 1280              		.loc 1 1323 0
 1281 03a6 8388     		ldrh	r3, [r0, #4]	@, I2Cx_7(D)->CR2
1324:.\stm32f4periph\src/stm32f4xx_i2c.c ****   
1325:.\stm32f4periph\src/stm32f4xx_i2c.c ****   /* Get bit[23:0] of the flag */
1326:.\stm32f4periph\src/stm32f4xx_i2c.c ****   I2C_IT &= FLAG_MASK;
1327:.\stm32f4periph\src/stm32f4xx_i2c.c **** 
1328:.\stm32f4periph\src/stm32f4xx_i2c.c ****   /* Check the status of the specified I2C flag */
1329:.\stm32f4periph\src/stm32f4xx_i2c.c ****   if (((I2Cx->SR1 & I2C_IT) != (uint32_t)RESET) && enablestatus)
 1282              		.loc 1 1329 0
 1283 03a8 808A     		ldrh	r0, [r0, #20]	@, I2Cx_7(D)->SR1
 1284              	.LVL103:
 1285 03aa 80B2     		uxth	r0, r0	@ D.7457, I2Cx_7(D)->SR1
 1286 03ac 0840     		ands	r0, r0, r1	@ tmp151, D.7457, I2C_IT
1323:.\stm32f4periph\src/stm32f4xx_i2c.c ****   enablestatus = (uint32_t)(((I2C_IT & ITEN_MASK) >> 16) & (I2Cx->CR2)) ;
 1287              		.loc 1 1323 0
 1288 03ae 9BB2     		uxth	r3, r3	@ D.7453, I2Cx_7(D)->CR2
 1289              	.LVL104:
 1290              		.loc 1 1329 0
 1291 03b0 06D0     		beq	.L108	@,
1323:.\stm32f4periph\src/stm32f4xx_i2c.c ****   enablestatus = (uint32_t)(((I2C_IT & ITEN_MASK) >> 16) & (I2Cx->CR2)) ;
 1292              		.loc 1 1323 0 discriminator 1
 1293 03b2 01F0E061 		and	r1, r1, #117440512	@ tmp152, I2C_IT,
 1294              	.LVL105:
 1295              		.loc 1 1329 0 discriminator 1
 1296 03b6 13EA1141 		ands	r1, r3, r1, lsr #16	@,, D.7453, tmp152,
 1297              	.LVL106:
1330:.\stm32f4periph\src/stm32f4xx_i2c.c ****   {
1331:.\stm32f4periph\src/stm32f4xx_i2c.c ****     /* I2C_IT is set */
1332:.\stm32f4periph\src/stm32f4xx_i2c.c ****     bitstatus = SET;
 1298              		.loc 1 1332 0 discriminator 1
 1299 03ba 0CBF     		ite	eq	@
 1300 03bc 0020     		moveq	r0, #0	@, bitstatus
 1301 03be 0120     		movne	r0, #1	@, bitstatus
 1302              	.L108:
 1303              	.LVL107:
1333:.\stm32f4periph\src/stm32f4xx_i2c.c ****   }
ARM GAS  C:\Users\Kevin\AppData\Local\Temp\cc2AQj48.s 			page 48


1334:.\stm32f4periph\src/stm32f4xx_i2c.c ****   else
1335:.\stm32f4periph\src/stm32f4xx_i2c.c ****   {
1336:.\stm32f4periph\src/stm32f4xx_i2c.c ****     /* I2C_IT is reset */
1337:.\stm32f4periph\src/stm32f4xx_i2c.c ****     bitstatus = RESET;
1338:.\stm32f4periph\src/stm32f4xx_i2c.c ****   }
1339:.\stm32f4periph\src/stm32f4xx_i2c.c ****   /* Return the I2C_IT status */
1340:.\stm32f4periph\src/stm32f4xx_i2c.c ****   return  bitstatus;
1341:.\stm32f4periph\src/stm32f4xx_i2c.c **** }
 1304              		.loc 1 1341 0
 1305 03c0 7047     		bx	lr	@
 1306              		.cfi_endproc
 1307              	.LFE141:
 1308              		.size	I2C_GetITStatus, .-I2C_GetITStatus
 1309              		.align	1
 1310              		.global	I2C_ClearITPendingBit
 1311              		.thumb
 1312              		.thumb_func
 1313              		.type	I2C_ClearITPendingBit, %function
 1314              	I2C_ClearITPendingBit:
 1315              	.LFB142:
1342:.\stm32f4periph\src/stm32f4xx_i2c.c **** 
1343:.\stm32f4periph\src/stm32f4xx_i2c.c **** /**
1344:.\stm32f4periph\src/stm32f4xx_i2c.c ****   * @brief  Clears the I2Cx's interrupt pending bits.
1345:.\stm32f4periph\src/stm32f4xx_i2c.c ****   * @param  I2Cx: where x can be 1, 2 or 3 to select the I2C peripheral.
1346:.\stm32f4periph\src/stm32f4xx_i2c.c ****   * @param  I2C_IT: specifies the interrupt pending bit to clear. 
1347:.\stm32f4periph\src/stm32f4xx_i2c.c ****   *          This parameter can be any combination of the following values:
1348:.\stm32f4periph\src/stm32f4xx_i2c.c ****   *            @arg I2C_IT_SMBALERT: SMBus Alert interrupt
1349:.\stm32f4periph\src/stm32f4xx_i2c.c ****   *            @arg I2C_IT_TIMEOUT: Timeout or Tlow error interrupt
1350:.\stm32f4periph\src/stm32f4xx_i2c.c ****   *            @arg I2C_IT_PECERR: PEC error in reception  interrupt
1351:.\stm32f4periph\src/stm32f4xx_i2c.c ****   *            @arg I2C_IT_OVR: Overrun/Underrun interrupt (Slave mode)
1352:.\stm32f4periph\src/stm32f4xx_i2c.c ****   *            @arg I2C_IT_AF: Acknowledge failure interrupt
1353:.\stm32f4periph\src/stm32f4xx_i2c.c ****   *            @arg I2C_IT_ARLO: Arbitration lost interrupt (Master mode)
1354:.\stm32f4periph\src/stm32f4xx_i2c.c ****   *            @arg I2C_IT_BERR: Bus error interrupt
1355:.\stm32f4periph\src/stm32f4xx_i2c.c ****   * 
1356:.\stm32f4periph\src/stm32f4xx_i2c.c ****   * @note   STOPF (STOP detection) is cleared by software sequence: a read operation 
1357:.\stm32f4periph\src/stm32f4xx_i2c.c ****   *          to I2C_SR1 register (I2C_GetITStatus()) followed by a write operation to 
1358:.\stm32f4periph\src/stm32f4xx_i2c.c ****   *          I2C_CR1 register (I2C_Cmd() to re-enable the I2C peripheral).
1359:.\stm32f4periph\src/stm32f4xx_i2c.c ****   * @note   ADD10 (10-bit header sent) is cleared by software sequence: a read 
1360:.\stm32f4periph\src/stm32f4xx_i2c.c ****   *          operation to I2C_SR1 (I2C_GetITStatus()) followed by writing the second 
1361:.\stm32f4periph\src/stm32f4xx_i2c.c ****   *          byte of the address in I2C_DR register.
1362:.\stm32f4periph\src/stm32f4xx_i2c.c ****   * @note   BTF (Byte Transfer Finished) is cleared by software sequence: a read 
1363:.\stm32f4periph\src/stm32f4xx_i2c.c ****   *          operation to I2C_SR1 register (I2C_GetITStatus()) followed by a 
1364:.\stm32f4periph\src/stm32f4xx_i2c.c ****   *          read/write to I2C_DR register (I2C_SendData()).
1365:.\stm32f4periph\src/stm32f4xx_i2c.c ****   * @note   ADDR (Address sent) is cleared by software sequence: a read operation to 
1366:.\stm32f4periph\src/stm32f4xx_i2c.c ****   *          I2C_SR1 register (I2C_GetITStatus()) followed by a read operation to 
1367:.\stm32f4periph\src/stm32f4xx_i2c.c ****   *          I2C_SR2 register ((void)(I2Cx->SR2)).
1368:.\stm32f4periph\src/stm32f4xx_i2c.c ****   * @note   SB (Start Bit) is cleared by software sequence: a read operation to 
1369:.\stm32f4periph\src/stm32f4xx_i2c.c ****   *          I2C_SR1 register (I2C_GetITStatus()) followed by a write operation to 
1370:.\stm32f4periph\src/stm32f4xx_i2c.c ****   *          I2C_DR register (I2C_SendData()).
1371:.\stm32f4periph\src/stm32f4xx_i2c.c ****   * @retval None
1372:.\stm32f4periph\src/stm32f4xx_i2c.c ****   */
1373:.\stm32f4periph\src/stm32f4xx_i2c.c **** void I2C_ClearITPendingBit(I2C_TypeDef* I2Cx, uint32_t I2C_IT)
1374:.\stm32f4periph\src/stm32f4xx_i2c.c **** {
 1316              		.loc 1 1374 0
 1317              		.cfi_startproc
 1318              		@ args = 0, pretend = 0, frame = 0
 1319              		@ frame_needed = 0, uses_anonymous_args = 0
ARM GAS  C:\Users\Kevin\AppData\Local\Temp\cc2AQj48.s 			page 49


 1320              		@ link register save eliminated.
 1321              	.LVL108:
1375:.\stm32f4periph\src/stm32f4xx_i2c.c ****   uint32_t flagpos = 0;
1376:.\stm32f4periph\src/stm32f4xx_i2c.c ****   /* Check the parameters */
1377:.\stm32f4periph\src/stm32f4xx_i2c.c ****   assert_param(IS_I2C_ALL_PERIPH(I2Cx));
1378:.\stm32f4periph\src/stm32f4xx_i2c.c ****   assert_param(IS_I2C_CLEAR_IT(I2C_IT));
1379:.\stm32f4periph\src/stm32f4xx_i2c.c **** 
1380:.\stm32f4periph\src/stm32f4xx_i2c.c ****   /* Get the I2C flag position */
1381:.\stm32f4periph\src/stm32f4xx_i2c.c ****   flagpos = I2C_IT & FLAG_MASK;
1382:.\stm32f4periph\src/stm32f4xx_i2c.c **** 
1383:.\stm32f4periph\src/stm32f4xx_i2c.c ****   /* Clear the selected I2C flag */
1384:.\stm32f4periph\src/stm32f4xx_i2c.c ****   I2Cx->SR1 = (uint16_t)~flagpos;
 1322              		.loc 1 1384 0
 1323 03c2 C943     		mvns	r1, r1	@ tmp141, I2C_IT
 1324              	.LVL109:
 1325 03c4 8182     		strh	r1, [r0, #20]	@ movhi	@ D.7450, I2Cx_6(D)->SR1
 1326 03c6 7047     		bx	lr	@
 1327              		.cfi_endproc
 1328              	.LFE142:
 1329              		.size	I2C_ClearITPendingBit, .-I2C_ClearITPendingBit
 1330              	.Letext0:
 1331              		.file 2 "k:\\electronics\\gcc\\bin\\../lib/gcc/arm-none-eabi/4.7.2/../../../../arm-none-eabi/inclu
 1332              		.file 3 ".\\inc/stm32f4xx.h"
 1333              		.file 4 ".\\stm32f4periph\\inc/stm32f4xx_rcc.h"
 1334              		.file 5 ".\\stm32f4periph\\inc/stm32f4xx_i2c.h"
 1335              		.file 6 ".\\inc/core_cm4.h"
 1336              		.section	.debug_info,"",%progbits
 1337              	.Ldebug_info0:
 1338 0000 260C0000 		.4byte	0xc26
 1339 0004 0200     		.2byte	0x2
 1340 0006 00000000 		.4byte	.Ldebug_abbrev0
 1341 000a 04       		.byte	0x4
 1342 000b 01       		.uleb128 0x1
 1343 000c 0E030000 		.4byte	.LASF110
 1344 0010 01       		.byte	0x1
 1345 0011 28050000 		.4byte	.LASF111
 1346 0015 80050000 		.4byte	.LASF112
 1347 0019 00000000 		.4byte	.Ltext0
 1348 001d C8030000 		.4byte	.Letext0
 1349 0021 00000000 		.4byte	.Ldebug_line0
 1350 0025 02       		.uleb128 0x2
 1351 0026 04       		.byte	0x4
 1352 0027 07       		.byte	0x7
 1353 0028 EA020000 		.4byte	.LASF0
 1354 002c 02       		.uleb128 0x2
 1355 002d 01       		.byte	0x1
 1356 002e 06       		.byte	0x6
 1357 002f BE020000 		.4byte	.LASF1
 1358 0033 03       		.uleb128 0x3
 1359 0034 38010000 		.4byte	.LASF4
 1360 0038 02       		.byte	0x2
 1361 0039 2A       		.byte	0x2a
 1362 003a 3E000000 		.4byte	0x3e
 1363 003e 02       		.uleb128 0x2
 1364 003f 01       		.byte	0x1
 1365 0040 08       		.byte	0x8
 1366 0041 94020000 		.4byte	.LASF2
ARM GAS  C:\Users\Kevin\AppData\Local\Temp\cc2AQj48.s 			page 50


 1367 0045 02       		.uleb128 0x2
 1368 0046 02       		.byte	0x2
 1369 0047 05       		.byte	0x5
 1370 0048 81010000 		.4byte	.LASF3
 1371 004c 03       		.uleb128 0x3
 1372 004d 6D030000 		.4byte	.LASF5
 1373 0051 02       		.byte	0x2
 1374 0052 36       		.byte	0x36
 1375 0053 57000000 		.4byte	0x57
 1376 0057 02       		.uleb128 0x2
 1377 0058 02       		.byte	0x2
 1378 0059 07       		.byte	0x7
 1379 005a 45030000 		.4byte	.LASF6
 1380 005e 03       		.uleb128 0x3
 1381 005f 7E030000 		.4byte	.LASF7
 1382 0063 02       		.byte	0x2
 1383 0064 4F       		.byte	0x4f
 1384 0065 69000000 		.4byte	0x69
 1385 0069 02       		.uleb128 0x2
 1386 006a 04       		.byte	0x4
 1387 006b 05       		.byte	0x5
 1388 006c FE010000 		.4byte	.LASF8
 1389 0070 03       		.uleb128 0x3
 1390 0071 E1020000 		.4byte	.LASF9
 1391 0075 02       		.byte	0x2
 1392 0076 50       		.byte	0x50
 1393 0077 7B000000 		.4byte	0x7b
 1394 007b 02       		.uleb128 0x2
 1395 007c 04       		.byte	0x4
 1396 007d 07       		.byte	0x7
 1397 007e 1A030000 		.4byte	.LASF10
 1398 0082 02       		.uleb128 0x2
 1399 0083 08       		.byte	0x8
 1400 0084 05       		.byte	0x5
 1401 0085 C0010000 		.4byte	.LASF11
 1402 0089 02       		.uleb128 0x2
 1403 008a 08       		.byte	0x8
 1404 008b 07       		.byte	0x7
 1405 008c CA020000 		.4byte	.LASF12
 1406 0090 04       		.uleb128 0x4
 1407 0091 04       		.byte	0x4
 1408 0092 05       		.byte	0x5
 1409 0093 696E7400 		.ascii	"int\000"
 1410 0097 02       		.uleb128 0x2
 1411 0098 04       		.byte	0x4
 1412 0099 07       		.byte	0x7
 1413 009a 73000000 		.4byte	.LASF13
 1414 009e 05       		.uleb128 0x5
 1415 009f 70000000 		.4byte	0x70
 1416 00a3 05       		.uleb128 0x5
 1417 00a4 4C000000 		.4byte	0x4c
 1418 00a8 05       		.uleb128 0x5
 1419 00a9 5E000000 		.4byte	0x5e
 1420 00ad 06       		.uleb128 0x6
 1421 00ae 01       		.byte	0x1
 1422 00af 03       		.byte	0x3
 1423 00b0 1E01     		.2byte	0x11e
ARM GAS  C:\Users\Kevin\AppData\Local\Temp\cc2AQj48.s 			page 51


 1424 00b2 C3000000 		.4byte	0xc3
 1425 00b6 07       		.uleb128 0x7
 1426 00b7 CA040000 		.4byte	.LASF14
 1427 00bb 00       		.sleb128 0
 1428 00bc 08       		.uleb128 0x8
 1429 00bd 53455400 		.ascii	"SET\000"
 1430 00c1 01       		.sleb128 1
 1431 00c2 00       		.byte	0
 1432 00c3 09       		.uleb128 0x9
 1433 00c4 C6050000 		.4byte	.LASF15
 1434 00c8 03       		.byte	0x3
 1435 00c9 1E01     		.2byte	0x11e
 1436 00cb AD000000 		.4byte	0xad
 1437 00cf 09       		.uleb128 0x9
 1438 00d0 F0010000 		.4byte	.LASF16
 1439 00d4 03       		.byte	0x3
 1440 00d5 1E01     		.2byte	0x11e
 1441 00d7 AD000000 		.4byte	0xad
 1442 00db 06       		.uleb128 0x6
 1443 00dc 01       		.byte	0x1
 1444 00dd 03       		.byte	0x3
 1445 00de 2001     		.2byte	0x120
 1446 00e0 F1000000 		.4byte	0xf1
 1447 00e4 07       		.uleb128 0x7
 1448 00e5 76030000 		.4byte	.LASF17
 1449 00e9 00       		.sleb128 0
 1450 00ea 07       		.uleb128 0x7
 1451 00eb D1050000 		.4byte	.LASF18
 1452 00ef 01       		.sleb128 1
 1453 00f0 00       		.byte	0
 1454 00f1 09       		.uleb128 0x9
 1455 00f2 61040000 		.4byte	.LASF19
 1456 00f6 03       		.byte	0x3
 1457 00f7 2001     		.2byte	0x120
 1458 00f9 DB000000 		.4byte	0xdb
 1459 00fd 06       		.uleb128 0x6
 1460 00fe 01       		.byte	0x1
 1461 00ff 03       		.byte	0x3
 1462 0100 2301     		.2byte	0x123
 1463 0102 13010000 		.4byte	0x113
 1464 0106 07       		.uleb128 0x7
 1465 0107 42020000 		.4byte	.LASF20
 1466 010b 00       		.sleb128 0
 1467 010c 07       		.uleb128 0x7
 1468 010d 3D030000 		.4byte	.LASF21
 1469 0111 01       		.sleb128 1
 1470 0112 00       		.byte	0
 1471 0113 09       		.uleb128 0x9
 1472 0114 07020000 		.4byte	.LASF22
 1473 0118 03       		.byte	0x3
 1474 0119 2301     		.2byte	0x123
 1475 011b FD000000 		.4byte	0xfd
 1476 011f 0A       		.uleb128 0xa
 1477 0120 24       		.byte	0x24
 1478 0121 03       		.byte	0x3
 1479 0122 AE02     		.2byte	0x2ae
 1480 0124 36020000 		.4byte	0x236
ARM GAS  C:\Users\Kevin\AppData\Local\Temp\cc2AQj48.s 			page 52


 1481 0128 0B       		.uleb128 0xb
 1482 0129 43523100 		.ascii	"CR1\000"
 1483 012d 03       		.byte	0x3
 1484 012e B002     		.2byte	0x2b0
 1485 0130 A3000000 		.4byte	0xa3
 1486 0134 02       		.byte	0x2
 1487 0135 23       		.byte	0x23
 1488 0136 00       		.uleb128 0
 1489 0137 0C       		.uleb128 0xc
 1490 0138 E7030000 		.4byte	.LASF23
 1491 013c 03       		.byte	0x3
 1492 013d B102     		.2byte	0x2b1
 1493 013f 4C000000 		.4byte	0x4c
 1494 0143 02       		.byte	0x2
 1495 0144 23       		.byte	0x23
 1496 0145 02       		.uleb128 0x2
 1497 0146 0B       		.uleb128 0xb
 1498 0147 43523200 		.ascii	"CR2\000"
 1499 014b 03       		.byte	0x3
 1500 014c B202     		.2byte	0x2b2
 1501 014e A3000000 		.4byte	0xa3
 1502 0152 02       		.byte	0x2
 1503 0153 23       		.byte	0x23
 1504 0154 04       		.uleb128 0x4
 1505 0155 0C       		.uleb128 0xc
 1506 0156 F1030000 		.4byte	.LASF24
 1507 015a 03       		.byte	0x3
 1508 015b B302     		.2byte	0x2b3
 1509 015d 4C000000 		.4byte	0x4c
 1510 0161 02       		.byte	0x2
 1511 0162 23       		.byte	0x23
 1512 0163 06       		.uleb128 0x6
 1513 0164 0C       		.uleb128 0xc
 1514 0165 11000000 		.4byte	.LASF25
 1515 0169 03       		.byte	0x3
 1516 016a B402     		.2byte	0x2b4
 1517 016c A3000000 		.4byte	0xa3
 1518 0170 02       		.byte	0x2
 1519 0171 23       		.byte	0x23
 1520 0172 08       		.uleb128 0x8
 1521 0173 0C       		.uleb128 0xc
 1522 0174 FB030000 		.4byte	.LASF26
 1523 0178 03       		.byte	0x3
 1524 0179 B502     		.2byte	0x2b5
 1525 017b 4C000000 		.4byte	0x4c
 1526 017f 02       		.byte	0x2
 1527 0180 23       		.byte	0x23
 1528 0181 0A       		.uleb128 0xa
 1529 0182 0C       		.uleb128 0xc
 1530 0183 F9010000 		.4byte	.LASF27
 1531 0187 03       		.byte	0x3
 1532 0188 B602     		.2byte	0x2b6
 1533 018a A3000000 		.4byte	0xa3
 1534 018e 02       		.byte	0x2
 1535 018f 23       		.byte	0x23
 1536 0190 0C       		.uleb128 0xc
 1537 0191 0C       		.uleb128 0xc
ARM GAS  C:\Users\Kevin\AppData\Local\Temp\cc2AQj48.s 			page 53


 1538 0192 05040000 		.4byte	.LASF28
 1539 0196 03       		.byte	0x3
 1540 0197 B702     		.2byte	0x2b7
 1541 0199 4C000000 		.4byte	0x4c
 1542 019d 02       		.byte	0x2
 1543 019e 23       		.byte	0x23
 1544 019f 0E       		.uleb128 0xe
 1545 01a0 0B       		.uleb128 0xb
 1546 01a1 445200   		.ascii	"DR\000"
 1547 01a4 03       		.byte	0x3
 1548 01a5 B802     		.2byte	0x2b8
 1549 01a7 A3000000 		.4byte	0xa3
 1550 01ab 02       		.byte	0x2
 1551 01ac 23       		.byte	0x23
 1552 01ad 10       		.uleb128 0x10
 1553 01ae 0C       		.uleb128 0xc
 1554 01af 0F040000 		.4byte	.LASF29
 1555 01b3 03       		.byte	0x3
 1556 01b4 B902     		.2byte	0x2b9
 1557 01b6 4C000000 		.4byte	0x4c
 1558 01ba 02       		.byte	0x2
 1559 01bb 23       		.byte	0x23
 1560 01bc 12       		.uleb128 0x12
 1561 01bd 0B       		.uleb128 0xb
 1562 01be 53523100 		.ascii	"SR1\000"
 1563 01c2 03       		.byte	0x3
 1564 01c3 BA02     		.2byte	0x2ba
 1565 01c5 A3000000 		.4byte	0xa3
 1566 01c9 02       		.byte	0x2
 1567 01ca 23       		.byte	0x23
 1568 01cb 14       		.uleb128 0x14
 1569 01cc 0C       		.uleb128 0xc
 1570 01cd 19040000 		.4byte	.LASF30
 1571 01d1 03       		.byte	0x3
 1572 01d2 BB02     		.2byte	0x2bb
 1573 01d4 4C000000 		.4byte	0x4c
 1574 01d8 02       		.byte	0x2
 1575 01d9 23       		.byte	0x23
 1576 01da 16       		.uleb128 0x16
 1577 01db 0B       		.uleb128 0xb
 1578 01dc 53523200 		.ascii	"SR2\000"
 1579 01e0 03       		.byte	0x3
 1580 01e1 BC02     		.2byte	0x2bc
 1581 01e3 A3000000 		.4byte	0xa3
 1582 01e7 02       		.byte	0x2
 1583 01e8 23       		.byte	0x23
 1584 01e9 18       		.uleb128 0x18
 1585 01ea 0C       		.uleb128 0xc
 1586 01eb 23040000 		.4byte	.LASF31
 1587 01ef 03       		.byte	0x3
 1588 01f0 BD02     		.2byte	0x2bd
 1589 01f2 4C000000 		.4byte	0x4c
 1590 01f6 02       		.byte	0x2
 1591 01f7 23       		.byte	0x23
 1592 01f8 1A       		.uleb128 0x1a
 1593 01f9 0B       		.uleb128 0xb
 1594 01fa 43435200 		.ascii	"CCR\000"
ARM GAS  C:\Users\Kevin\AppData\Local\Temp\cc2AQj48.s 			page 54


 1595 01fe 03       		.byte	0x3
 1596 01ff BE02     		.2byte	0x2be
 1597 0201 A3000000 		.4byte	0xa3
 1598 0205 02       		.byte	0x2
 1599 0206 23       		.byte	0x23
 1600 0207 1C       		.uleb128 0x1c
 1601 0208 0C       		.uleb128 0xc
 1602 0209 2D040000 		.4byte	.LASF32
 1603 020d 03       		.byte	0x3
 1604 020e BF02     		.2byte	0x2bf
 1605 0210 4C000000 		.4byte	0x4c
 1606 0214 02       		.byte	0x2
 1607 0215 23       		.byte	0x23
 1608 0216 1E       		.uleb128 0x1e
 1609 0217 0C       		.uleb128 0xc
 1610 0218 6C050000 		.4byte	.LASF33
 1611 021c 03       		.byte	0x3
 1612 021d C002     		.2byte	0x2c0
 1613 021f A3000000 		.4byte	0xa3
 1614 0223 02       		.byte	0x2
 1615 0224 23       		.byte	0x23
 1616 0225 20       		.uleb128 0x20
 1617 0226 0C       		.uleb128 0xc
 1618 0227 37040000 		.4byte	.LASF34
 1619 022b 03       		.byte	0x3
 1620 022c C102     		.2byte	0x2c1
 1621 022e 4C000000 		.4byte	0x4c
 1622 0232 02       		.byte	0x2
 1623 0233 23       		.byte	0x23
 1624 0234 22       		.uleb128 0x22
 1625 0235 00       		.byte	0
 1626 0236 09       		.uleb128 0x9
 1627 0237 4D020000 		.4byte	.LASF35
 1628 023b 03       		.byte	0x3
 1629 023c C202     		.2byte	0x2c2
 1630 023e 1F010000 		.4byte	0x11f
 1631 0242 0D       		.uleb128 0xd
 1632 0243 10       		.byte	0x10
 1633 0244 04       		.byte	0x4
 1634 0245 30       		.byte	0x30
 1635 0246 83020000 		.4byte	0x283
 1636 024a 0E       		.uleb128 0xe
 1637 024b A5030000 		.4byte	.LASF36
 1638 024f 04       		.byte	0x4
 1639 0250 32       		.byte	0x32
 1640 0251 70000000 		.4byte	0x70
 1641 0255 02       		.byte	0x2
 1642 0256 23       		.byte	0x23
 1643 0257 00       		.uleb128 0
 1644 0258 0E       		.uleb128 0xe
 1645 0259 7C000000 		.4byte	.LASF37
 1646 025d 04       		.byte	0x4
 1647 025e 33       		.byte	0x33
 1648 025f 70000000 		.4byte	0x70
 1649 0263 02       		.byte	0x2
 1650 0264 23       		.byte	0x23
 1651 0265 04       		.uleb128 0x4
ARM GAS  C:\Users\Kevin\AppData\Local\Temp\cc2AQj48.s 			page 55


 1652 0266 0E       		.uleb128 0xe
 1653 0267 8D040000 		.4byte	.LASF38
 1654 026b 04       		.byte	0x4
 1655 026c 34       		.byte	0x34
 1656 026d 70000000 		.4byte	0x70
 1657 0271 02       		.byte	0x2
 1658 0272 23       		.byte	0x23
 1659 0273 08       		.uleb128 0x8
 1660 0274 0E       		.uleb128 0xe
 1661 0275 A8040000 		.4byte	.LASF39
 1662 0279 04       		.byte	0x4
 1663 027a 35       		.byte	0x35
 1664 027b 70000000 		.4byte	0x70
 1665 027f 02       		.byte	0x2
 1666 0280 23       		.byte	0x23
 1667 0281 0C       		.uleb128 0xc
 1668 0282 00       		.byte	0
 1669 0283 03       		.uleb128 0x3
 1670 0284 FC000000 		.4byte	.LASF40
 1671 0288 04       		.byte	0x4
 1672 0289 36       		.byte	0x36
 1673 028a 42020000 		.4byte	0x242
 1674 028e 0D       		.uleb128 0xd
 1675 028f 10       		.byte	0x10
 1676 0290 05       		.byte	0x5
 1677 0291 36       		.byte	0x36
 1678 0292 EB020000 		.4byte	0x2eb
 1679 0296 0E       		.uleb128 0xe
 1680 0297 09050000 		.4byte	.LASF41
 1681 029b 05       		.byte	0x5
 1682 029c 38       		.byte	0x38
 1683 029d 70000000 		.4byte	0x70
 1684 02a1 02       		.byte	0x2
 1685 02a2 23       		.byte	0x23
 1686 02a3 00       		.uleb128 0
 1687 02a4 0E       		.uleb128 0xe
 1688 02a5 6B020000 		.4byte	.LASF42
 1689 02a9 05       		.byte	0x5
 1690 02aa 3B       		.byte	0x3b
 1691 02ab 4C000000 		.4byte	0x4c
 1692 02af 02       		.byte	0x2
 1693 02b0 23       		.byte	0x23
 1694 02b1 04       		.uleb128 0x4
 1695 02b2 0E       		.uleb128 0xe
 1696 02b3 72050000 		.4byte	.LASF43
 1697 02b7 05       		.byte	0x5
 1698 02b8 3E       		.byte	0x3e
 1699 02b9 4C000000 		.4byte	0x4c
 1700 02bd 02       		.byte	0x2
 1701 02be 23       		.byte	0x23
 1702 02bf 06       		.uleb128 0x6
 1703 02c0 0E       		.uleb128 0xe
 1704 02c1 B6030000 		.4byte	.LASF44
 1705 02c5 05       		.byte	0x5
 1706 02c6 41       		.byte	0x41
 1707 02c7 4C000000 		.4byte	0x4c
 1708 02cb 02       		.byte	0x2
ARM GAS  C:\Users\Kevin\AppData\Local\Temp\cc2AQj48.s 			page 56


 1709 02cc 23       		.byte	0x23
 1710 02cd 08       		.uleb128 0x8
 1711 02ce 0E       		.uleb128 0xe
 1712 02cf DF030000 		.4byte	.LASF45
 1713 02d3 05       		.byte	0x5
 1714 02d4 44       		.byte	0x44
 1715 02d5 4C000000 		.4byte	0x4c
 1716 02d9 02       		.byte	0x2
 1717 02da 23       		.byte	0x23
 1718 02db 0A       		.uleb128 0xa
 1719 02dc 0E       		.uleb128 0xe
 1720 02dd 8B000000 		.4byte	.LASF46
 1721 02e1 05       		.byte	0x5
 1722 02e2 47       		.byte	0x47
 1723 02e3 4C000000 		.4byte	0x4c
 1724 02e7 02       		.byte	0x2
 1725 02e8 23       		.byte	0x23
 1726 02e9 0C       		.uleb128 0xc
 1727 02ea 00       		.byte	0
 1728 02eb 03       		.uleb128 0x3
 1729 02ec 0E010000 		.4byte	.LASF47
 1730 02f0 05       		.byte	0x5
 1731 02f1 49       		.byte	0x49
 1732 02f2 8E020000 		.4byte	0x28e
 1733 02f6 0F       		.uleb128 0xf
 1734 02f7 01       		.byte	0x1
 1735 02f8 9D040000 		.4byte	.LASF48
 1736 02fc 01       		.byte	0x1
 1737 02fd 8C       		.byte	0x8c
 1738 02fe 01       		.byte	0x1
 1739 02ff 00000000 		.4byte	.LFB110
 1740 0303 5C000000 		.4byte	.LFE110
 1741 0307 00000000 		.4byte	.LLST0
 1742 030b 01       		.byte	0x1
 1743 030c 7E030000 		.4byte	0x37e
 1744 0310 10       		.uleb128 0x10
 1745 0311 C1000000 		.4byte	.LASF50
 1746 0315 01       		.byte	0x1
 1747 0316 8C       		.byte	0x8c
 1748 0317 7E030000 		.4byte	0x37e
 1749 031b 20000000 		.4byte	.LLST1
 1750 031f 11       		.uleb128 0x11
 1751 0320 12000000 		.4byte	.LVL2
 1752 0324 F40B0000 		.4byte	0xbf4
 1753 0328 39030000 		.4byte	0x339
 1754 032c 12       		.uleb128 0x12
 1755 032d 01       		.byte	0x1
 1756 032e 51       		.byte	0x51
 1757 032f 01       		.byte	0x1
 1758 0330 31       		.byte	0x31
 1759 0331 12       		.uleb128 0x12
 1760 0332 01       		.byte	0x1
 1761 0333 50       		.byte	0x50
 1762 0334 03       		.byte	0x3
 1763 0335 40       		.byte	0x40
 1764 0336 41       		.byte	0x41
 1765 0337 24       		.byte	0x24
ARM GAS  C:\Users\Kevin\AppData\Local\Temp\cc2AQj48.s 			page 57


 1766 0338 00       		.byte	0
 1767 0339 11       		.uleb128 0x11
 1768 033a 28000000 		.4byte	.LVL5
 1769 033e F40B0000 		.4byte	0xbf4
 1770 0342 53030000 		.4byte	0x353
 1771 0346 12       		.uleb128 0x12
 1772 0347 01       		.byte	0x1
 1773 0348 51       		.byte	0x51
 1774 0349 01       		.byte	0x1
 1775 034a 31       		.byte	0x31
 1776 034b 12       		.uleb128 0x12
 1777 034c 01       		.byte	0x1
 1778 034d 50       		.byte	0x50
 1779 034e 03       		.byte	0x3
 1780 034f 40       		.byte	0x40
 1781 0350 42       		.byte	0x42
 1782 0351 24       		.byte	0x24
 1783 0352 00       		.byte	0
 1784 0353 11       		.uleb128 0x11
 1785 0354 3E000000 		.4byte	.LVL8
 1786 0358 F40B0000 		.4byte	0xbf4
 1787 035c 6D030000 		.4byte	0x36d
 1788 0360 12       		.uleb128 0x12
 1789 0361 01       		.byte	0x1
 1790 0362 51       		.byte	0x51
 1791 0363 01       		.byte	0x1
 1792 0364 31       		.byte	0x31
 1793 0365 12       		.uleb128 0x12
 1794 0366 01       		.byte	0x1
 1795 0367 50       		.byte	0x50
 1796 0368 03       		.byte	0x3
 1797 0369 40       		.byte	0x40
 1798 036a 43       		.byte	0x43
 1799 036b 24       		.byte	0x24
 1800 036c 00       		.byte	0
 1801 036d 13       		.uleb128 0x13
 1802 036e 4C000000 		.4byte	.LVL9
 1803 0372 01       		.byte	0x1
 1804 0373 F40B0000 		.4byte	0xbf4
 1805 0377 12       		.uleb128 0x12
 1806 0378 01       		.byte	0x1
 1807 0379 51       		.byte	0x51
 1808 037a 01       		.byte	0x1
 1809 037b 30       		.byte	0x30
 1810 037c 00       		.byte	0
 1811 037d 00       		.byte	0
 1812 037e 14       		.uleb128 0x14
 1813 037f 04       		.byte	0x4
 1814 0380 36020000 		.4byte	0x236
 1815 0384 0F       		.uleb128 0xf
 1816 0385 01       		.byte	0x1
 1817 0386 9A050000 		.4byte	.LASF49
 1818 038a 01       		.byte	0x1
 1819 038b B7       		.byte	0xb7
 1820 038c 01       		.byte	0x1
 1821 038d 5C000000 		.4byte	.LFB111
 1822 0391 24010000 		.4byte	.LFE111
ARM GAS  C:\Users\Kevin\AppData\Local\Temp\cc2AQj48.s 			page 58


 1823 0395 7E000000 		.4byte	.LLST2
 1824 0399 01       		.byte	0x1
 1825 039a 17040000 		.4byte	0x417
 1826 039e 10       		.uleb128 0x10
 1827 039f C1000000 		.4byte	.LASF50
 1828 03a3 01       		.byte	0x1
 1829 03a4 B7       		.byte	0xb7
 1830 03a5 7E030000 		.4byte	0x37e
 1831 03a9 AA000000 		.4byte	.LLST3
 1832 03ad 10       		.uleb128 0x10
 1833 03ae E6040000 		.4byte	.LASF51
 1834 03b2 01       		.byte	0x1
 1835 03b3 B7       		.byte	0xb7
 1836 03b4 17040000 		.4byte	0x417
 1837 03b8 C8000000 		.4byte	.LLST4
 1838 03bc 15       		.uleb128 0x15
 1839 03bd 55000000 		.4byte	.LASF52
 1840 03c1 01       		.byte	0x1
 1841 03c2 B9       		.byte	0xb9
 1842 03c3 4C000000 		.4byte	0x4c
 1843 03c7 E6000000 		.4byte	.LLST5
 1844 03cb 15       		.uleb128 0x15
 1845 03cc 57040000 		.4byte	.LASF53
 1846 03d0 01       		.byte	0x1
 1847 03d1 B9       		.byte	0xb9
 1848 03d2 4C000000 		.4byte	0x4c
 1849 03d6 A7010000 		.4byte	.LLST6
 1850 03da 15       		.uleb128 0x15
 1851 03db 16000000 		.4byte	.LASF54
 1852 03df 01       		.byte	0x1
 1853 03e0 BA       		.byte	0xba
 1854 03e1 4C000000 		.4byte	0x4c
 1855 03e5 04020000 		.4byte	.LLST7
 1856 03e9 15       		.uleb128 0x15
 1857 03ea 8B010000 		.4byte	.LASF55
 1858 03ee 01       		.byte	0x1
 1859 03ef BB       		.byte	0xbb
 1860 03f0 70000000 		.4byte	0x70
 1861 03f4 BE020000 		.4byte	.LLST8
 1862 03f8 16       		.uleb128 0x16
 1863 03f9 C6000000 		.4byte	.LASF56
 1864 03fd 01       		.byte	0x1
 1865 03fe BC       		.byte	0xbc
 1866 03ff 83020000 		.4byte	0x283
 1867 0403 02       		.byte	0x2
 1868 0404 91       		.byte	0x91
 1869 0405 58       		.sleb128 -40
 1870 0406 17       		.uleb128 0x17
 1871 0407 6C000000 		.4byte	.LVL13
 1872 040b 0E0C0000 		.4byte	0xc0e
 1873 040f 12       		.uleb128 0x12
 1874 0410 01       		.byte	0x1
 1875 0411 50       		.byte	0x50
 1876 0412 02       		.byte	0x2
 1877 0413 7D       		.byte	0x7d
 1878 0414 00       		.sleb128 0
 1879 0415 00       		.byte	0
ARM GAS  C:\Users\Kevin\AppData\Local\Temp\cc2AQj48.s 			page 59


 1880 0416 00       		.byte	0
 1881 0417 14       		.uleb128 0x14
 1882 0418 04       		.byte	0x4
 1883 0419 EB020000 		.4byte	0x2eb
 1884 041d 18       		.uleb128 0x18
 1885 041e 01       		.byte	0x1
 1886 041f 7E040000 		.4byte	.LASF57
 1887 0423 01       		.byte	0x1
 1888 0424 2401     		.2byte	0x124
 1889 0426 01       		.byte	0x1
 1890 0427 24010000 		.4byte	.LFB112
 1891 042b 40010000 		.4byte	.LFE112
 1892 042f 02       		.byte	0x2
 1893 0430 7D       		.byte	0x7d
 1894 0431 00       		.sleb128 0
 1895 0432 01       		.byte	0x1
 1896 0433 46040000 		.4byte	0x446
 1897 0437 19       		.uleb128 0x19
 1898 0438 E6040000 		.4byte	.LASF51
 1899 043c 01       		.byte	0x1
 1900 043d 2401     		.2byte	0x124
 1901 043f 17040000 		.4byte	0x417
 1902 0443 01       		.byte	0x1
 1903 0444 50       		.byte	0x50
 1904 0445 00       		.byte	0
 1905 0446 18       		.uleb128 0x18
 1906 0447 01       		.byte	0x1
 1907 0448 A3000000 		.4byte	.LASF58
 1908 044c 01       		.byte	0x1
 1909 044d 3C01     		.2byte	0x13c
 1910 044f 01       		.byte	0x1
 1911 0450 40010000 		.4byte	.LFB113
 1912 0454 58010000 		.4byte	.LFE113
 1913 0458 02       		.byte	0x2
 1914 0459 7D       		.byte	0x7d
 1915 045a 00       		.sleb128 0
 1916 045b 01       		.byte	0x1
 1917 045c 7D040000 		.4byte	0x47d
 1918 0460 19       		.uleb128 0x19
 1919 0461 C1000000 		.4byte	.LASF50
 1920 0465 01       		.byte	0x1
 1921 0466 3C01     		.2byte	0x13c
 1922 0468 7E030000 		.4byte	0x37e
 1923 046c 01       		.byte	0x1
 1924 046d 50       		.byte	0x50
 1925 046e 19       		.uleb128 0x19
 1926 046f 74020000 		.4byte	.LASF59
 1927 0473 01       		.byte	0x1
 1928 0474 3C01     		.2byte	0x13c
 1929 0476 F1000000 		.4byte	0xf1
 1930 047a 01       		.byte	0x1
 1931 047b 51       		.byte	0x51
 1932 047c 00       		.byte	0
 1933 047d 18       		.uleb128 0x18
 1934 047e 01       		.byte	0x1
 1935 047f 93030000 		.4byte	.LASF60
 1936 0483 01       		.byte	0x1
ARM GAS  C:\Users\Kevin\AppData\Local\Temp\cc2AQj48.s 			page 60


 1937 0484 5401     		.2byte	0x154
 1938 0486 01       		.byte	0x1
 1939 0487 58010000 		.4byte	.LFB114
 1940 048b 70010000 		.4byte	.LFE114
 1941 048f 02       		.byte	0x2
 1942 0490 7D       		.byte	0x7d
 1943 0491 00       		.sleb128 0
 1944 0492 01       		.byte	0x1
 1945 0493 B4040000 		.4byte	0x4b4
 1946 0497 19       		.uleb128 0x19
 1947 0498 C1000000 		.4byte	.LASF50
 1948 049c 01       		.byte	0x1
 1949 049d 5401     		.2byte	0x154
 1950 049f 7E030000 		.4byte	0x37e
 1951 04a3 01       		.byte	0x1
 1952 04a4 50       		.byte	0x50
 1953 04a5 19       		.uleb128 0x19
 1954 04a6 74020000 		.4byte	.LASF59
 1955 04aa 01       		.byte	0x1
 1956 04ab 5401     		.2byte	0x154
 1957 04ad F1000000 		.4byte	0xf1
 1958 04b1 01       		.byte	0x1
 1959 04b2 51       		.byte	0x51
 1960 04b3 00       		.byte	0
 1961 04b4 18       		.uleb128 0x18
 1962 04b5 01       		.byte	0x1
 1963 04b6 2C030000 		.4byte	.LASF61
 1964 04ba 01       		.byte	0x1
 1965 04bb 6C01     		.2byte	0x16c
 1966 04bd 01       		.byte	0x1
 1967 04be 70010000 		.4byte	.LFB115
 1968 04c2 88010000 		.4byte	.LFE115
 1969 04c6 02       		.byte	0x2
 1970 04c7 7D       		.byte	0x7d
 1971 04c8 00       		.sleb128 0
 1972 04c9 01       		.byte	0x1
 1973 04ca EB040000 		.4byte	0x4eb
 1974 04ce 19       		.uleb128 0x19
 1975 04cf C1000000 		.4byte	.LASF50
 1976 04d3 01       		.byte	0x1
 1977 04d4 6C01     		.2byte	0x16c
 1978 04d6 7E030000 		.4byte	0x37e
 1979 04da 01       		.byte	0x1
 1980 04db 50       		.byte	0x50
 1981 04dc 19       		.uleb128 0x19
 1982 04dd 74020000 		.4byte	.LASF59
 1983 04e1 01       		.byte	0x1
 1984 04e2 6C01     		.2byte	0x16c
 1985 04e4 F1000000 		.4byte	0xf1
 1986 04e8 01       		.byte	0x1
 1987 04e9 51       		.byte	0x51
 1988 04ea 00       		.byte	0
 1989 04eb 18       		.uleb128 0x18
 1990 04ec 01       		.byte	0x1
 1991 04ed A3050000 		.4byte	.LASF62
 1992 04f1 01       		.byte	0x1
 1993 04f2 8801     		.2byte	0x188
ARM GAS  C:\Users\Kevin\AppData\Local\Temp\cc2AQj48.s 			page 61


 1994 04f4 01       		.byte	0x1
 1995 04f5 88010000 		.4byte	.LFB116
 1996 04f9 98010000 		.4byte	.LFE116
 1997 04fd 02       		.byte	0x2
 1998 04fe 7D       		.byte	0x7d
 1999 04ff 00       		.sleb128 0
 2000 0500 01       		.byte	0x1
 2001 0501 32050000 		.4byte	0x532
 2002 0505 19       		.uleb128 0x19
 2003 0506 C1000000 		.4byte	.LASF50
 2004 050a 01       		.byte	0x1
 2005 050b 8801     		.2byte	0x188
 2006 050d 7E030000 		.4byte	0x37e
 2007 0511 01       		.byte	0x1
 2008 0512 50       		.byte	0x50
 2009 0513 1A       		.uleb128 0x1a
 2010 0514 D1000000 		.4byte	.LASF63
 2011 0518 01       		.byte	0x1
 2012 0519 8801     		.2byte	0x188
 2013 051b 33000000 		.4byte	0x33
 2014 051f ED020000 		.4byte	.LLST9
 2015 0523 19       		.uleb128 0x19
 2016 0524 D1030000 		.4byte	.LASF64
 2017 0528 01       		.byte	0x1
 2018 0529 8801     		.2byte	0x188
 2019 052b 33000000 		.4byte	0x33
 2020 052f 01       		.byte	0x1
 2021 0530 52       		.byte	0x52
 2022 0531 00       		.byte	0
 2023 0532 18       		.uleb128 0x18
 2024 0533 01       		.byte	0x1
 2025 0534 AB000000 		.4byte	.LASF65
 2026 0538 01       		.byte	0x1
 2027 0539 A301     		.2byte	0x1a3
 2028 053b 01       		.byte	0x1
 2029 053c 98010000 		.4byte	.LFB117
 2030 0540 B0010000 		.4byte	.LFE117
 2031 0544 02       		.byte	0x2
 2032 0545 7D       		.byte	0x7d
 2033 0546 00       		.sleb128 0
 2034 0547 01       		.byte	0x1
 2035 0548 69050000 		.4byte	0x569
 2036 054c 19       		.uleb128 0x19
 2037 054d C1000000 		.4byte	.LASF50
 2038 0551 01       		.byte	0x1
 2039 0552 A301     		.2byte	0x1a3
 2040 0554 7E030000 		.4byte	0x37e
 2041 0558 01       		.byte	0x1
 2042 0559 50       		.byte	0x50
 2043 055a 19       		.uleb128 0x19
 2044 055b 74020000 		.4byte	.LASF59
 2045 055f 01       		.byte	0x1
 2046 0560 A301     		.2byte	0x1a3
 2047 0562 F1000000 		.4byte	0xf1
 2048 0566 01       		.byte	0x1
 2049 0567 51       		.byte	0x51
 2050 0568 00       		.byte	0
ARM GAS  C:\Users\Kevin\AppData\Local\Temp\cc2AQj48.s 			page 62


 2051 0569 18       		.uleb128 0x18
 2052 056a 01       		.byte	0x1
 2053 056b D0040000 		.4byte	.LASF66
 2054 056f 01       		.byte	0x1
 2055 0570 BA01     		.2byte	0x1ba
 2056 0572 01       		.byte	0x1
 2057 0573 B0010000 		.4byte	.LFB118
 2058 0577 C2010000 		.4byte	.LFE118
 2059 057b 02       		.byte	0x2
 2060 057c 7D       		.byte	0x7d
 2061 057d 00       		.sleb128 0
 2062 057e 01       		.byte	0x1
 2063 057f B2050000 		.4byte	0x5b2
 2064 0583 19       		.uleb128 0x19
 2065 0584 C1000000 		.4byte	.LASF50
 2066 0588 01       		.byte	0x1
 2067 0589 BA01     		.2byte	0x1ba
 2068 058b 7E030000 		.4byte	0x37e
 2069 058f 01       		.byte	0x1
 2070 0590 50       		.byte	0x50
 2071 0591 1A       		.uleb128 0x1a
 2072 0592 D1000000 		.4byte	.LASF63
 2073 0596 01       		.byte	0x1
 2074 0597 BA01     		.2byte	0x1ba
 2075 0599 33000000 		.4byte	0x33
 2076 059d 0B030000 		.4byte	.LLST10
 2077 05a1 1B       		.uleb128 0x1b
 2078 05a2 55000000 		.4byte	.LASF52
 2079 05a6 01       		.byte	0x1
 2080 05a7 BC01     		.2byte	0x1bc
 2081 05a9 4C000000 		.4byte	0x4c
 2082 05ad 2C030000 		.4byte	.LLST11
 2083 05b1 00       		.byte	0
 2084 05b2 18       		.uleb128 0x18
 2085 05b3 01       		.byte	0x1
 2086 05b4 13020000 		.4byte	.LASF67
 2087 05b8 01       		.byte	0x1
 2088 05b9 D501     		.2byte	0x1d5
 2089 05bb 01       		.byte	0x1
 2090 05bc C2010000 		.4byte	.LFB119
 2091 05c0 DA010000 		.4byte	.LFE119
 2092 05c4 02       		.byte	0x2
 2093 05c5 7D       		.byte	0x7d
 2094 05c6 00       		.sleb128 0
 2095 05c7 01       		.byte	0x1
 2096 05c8 E9050000 		.4byte	0x5e9
 2097 05cc 19       		.uleb128 0x19
 2098 05cd C1000000 		.4byte	.LASF50
 2099 05d1 01       		.byte	0x1
 2100 05d2 D501     		.2byte	0x1d5
 2101 05d4 7E030000 		.4byte	0x37e
 2102 05d8 01       		.byte	0x1
 2103 05d9 50       		.byte	0x50
 2104 05da 19       		.uleb128 0x19
 2105 05db 74020000 		.4byte	.LASF59
 2106 05df 01       		.byte	0x1
 2107 05e0 D501     		.2byte	0x1d5
ARM GAS  C:\Users\Kevin\AppData\Local\Temp\cc2AQj48.s 			page 63


 2108 05e2 F1000000 		.4byte	0xf1
 2109 05e6 01       		.byte	0x1
 2110 05e7 51       		.byte	0x51
 2111 05e8 00       		.byte	0
 2112 05e9 18       		.uleb128 0x18
 2113 05ea 01       		.byte	0x1
 2114 05eb 26020000 		.4byte	.LASF68
 2115 05ef 01       		.byte	0x1
 2116 05f0 ED01     		.2byte	0x1ed
 2117 05f2 01       		.byte	0x1
 2118 05f3 DA010000 		.4byte	.LFB120
 2119 05f7 F2010000 		.4byte	.LFE120
 2120 05fb 02       		.byte	0x2
 2121 05fc 7D       		.byte	0x7d
 2122 05fd 00       		.sleb128 0
 2123 05fe 01       		.byte	0x1
 2124 05ff 20060000 		.4byte	0x620
 2125 0603 19       		.uleb128 0x19
 2126 0604 C1000000 		.4byte	.LASF50
 2127 0608 01       		.byte	0x1
 2128 0609 ED01     		.2byte	0x1ed
 2129 060b 7E030000 		.4byte	0x37e
 2130 060f 01       		.byte	0x1
 2131 0610 50       		.byte	0x50
 2132 0611 19       		.uleb128 0x19
 2133 0612 74020000 		.4byte	.LASF59
 2134 0616 01       		.byte	0x1
 2135 0617 ED01     		.2byte	0x1ed
 2136 0619 F1000000 		.4byte	0xf1
 2137 061d 01       		.byte	0x1
 2138 061e 51       		.byte	0x51
 2139 061f 00       		.byte	0
 2140 0620 18       		.uleb128 0x18
 2141 0621 01       		.byte	0x1
 2142 0622 2F000000 		.4byte	.LASF69
 2143 0626 01       		.byte	0x1
 2144 0627 0702     		.2byte	0x207
 2145 0629 01       		.byte	0x1
 2146 062a F2010000 		.4byte	.LFB121
 2147 062e 08020000 		.4byte	.LFE121
 2148 0632 02       		.byte	0x2
 2149 0633 7D       		.byte	0x7d
 2150 0634 00       		.sleb128 0
 2151 0635 01       		.byte	0x1
 2152 0636 57060000 		.4byte	0x657
 2153 063a 19       		.uleb128 0x19
 2154 063b C1000000 		.4byte	.LASF50
 2155 063f 01       		.byte	0x1
 2156 0640 0702     		.2byte	0x207
 2157 0642 7E030000 		.4byte	0x37e
 2158 0646 01       		.byte	0x1
 2159 0647 50       		.byte	0x50
 2160 0648 19       		.uleb128 0x19
 2161 0649 74020000 		.4byte	.LASF59
 2162 064d 01       		.byte	0x1
 2163 064e 0702     		.2byte	0x207
 2164 0650 F1000000 		.4byte	0xf1
ARM GAS  C:\Users\Kevin\AppData\Local\Temp\cc2AQj48.s 			page 64


 2165 0654 01       		.byte	0x1
 2166 0655 51       		.byte	0x51
 2167 0656 00       		.byte	0
 2168 0657 18       		.uleb128 0x18
 2169 0658 01       		.byte	0x1
 2170 0659 F5040000 		.4byte	.LASF70
 2171 065d 01       		.byte	0x1
 2172 065e 1F02     		.2byte	0x21f
 2173 0660 01       		.byte	0x1
 2174 0661 08020000 		.4byte	.LFB122
 2175 0665 20020000 		.4byte	.LFE122
 2176 0669 02       		.byte	0x2
 2177 066a 7D       		.byte	0x7d
 2178 066b 00       		.sleb128 0
 2179 066c 01       		.byte	0x1
 2180 066d 8E060000 		.4byte	0x68e
 2181 0671 19       		.uleb128 0x19
 2182 0672 C1000000 		.4byte	.LASF50
 2183 0676 01       		.byte	0x1
 2184 0677 1F02     		.2byte	0x21f
 2185 0679 7E030000 		.4byte	0x37e
 2186 067d 01       		.byte	0x1
 2187 067e 50       		.byte	0x50
 2188 067f 19       		.uleb128 0x19
 2189 0680 74020000 		.4byte	.LASF59
 2190 0684 01       		.byte	0x1
 2191 0685 1F02     		.2byte	0x21f
 2192 0687 F1000000 		.4byte	0xf1
 2193 068b 01       		.byte	0x1
 2194 068c 51       		.byte	0x51
 2195 068d 00       		.byte	0
 2196 068e 18       		.uleb128 0x18
 2197 068f 01       		.byte	0x1
 2198 0690 A2020000 		.4byte	.LASF71
 2199 0694 01       		.byte	0x1
 2200 0695 3902     		.2byte	0x239
 2201 0697 01       		.byte	0x1
 2202 0698 20020000 		.4byte	.LFB123
 2203 069c 3C020000 		.4byte	.LFE123
 2204 06a0 02       		.byte	0x2
 2205 06a1 7D       		.byte	0x7d
 2206 06a2 00       		.sleb128 0
 2207 06a3 01       		.byte	0x1
 2208 06a4 C5060000 		.4byte	0x6c5
 2209 06a8 19       		.uleb128 0x19
 2210 06a9 C1000000 		.4byte	.LASF50
 2211 06ad 01       		.byte	0x1
 2212 06ae 3902     		.2byte	0x239
 2213 06b0 7E030000 		.4byte	0x37e
 2214 06b4 01       		.byte	0x1
 2215 06b5 50       		.byte	0x50
 2216 06b6 19       		.uleb128 0x19
 2217 06b7 72050000 		.4byte	.LASF43
 2218 06bb 01       		.byte	0x1
 2219 06bc 3902     		.2byte	0x239
 2220 06be 4C000000 		.4byte	0x4c
 2221 06c2 01       		.byte	0x1
ARM GAS  C:\Users\Kevin\AppData\Local\Temp\cc2AQj48.s 			page 65


 2222 06c3 51       		.byte	0x51
 2223 06c4 00       		.byte	0
 2224 06c5 18       		.uleb128 0x18
 2225 06c6 01       		.byte	0x1
 2226 06c7 5C000000 		.4byte	.LASF72
 2227 06cb 01       		.byte	0x1
 2228 06cc 5F02     		.2byte	0x25f
 2229 06ce 01       		.byte	0x1
 2230 06cf 3C020000 		.4byte	.LFB124
 2231 06d3 58020000 		.4byte	.LFE124
 2232 06d7 02       		.byte	0x2
 2233 06d8 7D       		.byte	0x7d
 2234 06d9 00       		.sleb128 0
 2235 06da 01       		.byte	0x1
 2236 06db FC060000 		.4byte	0x6fc
 2237 06df 19       		.uleb128 0x19
 2238 06e0 C1000000 		.4byte	.LASF50
 2239 06e4 01       		.byte	0x1
 2240 06e5 5F02     		.2byte	0x25f
 2241 06e7 7E030000 		.4byte	0x37e
 2242 06eb 01       		.byte	0x1
 2243 06ec 50       		.byte	0x50
 2244 06ed 19       		.uleb128 0x19
 2245 06ee 27010000 		.4byte	.LASF73
 2246 06f2 01       		.byte	0x1
 2247 06f3 5F02     		.2byte	0x25f
 2248 06f5 4C000000 		.4byte	0x4c
 2249 06f9 01       		.byte	0x1
 2250 06fa 51       		.byte	0x51
 2251 06fb 00       		.byte	0
 2252 06fc 18       		.uleb128 0x18
 2253 06fd 01       		.byte	0x1
 2254 06fe 40010000 		.4byte	.LASF74
 2255 0702 01       		.byte	0x1
 2256 0703 7B02     		.2byte	0x27b
 2257 0705 01       		.byte	0x1
 2258 0706 58020000 		.4byte	.LFB125
 2259 070a 74020000 		.4byte	.LFE125
 2260 070e 02       		.byte	0x2
 2261 070f 7D       		.byte	0x7d
 2262 0710 00       		.sleb128 0
 2263 0711 01       		.byte	0x1
 2264 0712 33070000 		.4byte	0x733
 2265 0716 19       		.uleb128 0x19
 2266 0717 C1000000 		.4byte	.LASF50
 2267 071b 01       		.byte	0x1
 2268 071c 7B02     		.2byte	0x27b
 2269 071e 7E030000 		.4byte	0x37e
 2270 0722 01       		.byte	0x1
 2271 0723 50       		.byte	0x50
 2272 0724 19       		.uleb128 0x19
 2273 0725 72010000 		.4byte	.LASF75
 2274 0729 01       		.byte	0x1
 2275 072a 7B02     		.2byte	0x27b
 2276 072c 4C000000 		.4byte	0x4c
 2277 0730 01       		.byte	0x1
 2278 0731 51       		.byte	0x51
ARM GAS  C:\Users\Kevin\AppData\Local\Temp\cc2AQj48.s 			page 66


 2279 0732 00       		.byte	0
 2280 0733 18       		.uleb128 0x18
 2281 0734 01       		.byte	0x1
 2282 0735 C6030000 		.4byte	.LASF76
 2283 0739 01       		.byte	0x1
 2284 073a 9302     		.2byte	0x293
 2285 073c 01       		.byte	0x1
 2286 073d 74020000 		.4byte	.LFB126
 2287 0741 8C020000 		.4byte	.LFE126
 2288 0745 02       		.byte	0x2
 2289 0746 7D       		.byte	0x7d
 2290 0747 00       		.sleb128 0
 2291 0748 01       		.byte	0x1
 2292 0749 6A070000 		.4byte	0x76a
 2293 074d 19       		.uleb128 0x19
 2294 074e C1000000 		.4byte	.LASF50
 2295 0752 01       		.byte	0x1
 2296 0753 9302     		.2byte	0x293
 2297 0755 7E030000 		.4byte	0x37e
 2298 0759 01       		.byte	0x1
 2299 075a 50       		.byte	0x50
 2300 075b 19       		.uleb128 0x19
 2301 075c 74020000 		.4byte	.LASF59
 2302 0760 01       		.byte	0x1
 2303 0761 9302     		.2byte	0x293
 2304 0763 F1000000 		.4byte	0xf1
 2305 0767 01       		.byte	0x1
 2306 0768 51       		.byte	0x51
 2307 0769 00       		.byte	0
 2308 076a 18       		.uleb128 0x18
 2309 076b 01       		.byte	0x1
 2310 076c EF000000 		.4byte	.LASF77
 2311 0770 01       		.byte	0x1
 2312 0771 B902     		.2byte	0x2b9
 2313 0773 01       		.byte	0x1
 2314 0774 8C020000 		.4byte	.LFB127
 2315 0778 90020000 		.4byte	.LFE127
 2316 077c 02       		.byte	0x2
 2317 077d 7D       		.byte	0x7d
 2318 077e 00       		.sleb128 0
 2319 077f 01       		.byte	0x1
 2320 0780 A1070000 		.4byte	0x7a1
 2321 0784 19       		.uleb128 0x19
 2322 0785 C1000000 		.4byte	.LASF50
 2323 0789 01       		.byte	0x1
 2324 078a B902     		.2byte	0x2b9
 2325 078c 7E030000 		.4byte	0x37e
 2326 0790 01       		.byte	0x1
 2327 0791 50       		.byte	0x50
 2328 0792 19       		.uleb128 0x19
 2329 0793 48020000 		.4byte	.LASF78
 2330 0797 01       		.byte	0x1
 2331 0798 B902     		.2byte	0x2b9
 2332 079a 33000000 		.4byte	0x33
 2333 079e 01       		.byte	0x1
 2334 079f 51       		.byte	0x51
 2335 07a0 00       		.byte	0
ARM GAS  C:\Users\Kevin\AppData\Local\Temp\cc2AQj48.s 			page 67


 2336 07a1 1C       		.uleb128 0x1c
 2337 07a2 01       		.byte	0x1
 2338 07a3 84020000 		.4byte	.LASF83
 2339 07a7 01       		.byte	0x1
 2340 07a8 C602     		.2byte	0x2c6
 2341 07aa 01       		.byte	0x1
 2342 07ab 33000000 		.4byte	0x33
 2343 07af 90020000 		.4byte	.LFB128
 2344 07b3 96020000 		.4byte	.LFE128
 2345 07b7 02       		.byte	0x2
 2346 07b8 7D       		.byte	0x7d
 2347 07b9 00       		.sleb128 0
 2348 07ba 01       		.byte	0x1
 2349 07bb D0070000 		.4byte	0x7d0
 2350 07bf 1A       		.uleb128 0x1a
 2351 07c0 C1000000 		.4byte	.LASF50
 2352 07c4 01       		.byte	0x1
 2353 07c5 C602     		.2byte	0x2c6
 2354 07c7 7E030000 		.4byte	0x37e
 2355 07cb 5C030000 		.4byte	.LLST12
 2356 07cf 00       		.byte	0
 2357 07d0 18       		.uleb128 0x18
 2358 07d1 01       		.byte	0x1
 2359 07d2 4C050000 		.4byte	.LASF79
 2360 07d6 01       		.byte	0x1
 2361 07d7 E502     		.2byte	0x2e5
 2362 07d9 01       		.byte	0x1
 2363 07da 96020000 		.4byte	.LFB129
 2364 07de AE020000 		.4byte	.LFE129
 2365 07e2 02       		.byte	0x2
 2366 07e3 7D       		.byte	0x7d
 2367 07e4 00       		.sleb128 0
 2368 07e5 01       		.byte	0x1
 2369 07e6 07080000 		.4byte	0x807
 2370 07ea 19       		.uleb128 0x19
 2371 07eb C1000000 		.4byte	.LASF50
 2372 07ef 01       		.byte	0x1
 2373 07f0 E502     		.2byte	0x2e5
 2374 07f2 7E030000 		.4byte	0x37e
 2375 07f6 01       		.byte	0x1
 2376 07f7 50       		.byte	0x50
 2377 07f8 19       		.uleb128 0x19
 2378 07f9 74020000 		.4byte	.LASF59
 2379 07fd 01       		.byte	0x1
 2380 07fe E502     		.2byte	0x2e5
 2381 0800 F1000000 		.4byte	0xf1
 2382 0804 01       		.byte	0x1
 2383 0805 51       		.byte	0x51
 2384 0806 00       		.byte	0
 2385 0807 18       		.uleb128 0x18
 2386 0808 01       		.byte	0x1
 2387 0809 41040000 		.4byte	.LASF80
 2388 080d 01       		.byte	0x1
 2389 080e 0403     		.2byte	0x304
 2390 0810 01       		.byte	0x1
 2391 0811 AE020000 		.4byte	.LFB130
 2392 0815 CA020000 		.4byte	.LFE130
ARM GAS  C:\Users\Kevin\AppData\Local\Temp\cc2AQj48.s 			page 68


 2393 0819 02       		.byte	0x2
 2394 081a 7D       		.byte	0x7d
 2395 081b 00       		.sleb128 0
 2396 081c 01       		.byte	0x1
 2397 081d 3E080000 		.4byte	0x83e
 2398 0821 19       		.uleb128 0x19
 2399 0822 C1000000 		.4byte	.LASF50
 2400 0826 01       		.byte	0x1
 2401 0827 0403     		.2byte	0x304
 2402 0829 7E030000 		.4byte	0x37e
 2403 082d 01       		.byte	0x1
 2404 082e 50       		.byte	0x50
 2405 082f 19       		.uleb128 0x19
 2406 0830 5C050000 		.4byte	.LASF81
 2407 0834 01       		.byte	0x1
 2408 0835 0403     		.2byte	0x304
 2409 0837 4C000000 		.4byte	0x4c
 2410 083b 01       		.byte	0x1
 2411 083c 51       		.byte	0x51
 2412 083d 00       		.byte	0
 2413 083e 18       		.uleb128 0x18
 2414 083f 01       		.byte	0x1
 2415 0840 61010000 		.4byte	.LASF82
 2416 0844 01       		.byte	0x1
 2417 0845 1C03     		.2byte	0x31c
 2418 0847 01       		.byte	0x1
 2419 0848 CA020000 		.4byte	.LFB131
 2420 084c E2020000 		.4byte	.LFE131
 2421 0850 02       		.byte	0x2
 2422 0851 7D       		.byte	0x7d
 2423 0852 00       		.sleb128 0
 2424 0853 01       		.byte	0x1
 2425 0854 75080000 		.4byte	0x875
 2426 0858 19       		.uleb128 0x19
 2427 0859 C1000000 		.4byte	.LASF50
 2428 085d 01       		.byte	0x1
 2429 085e 1C03     		.2byte	0x31c
 2430 0860 7E030000 		.4byte	0x37e
 2431 0864 01       		.byte	0x1
 2432 0865 50       		.byte	0x50
 2433 0866 19       		.uleb128 0x19
 2434 0867 74020000 		.4byte	.LASF59
 2435 086b 01       		.byte	0x1
 2436 086c 1C03     		.2byte	0x31c
 2437 086e F1000000 		.4byte	0xf1
 2438 0872 01       		.byte	0x1
 2439 0873 51       		.byte	0x51
 2440 0874 00       		.byte	0
 2441 0875 1C       		.uleb128 0x1c
 2442 0876 01       		.byte	0x1
 2443 0877 CE010000 		.4byte	.LASF84
 2444 087b 01       		.byte	0x1
 2445 087c 3203     		.2byte	0x332
 2446 087e 01       		.byte	0x1
 2447 087f 33000000 		.4byte	0x33
 2448 0883 E2020000 		.4byte	.LFB132
 2449 0887 EA020000 		.4byte	.LFE132
ARM GAS  C:\Users\Kevin\AppData\Local\Temp\cc2AQj48.s 			page 69


 2450 088b 02       		.byte	0x2
 2451 088c 7D       		.byte	0x7d
 2452 088d 00       		.sleb128 0
 2453 088e 01       		.byte	0x1
 2454 088f A4080000 		.4byte	0x8a4
 2455 0893 1A       		.uleb128 0x1a
 2456 0894 C1000000 		.4byte	.LASF50
 2457 0898 01       		.byte	0x1
 2458 0899 3203     		.2byte	0x332
 2459 089b 7E030000 		.4byte	0x37e
 2460 089f 7D030000 		.4byte	.LLST13
 2461 08a3 00       		.byte	0
 2462 08a4 18       		.uleb128 0x18
 2463 08a5 01       		.byte	0x1
 2464 08a6 9E010000 		.4byte	.LASF85
 2465 08aa 01       		.byte	0x1
 2466 08ab 5303     		.2byte	0x353
 2467 08ad 01       		.byte	0x1
 2468 08ae EA020000 		.4byte	.LFB133
 2469 08b2 02030000 		.4byte	.LFE133
 2470 08b6 02       		.byte	0x2
 2471 08b7 7D       		.byte	0x7d
 2472 08b8 00       		.sleb128 0
 2473 08b9 01       		.byte	0x1
 2474 08ba DB080000 		.4byte	0x8db
 2475 08be 19       		.uleb128 0x19
 2476 08bf C1000000 		.4byte	.LASF50
 2477 08c3 01       		.byte	0x1
 2478 08c4 5303     		.2byte	0x353
 2479 08c6 7E030000 		.4byte	0x37e
 2480 08ca 01       		.byte	0x1
 2481 08cb 50       		.byte	0x50
 2482 08cc 19       		.uleb128 0x19
 2483 08cd 74020000 		.4byte	.LASF59
 2484 08d1 01       		.byte	0x1
 2485 08d2 5303     		.2byte	0x353
 2486 08d4 F1000000 		.4byte	0xf1
 2487 08d8 01       		.byte	0x1
 2488 08d9 51       		.byte	0x51
 2489 08da 00       		.byte	0
 2490 08db 18       		.uleb128 0x18
 2491 08dc 01       		.byte	0x1
 2492 08dd A9010000 		.4byte	.LASF86
 2493 08e1 01       		.byte	0x1
 2494 08e2 6B03     		.2byte	0x36b
 2495 08e4 01       		.byte	0x1
 2496 08e5 02030000 		.4byte	.LFB134
 2497 08e9 1A030000 		.4byte	.LFE134
 2498 08ed 02       		.byte	0x2
 2499 08ee 7D       		.byte	0x7d
 2500 08ef 00       		.sleb128 0
 2501 08f0 01       		.byte	0x1
 2502 08f1 12090000 		.4byte	0x912
 2503 08f5 19       		.uleb128 0x19
 2504 08f6 C1000000 		.4byte	.LASF50
 2505 08fa 01       		.byte	0x1
 2506 08fb 6B03     		.2byte	0x36b
ARM GAS  C:\Users\Kevin\AppData\Local\Temp\cc2AQj48.s 			page 70


 2507 08fd 7E030000 		.4byte	0x37e
 2508 0901 01       		.byte	0x1
 2509 0902 50       		.byte	0x50
 2510 0903 19       		.uleb128 0x19
 2511 0904 74020000 		.4byte	.LASF59
 2512 0908 01       		.byte	0x1
 2513 0909 6B03     		.2byte	0x36b
 2514 090b F1000000 		.4byte	0xf1
 2515 090f 01       		.byte	0x1
 2516 0910 51       		.byte	0x51
 2517 0911 00       		.byte	0
 2518 0912 1D       		.uleb128 0x1d
 2519 0913 01       		.byte	0x1
 2520 0914 00000000 		.4byte	.LASF87
 2521 0918 01       		.byte	0x1
 2522 0919 F503     		.2byte	0x3f5
 2523 091b 01       		.byte	0x1
 2524 091c 4C000000 		.4byte	0x4c
 2525 0920 1A030000 		.4byte	.LFB135
 2526 0924 32030000 		.4byte	.LFE135
 2527 0928 9E030000 		.4byte	.LLST14
 2528 092c 01       		.byte	0x1
 2529 092d 62090000 		.4byte	0x962
 2530 0931 1A       		.uleb128 0x1a
 2531 0932 C1000000 		.4byte	.LASF50
 2532 0936 01       		.byte	0x1
 2533 0937 F503     		.2byte	0x3f5
 2534 0939 7E030000 		.4byte	0x37e
 2535 093d BE030000 		.4byte	.LLST15
 2536 0941 1A       		.uleb128 0x1a
 2537 0942 86030000 		.4byte	.LASF88
 2538 0946 01       		.byte	0x1
 2539 0947 F503     		.2byte	0x3f5
 2540 0949 33000000 		.4byte	0x33
 2541 094d DD030000 		.4byte	.LLST16
 2542 0951 1E       		.uleb128 0x1e
 2543 0952 746D7000 		.ascii	"tmp\000"
 2544 0956 01       		.byte	0x1
 2545 0957 F703     		.2byte	0x3f7
 2546 0959 9E000000 		.4byte	0x9e
 2547 095d FE030000 		.4byte	.LLST17
 2548 0961 00       		.byte	0
 2549 0962 18       		.uleb128 0x18
 2550 0963 01       		.byte	0x1
 2551 0964 F7020000 		.4byte	.LASF89
 2552 0968 01       		.byte	0x1
 2553 0969 1004     		.2byte	0x410
 2554 096b 01       		.byte	0x1
 2555 096c 32030000 		.4byte	.LFB136
 2556 0970 44030000 		.4byte	.LFE136
 2557 0974 02       		.byte	0x2
 2558 0975 7D       		.byte	0x7d
 2559 0976 00       		.sleb128 0
 2560 0977 01       		.byte	0x1
 2561 0978 A9090000 		.4byte	0x9a9
 2562 097c 19       		.uleb128 0x19
 2563 097d C1000000 		.4byte	.LASF50
ARM GAS  C:\Users\Kevin\AppData\Local\Temp\cc2AQj48.s 			page 71


 2564 0981 01       		.byte	0x1
 2565 0982 1004     		.2byte	0x410
 2566 0984 7E030000 		.4byte	0x37e
 2567 0988 01       		.byte	0x1
 2568 0989 50       		.byte	0x50
 2569 098a 1A       		.uleb128 0x1a
 2570 098b 44000000 		.4byte	.LASF90
 2571 098f 01       		.byte	0x1
 2572 0990 1004     		.2byte	0x410
 2573 0992 4C000000 		.4byte	0x4c
 2574 0996 1D040000 		.4byte	.LLST18
 2575 099a 19       		.uleb128 0x19
 2576 099b 74020000 		.4byte	.LASF59
 2577 099f 01       		.byte	0x1
 2578 09a0 1004     		.2byte	0x410
 2579 09a2 F1000000 		.4byte	0xf1
 2580 09a6 01       		.byte	0x1
 2581 09a7 52       		.byte	0x52
 2582 09a8 00       		.byte	0
 2583 09a9 1C       		.uleb128 0x1c
 2584 09aa 01       		.byte	0x1
 2585 09ab B7050000 		.4byte	.LASF91
 2586 09af 01       		.byte	0x1
 2587 09b0 4B04     		.2byte	0x44b
 2588 09b2 01       		.byte	0x1
 2589 09b3 13010000 		.4byte	0x113
 2590 09b7 44030000 		.4byte	.LFB137
 2591 09bb 5C030000 		.4byte	.LFE137
 2592 09bf 02       		.byte	0x2
 2593 09c0 7D       		.byte	0x7d
 2594 09c1 00       		.sleb128 0
 2595 09c2 01       		.byte	0x1
 2596 09c3 260A0000 		.4byte	0xa26
 2597 09c7 1A       		.uleb128 0x1a
 2598 09c8 C1000000 		.4byte	.LASF50
 2599 09cc 01       		.byte	0x1
 2600 09cd 4B04     		.2byte	0x44b
 2601 09cf 7E030000 		.4byte	0x37e
 2602 09d3 57040000 		.4byte	.LLST19
 2603 09d7 19       		.uleb128 0x19
 2604 09d8 04030000 		.4byte	.LASF92
 2605 09dc 01       		.byte	0x1
 2606 09dd 4B04     		.2byte	0x44b
 2607 09df 70000000 		.4byte	0x70
 2608 09e3 01       		.byte	0x1
 2609 09e4 51       		.byte	0x51
 2610 09e5 1B       		.uleb128 0x1b
 2611 09e6 4B000000 		.4byte	.LASF93
 2612 09ea 01       		.byte	0x1
 2613 09eb 4D04     		.2byte	0x44d
 2614 09ed 70000000 		.4byte	0x70
 2615 09f1 78040000 		.4byte	.LLST20
 2616 09f5 1B       		.uleb128 0x1b
 2617 09f6 55010000 		.4byte	.LASF94
 2618 09fa 01       		.byte	0x1
 2619 09fb 4E04     		.2byte	0x44e
 2620 09fd 70000000 		.4byte	0x70
ARM GAS  C:\Users\Kevin\AppData\Local\Temp\cc2AQj48.s 			page 72


 2621 0a01 AC040000 		.4byte	.LLST21
 2622 0a05 1B       		.uleb128 0x1b
 2623 0a06 5B010000 		.4byte	.LASF95
 2624 0a0a 01       		.byte	0x1
 2625 0a0b 4E04     		.2byte	0x44e
 2626 0a0d 70000000 		.4byte	0x70
 2627 0a11 D1040000 		.4byte	.LLST22
 2628 0a15 1B       		.uleb128 0x1b
 2629 0a16 58030000 		.4byte	.LASF96
 2630 0a1a 01       		.byte	0x1
 2631 0a1b 4F04     		.2byte	0x44f
 2632 0a1d 13010000 		.4byte	0x113
 2633 0a21 F8040000 		.4byte	.LLST23
 2634 0a25 00       		.byte	0
 2635 0a26 1C       		.uleb128 0x1c
 2636 0a27 01       		.byte	0x1
 2637 0a28 D8050000 		.4byte	.LASF97
 2638 0a2c 01       		.byte	0x1
 2639 0a2d 7B04     		.2byte	0x47b
 2640 0a2f 01       		.byte	0x1
 2641 0a30 70000000 		.4byte	0x70
 2642 0a34 5C030000 		.4byte	.LFB138
 2643 0a38 6C030000 		.4byte	.LFE138
 2644 0a3c 02       		.byte	0x2
 2645 0a3d 7D       		.byte	0x7d
 2646 0a3e 00       		.sleb128 0
 2647 0a3f 01       		.byte	0x1
 2648 0a40 850A0000 		.4byte	0xa85
 2649 0a44 1A       		.uleb128 0x1a
 2650 0a45 C1000000 		.4byte	.LASF50
 2651 0a49 01       		.byte	0x1
 2652 0a4a 7B04     		.2byte	0x47b
 2653 0a4c 7E030000 		.4byte	0x37e
 2654 0a50 32050000 		.4byte	.LLST24
 2655 0a54 1B       		.uleb128 0x1b
 2656 0a55 4B000000 		.4byte	.LASF93
 2657 0a59 01       		.byte	0x1
 2658 0a5a 7D04     		.2byte	0x47d
 2659 0a5c 70000000 		.4byte	0x70
 2660 0a60 53050000 		.4byte	.LLST25
 2661 0a64 1B       		.uleb128 0x1b
 2662 0a65 55010000 		.4byte	.LASF94
 2663 0a69 01       		.byte	0x1
 2664 0a6a 7E04     		.2byte	0x47e
 2665 0a6c 70000000 		.4byte	0x70
 2666 0a70 87050000 		.4byte	.LLST26
 2667 0a74 1B       		.uleb128 0x1b
 2668 0a75 5B010000 		.4byte	.LASF95
 2669 0a79 01       		.byte	0x1
 2670 0a7a 7E04     		.2byte	0x47e
 2671 0a7c 70000000 		.4byte	0x70
 2672 0a80 AC050000 		.4byte	.LLST27
 2673 0a84 00       		.byte	0
 2674 0a85 1D       		.uleb128 0x1d
 2675 0a86 01       		.byte	0x1
 2676 0a87 1D000000 		.4byte	.LASF98
 2677 0a8b 01       		.byte	0x1
ARM GAS  C:\Users\Kevin\AppData\Local\Temp\cc2AQj48.s 			page 73


 2678 0a8c B204     		.2byte	0x4b2
 2679 0a8e 01       		.byte	0x1
 2680 0a8f C3000000 		.4byte	0xc3
 2681 0a93 6C030000 		.4byte	.LFB139
 2682 0a97 A0030000 		.4byte	.LFE139
 2683 0a9b D3050000 		.4byte	.LLST28
 2684 0a9f 01       		.byte	0x1
 2685 0aa0 F50A0000 		.4byte	0xaf5
 2686 0aa4 1A       		.uleb128 0x1a
 2687 0aa5 C1000000 		.4byte	.LASF50
 2688 0aa9 01       		.byte	0x1
 2689 0aaa B204     		.2byte	0x4b2
 2690 0aac 7E030000 		.4byte	0x37e
 2691 0ab0 F3050000 		.4byte	.LLST29
 2692 0ab4 1A       		.uleb128 0x1a
 2693 0ab5 1E010000 		.4byte	.LASF99
 2694 0ab9 01       		.byte	0x1
 2695 0aba B204     		.2byte	0x4b2
 2696 0abc 70000000 		.4byte	0x70
 2697 0ac0 12060000 		.4byte	.LLST30
 2698 0ac4 1B       		.uleb128 0x1b
 2699 0ac5 61020000 		.4byte	.LASF100
 2700 0ac9 01       		.byte	0x1
 2701 0aca B404     		.2byte	0x4b4
 2702 0acc C3000000 		.4byte	0xc3
 2703 0ad0 30060000 		.4byte	.LLST31
 2704 0ad4 1B       		.uleb128 0x1b
 2705 0ad5 7D020000 		.4byte	.LASF101
 2706 0ad9 01       		.byte	0x1
 2707 0ada B504     		.2byte	0x4b5
 2708 0adc 9E000000 		.4byte	0x9e
 2709 0ae0 56060000 		.4byte	.LLST32
 2710 0ae4 1B       		.uleb128 0x1b
 2711 0ae5 39020000 		.4byte	.LASF102
 2712 0ae9 01       		.byte	0x1
 2713 0aea B504     		.2byte	0x4b5
 2714 0aec 9E000000 		.4byte	0x9e
 2715 0af0 81060000 		.4byte	.LLST33
 2716 0af4 00       		.byte	0
 2717 0af5 18       		.uleb128 0x18
 2718 0af6 01       		.byte	0x1
 2719 0af7 5F030000 		.4byte	.LASF103
 2720 0afb 01       		.byte	0x1
 2721 0afc FF04     		.2byte	0x4ff
 2722 0afe 01       		.byte	0x1
 2723 0aff A0030000 		.4byte	.LFB140
 2724 0b03 A6030000 		.4byte	.LFE140
 2725 0b07 02       		.byte	0x2
 2726 0b08 7D       		.byte	0x7d
 2727 0b09 00       		.sleb128 0
 2728 0b0a 01       		.byte	0x1
 2729 0b0b 3E0B0000 		.4byte	0xb3e
 2730 0b0f 19       		.uleb128 0x19
 2731 0b10 C1000000 		.4byte	.LASF50
 2732 0b14 01       		.byte	0x1
 2733 0b15 FF04     		.2byte	0x4ff
 2734 0b17 7E030000 		.4byte	0x37e
ARM GAS  C:\Users\Kevin\AppData\Local\Temp\cc2AQj48.s 			page 74


 2735 0b1b 01       		.byte	0x1
 2736 0b1c 50       		.byte	0x50
 2737 0b1d 1A       		.uleb128 0x1a
 2738 0b1e 1E010000 		.4byte	.LASF99
 2739 0b22 01       		.byte	0x1
 2740 0b23 FF04     		.2byte	0x4ff
 2741 0b25 70000000 		.4byte	0x70
 2742 0b29 B8060000 		.4byte	.LLST34
 2743 0b2d 1B       		.uleb128 0x1b
 2744 0b2e 59020000 		.4byte	.LASF104
 2745 0b32 01       		.byte	0x1
 2746 0b33 0105     		.2byte	0x501
 2747 0b35 70000000 		.4byte	0x70
 2748 0b39 D9060000 		.4byte	.LLST35
 2749 0b3d 00       		.byte	0
 2750 0b3e 1C       		.uleb128 0x1c
 2751 0b3f 01       		.byte	0x1
 2752 0b40 18050000 		.4byte	.LASF105
 2753 0b44 01       		.byte	0x1
 2754 0b45 2105     		.2byte	0x521
 2755 0b47 01       		.byte	0x1
 2756 0b48 CF000000 		.4byte	0xcf
 2757 0b4c A6030000 		.4byte	.LFB141
 2758 0b50 C2030000 		.4byte	.LFE141
 2759 0b54 02       		.byte	0x2
 2760 0b55 7D       		.byte	0x7d
 2761 0b56 00       		.sleb128 0
 2762 0b57 01       		.byte	0x1
 2763 0b58 9D0B0000 		.4byte	0xb9d
 2764 0b5c 1A       		.uleb128 0x1a
 2765 0b5d C1000000 		.4byte	.LASF50
 2766 0b61 01       		.byte	0x1
 2767 0b62 2105     		.2byte	0x521
 2768 0b64 7E030000 		.4byte	0x37e
 2769 0b68 08070000 		.4byte	.LLST36
 2770 0b6c 1A       		.uleb128 0x1a
 2771 0b6d 44000000 		.4byte	.LASF90
 2772 0b71 01       		.byte	0x1
 2773 0b72 2105     		.2byte	0x521
 2774 0b74 70000000 		.4byte	0x70
 2775 0b78 29070000 		.4byte	.LLST37
 2776 0b7c 1B       		.uleb128 0x1b
 2777 0b7d 61020000 		.4byte	.LASF100
 2778 0b81 01       		.byte	0x1
 2779 0b82 2305     		.2byte	0x523
 2780 0b84 CF000000 		.4byte	0xcf
 2781 0b88 63070000 		.4byte	.LLST38
 2782 0b8c 1B       		.uleb128 0x1b
 2783 0b8d 91010000 		.4byte	.LASF106
 2784 0b91 01       		.byte	0x1
 2785 0b92 2405     		.2byte	0x524
 2786 0b94 70000000 		.4byte	0x70
 2787 0b98 82070000 		.4byte	.LLST39
 2788 0b9c 00       		.byte	0
 2789 0b9d 18       		.uleb128 0x18
 2790 0b9e 01       		.byte	0x1
 2791 0b9f D9000000 		.4byte	.LASF107
ARM GAS  C:\Users\Kevin\AppData\Local\Temp\cc2AQj48.s 			page 75


 2792 0ba3 01       		.byte	0x1
 2793 0ba4 5D05     		.2byte	0x55d
 2794 0ba6 01       		.byte	0x1
 2795 0ba7 C2030000 		.4byte	.LFB142
 2796 0bab C8030000 		.4byte	.LFE142
 2797 0baf 02       		.byte	0x2
 2798 0bb0 7D       		.byte	0x7d
 2799 0bb1 00       		.sleb128 0
 2800 0bb2 01       		.byte	0x1
 2801 0bb3 E60B0000 		.4byte	0xbe6
 2802 0bb7 19       		.uleb128 0x19
 2803 0bb8 C1000000 		.4byte	.LASF50
 2804 0bbc 01       		.byte	0x1
 2805 0bbd 5D05     		.2byte	0x55d
 2806 0bbf 7E030000 		.4byte	0x37e
 2807 0bc3 01       		.byte	0x1
 2808 0bc4 50       		.byte	0x50
 2809 0bc5 1A       		.uleb128 0x1a
 2810 0bc6 44000000 		.4byte	.LASF90
 2811 0bca 01       		.byte	0x1
 2812 0bcb 5D05     		.2byte	0x55d
 2813 0bcd 70000000 		.4byte	0x70
 2814 0bd1 E1070000 		.4byte	.LLST40
 2815 0bd5 1B       		.uleb128 0x1b
 2816 0bd6 59020000 		.4byte	.LASF104
 2817 0bda 01       		.byte	0x1
 2818 0bdb 5F05     		.2byte	0x55f
 2819 0bdd 70000000 		.4byte	0x70
 2820 0be1 02080000 		.4byte	.LLST41
 2821 0be5 00       		.byte	0
 2822 0be6 1F       		.uleb128 0x1f
 2823 0be7 71040000 		.4byte	.LASF113
 2824 0beb 06       		.byte	0x6
 2825 0bec 1A05     		.2byte	0x51a
 2826 0bee A8000000 		.4byte	0xa8
 2827 0bf2 01       		.byte	0x1
 2828 0bf3 01       		.byte	0x1
 2829 0bf4 20       		.uleb128 0x20
 2830 0bf5 01       		.byte	0x1
 2831 0bf6 D9010000 		.4byte	.LASF108
 2832 0bfa 04       		.byte	0x4
 2833 0bfb E601     		.2byte	0x1e6
 2834 0bfd 01       		.byte	0x1
 2835 0bfe 01       		.byte	0x1
 2836 0bff 0E0C0000 		.4byte	0xc0e
 2837 0c03 21       		.uleb128 0x21
 2838 0c04 70000000 		.4byte	0x70
 2839 0c08 21       		.uleb128 0x21
 2840 0c09 F1000000 		.4byte	0xf1
 2841 0c0d 00       		.byte	0
 2842 0c0e 20       		.uleb128 0x20
 2843 0c0f 01       		.byte	0x1
 2844 0c10 B8040000 		.4byte	.LASF109
 2845 0c14 04       		.byte	0x4
 2846 0c15 D501     		.2byte	0x1d5
 2847 0c17 01       		.byte	0x1
 2848 0c18 01       		.byte	0x1
ARM GAS  C:\Users\Kevin\AppData\Local\Temp\cc2AQj48.s 			page 76


 2849 0c19 230C0000 		.4byte	0xc23
 2850 0c1d 21       		.uleb128 0x21
 2851 0c1e 230C0000 		.4byte	0xc23
 2852 0c22 00       		.byte	0
 2853 0c23 14       		.uleb128 0x14
 2854 0c24 04       		.byte	0x4
 2855 0c25 83020000 		.4byte	0x283
 2856 0c29 00       		.byte	0
 2857              		.section	.debug_abbrev,"",%progbits
 2858              	.Ldebug_abbrev0:
 2859 0000 01       		.uleb128 0x1
 2860 0001 11       		.uleb128 0x11
 2861 0002 01       		.byte	0x1
 2862 0003 25       		.uleb128 0x25
 2863 0004 0E       		.uleb128 0xe
 2864 0005 13       		.uleb128 0x13
 2865 0006 0B       		.uleb128 0xb
 2866 0007 03       		.uleb128 0x3
 2867 0008 0E       		.uleb128 0xe
 2868 0009 1B       		.uleb128 0x1b
 2869 000a 0E       		.uleb128 0xe
 2870 000b 11       		.uleb128 0x11
 2871 000c 01       		.uleb128 0x1
 2872 000d 12       		.uleb128 0x12
 2873 000e 01       		.uleb128 0x1
 2874 000f 10       		.uleb128 0x10
 2875 0010 06       		.uleb128 0x6
 2876 0011 00       		.byte	0
 2877 0012 00       		.byte	0
 2878 0013 02       		.uleb128 0x2
 2879 0014 24       		.uleb128 0x24
 2880 0015 00       		.byte	0
 2881 0016 0B       		.uleb128 0xb
 2882 0017 0B       		.uleb128 0xb
 2883 0018 3E       		.uleb128 0x3e
 2884 0019 0B       		.uleb128 0xb
 2885 001a 03       		.uleb128 0x3
 2886 001b 0E       		.uleb128 0xe
 2887 001c 00       		.byte	0
 2888 001d 00       		.byte	0
 2889 001e 03       		.uleb128 0x3
 2890 001f 16       		.uleb128 0x16
 2891 0020 00       		.byte	0
 2892 0021 03       		.uleb128 0x3
 2893 0022 0E       		.uleb128 0xe
 2894 0023 3A       		.uleb128 0x3a
 2895 0024 0B       		.uleb128 0xb
 2896 0025 3B       		.uleb128 0x3b
 2897 0026 0B       		.uleb128 0xb
 2898 0027 49       		.uleb128 0x49
 2899 0028 13       		.uleb128 0x13
 2900 0029 00       		.byte	0
 2901 002a 00       		.byte	0
 2902 002b 04       		.uleb128 0x4
 2903 002c 24       		.uleb128 0x24
 2904 002d 00       		.byte	0
 2905 002e 0B       		.uleb128 0xb
ARM GAS  C:\Users\Kevin\AppData\Local\Temp\cc2AQj48.s 			page 77


 2906 002f 0B       		.uleb128 0xb
 2907 0030 3E       		.uleb128 0x3e
 2908 0031 0B       		.uleb128 0xb
 2909 0032 03       		.uleb128 0x3
 2910 0033 08       		.uleb128 0x8
 2911 0034 00       		.byte	0
 2912 0035 00       		.byte	0
 2913 0036 05       		.uleb128 0x5
 2914 0037 35       		.uleb128 0x35
 2915 0038 00       		.byte	0
 2916 0039 49       		.uleb128 0x49
 2917 003a 13       		.uleb128 0x13
 2918 003b 00       		.byte	0
 2919 003c 00       		.byte	0
 2920 003d 06       		.uleb128 0x6
 2921 003e 04       		.uleb128 0x4
 2922 003f 01       		.byte	0x1
 2923 0040 0B       		.uleb128 0xb
 2924 0041 0B       		.uleb128 0xb
 2925 0042 3A       		.uleb128 0x3a
 2926 0043 0B       		.uleb128 0xb
 2927 0044 3B       		.uleb128 0x3b
 2928 0045 05       		.uleb128 0x5
 2929 0046 01       		.uleb128 0x1
 2930 0047 13       		.uleb128 0x13
 2931 0048 00       		.byte	0
 2932 0049 00       		.byte	0
 2933 004a 07       		.uleb128 0x7
 2934 004b 28       		.uleb128 0x28
 2935 004c 00       		.byte	0
 2936 004d 03       		.uleb128 0x3
 2937 004e 0E       		.uleb128 0xe
 2938 004f 1C       		.uleb128 0x1c
 2939 0050 0D       		.uleb128 0xd
 2940 0051 00       		.byte	0
 2941 0052 00       		.byte	0
 2942 0053 08       		.uleb128 0x8
 2943 0054 28       		.uleb128 0x28
 2944 0055 00       		.byte	0
 2945 0056 03       		.uleb128 0x3
 2946 0057 08       		.uleb128 0x8
 2947 0058 1C       		.uleb128 0x1c
 2948 0059 0D       		.uleb128 0xd
 2949 005a 00       		.byte	0
 2950 005b 00       		.byte	0
 2951 005c 09       		.uleb128 0x9
 2952 005d 16       		.uleb128 0x16
 2953 005e 00       		.byte	0
 2954 005f 03       		.uleb128 0x3
 2955 0060 0E       		.uleb128 0xe
 2956 0061 3A       		.uleb128 0x3a
 2957 0062 0B       		.uleb128 0xb
 2958 0063 3B       		.uleb128 0x3b
 2959 0064 05       		.uleb128 0x5
 2960 0065 49       		.uleb128 0x49
 2961 0066 13       		.uleb128 0x13
 2962 0067 00       		.byte	0
ARM GAS  C:\Users\Kevin\AppData\Local\Temp\cc2AQj48.s 			page 78


 2963 0068 00       		.byte	0
 2964 0069 0A       		.uleb128 0xa
 2965 006a 13       		.uleb128 0x13
 2966 006b 01       		.byte	0x1
 2967 006c 0B       		.uleb128 0xb
 2968 006d 0B       		.uleb128 0xb
 2969 006e 3A       		.uleb128 0x3a
 2970 006f 0B       		.uleb128 0xb
 2971 0070 3B       		.uleb128 0x3b
 2972 0071 05       		.uleb128 0x5
 2973 0072 01       		.uleb128 0x1
 2974 0073 13       		.uleb128 0x13
 2975 0074 00       		.byte	0
 2976 0075 00       		.byte	0
 2977 0076 0B       		.uleb128 0xb
 2978 0077 0D       		.uleb128 0xd
 2979 0078 00       		.byte	0
 2980 0079 03       		.uleb128 0x3
 2981 007a 08       		.uleb128 0x8
 2982 007b 3A       		.uleb128 0x3a
 2983 007c 0B       		.uleb128 0xb
 2984 007d 3B       		.uleb128 0x3b
 2985 007e 05       		.uleb128 0x5
 2986 007f 49       		.uleb128 0x49
 2987 0080 13       		.uleb128 0x13
 2988 0081 38       		.uleb128 0x38
 2989 0082 0A       		.uleb128 0xa
 2990 0083 00       		.byte	0
 2991 0084 00       		.byte	0
 2992 0085 0C       		.uleb128 0xc
 2993 0086 0D       		.uleb128 0xd
 2994 0087 00       		.byte	0
 2995 0088 03       		.uleb128 0x3
 2996 0089 0E       		.uleb128 0xe
 2997 008a 3A       		.uleb128 0x3a
 2998 008b 0B       		.uleb128 0xb
 2999 008c 3B       		.uleb128 0x3b
 3000 008d 05       		.uleb128 0x5
 3001 008e 49       		.uleb128 0x49
 3002 008f 13       		.uleb128 0x13
 3003 0090 38       		.uleb128 0x38
 3004 0091 0A       		.uleb128 0xa
 3005 0092 00       		.byte	0
 3006 0093 00       		.byte	0
 3007 0094 0D       		.uleb128 0xd
 3008 0095 13       		.uleb128 0x13
 3009 0096 01       		.byte	0x1
 3010 0097 0B       		.uleb128 0xb
 3011 0098 0B       		.uleb128 0xb
 3012 0099 3A       		.uleb128 0x3a
 3013 009a 0B       		.uleb128 0xb
 3014 009b 3B       		.uleb128 0x3b
 3015 009c 0B       		.uleb128 0xb
 3016 009d 01       		.uleb128 0x1
 3017 009e 13       		.uleb128 0x13
 3018 009f 00       		.byte	0
 3019 00a0 00       		.byte	0
ARM GAS  C:\Users\Kevin\AppData\Local\Temp\cc2AQj48.s 			page 79


 3020 00a1 0E       		.uleb128 0xe
 3021 00a2 0D       		.uleb128 0xd
 3022 00a3 00       		.byte	0
 3023 00a4 03       		.uleb128 0x3
 3024 00a5 0E       		.uleb128 0xe
 3025 00a6 3A       		.uleb128 0x3a
 3026 00a7 0B       		.uleb128 0xb
 3027 00a8 3B       		.uleb128 0x3b
 3028 00a9 0B       		.uleb128 0xb
 3029 00aa 49       		.uleb128 0x49
 3030 00ab 13       		.uleb128 0x13
 3031 00ac 38       		.uleb128 0x38
 3032 00ad 0A       		.uleb128 0xa
 3033 00ae 00       		.byte	0
 3034 00af 00       		.byte	0
 3035 00b0 0F       		.uleb128 0xf
 3036 00b1 2E       		.uleb128 0x2e
 3037 00b2 01       		.byte	0x1
 3038 00b3 3F       		.uleb128 0x3f
 3039 00b4 0C       		.uleb128 0xc
 3040 00b5 03       		.uleb128 0x3
 3041 00b6 0E       		.uleb128 0xe
 3042 00b7 3A       		.uleb128 0x3a
 3043 00b8 0B       		.uleb128 0xb
 3044 00b9 3B       		.uleb128 0x3b
 3045 00ba 0B       		.uleb128 0xb
 3046 00bb 27       		.uleb128 0x27
 3047 00bc 0C       		.uleb128 0xc
 3048 00bd 11       		.uleb128 0x11
 3049 00be 01       		.uleb128 0x1
 3050 00bf 12       		.uleb128 0x12
 3051 00c0 01       		.uleb128 0x1
 3052 00c1 40       		.uleb128 0x40
 3053 00c2 06       		.uleb128 0x6
 3054 00c3 9742     		.uleb128 0x2117
 3055 00c5 0C       		.uleb128 0xc
 3056 00c6 01       		.uleb128 0x1
 3057 00c7 13       		.uleb128 0x13
 3058 00c8 00       		.byte	0
 3059 00c9 00       		.byte	0
 3060 00ca 10       		.uleb128 0x10
 3061 00cb 05       		.uleb128 0x5
 3062 00cc 00       		.byte	0
 3063 00cd 03       		.uleb128 0x3
 3064 00ce 0E       		.uleb128 0xe
 3065 00cf 3A       		.uleb128 0x3a
 3066 00d0 0B       		.uleb128 0xb
 3067 00d1 3B       		.uleb128 0x3b
 3068 00d2 0B       		.uleb128 0xb
 3069 00d3 49       		.uleb128 0x49
 3070 00d4 13       		.uleb128 0x13
 3071 00d5 02       		.uleb128 0x2
 3072 00d6 06       		.uleb128 0x6
 3073 00d7 00       		.byte	0
 3074 00d8 00       		.byte	0
 3075 00d9 11       		.uleb128 0x11
 3076 00da 898201   		.uleb128 0x4109
ARM GAS  C:\Users\Kevin\AppData\Local\Temp\cc2AQj48.s 			page 80


 3077 00dd 01       		.byte	0x1
 3078 00de 11       		.uleb128 0x11
 3079 00df 01       		.uleb128 0x1
 3080 00e0 31       		.uleb128 0x31
 3081 00e1 13       		.uleb128 0x13
 3082 00e2 01       		.uleb128 0x1
 3083 00e3 13       		.uleb128 0x13
 3084 00e4 00       		.byte	0
 3085 00e5 00       		.byte	0
 3086 00e6 12       		.uleb128 0x12
 3087 00e7 8A8201   		.uleb128 0x410a
 3088 00ea 00       		.byte	0
 3089 00eb 02       		.uleb128 0x2
 3090 00ec 0A       		.uleb128 0xa
 3091 00ed 9142     		.uleb128 0x2111
 3092 00ef 0A       		.uleb128 0xa
 3093 00f0 00       		.byte	0
 3094 00f1 00       		.byte	0
 3095 00f2 13       		.uleb128 0x13
 3096 00f3 898201   		.uleb128 0x4109
 3097 00f6 01       		.byte	0x1
 3098 00f7 11       		.uleb128 0x11
 3099 00f8 01       		.uleb128 0x1
 3100 00f9 9542     		.uleb128 0x2115
 3101 00fb 0C       		.uleb128 0xc
 3102 00fc 31       		.uleb128 0x31
 3103 00fd 13       		.uleb128 0x13
 3104 00fe 00       		.byte	0
 3105 00ff 00       		.byte	0
 3106 0100 14       		.uleb128 0x14
 3107 0101 0F       		.uleb128 0xf
 3108 0102 00       		.byte	0
 3109 0103 0B       		.uleb128 0xb
 3110 0104 0B       		.uleb128 0xb
 3111 0105 49       		.uleb128 0x49
 3112 0106 13       		.uleb128 0x13
 3113 0107 00       		.byte	0
 3114 0108 00       		.byte	0
 3115 0109 15       		.uleb128 0x15
 3116 010a 34       		.uleb128 0x34
 3117 010b 00       		.byte	0
 3118 010c 03       		.uleb128 0x3
 3119 010d 0E       		.uleb128 0xe
 3120 010e 3A       		.uleb128 0x3a
 3121 010f 0B       		.uleb128 0xb
 3122 0110 3B       		.uleb128 0x3b
 3123 0111 0B       		.uleb128 0xb
 3124 0112 49       		.uleb128 0x49
 3125 0113 13       		.uleb128 0x13
 3126 0114 02       		.uleb128 0x2
 3127 0115 06       		.uleb128 0x6
 3128 0116 00       		.byte	0
 3129 0117 00       		.byte	0
 3130 0118 16       		.uleb128 0x16
 3131 0119 34       		.uleb128 0x34
 3132 011a 00       		.byte	0
 3133 011b 03       		.uleb128 0x3
ARM GAS  C:\Users\Kevin\AppData\Local\Temp\cc2AQj48.s 			page 81


 3134 011c 0E       		.uleb128 0xe
 3135 011d 3A       		.uleb128 0x3a
 3136 011e 0B       		.uleb128 0xb
 3137 011f 3B       		.uleb128 0x3b
 3138 0120 0B       		.uleb128 0xb
 3139 0121 49       		.uleb128 0x49
 3140 0122 13       		.uleb128 0x13
 3141 0123 02       		.uleb128 0x2
 3142 0124 0A       		.uleb128 0xa
 3143 0125 00       		.byte	0
 3144 0126 00       		.byte	0
 3145 0127 17       		.uleb128 0x17
 3146 0128 898201   		.uleb128 0x4109
 3147 012b 01       		.byte	0x1
 3148 012c 11       		.uleb128 0x11
 3149 012d 01       		.uleb128 0x1
 3150 012e 31       		.uleb128 0x31
 3151 012f 13       		.uleb128 0x13
 3152 0130 00       		.byte	0
 3153 0131 00       		.byte	0
 3154 0132 18       		.uleb128 0x18
 3155 0133 2E       		.uleb128 0x2e
 3156 0134 01       		.byte	0x1
 3157 0135 3F       		.uleb128 0x3f
 3158 0136 0C       		.uleb128 0xc
 3159 0137 03       		.uleb128 0x3
 3160 0138 0E       		.uleb128 0xe
 3161 0139 3A       		.uleb128 0x3a
 3162 013a 0B       		.uleb128 0xb
 3163 013b 3B       		.uleb128 0x3b
 3164 013c 05       		.uleb128 0x5
 3165 013d 27       		.uleb128 0x27
 3166 013e 0C       		.uleb128 0xc
 3167 013f 11       		.uleb128 0x11
 3168 0140 01       		.uleb128 0x1
 3169 0141 12       		.uleb128 0x12
 3170 0142 01       		.uleb128 0x1
 3171 0143 40       		.uleb128 0x40
 3172 0144 0A       		.uleb128 0xa
 3173 0145 9742     		.uleb128 0x2117
 3174 0147 0C       		.uleb128 0xc
 3175 0148 01       		.uleb128 0x1
 3176 0149 13       		.uleb128 0x13
 3177 014a 00       		.byte	0
 3178 014b 00       		.byte	0
 3179 014c 19       		.uleb128 0x19
 3180 014d 05       		.uleb128 0x5
 3181 014e 00       		.byte	0
 3182 014f 03       		.uleb128 0x3
 3183 0150 0E       		.uleb128 0xe
 3184 0151 3A       		.uleb128 0x3a
 3185 0152 0B       		.uleb128 0xb
 3186 0153 3B       		.uleb128 0x3b
 3187 0154 05       		.uleb128 0x5
 3188 0155 49       		.uleb128 0x49
 3189 0156 13       		.uleb128 0x13
 3190 0157 02       		.uleb128 0x2
ARM GAS  C:\Users\Kevin\AppData\Local\Temp\cc2AQj48.s 			page 82


 3191 0158 0A       		.uleb128 0xa
 3192 0159 00       		.byte	0
 3193 015a 00       		.byte	0
 3194 015b 1A       		.uleb128 0x1a
 3195 015c 05       		.uleb128 0x5
 3196 015d 00       		.byte	0
 3197 015e 03       		.uleb128 0x3
 3198 015f 0E       		.uleb128 0xe
 3199 0160 3A       		.uleb128 0x3a
 3200 0161 0B       		.uleb128 0xb
 3201 0162 3B       		.uleb128 0x3b
 3202 0163 05       		.uleb128 0x5
 3203 0164 49       		.uleb128 0x49
 3204 0165 13       		.uleb128 0x13
 3205 0166 02       		.uleb128 0x2
 3206 0167 06       		.uleb128 0x6
 3207 0168 00       		.byte	0
 3208 0169 00       		.byte	0
 3209 016a 1B       		.uleb128 0x1b
 3210 016b 34       		.uleb128 0x34
 3211 016c 00       		.byte	0
 3212 016d 03       		.uleb128 0x3
 3213 016e 0E       		.uleb128 0xe
 3214 016f 3A       		.uleb128 0x3a
 3215 0170 0B       		.uleb128 0xb
 3216 0171 3B       		.uleb128 0x3b
 3217 0172 05       		.uleb128 0x5
 3218 0173 49       		.uleb128 0x49
 3219 0174 13       		.uleb128 0x13
 3220 0175 02       		.uleb128 0x2
 3221 0176 06       		.uleb128 0x6
 3222 0177 00       		.byte	0
 3223 0178 00       		.byte	0
 3224 0179 1C       		.uleb128 0x1c
 3225 017a 2E       		.uleb128 0x2e
 3226 017b 01       		.byte	0x1
 3227 017c 3F       		.uleb128 0x3f
 3228 017d 0C       		.uleb128 0xc
 3229 017e 03       		.uleb128 0x3
 3230 017f 0E       		.uleb128 0xe
 3231 0180 3A       		.uleb128 0x3a
 3232 0181 0B       		.uleb128 0xb
 3233 0182 3B       		.uleb128 0x3b
 3234 0183 05       		.uleb128 0x5
 3235 0184 27       		.uleb128 0x27
 3236 0185 0C       		.uleb128 0xc
 3237 0186 49       		.uleb128 0x49
 3238 0187 13       		.uleb128 0x13
 3239 0188 11       		.uleb128 0x11
 3240 0189 01       		.uleb128 0x1
 3241 018a 12       		.uleb128 0x12
 3242 018b 01       		.uleb128 0x1
 3243 018c 40       		.uleb128 0x40
 3244 018d 0A       		.uleb128 0xa
 3245 018e 9742     		.uleb128 0x2117
 3246 0190 0C       		.uleb128 0xc
 3247 0191 01       		.uleb128 0x1
ARM GAS  C:\Users\Kevin\AppData\Local\Temp\cc2AQj48.s 			page 83


 3248 0192 13       		.uleb128 0x13
 3249 0193 00       		.byte	0
 3250 0194 00       		.byte	0
 3251 0195 1D       		.uleb128 0x1d
 3252 0196 2E       		.uleb128 0x2e
 3253 0197 01       		.byte	0x1
 3254 0198 3F       		.uleb128 0x3f
 3255 0199 0C       		.uleb128 0xc
 3256 019a 03       		.uleb128 0x3
 3257 019b 0E       		.uleb128 0xe
 3258 019c 3A       		.uleb128 0x3a
 3259 019d 0B       		.uleb128 0xb
 3260 019e 3B       		.uleb128 0x3b
 3261 019f 05       		.uleb128 0x5
 3262 01a0 27       		.uleb128 0x27
 3263 01a1 0C       		.uleb128 0xc
 3264 01a2 49       		.uleb128 0x49
 3265 01a3 13       		.uleb128 0x13
 3266 01a4 11       		.uleb128 0x11
 3267 01a5 01       		.uleb128 0x1
 3268 01a6 12       		.uleb128 0x12
 3269 01a7 01       		.uleb128 0x1
 3270 01a8 40       		.uleb128 0x40
 3271 01a9 06       		.uleb128 0x6
 3272 01aa 9742     		.uleb128 0x2117
 3273 01ac 0C       		.uleb128 0xc
 3274 01ad 01       		.uleb128 0x1
 3275 01ae 13       		.uleb128 0x13
 3276 01af 00       		.byte	0
 3277 01b0 00       		.byte	0
 3278 01b1 1E       		.uleb128 0x1e
 3279 01b2 34       		.uleb128 0x34
 3280 01b3 00       		.byte	0
 3281 01b4 03       		.uleb128 0x3
 3282 01b5 08       		.uleb128 0x8
 3283 01b6 3A       		.uleb128 0x3a
 3284 01b7 0B       		.uleb128 0xb
 3285 01b8 3B       		.uleb128 0x3b
 3286 01b9 05       		.uleb128 0x5
 3287 01ba 49       		.uleb128 0x49
 3288 01bb 13       		.uleb128 0x13
 3289 01bc 02       		.uleb128 0x2
 3290 01bd 06       		.uleb128 0x6
 3291 01be 00       		.byte	0
 3292 01bf 00       		.byte	0
 3293 01c0 1F       		.uleb128 0x1f
 3294 01c1 34       		.uleb128 0x34
 3295 01c2 00       		.byte	0
 3296 01c3 03       		.uleb128 0x3
 3297 01c4 0E       		.uleb128 0xe
 3298 01c5 3A       		.uleb128 0x3a
 3299 01c6 0B       		.uleb128 0xb
 3300 01c7 3B       		.uleb128 0x3b
 3301 01c8 05       		.uleb128 0x5
 3302 01c9 49       		.uleb128 0x49
 3303 01ca 13       		.uleb128 0x13
 3304 01cb 3F       		.uleb128 0x3f
ARM GAS  C:\Users\Kevin\AppData\Local\Temp\cc2AQj48.s 			page 84


 3305 01cc 0C       		.uleb128 0xc
 3306 01cd 3C       		.uleb128 0x3c
 3307 01ce 0C       		.uleb128 0xc
 3308 01cf 00       		.byte	0
 3309 01d0 00       		.byte	0
 3310 01d1 20       		.uleb128 0x20
 3311 01d2 2E       		.uleb128 0x2e
 3312 01d3 01       		.byte	0x1
 3313 01d4 3F       		.uleb128 0x3f
 3314 01d5 0C       		.uleb128 0xc
 3315 01d6 03       		.uleb128 0x3
 3316 01d7 0E       		.uleb128 0xe
 3317 01d8 3A       		.uleb128 0x3a
 3318 01d9 0B       		.uleb128 0xb
 3319 01da 3B       		.uleb128 0x3b
 3320 01db 05       		.uleb128 0x5
 3321 01dc 27       		.uleb128 0x27
 3322 01dd 0C       		.uleb128 0xc
 3323 01de 3C       		.uleb128 0x3c
 3324 01df 0C       		.uleb128 0xc
 3325 01e0 01       		.uleb128 0x1
 3326 01e1 13       		.uleb128 0x13
 3327 01e2 00       		.byte	0
 3328 01e3 00       		.byte	0
 3329 01e4 21       		.uleb128 0x21
 3330 01e5 05       		.uleb128 0x5
 3331 01e6 00       		.byte	0
 3332 01e7 49       		.uleb128 0x49
 3333 01e8 13       		.uleb128 0x13
 3334 01e9 00       		.byte	0
 3335 01ea 00       		.byte	0
 3336 01eb 00       		.byte	0
 3337              		.section	.debug_loc,"",%progbits
 3338              	.Ldebug_loc0:
 3339              	.LLST0:
 3340 0000 00000000 		.4byte	.LFB110-.Ltext0
 3341 0004 02000000 		.4byte	.LCFI0-.Ltext0
 3342 0008 0200     		.2byte	0x2
 3343 000a 7D       		.byte	0x7d
 3344 000b 00       		.sleb128 0
 3345 000c 02000000 		.4byte	.LCFI0-.Ltext0
 3346 0010 5C000000 		.4byte	.LFE110-.Ltext0
 3347 0014 0200     		.2byte	0x2
 3348 0016 7D       		.byte	0x7d
 3349 0017 08       		.sleb128 8
 3350 0018 00000000 		.4byte	0
 3351 001c 00000000 		.4byte	0
 3352              	.LLST1:
 3353 0020 00000000 		.4byte	.LVL0-.Ltext0
 3354 0024 0C000000 		.4byte	.LVL1-.Ltext0
 3355 0028 0100     		.2byte	0x1
 3356 002a 50       		.byte	0x50
 3357 002b 0C000000 		.4byte	.LVL1-.Ltext0
 3358 002f 18000000 		.4byte	.LVL3-.Ltext0
 3359 0033 0400     		.2byte	0x4
 3360 0035 F3       		.byte	0xf3
 3361 0036 01       		.uleb128 0x1
ARM GAS  C:\Users\Kevin\AppData\Local\Temp\cc2AQj48.s 			page 85


 3362 0037 50       		.byte	0x50
 3363 0038 9F       		.byte	0x9f
 3364 0039 18000000 		.4byte	.LVL3-.Ltext0
 3365 003d 22000000 		.4byte	.LVL4-.Ltext0
 3366 0041 0100     		.2byte	0x1
 3367 0043 50       		.byte	0x50
 3368 0044 22000000 		.4byte	.LVL4-.Ltext0
 3369 0048 2E000000 		.4byte	.LVL6-.Ltext0
 3370 004c 0400     		.2byte	0x4
 3371 004e F3       		.byte	0xf3
 3372 004f 01       		.uleb128 0x1
 3373 0050 50       		.byte	0x50
 3374 0051 9F       		.byte	0x9f
 3375 0052 2E000000 		.4byte	.LVL6-.Ltext0
 3376 0056 38000000 		.4byte	.LVL7-.Ltext0
 3377 005a 0100     		.2byte	0x1
 3378 005c 50       		.byte	0x50
 3379 005d 38000000 		.4byte	.LVL7-.Ltext0
 3380 0061 4C000000 		.4byte	.LVL9-.Ltext0
 3381 0065 0400     		.2byte	0x4
 3382 0067 F3       		.byte	0xf3
 3383 0068 01       		.uleb128 0x1
 3384 0069 50       		.byte	0x50
 3385 006a 9F       		.byte	0x9f
 3386 006b 4C000000 		.4byte	.LVL9-.Ltext0
 3387 006f 5C000000 		.4byte	.LFE110-.Ltext0
 3388 0073 0100     		.2byte	0x1
 3389 0075 50       		.byte	0x50
 3390 0076 00000000 		.4byte	0
 3391 007a 00000000 		.4byte	0
 3392              	.LLST2:
 3393 007e 5C000000 		.4byte	.LFB111-.Ltext0
 3394 0082 5E000000 		.4byte	.LCFI1-.Ltext0
 3395 0086 0200     		.2byte	0x2
 3396 0088 7D       		.byte	0x7d
 3397 0089 00       		.sleb128 0
 3398 008a 5E000000 		.4byte	.LCFI1-.Ltext0
 3399 008e 60000000 		.4byte	.LCFI2-.Ltext0
 3400 0092 0200     		.2byte	0x2
 3401 0094 7D       		.byte	0x7d
 3402 0095 14       		.sleb128 20
 3403 0096 60000000 		.4byte	.LCFI2-.Ltext0
 3404 009a 24010000 		.4byte	.LFE111-.Ltext0
 3405 009e 0200     		.2byte	0x2
 3406 00a0 7D       		.byte	0x7d
 3407 00a1 28       		.sleb128 40
 3408 00a2 00000000 		.4byte	0
 3409 00a6 00000000 		.4byte	0
 3410              	.LLST3:
 3411 00aa 5C000000 		.4byte	.LVL10-.Ltext0
 3412 00ae 66000000 		.4byte	.LVL12-.Ltext0
 3413 00b2 0100     		.2byte	0x1
 3414 00b4 50       		.byte	0x50
 3415 00b5 66000000 		.4byte	.LVL12-.Ltext0
 3416 00b9 24010000 		.4byte	.LFE111-.Ltext0
 3417 00bd 0100     		.2byte	0x1
 3418 00bf 54       		.byte	0x54
ARM GAS  C:\Users\Kevin\AppData\Local\Temp\cc2AQj48.s 			page 86


 3419 00c0 00000000 		.4byte	0
 3420 00c4 00000000 		.4byte	0
 3421              	.LLST4:
 3422 00c8 5C000000 		.4byte	.LVL10-.Ltext0
 3423 00cc 6B000000 		.4byte	.LVL13-1-.Ltext0
 3424 00d0 0100     		.2byte	0x1
 3425 00d2 51       		.byte	0x51
 3426 00d3 6B000000 		.4byte	.LVL13-1-.Ltext0
 3427 00d7 24010000 		.4byte	.LFE111-.Ltext0
 3428 00db 0100     		.2byte	0x1
 3429 00dd 55       		.byte	0x55
 3430 00de 00000000 		.4byte	0
 3431 00e2 00000000 		.4byte	0
 3432              	.LLST5:
 3433 00e6 5C000000 		.4byte	.LVL10-.Ltext0
 3434 00ea 64000000 		.4byte	.LVL11-.Ltext0
 3435 00ee 0200     		.2byte	0x2
 3436 00f0 30       		.byte	0x30
 3437 00f1 9F       		.byte	0x9f
 3438 00f2 64000000 		.4byte	.LVL11-.Ltext0
 3439 00f6 76000000 		.4byte	.LVL14-.Ltext0
 3440 00fa 0100     		.2byte	0x1
 3441 00fc 56       		.byte	0x56
 3442 00fd 7E000000 		.4byte	.LVL15-.Ltext0
 3443 0101 90000000 		.4byte	.LVL18-.Ltext0
 3444 0105 0100     		.2byte	0x1
 3445 0107 56       		.byte	0x56
 3446 0108 90000000 		.4byte	.LVL18-.Ltext0
 3447 010c 9E000000 		.4byte	.LVL19-.Ltext0
 3448 0110 0200     		.2byte	0x2
 3449 0112 30       		.byte	0x30
 3450 0113 9F       		.byte	0x9f
 3451 0114 9E000000 		.4byte	.LVL19-.Ltext0
 3452 0118 A8000000 		.4byte	.LVL20-.Ltext0
 3453 011c 1500     		.2byte	0x15
 3454 011e 73       		.byte	0x73
 3455 011f 00       		.sleb128 0
 3456 0120 34       		.byte	0x34
 3457 0121 73       		.byte	0x73
 3458 0122 00       		.sleb128 0
 3459 0123 40       		.byte	0x40
 3460 0124 4B       		.byte	0x4b
 3461 0125 24       		.byte	0x24
 3462 0126 22       		.byte	0x22
 3463 0127 0C       		.byte	0xc
 3464 0128 03000080 		.4byte	0x80000003
 3465 012c 2B       		.byte	0x2b
 3466 012d 28       		.byte	0x28
 3467 012e 0100     		.2byte	0x1
 3468 0130 16       		.byte	0x16
 3469 0131 13       		.byte	0x13
 3470 0132 9F       		.byte	0x9f
 3471 0133 A8000000 		.4byte	.LVL20-.Ltext0
 3472 0137 AA000000 		.4byte	.LVL21-.Ltext0
 3473 013b 3500     		.2byte	0x35
 3474 013d 71       		.byte	0x71
 3475 013e 00       		.sleb128 0
ARM GAS  C:\Users\Kevin\AppData\Local\Temp\cc2AQj48.s 			page 87


 3476 013f F7       		.byte	0xf7
 3477 0140 25       		.uleb128 0x25
 3478 0141 75       		.byte	0x75
 3479 0142 00       		.sleb128 0
 3480 0143 06       		.byte	0x6
 3481 0144 31       		.byte	0x31
 3482 0145 24       		.byte	0x24
 3483 0146 F7       		.byte	0xf7
 3484 0147 25       		.uleb128 0x25
 3485 0148 1B       		.byte	0x1b
 3486 0149 F7       		.byte	0xf7
 3487 014a 00       		.uleb128 0
 3488 014b 0A       		.byte	0xa
 3489 014c FFFF     		.2byte	0xffff
 3490 014e 1A       		.byte	0x1a
 3491 014f 34       		.byte	0x34
 3492 0150 71       		.byte	0x71
 3493 0151 00       		.sleb128 0
 3494 0152 F7       		.byte	0xf7
 3495 0153 25       		.uleb128 0x25
 3496 0154 75       		.byte	0x75
 3497 0155 00       		.sleb128 0
 3498 0156 06       		.byte	0x6
 3499 0157 31       		.byte	0x31
 3500 0158 24       		.byte	0x24
 3501 0159 F7       		.byte	0xf7
 3502 015a 25       		.uleb128 0x25
 3503 015b 1B       		.byte	0x1b
 3504 015c F7       		.byte	0xf7
 3505 015d 00       		.uleb128 0
 3506 015e 0A       		.byte	0xa
 3507 015f FFFF     		.2byte	0xffff
 3508 0161 1A       		.byte	0x1a
 3509 0162 40       		.byte	0x40
 3510 0163 4B       		.byte	0x4b
 3511 0164 24       		.byte	0x24
 3512 0165 22       		.byte	0x22
 3513 0166 0C       		.byte	0xc
 3514 0167 03000080 		.4byte	0x80000003
 3515 016b 2B       		.byte	0x2b
 3516 016c 28       		.byte	0x28
 3517 016d 0100     		.2byte	0x1
 3518 016f 16       		.byte	0x16
 3519 0170 13       		.byte	0x13
 3520 0171 9F       		.byte	0x9f
 3521 0172 AA000000 		.4byte	.LVL21-.Ltext0
 3522 0176 E8000000 		.4byte	.LVL28-.Ltext0
 3523 017a 0200     		.2byte	0x2
 3524 017c 30       		.byte	0x30
 3525 017d 9F       		.byte	0x9f
 3526 017e E8000000 		.4byte	.LVL28-.Ltext0
 3527 0182 EE000000 		.4byte	.LVL30-.Ltext0
 3528 0186 0100     		.2byte	0x1
 3529 0188 53       		.byte	0x53
 3530 0189 FC000000 		.4byte	.LVL32-.Ltext0
 3531 018d 00010000 		.4byte	.LVL33-.Ltext0
 3532 0191 0100     		.2byte	0x1
ARM GAS  C:\Users\Kevin\AppData\Local\Temp\cc2AQj48.s 			page 88


 3533 0193 53       		.byte	0x53
 3534 0194 0A010000 		.4byte	.LVL34-.Ltext0
 3535 0198 12010000 		.4byte	.LVL36-.Ltext0
 3536 019c 0100     		.2byte	0x1
 3537 019e 53       		.byte	0x53
 3538 019f 00000000 		.4byte	0
 3539 01a3 00000000 		.4byte	0
 3540              	.LLST6:
 3541 01a7 5C000000 		.4byte	.LVL10-.Ltext0
 3542 01ab 80000000 		.4byte	.LVL16-.Ltext0
 3543 01af 0200     		.2byte	0x2
 3544 01b1 30       		.byte	0x30
 3545 01b2 9F       		.byte	0x9f
 3546 01b3 80000000 		.4byte	.LVL16-.Ltext0
 3547 01b7 DA000000 		.4byte	.LVL27-.Ltext0
 3548 01bb 0100     		.2byte	0x1
 3549 01bd 50       		.byte	0x50
 3550 01be DA000000 		.4byte	.LVL27-.Ltext0
 3551 01c2 EA000000 		.4byte	.LVL29-.Ltext0
 3552 01c6 0100     		.2byte	0x1
 3553 01c8 57       		.byte	0x57
 3554 01c9 EA000000 		.4byte	.LVL29-.Ltext0
 3555 01cd F0000000 		.4byte	.LVL31-.Ltext0
 3556 01d1 0F00     		.2byte	0xf
 3557 01d3 71       		.byte	0x71
 3558 01d4 00       		.sleb128 0
 3559 01d5 F7       		.byte	0xf7
 3560 01d6 25       		.uleb128 0x25
 3561 01d7 0C       		.byte	0xc
 3562 01d8 40420F00 		.4byte	0xf4240
 3563 01dc F7       		.byte	0xf7
 3564 01dd 25       		.uleb128 0x25
 3565 01de 1B       		.byte	0x1b
 3566 01df F7       		.byte	0xf7
 3567 01e0 00       		.uleb128 0
 3568 01e1 9F       		.byte	0x9f
 3569 01e2 F0000000 		.4byte	.LVL31-.Ltext0
 3570 01e6 24010000 		.4byte	.LFE111-.Ltext0
 3571 01ea 1000     		.2byte	0x10
 3572 01ec 91       		.byte	0x91
 3573 01ed 60       		.sleb128 -32
 3574 01ee 06       		.byte	0x6
 3575 01ef F7       		.byte	0xf7
 3576 01f0 25       		.uleb128 0x25
 3577 01f1 0C       		.byte	0xc
 3578 01f2 40420F00 		.4byte	0xf4240
 3579 01f6 F7       		.byte	0xf7
 3580 01f7 25       		.uleb128 0x25
 3581 01f8 1B       		.byte	0x1b
 3582 01f9 F7       		.byte	0xf7
 3583 01fa 00       		.uleb128 0
 3584 01fb 9F       		.byte	0x9f
 3585 01fc 00000000 		.4byte	0
 3586 0200 00000000 		.4byte	0
 3587              	.LLST7:
 3588 0204 5C000000 		.4byte	.LVL10-.Ltext0
 3589 0208 9E000000 		.4byte	.LVL19-.Ltext0
ARM GAS  C:\Users\Kevin\AppData\Local\Temp\cc2AQj48.s 			page 89


 3590 020c 0200     		.2byte	0x2
 3591 020e 34       		.byte	0x34
 3592 020f 9F       		.byte	0x9f
 3593 0210 9E000000 		.4byte	.LVL19-.Ltext0
 3594 0214 A8000000 		.4byte	.LVL20-.Ltext0
 3595 0218 1500     		.2byte	0x15
 3596 021a 73       		.byte	0x73
 3597 021b 00       		.sleb128 0
 3598 021c 34       		.byte	0x34
 3599 021d 73       		.byte	0x73
 3600 021e 00       		.sleb128 0
 3601 021f 40       		.byte	0x40
 3602 0220 4B       		.byte	0x4b
 3603 0221 24       		.byte	0x24
 3604 0222 22       		.byte	0x22
 3605 0223 0C       		.byte	0xc
 3606 0224 03000080 		.4byte	0x80000003
 3607 0228 2B       		.byte	0x2b
 3608 0229 28       		.byte	0x28
 3609 022a 0100     		.2byte	0x1
 3610 022c 16       		.byte	0x16
 3611 022d 13       		.byte	0x13
 3612 022e 9F       		.byte	0x9f
 3613 022f A8000000 		.4byte	.LVL20-.Ltext0
 3614 0233 AA000000 		.4byte	.LVL21-.Ltext0
 3615 0237 3500     		.2byte	0x35
 3616 0239 71       		.byte	0x71
 3617 023a 00       		.sleb128 0
 3618 023b F7       		.byte	0xf7
 3619 023c 25       		.uleb128 0x25
 3620 023d 75       		.byte	0x75
 3621 023e 00       		.sleb128 0
 3622 023f 06       		.byte	0x6
 3623 0240 31       		.byte	0x31
 3624 0241 24       		.byte	0x24
 3625 0242 F7       		.byte	0xf7
 3626 0243 25       		.uleb128 0x25
 3627 0244 1B       		.byte	0x1b
 3628 0245 F7       		.byte	0xf7
 3629 0246 00       		.uleb128 0
 3630 0247 0A       		.byte	0xa
 3631 0248 FFFF     		.2byte	0xffff
 3632 024a 1A       		.byte	0x1a
 3633 024b 34       		.byte	0x34
 3634 024c 71       		.byte	0x71
 3635 024d 00       		.sleb128 0
 3636 024e F7       		.byte	0xf7
 3637 024f 25       		.uleb128 0x25
 3638 0250 75       		.byte	0x75
 3639 0251 00       		.sleb128 0
 3640 0252 06       		.byte	0x6
 3641 0253 31       		.byte	0x31
 3642 0254 24       		.byte	0x24
 3643 0255 F7       		.byte	0xf7
 3644 0256 25       		.uleb128 0x25
 3645 0257 1B       		.byte	0x1b
 3646 0258 F7       		.byte	0xf7
ARM GAS  C:\Users\Kevin\AppData\Local\Temp\cc2AQj48.s 			page 90


 3647 0259 00       		.uleb128 0
 3648 025a 0A       		.byte	0xa
 3649 025b FFFF     		.2byte	0xffff
 3650 025d 1A       		.byte	0x1a
 3651 025e 40       		.byte	0x40
 3652 025f 4B       		.byte	0x4b
 3653 0260 24       		.byte	0x24
 3654 0261 22       		.byte	0x22
 3655 0262 0C       		.byte	0xc
 3656 0263 03000080 		.4byte	0x80000003
 3657 0267 2B       		.byte	0x2b
 3658 0268 28       		.byte	0x28
 3659 0269 0100     		.2byte	0x1
 3660 026b 16       		.byte	0x16
 3661 026c 13       		.byte	0x13
 3662 026d 9F       		.byte	0x9f
 3663 026e AA000000 		.4byte	.LVL21-.Ltext0
 3664 0272 BE000000 		.4byte	.LVL22-.Ltext0
 3665 0276 0200     		.2byte	0x2
 3666 0278 34       		.byte	0x34
 3667 0279 9F       		.byte	0x9f
 3668 027a BE000000 		.4byte	.LVL22-.Ltext0
 3669 027e C2000000 		.4byte	.LVL23-.Ltext0
 3670 0282 0E00     		.2byte	0xe
 3671 0284 71       		.byte	0x71
 3672 0285 00       		.sleb128 0
 3673 0286 F7       		.byte	0xf7
 3674 0287 25       		.uleb128 0x25
 3675 0288 73       		.byte	0x73
 3676 0289 00       		.sleb128 0
 3677 028a 49       		.byte	0x49
 3678 028b 1E       		.byte	0x1e
 3679 028c F7       		.byte	0xf7
 3680 028d 25       		.uleb128 0x25
 3681 028e 1B       		.byte	0x1b
 3682 028f F7       		.byte	0xf7
 3683 0290 00       		.uleb128 0
 3684 0291 9F       		.byte	0x9f
 3685 0292 C2000000 		.4byte	.LVL23-.Ltext0
 3686 0296 CA000000 		.4byte	.LVL24-.Ltext0
 3687 029a 0F00     		.2byte	0xf
 3688 029c 71       		.byte	0x71
 3689 029d 00       		.sleb128 0
 3690 029e F7       		.byte	0xf7
 3691 029f 25       		.uleb128 0x25
 3692 02a0 75       		.byte	0x75
 3693 02a1 00       		.sleb128 0
 3694 02a2 06       		.byte	0x6
 3695 02a3 49       		.byte	0x49
 3696 02a4 1E       		.byte	0x1e
 3697 02a5 F7       		.byte	0xf7
 3698 02a6 25       		.uleb128 0x25
 3699 02a7 1B       		.byte	0x1b
 3700 02a8 F7       		.byte	0xf7
 3701 02a9 00       		.uleb128 0
 3702 02aa 9F       		.byte	0x9f
 3703 02ab CC000000 		.4byte	.LVL25-.Ltext0
ARM GAS  C:\Users\Kevin\AppData\Local\Temp\cc2AQj48.s 			page 91


 3704 02af E8000000 		.4byte	.LVL28-.Ltext0
 3705 02b3 0100     		.2byte	0x1
 3706 02b5 53       		.byte	0x53
 3707 02b6 00000000 		.4byte	0
 3708 02ba 00000000 		.4byte	0
 3709              	.LLST8:
 3710 02be 5C000000 		.4byte	.LVL10-.Ltext0
 3711 02c2 7E000000 		.4byte	.LVL15-.Ltext0
 3712 02c6 0600     		.2byte	0x6
 3713 02c8 0C       		.byte	0xc
 3714 02c9 00127A00 		.4byte	0x7a1200
 3715 02cd 9F       		.byte	0x9f
 3716 02ce 7E000000 		.4byte	.LVL15-.Ltext0
 3717 02d2 F0000000 		.4byte	.LVL31-.Ltext0
 3718 02d6 0100     		.2byte	0x1
 3719 02d8 51       		.byte	0x51
 3720 02d9 F0000000 		.4byte	.LVL31-.Ltext0
 3721 02dd 24010000 		.4byte	.LFE111-.Ltext0
 3722 02e1 0200     		.2byte	0x2
 3723 02e3 91       		.byte	0x91
 3724 02e4 60       		.sleb128 -32
 3725 02e5 00000000 		.4byte	0
 3726 02e9 00000000 		.4byte	0
 3727              	.LLST9:
 3728 02ed 88010000 		.4byte	.LVL41-.Ltext0
 3729 02f1 8E010000 		.4byte	.LVL42-.Ltext0
 3730 02f5 0100     		.2byte	0x1
 3731 02f7 51       		.byte	0x51
 3732 02f8 8E010000 		.4byte	.LVL42-.Ltext0
 3733 02fc 98010000 		.4byte	.LFE116-.Ltext0
 3734 0300 0100     		.2byte	0x1
 3735 0302 51       		.byte	0x51
 3736 0303 00000000 		.4byte	0
 3737 0307 00000000 		.4byte	0
 3738              	.LLST10:
 3739 030b B0010000 		.4byte	.LVL45-.Ltext0
 3740 030f B8010000 		.4byte	.LVL47-.Ltext0
 3741 0313 0100     		.2byte	0x1
 3742 0315 51       		.byte	0x51
 3743 0316 B8010000 		.4byte	.LVL47-.Ltext0
 3744 031a C2010000 		.4byte	.LFE118-.Ltext0
 3745 031e 0400     		.2byte	0x4
 3746 0320 F3       		.byte	0xf3
 3747 0321 01       		.uleb128 0x1
 3748 0322 51       		.byte	0x51
 3749 0323 9F       		.byte	0x9f
 3750 0324 00000000 		.4byte	0
 3751 0328 00000000 		.4byte	0
 3752              	.LLST11:
 3753 032c B0010000 		.4byte	.LVL45-.Ltext0
 3754 0330 B4010000 		.4byte	.LVL46-.Ltext0
 3755 0334 0200     		.2byte	0x2
 3756 0336 30       		.byte	0x30
 3757 0337 9F       		.byte	0x9f
 3758 0338 B4010000 		.4byte	.LVL46-.Ltext0
 3759 033c BC010000 		.4byte	.LVL48-.Ltext0
 3760 0340 0700     		.2byte	0x7
ARM GAS  C:\Users\Kevin\AppData\Local\Temp\cc2AQj48.s 			page 92


 3761 0342 73       		.byte	0x73
 3762 0343 00       		.sleb128 0
 3763 0344 0B       		.byte	0xb
 3764 0345 01FF     		.2byte	0xff01
 3765 0347 1A       		.byte	0x1a
 3766 0348 9F       		.byte	0x9f
 3767 0349 BE010000 		.4byte	.LVL49-.Ltext0
 3768 034d C2010000 		.4byte	.LFE118-.Ltext0
 3769 0351 0100     		.2byte	0x1
 3770 0353 53       		.byte	0x53
 3771 0354 00000000 		.4byte	0
 3772 0358 00000000 		.4byte	0
 3773              	.LLST12:
 3774 035c 90020000 		.4byte	.LVL59-.Ltext0
 3775 0360 92020000 		.4byte	.LVL60-.Ltext0
 3776 0364 0100     		.2byte	0x1
 3777 0366 50       		.byte	0x50
 3778 0367 92020000 		.4byte	.LVL60-.Ltext0
 3779 036b 96020000 		.4byte	.LFE128-.Ltext0
 3780 036f 0400     		.2byte	0x4
 3781 0371 F3       		.byte	0xf3
 3782 0372 01       		.uleb128 0x1
 3783 0373 50       		.byte	0x50
 3784 0374 9F       		.byte	0x9f
 3785 0375 00000000 		.4byte	0
 3786 0379 00000000 		.4byte	0
 3787              	.LLST13:
 3788 037d E2020000 		.4byte	.LVL64-.Ltext0
 3789 0381 E4020000 		.4byte	.LVL65-.Ltext0
 3790 0385 0100     		.2byte	0x1
 3791 0387 50       		.byte	0x50
 3792 0388 E4020000 		.4byte	.LVL65-.Ltext0
 3793 038c EA020000 		.4byte	.LFE132-.Ltext0
 3794 0390 0400     		.2byte	0x4
 3795 0392 F3       		.byte	0xf3
 3796 0393 01       		.uleb128 0x1
 3797 0394 50       		.byte	0x50
 3798 0395 9F       		.byte	0x9f
 3799 0396 00000000 		.4byte	0
 3800 039a 00000000 		.4byte	0
 3801              	.LLST14:
 3802 039e 1A030000 		.4byte	.LFB135-.Ltext0
 3803 03a2 1C030000 		.4byte	.LCFI3-.Ltext0
 3804 03a6 0200     		.2byte	0x2
 3805 03a8 7D       		.byte	0x7d
 3806 03a9 00       		.sleb128 0
 3807 03aa 1C030000 		.4byte	.LCFI3-.Ltext0
 3808 03ae 32030000 		.4byte	.LFE135-.Ltext0
 3809 03b2 0200     		.2byte	0x2
 3810 03b4 7D       		.byte	0x7d
 3811 03b5 08       		.sleb128 8
 3812 03b6 00000000 		.4byte	0
 3813 03ba 00000000 		.4byte	0
 3814              	.LLST15:
 3815 03be 1A030000 		.4byte	.LVL68-.Ltext0
 3816 03c2 2C030000 		.4byte	.LVL72-.Ltext0
 3817 03c6 0100     		.2byte	0x1
ARM GAS  C:\Users\Kevin\AppData\Local\Temp\cc2AQj48.s 			page 93


 3818 03c8 50       		.byte	0x50
 3819 03c9 2C030000 		.4byte	.LVL72-.Ltext0
 3820 03cd 32030000 		.4byte	.LFE135-.Ltext0
 3821 03d1 0200     		.2byte	0x2
 3822 03d3 91       		.byte	0x91
 3823 03d4 7C       		.sleb128 -4
 3824 03d5 00000000 		.4byte	0
 3825 03d9 00000000 		.4byte	0
 3826              	.LLST16:
 3827 03dd 1A030000 		.4byte	.LVL68-.Ltext0
 3828 03e1 26030000 		.4byte	.LVL70-.Ltext0
 3829 03e5 0100     		.2byte	0x1
 3830 03e7 51       		.byte	0x51
 3831 03e8 26030000 		.4byte	.LVL70-.Ltext0
 3832 03ec 32030000 		.4byte	.LFE135-.Ltext0
 3833 03f0 0400     		.2byte	0x4
 3834 03f2 F3       		.byte	0xf3
 3835 03f3 01       		.uleb128 0x1
 3836 03f4 51       		.byte	0x51
 3837 03f5 9F       		.byte	0x9f
 3838 03f6 00000000 		.4byte	0
 3839 03fa 00000000 		.4byte	0
 3840              	.LLST17:
 3841 03fe 20030000 		.4byte	.LVL69-.Ltext0
 3842 0402 26030000 		.4byte	.LVL70-.Ltext0
 3843 0406 0200     		.2byte	0x2
 3844 0408 91       		.byte	0x91
 3845 0409 7C       		.sleb128 -4
 3846 040a 28030000 		.4byte	.LVL71-.Ltext0
 3847 040e 32030000 		.4byte	.LFE135-.Ltext0
 3848 0412 0100     		.2byte	0x1
 3849 0414 51       		.byte	0x51
 3850 0415 00000000 		.4byte	0
 3851 0419 00000000 		.4byte	0
 3852              	.LLST18:
 3853 041d 32030000 		.4byte	.LVL73-.Ltext0
 3854 0421 3A030000 		.4byte	.LVL74-.Ltext0
 3855 0425 0100     		.2byte	0x1
 3856 0427 51       		.byte	0x51
 3857 0428 3A030000 		.4byte	.LVL74-.Ltext0
 3858 042c 3C030000 		.4byte	.LVL75-.Ltext0
 3859 0430 0400     		.2byte	0x4
 3860 0432 F3       		.byte	0xf3
 3861 0433 01       		.uleb128 0x1
 3862 0434 51       		.byte	0x51
 3863 0435 9F       		.byte	0x9f
 3864 0436 3C030000 		.4byte	.LVL75-.Ltext0
 3865 043a 40030000 		.4byte	.LVL76-.Ltext0
 3866 043e 0100     		.2byte	0x1
 3867 0440 51       		.byte	0x51
 3868 0441 40030000 		.4byte	.LVL76-.Ltext0
 3869 0445 44030000 		.4byte	.LFE136-.Ltext0
 3870 0449 0400     		.2byte	0x4
 3871 044b F3       		.byte	0xf3
 3872 044c 01       		.uleb128 0x1
 3873 044d 51       		.byte	0x51
 3874 044e 9F       		.byte	0x9f
ARM GAS  C:\Users\Kevin\AppData\Local\Temp\cc2AQj48.s 			page 94


 3875 044f 00000000 		.4byte	0
 3876 0453 00000000 		.4byte	0
 3877              	.LLST19:
 3878 0457 44030000 		.4byte	.LVL77-.Ltext0
 3879 045b 48030000 		.4byte	.LVL78-.Ltext0
 3880 045f 0100     		.2byte	0x1
 3881 0461 50       		.byte	0x50
 3882 0462 48030000 		.4byte	.LVL78-.Ltext0
 3883 0466 5C030000 		.4byte	.LFE137-.Ltext0
 3884 046a 0400     		.2byte	0x4
 3885 046c F3       		.byte	0xf3
 3886 046d 01       		.uleb128 0x1
 3887 046e 50       		.byte	0x50
 3888 046f 9F       		.byte	0x9f
 3889 0470 00000000 		.4byte	0
 3890 0474 00000000 		.4byte	0
 3891              	.LLST20:
 3892 0478 44030000 		.4byte	.LVL77-.Ltext0
 3893 047c 4A030000 		.4byte	.LVL79-.Ltext0
 3894 0480 0200     		.2byte	0x2
 3895 0482 30       		.byte	0x30
 3896 0483 9F       		.byte	0x9f
 3897 0484 4A030000 		.4byte	.LVL79-.Ltext0
 3898 0488 4E030000 		.4byte	.LVL80-.Ltext0
 3899 048c 1600     		.2byte	0x16
 3900 048e 70       		.byte	0x70
 3901 048f 00       		.sleb128 0
 3902 0490 0A       		.byte	0xa
 3903 0491 FFFF     		.2byte	0xffff
 3904 0493 1A       		.byte	0x1a
 3905 0494 40       		.byte	0x40
 3906 0495 24       		.byte	0x24
 3907 0496 73       		.byte	0x73
 3908 0497 00       		.sleb128 0
 3909 0498 0A       		.byte	0xa
 3910 0499 FFFF     		.2byte	0xffff
 3911 049b 1A       		.byte	0x1a
 3912 049c 21       		.byte	0x21
 3913 049d 0C       		.byte	0xc
 3914 049e FFFFFF00 		.4byte	0xffffff
 3915 04a2 1A       		.byte	0x1a
 3916 04a3 9F       		.byte	0x9f
 3917 04a4 00000000 		.4byte	0
 3918 04a8 00000000 		.4byte	0
 3919              	.LLST21:
 3920 04ac 44030000 		.4byte	.LVL77-.Ltext0
 3921 04b0 4A030000 		.4byte	.LVL79-.Ltext0
 3922 04b4 0200     		.2byte	0x2
 3923 04b6 30       		.byte	0x30
 3924 04b7 9F       		.byte	0x9f
 3925 04b8 4A030000 		.4byte	.LVL79-.Ltext0
 3926 04bc 56030000 		.4byte	.LVL81-.Ltext0
 3927 04c0 0700     		.2byte	0x7
 3928 04c2 73       		.byte	0x73
 3929 04c3 00       		.sleb128 0
 3930 04c4 0A       		.byte	0xa
 3931 04c5 FFFF     		.2byte	0xffff
ARM GAS  C:\Users\Kevin\AppData\Local\Temp\cc2AQj48.s 			page 95


 3932 04c7 1A       		.byte	0x1a
 3933 04c8 9F       		.byte	0x9f
 3934 04c9 00000000 		.4byte	0
 3935 04cd 00000000 		.4byte	0
 3936              	.LLST22:
 3937 04d1 44030000 		.4byte	.LVL77-.Ltext0
 3938 04d5 4A030000 		.4byte	.LVL79-.Ltext0
 3939 04d9 0200     		.2byte	0x2
 3940 04db 30       		.byte	0x30
 3941 04dc 9F       		.byte	0x9f
 3942 04dd 4A030000 		.4byte	.LVL79-.Ltext0
 3943 04e1 4E030000 		.4byte	.LVL80-.Ltext0
 3944 04e5 0900     		.2byte	0x9
 3945 04e7 70       		.byte	0x70
 3946 04e8 00       		.sleb128 0
 3947 04e9 0A       		.byte	0xa
 3948 04ea FFFF     		.2byte	0xffff
 3949 04ec 1A       		.byte	0x1a
 3950 04ed 40       		.byte	0x40
 3951 04ee 24       		.byte	0x24
 3952 04ef 9F       		.byte	0x9f
 3953 04f0 00000000 		.4byte	0
 3954 04f4 00000000 		.4byte	0
 3955              	.LLST23:
 3956 04f8 44030000 		.4byte	.LVL77-.Ltext0
 3957 04fc 4A030000 		.4byte	.LVL79-.Ltext0
 3958 0500 0200     		.2byte	0x2
 3959 0502 30       		.byte	0x30
 3960 0503 9F       		.byte	0x9f
 3961 0504 4A030000 		.4byte	.LVL79-.Ltext0
 3962 0508 4E030000 		.4byte	.LVL80-.Ltext0
 3963 050c 1C00     		.2byte	0x1c
 3964 050e 70       		.byte	0x70
 3965 050f 00       		.sleb128 0
 3966 0510 0A       		.byte	0xa
 3967 0511 FFFF     		.2byte	0xffff
 3968 0513 1A       		.byte	0x1a
 3969 0514 40       		.byte	0x40
 3970 0515 24       		.byte	0x24
 3971 0516 73       		.byte	0x73
 3972 0517 00       		.sleb128 0
 3973 0518 0A       		.byte	0xa
 3974 0519 FFFF     		.2byte	0xffff
 3975 051b 1A       		.byte	0x1a
 3976 051c 21       		.byte	0x21
 3977 051d 71       		.byte	0x71
 3978 051e 00       		.sleb128 0
 3979 051f 1A       		.byte	0x1a
 3980 0520 0C       		.byte	0xc
 3981 0521 FFFFFF00 		.4byte	0xffffff
 3982 0525 1A       		.byte	0x1a
 3983 0526 71       		.byte	0x71
 3984 0527 00       		.sleb128 0
 3985 0528 29       		.byte	0x29
 3986 0529 9F       		.byte	0x9f
 3987 052a 00000000 		.4byte	0
 3988 052e 00000000 		.4byte	0
ARM GAS  C:\Users\Kevin\AppData\Local\Temp\cc2AQj48.s 			page 96


 3989              	.LLST24:
 3990 0532 5C030000 		.4byte	.LVL82-.Ltext0
 3991 0536 60030000 		.4byte	.LVL83-.Ltext0
 3992 053a 0100     		.2byte	0x1
 3993 053c 50       		.byte	0x50
 3994 053d 60030000 		.4byte	.LVL83-.Ltext0
 3995 0541 6C030000 		.4byte	.LFE138-.Ltext0
 3996 0545 0400     		.2byte	0x4
 3997 0547 F3       		.byte	0xf3
 3998 0548 01       		.uleb128 0x1
 3999 0549 50       		.byte	0x50
 4000 054a 9F       		.byte	0x9f
 4001 054b 00000000 		.4byte	0
 4002 054f 00000000 		.4byte	0
 4003              	.LLST25:
 4004 0553 5C030000 		.4byte	.LVL82-.Ltext0
 4005 0557 62030000 		.4byte	.LVL84-.Ltext0
 4006 055b 0200     		.2byte	0x2
 4007 055d 30       		.byte	0x30
 4008 055e 9F       		.byte	0x9f
 4009 055f 62030000 		.4byte	.LVL84-.Ltext0
 4010 0563 66030000 		.4byte	.LVL85-.Ltext0
 4011 0567 1600     		.2byte	0x16
 4012 0569 70       		.byte	0x70
 4013 056a 00       		.sleb128 0
 4014 056b 0A       		.byte	0xa
 4015 056c FFFF     		.2byte	0xffff
 4016 056e 1A       		.byte	0x1a
 4017 056f 40       		.byte	0x40
 4018 0570 24       		.byte	0x24
 4019 0571 73       		.byte	0x73
 4020 0572 00       		.sleb128 0
 4021 0573 0A       		.byte	0xa
 4022 0574 FFFF     		.2byte	0xffff
 4023 0576 1A       		.byte	0x1a
 4024 0577 21       		.byte	0x21
 4025 0578 0C       		.byte	0xc
 4026 0579 FFFFFF00 		.4byte	0xffffff
 4027 057d 1A       		.byte	0x1a
 4028 057e 9F       		.byte	0x9f
 4029 057f 00000000 		.4byte	0
 4030 0583 00000000 		.4byte	0
 4031              	.LLST26:
 4032 0587 5C030000 		.4byte	.LVL82-.Ltext0
 4033 058b 62030000 		.4byte	.LVL84-.Ltext0
 4034 058f 0200     		.2byte	0x2
 4035 0591 30       		.byte	0x30
 4036 0592 9F       		.byte	0x9f
 4037 0593 62030000 		.4byte	.LVL84-.Ltext0
 4038 0597 6C030000 		.4byte	.LFE138-.Ltext0
 4039 059b 0700     		.2byte	0x7
 4040 059d 73       		.byte	0x73
 4041 059e 00       		.sleb128 0
 4042 059f 0A       		.byte	0xa
 4043 05a0 FFFF     		.2byte	0xffff
 4044 05a2 1A       		.byte	0x1a
 4045 05a3 9F       		.byte	0x9f
ARM GAS  C:\Users\Kevin\AppData\Local\Temp\cc2AQj48.s 			page 97


 4046 05a4 00000000 		.4byte	0
 4047 05a8 00000000 		.4byte	0
 4048              	.LLST27:
 4049 05ac 5C030000 		.4byte	.LVL82-.Ltext0
 4050 05b0 62030000 		.4byte	.LVL84-.Ltext0
 4051 05b4 0200     		.2byte	0x2
 4052 05b6 30       		.byte	0x30
 4053 05b7 9F       		.byte	0x9f
 4054 05b8 62030000 		.4byte	.LVL84-.Ltext0
 4055 05bc 66030000 		.4byte	.LVL85-.Ltext0
 4056 05c0 0900     		.2byte	0x9
 4057 05c2 70       		.byte	0x70
 4058 05c3 00       		.sleb128 0
 4059 05c4 0A       		.byte	0xa
 4060 05c5 FFFF     		.2byte	0xffff
 4061 05c7 1A       		.byte	0x1a
 4062 05c8 40       		.byte	0x40
 4063 05c9 24       		.byte	0x24
 4064 05ca 9F       		.byte	0x9f
 4065 05cb 00000000 		.4byte	0
 4066 05cf 00000000 		.4byte	0
 4067              	.LLST28:
 4068 05d3 6C030000 		.4byte	.LFB139-.Ltext0
 4069 05d7 6E030000 		.4byte	.LCFI4-.Ltext0
 4070 05db 0200     		.2byte	0x2
 4071 05dd 7D       		.byte	0x7d
 4072 05de 00       		.sleb128 0
 4073 05df 6E030000 		.4byte	.LCFI4-.Ltext0
 4074 05e3 A0030000 		.4byte	.LFE139-.Ltext0
 4075 05e7 0200     		.2byte	0x2
 4076 05e9 7D       		.byte	0x7d
 4077 05ea 08       		.sleb128 8
 4078 05eb 00000000 		.4byte	0
 4079 05ef 00000000 		.4byte	0
 4080              	.LLST29:
 4081 05f3 6C030000 		.4byte	.LVL86-.Ltext0
 4082 05f7 9C030000 		.4byte	.LVL99-.Ltext0
 4083 05fb 0100     		.2byte	0x1
 4084 05fd 50       		.byte	0x50
 4085 05fe 9C030000 		.4byte	.LVL99-.Ltext0
 4086 0602 A0030000 		.4byte	.LFE139-.Ltext0
 4087 0606 0200     		.2byte	0x2
 4088 0608 91       		.byte	0x91
 4089 0609 7C       		.sleb128 -4
 4090 060a 00000000 		.4byte	0
 4091 060e 00000000 		.4byte	0
 4092              	.LLST30:
 4093 0612 6C030000 		.4byte	.LVL86-.Ltext0
 4094 0616 80030000 		.4byte	.LVL92-.Ltext0
 4095 061a 0100     		.2byte	0x1
 4096 061c 51       		.byte	0x51
 4097 061d 80030000 		.4byte	.LVL92-.Ltext0
 4098 0621 A0030000 		.4byte	.LFE139-.Ltext0
 4099 0625 0100     		.2byte	0x1
 4100 0627 51       		.byte	0x51
 4101 0628 00000000 		.4byte	0
 4102 062c 00000000 		.4byte	0
ARM GAS  C:\Users\Kevin\AppData\Local\Temp\cc2AQj48.s 			page 98


 4103              	.LLST31:
 4104 0630 6C030000 		.4byte	.LVL86-.Ltext0
 4105 0634 94030000 		.4byte	.LVL98-.Ltext0
 4106 0638 0200     		.2byte	0x2
 4107 063a 30       		.byte	0x30
 4108 063b 9F       		.byte	0x9f
 4109 063c 94030000 		.4byte	.LVL98-.Ltext0
 4110 0640 A0030000 		.4byte	.LFE139-.Ltext0
 4111 0644 0800     		.2byte	0x8
 4112 0646 71       		.byte	0x71
 4113 0647 00       		.sleb128 0
 4114 0648 73       		.byte	0x73
 4115 0649 00       		.sleb128 0
 4116 064a 1A       		.byte	0x1a
 4117 064b 30       		.byte	0x30
 4118 064c 2E       		.byte	0x2e
 4119 064d 9F       		.byte	0x9f
 4120 064e 00000000 		.4byte	0
 4121 0652 00000000 		.4byte	0
 4122              	.LLST32:
 4123 0656 72030000 		.4byte	.LVL87-.Ltext0
 4124 065a 76030000 		.4byte	.LVL89-.Ltext0
 4125 065e 0200     		.2byte	0x2
 4126 0660 91       		.byte	0x91
 4127 0661 78       		.sleb128 -8
 4128 0662 7A030000 		.4byte	.LVL90-.Ltext0
 4129 0666 7C030000 		.4byte	.LVL91-.Ltext0
 4130 066a 0100     		.2byte	0x1
 4131 066c 53       		.byte	0x53
 4132 066d 7C030000 		.4byte	.LVL91-.Ltext0
 4133 0671 A0030000 		.4byte	.LFE139-.Ltext0
 4134 0675 0200     		.2byte	0x2
 4135 0677 91       		.byte	0x91
 4136 0678 78       		.sleb128 -8
 4137 0679 00000000 		.4byte	0
 4138 067d 00000000 		.4byte	0
 4139              	.LLST33:
 4140 0681 74030000 		.4byte	.LVL88-.Ltext0
 4141 0685 86030000 		.4byte	.LVL93-.Ltext0
 4142 0689 0200     		.2byte	0x2
 4143 068b 91       		.byte	0x91
 4144 068c 7C       		.sleb128 -4
 4145 068d 88030000 		.4byte	.LVL94-.Ltext0
 4146 0691 8E030000 		.4byte	.LVL96-.Ltext0
 4147 0695 0200     		.2byte	0x2
 4148 0697 91       		.byte	0x91
 4149 0698 7C       		.sleb128 -4
 4150 0699 8E030000 		.4byte	.LVL96-.Ltext0
 4151 069d 92030000 		.4byte	.LVL97-.Ltext0
 4152 06a1 0100     		.2byte	0x1
 4153 06a3 53       		.byte	0x53
 4154 06a4 92030000 		.4byte	.LVL97-.Ltext0
 4155 06a8 A0030000 		.4byte	.LFE139-.Ltext0
 4156 06ac 0200     		.2byte	0x2
 4157 06ae 91       		.byte	0x91
 4158 06af 7C       		.sleb128 -4
 4159 06b0 00000000 		.4byte	0
ARM GAS  C:\Users\Kevin\AppData\Local\Temp\cc2AQj48.s 			page 99


 4160 06b4 00000000 		.4byte	0
 4161              	.LLST34:
 4162 06b8 A0030000 		.4byte	.LVL100-.Ltext0
 4163 06bc A2030000 		.4byte	.LVL101-.Ltext0
 4164 06c0 0100     		.2byte	0x1
 4165 06c2 51       		.byte	0x51
 4166 06c3 A2030000 		.4byte	.LVL101-.Ltext0
 4167 06c7 A6030000 		.4byte	.LFE140-.Ltext0
 4168 06cb 0400     		.2byte	0x4
 4169 06cd 71       		.byte	0x71
 4170 06ce 00       		.sleb128 0
 4171 06cf 20       		.byte	0x20
 4172 06d0 9F       		.byte	0x9f
 4173 06d1 00000000 		.4byte	0
 4174 06d5 00000000 		.4byte	0
 4175              	.LLST35:
 4176 06d9 A0030000 		.4byte	.LVL100-.Ltext0
 4177 06dd A2030000 		.4byte	.LVL101-.Ltext0
 4178 06e1 0900     		.2byte	0x9
 4179 06e3 71       		.byte	0x71
 4180 06e4 00       		.sleb128 0
 4181 06e5 0C       		.byte	0xc
 4182 06e6 FFFFFF00 		.4byte	0xffffff
 4183 06ea 1A       		.byte	0x1a
 4184 06eb 9F       		.byte	0x9f
 4185 06ec A2030000 		.4byte	.LVL101-.Ltext0
 4186 06f0 A6030000 		.4byte	.LFE140-.Ltext0
 4187 06f4 0A00     		.2byte	0xa
 4188 06f6 71       		.byte	0x71
 4189 06f7 00       		.sleb128 0
 4190 06f8 20       		.byte	0x20
 4191 06f9 0C       		.byte	0xc
 4192 06fa FFFFFF00 		.4byte	0xffffff
 4193 06fe 1A       		.byte	0x1a
 4194 06ff 9F       		.byte	0x9f
 4195 0700 00000000 		.4byte	0
 4196 0704 00000000 		.4byte	0
 4197              	.LLST36:
 4198 0708 A6030000 		.4byte	.LVL102-.Ltext0
 4199 070c AA030000 		.4byte	.LVL103-.Ltext0
 4200 0710 0100     		.2byte	0x1
 4201 0712 50       		.byte	0x50
 4202 0713 AA030000 		.4byte	.LVL103-.Ltext0
 4203 0717 C2030000 		.4byte	.LFE141-.Ltext0
 4204 071b 0400     		.2byte	0x4
 4205 071d F3       		.byte	0xf3
 4206 071e 01       		.uleb128 0x1
 4207 071f 50       		.byte	0x50
 4208 0720 9F       		.byte	0x9f
 4209 0721 00000000 		.4byte	0
 4210 0725 00000000 		.4byte	0
 4211              	.LLST37:
 4212 0729 A6030000 		.4byte	.LVL102-.Ltext0
 4213 072d B0030000 		.4byte	.LVL104-.Ltext0
 4214 0731 0100     		.2byte	0x1
 4215 0733 51       		.byte	0x51
 4216 0734 B0030000 		.4byte	.LVL104-.Ltext0
ARM GAS  C:\Users\Kevin\AppData\Local\Temp\cc2AQj48.s 			page 100


 4217 0738 B6030000 		.4byte	.LVL105-.Ltext0
 4218 073c 0900     		.2byte	0x9
 4219 073e 71       		.byte	0x71
 4220 073f 00       		.sleb128 0
 4221 0740 0C       		.byte	0xc
 4222 0741 FFFFFF00 		.4byte	0xffffff
 4223 0745 1A       		.byte	0x1a
 4224 0746 9F       		.byte	0x9f
 4225 0747 B6030000 		.4byte	.LVL105-.Ltext0
 4226 074b C2030000 		.4byte	.LFE141-.Ltext0
 4227 074f 0A00     		.2byte	0xa
 4228 0751 F3       		.byte	0xf3
 4229 0752 01       		.uleb128 0x1
 4230 0753 51       		.byte	0x51
 4231 0754 0C       		.byte	0xc
 4232 0755 FFFFFF00 		.4byte	0xffffff
 4233 0759 1A       		.byte	0x1a
 4234 075a 9F       		.byte	0x9f
 4235 075b 00000000 		.4byte	0
 4236 075f 00000000 		.4byte	0
 4237              	.LLST38:
 4238 0763 A6030000 		.4byte	.LVL102-.Ltext0
 4239 0767 C0030000 		.4byte	.LVL107-.Ltext0
 4240 076b 0200     		.2byte	0x2
 4241 076d 30       		.byte	0x30
 4242 076e 9F       		.byte	0x9f
 4243 076f C0030000 		.4byte	.LVL107-.Ltext0
 4244 0773 C2030000 		.4byte	.LFE141-.Ltext0
 4245 0777 0100     		.2byte	0x1
 4246 0779 50       		.byte	0x50
 4247 077a 00000000 		.4byte	0
 4248 077e 00000000 		.4byte	0
 4249              	.LLST39:
 4250 0782 A6030000 		.4byte	.LVL102-.Ltext0
 4251 0786 B0030000 		.4byte	.LVL104-.Ltext0
 4252 078a 0200     		.2byte	0x2
 4253 078c 30       		.byte	0x30
 4254 078d 9F       		.byte	0x9f
 4255 078e B0030000 		.4byte	.LVL104-.Ltext0
 4256 0792 B6030000 		.4byte	.LVL105-.Ltext0
 4257 0796 1000     		.2byte	0x10
 4258 0798 71       		.byte	0x71
 4259 0799 00       		.sleb128 0
 4260 079a 4C       		.byte	0x4c
 4261 079b 46       		.byte	0x46
 4262 079c 24       		.byte	0x24
 4263 079d 1A       		.byte	0x1a
 4264 079e 40       		.byte	0x40
 4265 079f 25       		.byte	0x25
 4266 07a0 73       		.byte	0x73
 4267 07a1 00       		.sleb128 0
 4268 07a2 0A       		.byte	0xa
 4269 07a3 FFFF     		.2byte	0xffff
 4270 07a5 1A       		.byte	0x1a
 4271 07a6 1A       		.byte	0x1a
 4272 07a7 9F       		.byte	0x9f
 4273 07a8 B6030000 		.4byte	.LVL105-.Ltext0
ARM GAS  C:\Users\Kevin\AppData\Local\Temp\cc2AQj48.s 			page 101


 4274 07ac BA030000 		.4byte	.LVL106-.Ltext0
 4275 07b0 0C00     		.2byte	0xc
 4276 07b2 71       		.byte	0x71
 4277 07b3 00       		.sleb128 0
 4278 07b4 40       		.byte	0x40
 4279 07b5 25       		.byte	0x25
 4280 07b6 73       		.byte	0x73
 4281 07b7 00       		.sleb128 0
 4282 07b8 0A       		.byte	0xa
 4283 07b9 FFFF     		.2byte	0xffff
 4284 07bb 1A       		.byte	0x1a
 4285 07bc 1A       		.byte	0x1a
 4286 07bd 9F       		.byte	0x9f
 4287 07be BA030000 		.4byte	.LVL106-.Ltext0
 4288 07c2 C2030000 		.4byte	.LFE141-.Ltext0
 4289 07c6 1100     		.2byte	0x11
 4290 07c8 F3       		.byte	0xf3
 4291 07c9 01       		.uleb128 0x1
 4292 07ca 51       		.byte	0x51
 4293 07cb 4C       		.byte	0x4c
 4294 07cc 46       		.byte	0x46
 4295 07cd 24       		.byte	0x24
 4296 07ce 1A       		.byte	0x1a
 4297 07cf 40       		.byte	0x40
 4298 07d0 25       		.byte	0x25
 4299 07d1 73       		.byte	0x73
 4300 07d2 00       		.sleb128 0
 4301 07d3 0A       		.byte	0xa
 4302 07d4 FFFF     		.2byte	0xffff
 4303 07d6 1A       		.byte	0x1a
 4304 07d7 1A       		.byte	0x1a
 4305 07d8 9F       		.byte	0x9f
 4306 07d9 00000000 		.4byte	0
 4307 07dd 00000000 		.4byte	0
 4308              	.LLST40:
 4309 07e1 C2030000 		.4byte	.LVL108-.Ltext0
 4310 07e5 C4030000 		.4byte	.LVL109-.Ltext0
 4311 07e9 0100     		.2byte	0x1
 4312 07eb 51       		.byte	0x51
 4313 07ec C4030000 		.4byte	.LVL109-.Ltext0
 4314 07f0 C8030000 		.4byte	.LFE142-.Ltext0
 4315 07f4 0400     		.2byte	0x4
 4316 07f6 71       		.byte	0x71
 4317 07f7 00       		.sleb128 0
 4318 07f8 20       		.byte	0x20
 4319 07f9 9F       		.byte	0x9f
 4320 07fa 00000000 		.4byte	0
 4321 07fe 00000000 		.4byte	0
 4322              	.LLST41:
 4323 0802 C2030000 		.4byte	.LVL108-.Ltext0
 4324 0806 C4030000 		.4byte	.LVL109-.Ltext0
 4325 080a 0900     		.2byte	0x9
 4326 080c 71       		.byte	0x71
 4327 080d 00       		.sleb128 0
 4328 080e 0C       		.byte	0xc
 4329 080f FFFFFF00 		.4byte	0xffffff
 4330 0813 1A       		.byte	0x1a
ARM GAS  C:\Users\Kevin\AppData\Local\Temp\cc2AQj48.s 			page 102


 4331 0814 9F       		.byte	0x9f
 4332 0815 C4030000 		.4byte	.LVL109-.Ltext0
 4333 0819 C8030000 		.4byte	.LFE142-.Ltext0
 4334 081d 0A00     		.2byte	0xa
 4335 081f 71       		.byte	0x71
 4336 0820 00       		.sleb128 0
 4337 0821 20       		.byte	0x20
 4338 0822 0C       		.byte	0xc
 4339 0823 FFFFFF00 		.4byte	0xffffff
 4340 0827 1A       		.byte	0x1a
 4341 0828 9F       		.byte	0x9f
 4342 0829 00000000 		.4byte	0
 4343 082d 00000000 		.4byte	0
 4344              		.section	.debug_aranges,"",%progbits
 4345 0000 1C000000 		.4byte	0x1c
 4346 0004 0200     		.2byte	0x2
 4347 0006 00000000 		.4byte	.Ldebug_info0
 4348 000a 04       		.byte	0x4
 4349 000b 00       		.byte	0
 4350 000c 0000     		.2byte	0
 4351 000e 0000     		.2byte	0
 4352 0010 00000000 		.4byte	.Ltext0
 4353 0014 C8030000 		.4byte	.Letext0-.Ltext0
 4354 0018 00000000 		.4byte	0
 4355 001c 00000000 		.4byte	0
 4356              		.section	.debug_line,"",%progbits
 4357              	.Ldebug_line0:
 4358 0000 61020000 		.section	.debug_str,"MS",%progbits,1
 4358      0200FB00 
 4358      00000201 
 4358      FB0E0D00 
 4358      01010101 
 4359              	.LASF87:
 4360 0000 4932435F 		.ascii	"I2C_ReadRegister\000"
 4360      52656164 
 4360      52656769 
 4360      73746572 
 4360      00
 4361              	.LASF25:
 4362 0011 4F415231 		.ascii	"OAR1\000"
 4362      00
 4363              	.LASF54:
 4364 0016 72657375 		.ascii	"result\000"
 4364      6C7400
 4365              	.LASF98:
 4366 001d 4932435F 		.ascii	"I2C_GetFlagStatus\000"
 4366      47657446 
 4366      6C616753 
 4366      74617475 
 4366      7300
 4367              	.LASF69:
 4368 002f 4932435F 		.ascii	"I2C_SoftwareResetCmd\000"
 4368      536F6674 
 4368      77617265 
 4368      52657365 
 4368      74436D64 
 4369              	.LASF90:
ARM GAS  C:\Users\Kevin\AppData\Local\Temp\cc2AQj48.s 			page 103


 4370 0044 4932435F 		.ascii	"I2C_IT\000"
 4370      495400
 4371              	.LASF93:
 4372 004b 6C617374 		.ascii	"lastevent\000"
 4372      6576656E 
 4372      7400
 4373              	.LASF52:
 4374 0055 746D7072 		.ascii	"tmpreg\000"
 4374      656700
 4375              	.LASF72:
 4376 005c 4932435F 		.ascii	"I2C_NACKPositionConfig\000"
 4376      4E41434B 
 4376      506F7369 
 4376      74696F6E 
 4376      436F6E66 
 4377              	.LASF13:
 4378 0073 73697A65 		.ascii	"sizetype\000"
 4378      74797065 
 4378      00
 4379              	.LASF37:
 4380 007c 48434C4B 		.ascii	"HCLK_Frequency\000"
 4380      5F467265 
 4380      7175656E 
 4380      637900
 4381              	.LASF46:
 4382 008b 4932435F 		.ascii	"I2C_AcknowledgedAddress\000"
 4382      41636B6E 
 4382      6F776C65 
 4382      64676564 
 4382      41646472 
 4383              	.LASF58:
 4384 00a3 4932435F 		.ascii	"I2C_Cmd\000"
 4384      436D6400 
 4385              	.LASF65:
 4386 00ab 4932435F 		.ascii	"I2C_AcknowledgeConfig\000"
 4386      41636B6E 
 4386      6F776C65 
 4386      64676543 
 4386      6F6E6669 
 4387              	.LASF50:
 4388 00c1 49324378 		.ascii	"I2Cx\000"
 4388      00
 4389              	.LASF56:
 4390 00c6 7263635F 		.ascii	"rcc_clocks\000"
 4390      636C6F63 
 4390      6B7300
 4391              	.LASF63:
 4392 00d1 41646472 		.ascii	"Address\000"
 4392      65737300 
 4393              	.LASF107:
 4394 00d9 4932435F 		.ascii	"I2C_ClearITPendingBit\000"
 4394      436C6561 
 4394      72495450 
 4394      656E6469 
 4394      6E674269 
 4395              	.LASF77:
 4396 00ef 4932435F 		.ascii	"I2C_SendData\000"
ARM GAS  C:\Users\Kevin\AppData\Local\Temp\cc2AQj48.s 			page 104


 4396      53656E64 
 4396      44617461 
 4396      00
 4397              	.LASF40:
 4398 00fc 5243435F 		.ascii	"RCC_ClocksTypeDef\000"
 4398      436C6F63 
 4398      6B735479 
 4398      70654465 
 4398      6600
 4399              	.LASF47:
 4400 010e 4932435F 		.ascii	"I2C_InitTypeDef\000"
 4400      496E6974 
 4400      54797065 
 4400      44656600 
 4401              	.LASF99:
 4402 011e 4932435F 		.ascii	"I2C_FLAG\000"
 4402      464C4147 
 4402      00
 4403              	.LASF73:
 4404 0127 4932435F 		.ascii	"I2C_NACKPosition\000"
 4404      4E41434B 
 4404      506F7369 
 4404      74696F6E 
 4404      00
 4405              	.LASF4:
 4406 0138 75696E74 		.ascii	"uint8_t\000"
 4406      385F7400 
 4407              	.LASF74:
 4408 0140 4932435F 		.ascii	"I2C_SMBusAlertConfig\000"
 4408      534D4275 
 4408      73416C65 
 4408      7274436F 
 4408      6E666967 
 4409              	.LASF94:
 4410 0155 666C6167 		.ascii	"flag1\000"
 4410      3100
 4411              	.LASF95:
 4412 015b 666C6167 		.ascii	"flag2\000"
 4412      3200
 4413              	.LASF82:
 4414 0161 4932435F 		.ascii	"I2C_CalculatePEC\000"
 4414      43616C63 
 4414      756C6174 
 4414      65504543 
 4414      00
 4415              	.LASF75:
 4416 0172 4932435F 		.ascii	"I2C_SMBusAlert\000"
 4416      534D4275 
 4416      73416C65 
 4416      727400
 4417              	.LASF3:
 4418 0181 73686F72 		.ascii	"short int\000"
 4418      7420696E 
 4418      7400
 4419              	.LASF55:
 4420 018b 70636C6B 		.ascii	"pclk1\000"
 4420      3100
ARM GAS  C:\Users\Kevin\AppData\Local\Temp\cc2AQj48.s 			page 105


 4421              	.LASF106:
 4422 0191 656E6162 		.ascii	"enablestatus\000"
 4422      6C657374 
 4422      61747573 
 4422      00
 4423              	.LASF85:
 4424 019e 4932435F 		.ascii	"I2C_DMACmd\000"
 4424      444D4143 
 4424      6D6400
 4425              	.LASF86:
 4426 01a9 4932435F 		.ascii	"I2C_DMALastTransferCmd\000"
 4426      444D414C 
 4426      61737454 
 4426      72616E73 
 4426      66657243 
 4427              	.LASF11:
 4428 01c0 6C6F6E67 		.ascii	"long long int\000"
 4428      206C6F6E 
 4428      6720696E 
 4428      7400
 4429              	.LASF84:
 4430 01ce 4932435F 		.ascii	"I2C_GetPEC\000"
 4430      47657450 
 4430      454300
 4431              	.LASF108:
 4432 01d9 5243435F 		.ascii	"RCC_APB1PeriphResetCmd\000"
 4432      41504231 
 4432      50657269 
 4432      70685265 
 4432      73657443 
 4433              	.LASF16:
 4434 01f0 49545374 		.ascii	"ITStatus\000"
 4434      61747573 
 4434      00
 4435              	.LASF27:
 4436 01f9 4F415232 		.ascii	"OAR2\000"
 4436      00
 4437              	.LASF8:
 4438 01fe 6C6F6E67 		.ascii	"long int\000"
 4438      20696E74 
 4438      00
 4439              	.LASF22:
 4440 0207 4572726F 		.ascii	"ErrorStatus\000"
 4440      72537461 
 4440      74757300 
 4441              	.LASF67:
 4442 0213 4932435F 		.ascii	"I2C_DualAddressCmd\000"
 4442      4475616C 
 4442      41646472 
 4442      65737343 
 4442      6D6400
 4443              	.LASF68:
 4444 0226 4932435F 		.ascii	"I2C_GeneralCallCmd\000"
 4444      47656E65 
 4444      72616C43 
 4444      616C6C43 
 4444      6D6400
ARM GAS  C:\Users\Kevin\AppData\Local\Temp\cc2AQj48.s 			page 106


 4445              	.LASF102:
 4446 0239 69326378 		.ascii	"i2cxbase\000"
 4446      62617365 
 4446      00
 4447              	.LASF20:
 4448 0242 4552524F 		.ascii	"ERROR\000"
 4448      5200
 4449              	.LASF78:
 4450 0248 44617461 		.ascii	"Data\000"
 4450      00
 4451              	.LASF35:
 4452 024d 4932435F 		.ascii	"I2C_TypeDef\000"
 4452      54797065 
 4452      44656600 
 4453              	.LASF104:
 4454 0259 666C6167 		.ascii	"flagpos\000"
 4454      706F7300 
 4455              	.LASF100:
 4456 0261 62697473 		.ascii	"bitstatus\000"
 4456      74617475 
 4456      7300
 4457              	.LASF42:
 4458 026b 4932435F 		.ascii	"I2C_Mode\000"
 4458      4D6F6465 
 4458      00
 4459              	.LASF59:
 4460 0274 4E657753 		.ascii	"NewState\000"
 4460      74617465 
 4460      00
 4461              	.LASF101:
 4462 027d 69326372 		.ascii	"i2creg\000"
 4462      656700
 4463              	.LASF83:
 4464 0284 4932435F 		.ascii	"I2C_ReceiveData\000"
 4464      52656365 
 4464      69766544 
 4464      61746100 
 4465              	.LASF2:
 4466 0294 756E7369 		.ascii	"unsigned char\000"
 4466      676E6564 
 4466      20636861 
 4466      7200
 4467              	.LASF71:
 4468 02a2 4932435F 		.ascii	"I2C_FastModeDutyCycleConfig\000"
 4468      46617374 
 4468      4D6F6465 
 4468      44757479 
 4468      4379636C 
 4469              	.LASF1:
 4470 02be 7369676E 		.ascii	"signed char\000"
 4470      65642063 
 4470      68617200 
 4471              	.LASF12:
 4472 02ca 6C6F6E67 		.ascii	"long long unsigned int\000"
 4472      206C6F6E 
 4472      6720756E 
 4472      7369676E 
ARM GAS  C:\Users\Kevin\AppData\Local\Temp\cc2AQj48.s 			page 107


 4472      65642069 
 4473              	.LASF9:
 4474 02e1 75696E74 		.ascii	"uint32_t\000"
 4474      33325F74 
 4474      00
 4475              	.LASF0:
 4476 02ea 756E7369 		.ascii	"unsigned int\000"
 4476      676E6564 
 4476      20696E74 
 4476      00
 4477              	.LASF89:
 4478 02f7 4932435F 		.ascii	"I2C_ITConfig\000"
 4478      4954436F 
 4478      6E666967 
 4478      00
 4479              	.LASF92:
 4480 0304 4932435F 		.ascii	"I2C_EVENT\000"
 4480      4556454E 
 4480      5400
 4481              	.LASF110:
 4482 030e 474E5520 		.ascii	"GNU C 4.7.2\000"
 4482      4320342E 
 4482      372E3200 
 4483              	.LASF10:
 4484 031a 6C6F6E67 		.ascii	"long unsigned int\000"
 4484      20756E73 
 4484      69676E65 
 4484      6420696E 
 4484      7400
 4485              	.LASF61:
 4486 032c 4932435F 		.ascii	"I2C_GenerateSTOP\000"
 4486      47656E65 
 4486      72617465 
 4486      53544F50 
 4486      00
 4487              	.LASF21:
 4488 033d 53554343 		.ascii	"SUCCESS\000"
 4488      45535300 
 4489              	.LASF6:
 4490 0345 73686F72 		.ascii	"short unsigned int\000"
 4490      7420756E 
 4490      7369676E 
 4490      65642069 
 4490      6E7400
 4491              	.LASF96:
 4492 0358 73746174 		.ascii	"status\000"
 4492      757300
 4493              	.LASF103:
 4494 035f 4932435F 		.ascii	"I2C_ClearFlag\000"
 4494      436C6561 
 4494      72466C61 
 4494      6700
 4495              	.LASF5:
 4496 036d 75696E74 		.ascii	"uint16_t\000"
 4496      31365F74 
 4496      00
 4497              	.LASF17:
ARM GAS  C:\Users\Kevin\AppData\Local\Temp\cc2AQj48.s 			page 108


 4498 0376 44495341 		.ascii	"DISABLE\000"
 4498      424C4500 
 4499              	.LASF7:
 4500 037e 696E7433 		.ascii	"int32_t\000"
 4500      325F7400 
 4501              	.LASF88:
 4502 0386 4932435F 		.ascii	"I2C_Register\000"
 4502      52656769 
 4502      73746572 
 4502      00
 4503              	.LASF60:
 4504 0393 4932435F 		.ascii	"I2C_GenerateSTART\000"
 4504      47656E65 
 4504      72617465 
 4504      53544152 
 4504      5400
 4505              	.LASF36:
 4506 03a5 53595343 		.ascii	"SYSCLK_Frequency\000"
 4506      4C4B5F46 
 4506      72657175 
 4506      656E6379 
 4506      00
 4507              	.LASF44:
 4508 03b6 4932435F 		.ascii	"I2C_OwnAddress1\000"
 4508      4F776E41 
 4508      64647265 
 4508      73733100 
 4509              	.LASF76:
 4510 03c6 4932435F 		.ascii	"I2C_ARPCmd\000"
 4510      41525043 
 4510      6D6400
 4511              	.LASF64:
 4512 03d1 4932435F 		.ascii	"I2C_Direction\000"
 4512      44697265 
 4512      6374696F 
 4512      6E00
 4513              	.LASF45:
 4514 03df 4932435F 		.ascii	"I2C_Ack\000"
 4514      41636B00 
 4515              	.LASF23:
 4516 03e7 52455345 		.ascii	"RESERVED0\000"
 4516      52564544 
 4516      3000
 4517              	.LASF24:
 4518 03f1 52455345 		.ascii	"RESERVED1\000"
 4518      52564544 
 4518      3100
 4519              	.LASF26:
 4520 03fb 52455345 		.ascii	"RESERVED2\000"
 4520      52564544 
 4520      3200
 4521              	.LASF28:
 4522 0405 52455345 		.ascii	"RESERVED3\000"
 4522      52564544 
 4522      3300
 4523              	.LASF29:
 4524 040f 52455345 		.ascii	"RESERVED4\000"
ARM GAS  C:\Users\Kevin\AppData\Local\Temp\cc2AQj48.s 			page 109


 4524      52564544 
 4524      3400
 4525              	.LASF30:
 4526 0419 52455345 		.ascii	"RESERVED5\000"
 4526      52564544 
 4526      3500
 4527              	.LASF31:
 4528 0423 52455345 		.ascii	"RESERVED6\000"
 4528      52564544 
 4528      3600
 4529              	.LASF32:
 4530 042d 52455345 		.ascii	"RESERVED7\000"
 4530      52564544 
 4530      3700
 4531              	.LASF34:
 4532 0437 52455345 		.ascii	"RESERVED8\000"
 4532      52564544 
 4532      3800
 4533              	.LASF80:
 4534 0441 4932435F 		.ascii	"I2C_PECPositionConfig\000"
 4534      50454350 
 4534      6F736974 
 4534      696F6E43 
 4534      6F6E6669 
 4535              	.LASF53:
 4536 0457 66726571 		.ascii	"freqrange\000"
 4536      72616E67 
 4536      6500
 4537              	.LASF19:
 4538 0461 46756E63 		.ascii	"FunctionalState\000"
 4538      74696F6E 
 4538      616C5374 
 4538      61746500 
 4539              	.LASF113:
 4540 0471 49544D5F 		.ascii	"ITM_RxBuffer\000"
 4540      52784275 
 4540      66666572 
 4540      00
 4541              	.LASF57:
 4542 047e 4932435F 		.ascii	"I2C_StructInit\000"
 4542      53747275 
 4542      6374496E 
 4542      697400
 4543              	.LASF38:
 4544 048d 50434C4B 		.ascii	"PCLK1_Frequency\000"
 4544      315F4672 
 4544      65717565 
 4544      6E637900 
 4545              	.LASF48:
 4546 049d 4932435F 		.ascii	"I2C_DeInit\000"
 4546      4465496E 
 4546      697400
 4547              	.LASF39:
 4548 04a8 50434C4B 		.ascii	"PCLK2_Frequency\000"
 4548      325F4672 
 4548      65717565 
 4548      6E637900 
ARM GAS  C:\Users\Kevin\AppData\Local\Temp\cc2AQj48.s 			page 110


 4549              	.LASF109:
 4550 04b8 5243435F 		.ascii	"RCC_GetClocksFreq\000"
 4550      47657443 
 4550      6C6F636B 
 4550      73467265 
 4550      7100
 4551              	.LASF14:
 4552 04ca 52455345 		.ascii	"RESET\000"
 4552      5400
 4553              	.LASF66:
 4554 04d0 4932435F 		.ascii	"I2C_OwnAddress2Config\000"
 4554      4F776E41 
 4554      64647265 
 4554      73733243 
 4554      6F6E6669 
 4555              	.LASF51:
 4556 04e6 4932435F 		.ascii	"I2C_InitStruct\000"
 4556      496E6974 
 4556      53747275 
 4556      637400
 4557              	.LASF70:
 4558 04f5 4932435F 		.ascii	"I2C_StretchClockCmd\000"
 4558      53747265 
 4558      74636843 
 4558      6C6F636B 
 4558      436D6400 
 4559              	.LASF41:
 4560 0509 4932435F 		.ascii	"I2C_ClockSpeed\000"
 4560      436C6F63 
 4560      6B537065 
 4560      656400
 4561              	.LASF105:
 4562 0518 4932435F 		.ascii	"I2C_GetITStatus\000"
 4562      47657449 
 4562      54537461 
 4562      74757300 
 4563              	.LASF111:
 4564 0528 2E5C7374 		.ascii	".\\stm32f4periph\\src\\stm32f4xx_i2c.c\000"
 4564      6D333266 
 4564      34706572 
 4564      6970685C 
 4564      7372635C 
 4565              	.LASF79:
 4566 054c 4932435F 		.ascii	"I2C_TransmitPEC\000"
 4566      5472616E 
 4566      736D6974 
 4566      50454300 
 4567              	.LASF81:
 4568 055c 4932435F 		.ascii	"I2C_PECPosition\000"
 4568      50454350 
 4568      6F736974 
 4568      696F6E00 
 4569              	.LASF33:
 4570 056c 54524953 		.ascii	"TRISE\000"
 4570      4500
 4571              	.LASF43:
 4572 0572 4932435F 		.ascii	"I2C_DutyCycle\000"
ARM GAS  C:\Users\Kevin\AppData\Local\Temp\cc2AQj48.s 			page 111


 4572      44757479 
 4572      4379636C 
 4572      6500
 4573              	.LASF112:
 4574 0580 443A5C4E 		.ascii	"D:\\NiVek\\Firmware\\NiVek32\000"
 4574      6956656B 
 4574      5C466972 
 4574      6D776172 
 4574      655C4E69 
 4575              	.LASF49:
 4576 059a 4932435F 		.ascii	"I2C_Init\000"
 4576      496E6974 
 4576      00
 4577              	.LASF62:
 4578 05a3 4932435F 		.ascii	"I2C_Send7bitAddress\000"
 4578      53656E64 
 4578      37626974 
 4578      41646472 
 4578      65737300 
 4579              	.LASF91:
 4580 05b7 4932435F 		.ascii	"I2C_CheckEvent\000"
 4580      43686563 
 4580      6B457665 
 4580      6E7400
 4581              	.LASF15:
 4582 05c6 466C6167 		.ascii	"FlagStatus\000"
 4582      53746174 
 4582      757300
 4583              	.LASF18:
 4584 05d1 454E4142 		.ascii	"ENABLE\000"
 4584      4C4500
 4585              	.LASF97:
 4586 05d8 4932435F 		.ascii	"I2C_GetLastEvent\000"
 4586      4765744C 
 4586      61737445 
 4586      76656E74 
 4586      00
 4587              		.ident	"GCC: (Sourcery CodeBench Lite 2012.09-63) 4.7.2"
ARM GAS  C:\Users\Kevin\AppData\Local\Temp\cc2AQj48.s 			page 112


DEFINED SYMBOLS
                            *ABS*:00000000 stm32f4xx_i2c.c
C:\Users\Kevin\AppData\Local\Temp\cc2AQj48.s:70     .text:00000000 $t
C:\Users\Kevin\AppData\Local\Temp\cc2AQj48.s:75     .text:00000000 I2C_DeInit
C:\Users\Kevin\AppData\Local\Temp\cc2AQj48.s:142    .text:00000050 $d
C:\Users\Kevin\AppData\Local\Temp\cc2AQj48.s:148    .text:0000005c $t
C:\Users\Kevin\AppData\Local\Temp\cc2AQj48.s:153    .text:0000005c I2C_Init
C:\Users\Kevin\AppData\Local\Temp\cc2AQj48.s:321    .text:0000011c $d
C:\Users\Kevin\AppData\Local\Temp\cc2AQj48.s:326    .text:00000124 $t
C:\Users\Kevin\AppData\Local\Temp\cc2AQj48.s:331    .text:00000124 I2C_StructInit
C:\Users\Kevin\AppData\Local\Temp\cc2AQj48.s:366    .text:00000140 I2C_Cmd
C:\Users\Kevin\AppData\Local\Temp\cc2AQj48.s:398    .text:00000158 I2C_GenerateSTART
C:\Users\Kevin\AppData\Local\Temp\cc2AQj48.s:430    .text:00000170 I2C_GenerateSTOP
C:\Users\Kevin\AppData\Local\Temp\cc2AQj48.s:462    .text:00000188 I2C_Send7bitAddress
C:\Users\Kevin\AppData\Local\Temp\cc2AQj48.s:492    .text:00000198 I2C_AcknowledgeConfig
C:\Users\Kevin\AppData\Local\Temp\cc2AQj48.s:524    .text:000001b0 I2C_OwnAddress2Config
C:\Users\Kevin\AppData\Local\Temp\cc2AQj48.s:556    .text:000001c2 I2C_DualAddressCmd
C:\Users\Kevin\AppData\Local\Temp\cc2AQj48.s:588    .text:000001da I2C_GeneralCallCmd
C:\Users\Kevin\AppData\Local\Temp\cc2AQj48.s:620    .text:000001f2 I2C_SoftwareResetCmd
C:\Users\Kevin\AppData\Local\Temp\cc2AQj48.s:651    .text:00000208 I2C_StretchClockCmd
C:\Users\Kevin\AppData\Local\Temp\cc2AQj48.s:683    .text:00000220 I2C_FastModeDutyCycleConfig
C:\Users\Kevin\AppData\Local\Temp\cc2AQj48.s:717    .text:0000023c I2C_NACKPositionConfig
C:\Users\Kevin\AppData\Local\Temp\cc2AQj48.s:751    .text:00000258 I2C_SMBusAlertConfig
C:\Users\Kevin\AppData\Local\Temp\cc2AQj48.s:785    .text:00000274 I2C_ARPCmd
C:\Users\Kevin\AppData\Local\Temp\cc2AQj48.s:817    .text:0000028c I2C_SendData
C:\Users\Kevin\AppData\Local\Temp\cc2AQj48.s:836    .text:00000290 I2C_ReceiveData
C:\Users\Kevin\AppData\Local\Temp\cc2AQj48.s:858    .text:00000296 I2C_TransmitPEC
C:\Users\Kevin\AppData\Local\Temp\cc2AQj48.s:890    .text:000002ae I2C_PECPositionConfig
C:\Users\Kevin\AppData\Local\Temp\cc2AQj48.s:924    .text:000002ca I2C_CalculatePEC
C:\Users\Kevin\AppData\Local\Temp\cc2AQj48.s:956    .text:000002e2 I2C_GetPEC
C:\Users\Kevin\AppData\Local\Temp\cc2AQj48.s:978    .text:000002ea I2C_DMACmd
C:\Users\Kevin\AppData\Local\Temp\cc2AQj48.s:1010   .text:00000302 I2C_DMALastTransferCmd
C:\Users\Kevin\AppData\Local\Temp\cc2AQj48.s:1042   .text:0000031a I2C_ReadRegister
C:\Users\Kevin\AppData\Local\Temp\cc2AQj48.s:1081   .text:00000332 I2C_ITConfig
C:\Users\Kevin\AppData\Local\Temp\cc2AQj48.s:1114   .text:00000344 I2C_CheckEvent
C:\Users\Kevin\AppData\Local\Temp\cc2AQj48.s:1150   .text:0000035c I2C_GetLastEvent
C:\Users\Kevin\AppData\Local\Temp\cc2AQj48.s:1180   .text:0000036c I2C_GetFlagStatus
C:\Users\Kevin\AppData\Local\Temp\cc2AQj48.s:1251   .text:000003a0 I2C_ClearFlag
C:\Users\Kevin\AppData\Local\Temp\cc2AQj48.s:1272   .text:000003a6 I2C_GetITStatus
C:\Users\Kevin\AppData\Local\Temp\cc2AQj48.s:1314   .text:000003c2 I2C_ClearITPendingBit
                     .debug_frame:00000010 $d

UNDEFINED SYMBOLS
RCC_APB1PeriphResetCmd
RCC_GetClocksFreq
