ARM GAS  C:\Users\Kevin\AppData\Local\Temp\cc980Kfj.s 			page 1


   1              		.syntax unified
   2              		.cpu cortex-m4
   3              		.eabi_attribute 27, 3	@ Tag_ABI_HardFP_use
   4              		.eabi_attribute 28, 1	@ Tag_ABI_VFP_args
   5              		.fpu fpv4-sp-d16
   6              		.eabi_attribute 20, 1	@ Tag_ABI_FP_denormal
   7              		.eabi_attribute 21, 1	@ Tag_ABI_FP_exceptions
   8              		.eabi_attribute 23, 3	@ Tag_ABI_FP_number_model
   9              		.eabi_attribute 24, 1	@ Tag_ABI_align8_needed
  10              		.eabi_attribute 25, 1	@ Tag_ABI_align8_preserved
  11              		.eabi_attribute 26, 1	@ Tag_ABI_enum_size
  12              		.eabi_attribute 30, 4	@ Tag_ABI_optimization_goals
  13              		.eabi_attribute 34, 1	@ Tag_CPU_unaligned_access
  14              		.eabi_attribute 18, 4	@ Tag_ABI_PCS_wchar_t
  15              		.file	"stm32f4xx_syscfg.c"
  16              	@ GNU C (Sourcery CodeBench Lite 2012.09-63) version 4.7.2 (arm-none-eabi)
  17              	@	compiled by GNU C version 4.3.2, GMP version 5.0.5, MPFR version 3.1.1-p2, MPC version 1.0.1
  18              	@ GGC heuristics: --param ggc-min-expand=100 --param ggc-min-heapsize=131072
  19              	@ options passed:  -I . -I \STMSPINCDDIR -I .\stm32f4periph\inc
  20              	@ -I .\CMSIS\Include -I .\inc\commo\usb -I .\inc\commo -I .\inc\common
  21              	@ -I .\inc -imultilib thumb2
  22              	@ -iprefix k:\electronics\gcc\bin\../lib/gcc/arm-none-eabi/4.7.2/
  23              	@ -isysroot k:\electronics\gcc\bin\../arm-none-eabi
  24              	@ -MD .\stm32f4periph\src\stm32f4xx_syscfg.d -MF .dep\stm32f4xx_syscfg.o.d
  25              	@ -MP -MQ .\stm32f4periph\src\stm32f4xx_syscfg.o -D__USES_INITFINI__
  26              	@ -D STM32F0XX -D USE_STDPERIPH_DRIVER -D RUN_FROM_FLASH=1
  27              	@ -D __CS_SOURCERYGXX_MAJ__=2012 -D __CS_SOURCERYGXX_MIN__=9
  28              	@ -D __CS_SOURCERYGXX_REV__=63 .\stm32f4periph\src\stm32f4xx_syscfg.c
  29              	@ -mcpu=cortex-m4 -mfpu=fpv4-sp-d16 -mfloat-abi=hard -mthumb
  30              	@ -auxbase-strip .\stm32f4periph\src\stm32f4xx_syscfg.o -gdwarf-2 -Os -Wall
  31              	@ -Wstrict-prototypes -std=gnu99 -fomit-frame-pointer -fverbose-asm
  32              	@ options enabled:  -fauto-inc-dec -fbranch-count-reg -fcaller-saves
  33              	@ -fcombine-stack-adjustments -fcommon -fcompare-elim -fcprop-registers
  34              	@ -fcrossjumping -fcse-follow-jumps -fdebug-types-section -fdefer-pop
  35              	@ -fdelete-null-pointer-checks -fdevirtualize -fdwarf2-cfi-asm
  36              	@ -fearly-inlining -feliminate-unused-debug-types -fexpensive-optimizations
  37              	@ -fextension-elimination -fforward-propagate -ffunction-cse -fgcse
  38              	@ -fgcse-lm -fgnu-runtime -fguess-branch-probability -fident
  39              	@ -fif-conversion -fif-conversion2 -findirect-inlining -finline
  40              	@ -finline-atomics -finline-functions -finline-functions-called-once
  41              	@ -finline-small-functions -fipa-cp -fipa-profile -fipa-pure-const
  42              	@ -fipa-reference -fipa-sra -fira-share-save-slots -fira-share-spill-slots
  43              	@ -fivopts -fkeep-static-consts -fleading-underscore -fmath-errno
  44              	@ -fmerge-constants -fmerge-debug-strings -fmove-loop-invariants
  45              	@ -fomit-frame-pointer -foptimize-register-move -foptimize-sibling-calls
  46              	@ -fpartial-inlining -fpeephole -fpeephole2 -fprefetch-loop-arrays
  47              	@ -freg-struct-return -fregmove -freorder-blocks -freorder-functions
  48              	@ -frerun-cse-after-loop -fsched-critical-path-heuristic
  49              	@ -fsched-dep-count-heuristic -fsched-group-heuristic -fsched-interblock
  50              	@ -fsched-last-insn-heuristic -fsched-rank-heuristic -fsched-spec
  51              	@ -fsched-spec-insn-heuristic -fsched-stalled-insns-dep -fschedule-insns2
  52              	@ -fsection-anchors -fshow-column -fshrink-wrap -fsigned-zeros
  53              	@ -fsplit-ivs-in-unroller -fsplit-wide-types -fstrict-aliasing
  54              	@ -fstrict-overflow -fstrict-volatile-bitfields -fthread-jumps
  55              	@ -ftoplevel-reorder -ftrapping-math -ftree-bit-ccp -ftree-builtin-call-dce
  56              	@ -ftree-ccp -ftree-ch -ftree-copy-prop -ftree-copyrename -ftree-cselim
  57              	@ -ftree-dce -ftree-dominator-opts -ftree-dse -ftree-forwprop -ftree-fre
ARM GAS  C:\Users\Kevin\AppData\Local\Temp\cc980Kfj.s 			page 2


  58              	@ -ftree-if-to-switch-conversion -ftree-loop-if-convert -ftree-loop-im
  59              	@ -ftree-loop-ivcanon -ftree-loop-optimize -ftree-parallelize-loops=
  60              	@ -ftree-phiprop -ftree-pre -ftree-pta -ftree-reassoc -ftree-scev-cprop
  61              	@ -ftree-sink -ftree-slp-vectorize -ftree-sra -ftree-switch-conversion
  62              	@ -ftree-tail-merge -ftree-ter -ftree-vect-loop-version -ftree-vrp
  63              	@ -funit-at-a-time -fvar-tracking -fvar-tracking-assignments -fverbose-asm
  64              	@ -fzero-initialized-in-bss -mlittle-endian -msched-prolog -mthumb
  65              	@ -munaligned-access -mvectorize-with-neon-quad
  66              	
  67              		.text
  68              	.Ltext0:
  69              		.cfi_sections	.debug_frame
  70              		.align	1
  71              		.global	SYSCFG_DeInit
  72              		.thumb
  73              		.thumb_func
  74              		.type	SYSCFG_DeInit, %function
  75              	SYSCFG_DeInit:
  76              	.LFB110:
  77              		.file 1 ".\\stm32f4periph\\src\\stm32f4xx_syscfg.c"
   1:.\stm32f4periph\src/stm32f4xx_syscfg.c **** /**
   2:.\stm32f4periph\src/stm32f4xx_syscfg.c ****   ******************************************************************************
   3:.\stm32f4periph\src/stm32f4xx_syscfg.c ****   * @file    stm32f4xx_syscfg.c
   4:.\stm32f4periph\src/stm32f4xx_syscfg.c ****   * @author  MCD Application Team
   5:.\stm32f4periph\src/stm32f4xx_syscfg.c ****   * @version V1.0.2
   6:.\stm32f4periph\src/stm32f4xx_syscfg.c ****   * @date    05-March-2012
   7:.\stm32f4periph\src/stm32f4xx_syscfg.c ****   * @brief   This file provides firmware functions to manage the SYSCFG peripheral.
   8:.\stm32f4periph\src/stm32f4xx_syscfg.c ****   *
   9:.\stm32f4periph\src/stm32f4xx_syscfg.c ****   *  @verbatim
  10:.\stm32f4periph\src/stm32f4xx_syscfg.c ****   *  
  11:.\stm32f4periph\src/stm32f4xx_syscfg.c ****   *          ===================================================================
  12:.\stm32f4periph\src/stm32f4xx_syscfg.c ****   *                                 How to use this driver
  13:.\stm32f4periph\src/stm32f4xx_syscfg.c ****   *          ===================================================================
  14:.\stm32f4periph\src/stm32f4xx_syscfg.c ****   *                  
  15:.\stm32f4periph\src/stm32f4xx_syscfg.c ****   *          This driver provides functions for:
  16:.\stm32f4periph\src/stm32f4xx_syscfg.c ****   *          
  17:.\stm32f4periph\src/stm32f4xx_syscfg.c ****   *          1. Remapping the memory accessible in the code area using SYSCFG_MemoryRemapConfig()
  18:.\stm32f4periph\src/stm32f4xx_syscfg.c ****   *              
  19:.\stm32f4periph\src/stm32f4xx_syscfg.c ****   *          2. Manage the EXTI lines connection to the GPIOs using SYSCFG_EXTILineConfig()
  20:.\stm32f4periph\src/stm32f4xx_syscfg.c ****   *            
  21:.\stm32f4periph\src/stm32f4xx_syscfg.c ****   *          3. Select the ETHERNET media interface (RMII/RII) using SYSCFG_ETH_MediaInterfaceConfi
  22:.\stm32f4periph\src/stm32f4xx_syscfg.c ****   *
  23:.\stm32f4periph\src/stm32f4xx_syscfg.c ****   *  @note  SYSCFG APB clock must be enabled to get write access to SYSCFG registers,
  24:.\stm32f4periph\src/stm32f4xx_syscfg.c ****   *         using RCC_APB2PeriphClockCmd(RCC_APB2Periph_SYSCFG, ENABLE);
  25:.\stm32f4periph\src/stm32f4xx_syscfg.c ****   *                 
  26:.\stm32f4periph\src/stm32f4xx_syscfg.c ****   *  @endverbatim
  27:.\stm32f4periph\src/stm32f4xx_syscfg.c ****   *      
  28:.\stm32f4periph\src/stm32f4xx_syscfg.c ****   ******************************************************************************
  29:.\stm32f4periph\src/stm32f4xx_syscfg.c ****   * @attention
  30:.\stm32f4periph\src/stm32f4xx_syscfg.c ****   *
  31:.\stm32f4periph\src/stm32f4xx_syscfg.c ****   * <h2><center>&copy; COPYRIGHT 2012 STMicroelectronics</center></h2>
  32:.\stm32f4periph\src/stm32f4xx_syscfg.c ****   *
  33:.\stm32f4periph\src/stm32f4xx_syscfg.c ****   * Licensed under MCD-ST Liberty SW License Agreement V2, (the "License");
  34:.\stm32f4periph\src/stm32f4xx_syscfg.c ****   * You may not use this file except in compliance with the License.
  35:.\stm32f4periph\src/stm32f4xx_syscfg.c ****   * You may obtain a copy of the License at:
  36:.\stm32f4periph\src/stm32f4xx_syscfg.c ****   *
  37:.\stm32f4periph\src/stm32f4xx_syscfg.c ****   *        http://www.st.com/software_license_agreement_liberty_v2
ARM GAS  C:\Users\Kevin\AppData\Local\Temp\cc980Kfj.s 			page 3


  38:.\stm32f4periph\src/stm32f4xx_syscfg.c ****   *
  39:.\stm32f4periph\src/stm32f4xx_syscfg.c ****   * Unless required by applicable law or agreed to in writing, software 
  40:.\stm32f4periph\src/stm32f4xx_syscfg.c ****   * distributed under the License is distributed on an "AS IS" BASIS, 
  41:.\stm32f4periph\src/stm32f4xx_syscfg.c ****   * WITHOUT WARRANTIES OR CONDITIONS OF ANY KIND, either express or implied.
  42:.\stm32f4periph\src/stm32f4xx_syscfg.c ****   * See the License for the specific language governing permissions and
  43:.\stm32f4periph\src/stm32f4xx_syscfg.c ****   * limitations under the License.
  44:.\stm32f4periph\src/stm32f4xx_syscfg.c ****   *
  45:.\stm32f4periph\src/stm32f4xx_syscfg.c ****   ******************************************************************************
  46:.\stm32f4periph\src/stm32f4xx_syscfg.c ****   */
  47:.\stm32f4periph\src/stm32f4xx_syscfg.c **** 
  48:.\stm32f4periph\src/stm32f4xx_syscfg.c **** /* Includes ------------------------------------------------------------------*/
  49:.\stm32f4periph\src/stm32f4xx_syscfg.c **** #include "stm32f4xx_syscfg.h"
  50:.\stm32f4periph\src/stm32f4xx_syscfg.c **** #include "stm32f4xx_rcc.h"
  51:.\stm32f4periph\src/stm32f4xx_syscfg.c **** 
  52:.\stm32f4periph\src/stm32f4xx_syscfg.c **** #define assert_param(expr) ((void)0)
  53:.\stm32f4periph\src/stm32f4xx_syscfg.c **** 
  54:.\stm32f4periph\src/stm32f4xx_syscfg.c **** /** @addtogroup STM32F4xx_StdPeriph_Driver
  55:.\stm32f4periph\src/stm32f4xx_syscfg.c ****   * @{
  56:.\stm32f4periph\src/stm32f4xx_syscfg.c ****   */
  57:.\stm32f4periph\src/stm32f4xx_syscfg.c **** 
  58:.\stm32f4periph\src/stm32f4xx_syscfg.c **** /** @defgroup SYSCFG 
  59:.\stm32f4periph\src/stm32f4xx_syscfg.c ****   * @brief SYSCFG driver modules
  60:.\stm32f4periph\src/stm32f4xx_syscfg.c ****   * @{
  61:.\stm32f4periph\src/stm32f4xx_syscfg.c ****   */ 
  62:.\stm32f4periph\src/stm32f4xx_syscfg.c **** 
  63:.\stm32f4periph\src/stm32f4xx_syscfg.c **** /* Private typedef -----------------------------------------------------------*/
  64:.\stm32f4periph\src/stm32f4xx_syscfg.c **** /* Private define ------------------------------------------------------------*/
  65:.\stm32f4periph\src/stm32f4xx_syscfg.c **** /* ------------ RCC registers bit address in the alias region ----------- */
  66:.\stm32f4periph\src/stm32f4xx_syscfg.c **** #define SYSCFG_OFFSET             (SYSCFG_BASE - PERIPH_BASE)
  67:.\stm32f4periph\src/stm32f4xx_syscfg.c **** /* ---  PMC Register ---*/ 
  68:.\stm32f4periph\src/stm32f4xx_syscfg.c **** /* Alias word address of MII_RMII_SEL bit */ 
  69:.\stm32f4periph\src/stm32f4xx_syscfg.c **** #define PMC_OFFSET                (SYSCFG_OFFSET + 0x04) 
  70:.\stm32f4periph\src/stm32f4xx_syscfg.c **** #define MII_RMII_SEL_BitNumber    ((uint8_t)0x17) 
  71:.\stm32f4periph\src/stm32f4xx_syscfg.c **** #define PMC_MII_RMII_SEL_BB       (PERIPH_BB_BASE + (PMC_OFFSET * 32) + (MII_RMII_SEL_BitNumber * 4
  72:.\stm32f4periph\src/stm32f4xx_syscfg.c **** 
  73:.\stm32f4periph\src/stm32f4xx_syscfg.c **** /* ---  CMPCR Register ---*/ 
  74:.\stm32f4periph\src/stm32f4xx_syscfg.c **** /* Alias word address of CMP_PD bit */ 
  75:.\stm32f4periph\src/stm32f4xx_syscfg.c **** #define CMPCR_OFFSET              (SYSCFG_OFFSET + 0x20) 
  76:.\stm32f4periph\src/stm32f4xx_syscfg.c **** #define CMP_PD_BitNumber          ((uint8_t)0x00) 
  77:.\stm32f4periph\src/stm32f4xx_syscfg.c **** #define CMPCR_CMP_PD_BB           (PERIPH_BB_BASE + (CMPCR_OFFSET * 32) + (CMP_PD_BitNumber * 4)) 
  78:.\stm32f4periph\src/stm32f4xx_syscfg.c **** 
  79:.\stm32f4periph\src/stm32f4xx_syscfg.c **** /* Private macro -------------------------------------------------------------*/
  80:.\stm32f4periph\src/stm32f4xx_syscfg.c **** /* Private variables ---------------------------------------------------------*/
  81:.\stm32f4periph\src/stm32f4xx_syscfg.c **** /* Private function prototypes -----------------------------------------------*/
  82:.\stm32f4periph\src/stm32f4xx_syscfg.c **** /* Private functions ---------------------------------------------------------*/
  83:.\stm32f4periph\src/stm32f4xx_syscfg.c **** 
  84:.\stm32f4periph\src/stm32f4xx_syscfg.c **** /** @defgroup SYSCFG_Private_Functions
  85:.\stm32f4periph\src/stm32f4xx_syscfg.c ****   * @{
  86:.\stm32f4periph\src/stm32f4xx_syscfg.c ****   */ 
  87:.\stm32f4periph\src/stm32f4xx_syscfg.c **** 
  88:.\stm32f4periph\src/stm32f4xx_syscfg.c **** /**
  89:.\stm32f4periph\src/stm32f4xx_syscfg.c ****   * @brief  Deinitializes the Alternate Functions (remap and EXTI configuration)
  90:.\stm32f4periph\src/stm32f4xx_syscfg.c ****   *   registers to their default reset values.
  91:.\stm32f4periph\src/stm32f4xx_syscfg.c ****   * @param  None
  92:.\stm32f4periph\src/stm32f4xx_syscfg.c ****   * @retval None
  93:.\stm32f4periph\src/stm32f4xx_syscfg.c ****   */
  94:.\stm32f4periph\src/stm32f4xx_syscfg.c **** void SYSCFG_DeInit(void)
ARM GAS  C:\Users\Kevin\AppData\Local\Temp\cc980Kfj.s 			page 4


  95:.\stm32f4periph\src/stm32f4xx_syscfg.c **** {
  78              		.loc 1 95 0
  79              		.cfi_startproc
  80              		@ args = 0, pretend = 0, frame = 0
  81              		@ frame_needed = 0, uses_anonymous_args = 0
  82 0000 08B5     		push	{r3, lr}	@
  83              	.LCFI0:
  84              		.cfi_def_cfa_offset 8
  85              		.cfi_offset 3, -8
  86              		.cfi_offset 14, -4
  96:.\stm32f4periph\src/stm32f4xx_syscfg.c ****    RCC_APB2PeriphResetCmd(RCC_APB2Periph_SYSCFG, ENABLE);
  87              		.loc 1 96 0
  88 0002 0121     		movs	r1, #1	@,
  89 0004 4FF48040 		mov	r0, #16384	@,
  90 0008 FFF7FEFF 		bl	RCC_APB2PeriphResetCmd	@
  91              	.LVL0:
  97:.\stm32f4periph\src/stm32f4xx_syscfg.c ****    RCC_APB2PeriphResetCmd(RCC_APB2Periph_SYSCFG, DISABLE);
  92              		.loc 1 97 0
  93 000c 4FF48040 		mov	r0, #16384	@,
  94 0010 0021     		movs	r1, #0	@,
  98:.\stm32f4periph\src/stm32f4xx_syscfg.c **** }
  95              		.loc 1 98 0
  96 0012 BDE80840 		pop	{r3, lr}	@
  97:.\stm32f4periph\src/stm32f4xx_syscfg.c ****    RCC_APB2PeriphResetCmd(RCC_APB2Periph_SYSCFG, DISABLE);
  97              		.loc 1 97 0
  98 0016 FFF7FEBF 		b	RCC_APB2PeriphResetCmd	@
  99              	.LVL1:
 100              		.cfi_endproc
 101              	.LFE110:
 102              		.size	SYSCFG_DeInit, .-SYSCFG_DeInit
 103              		.align	1
 104              		.global	SYSCFG_MemoryRemapConfig
 105              		.thumb
 106              		.thumb_func
 107              		.type	SYSCFG_MemoryRemapConfig, %function
 108              	SYSCFG_MemoryRemapConfig:
 109              	.LFB111:
  99:.\stm32f4periph\src/stm32f4xx_syscfg.c **** 
 100:.\stm32f4periph\src/stm32f4xx_syscfg.c **** /**
 101:.\stm32f4periph\src/stm32f4xx_syscfg.c ****   * @brief  Changes the mapping of the specified pin.
 102:.\stm32f4periph\src/stm32f4xx_syscfg.c ****   * @param  SYSCFG_Memory: selects the memory remapping.
 103:.\stm32f4periph\src/stm32f4xx_syscfg.c ****   *         This parameter can be one of the following values:
 104:.\stm32f4periph\src/stm32f4xx_syscfg.c ****   *            @arg SYSCFG_MemoryRemap_Flash:       Main Flash memory mapped at 0x00000000  
 105:.\stm32f4periph\src/stm32f4xx_syscfg.c ****   *            @arg SYSCFG_MemoryRemap_SystemFlash: System Flash memory mapped at 0x00000000
 106:.\stm32f4periph\src/stm32f4xx_syscfg.c ****   *            @arg SYSCFG_MemoryRemap_FSMC:        FSMC (Bank1 (NOR/PSRAM 1 and 2) mapped at 0x000
 107:.\stm32f4periph\src/stm32f4xx_syscfg.c ****   *            @arg SYSCFG_MemoryRemap_SRAM:        Embedded SRAM (112kB) mapped at 0x00000000
 108:.\stm32f4periph\src/stm32f4xx_syscfg.c ****   * @retval None
 109:.\stm32f4periph\src/stm32f4xx_syscfg.c ****   */
 110:.\stm32f4periph\src/stm32f4xx_syscfg.c **** void SYSCFG_MemoryRemapConfig(uint8_t SYSCFG_MemoryRemap)
 111:.\stm32f4periph\src/stm32f4xx_syscfg.c **** {
 110              		.loc 1 111 0
 111              		.cfi_startproc
 112              		@ args = 0, pretend = 0, frame = 0
 113              		@ frame_needed = 0, uses_anonymous_args = 0
 114              		@ link register save eliminated.
 115              	.LVL2:
 112:.\stm32f4periph\src/stm32f4xx_syscfg.c ****   /* Check the parameters */
ARM GAS  C:\Users\Kevin\AppData\Local\Temp\cc980Kfj.s 			page 5


 113:.\stm32f4periph\src/stm32f4xx_syscfg.c ****   assert_param(IS_SYSCFG_MEMORY_REMAP_CONFING(SYSCFG_MemoryRemap));
 114:.\stm32f4periph\src/stm32f4xx_syscfg.c **** 
 115:.\stm32f4periph\src/stm32f4xx_syscfg.c ****   SYSCFG->MEMRMP = SYSCFG_MemoryRemap;
 116              		.loc 1 115 0
 117 001a 014B     		ldr	r3, .L3	@ tmp136,
 118 001c 1860     		str	r0, [r3, #0]	@ SYSCFG_MemoryRemap, MEM[(struct SYSCFG_TypeDef *)1073821696B].MEMRMP
 119 001e 7047     		bx	lr	@
 120              	.L4:
 121              		.align	2
 122              	.L3:
 123 0020 00380140 		.word	1073821696
 124              		.cfi_endproc
 125              	.LFE111:
 126              		.size	SYSCFG_MemoryRemapConfig, .-SYSCFG_MemoryRemapConfig
 127              		.align	1
 128              		.global	SYSCFG_EXTILineConfig
 129              		.thumb
 130              		.thumb_func
 131              		.type	SYSCFG_EXTILineConfig, %function
 132              	SYSCFG_EXTILineConfig:
 133              	.LFB112:
 116:.\stm32f4periph\src/stm32f4xx_syscfg.c **** }
 117:.\stm32f4periph\src/stm32f4xx_syscfg.c **** 
 118:.\stm32f4periph\src/stm32f4xx_syscfg.c **** /**
 119:.\stm32f4periph\src/stm32f4xx_syscfg.c ****   * @brief  Selects the GPIO pin used as EXTI Line.
 120:.\stm32f4periph\src/stm32f4xx_syscfg.c ****   * @param  EXTI_PortSourceGPIOx : selects the GPIO port to be used as source for
 121:.\stm32f4periph\src/stm32f4xx_syscfg.c ****   *          EXTI lines where x can be (A..I).
 122:.\stm32f4periph\src/stm32f4xx_syscfg.c ****   * @param  EXTI_PinSourcex: specifies the EXTI line to be configured.
 123:.\stm32f4periph\src/stm32f4xx_syscfg.c ****   *           This parameter can be EXTI_PinSourcex where x can be (0..15, except
 124:.\stm32f4periph\src/stm32f4xx_syscfg.c ****   *           for EXTI_PortSourceGPIOI x can be (0..11).
 125:.\stm32f4periph\src/stm32f4xx_syscfg.c ****   * @retval None
 126:.\stm32f4periph\src/stm32f4xx_syscfg.c ****   */
 127:.\stm32f4periph\src/stm32f4xx_syscfg.c **** void SYSCFG_EXTILineConfig(uint8_t EXTI_PortSourceGPIOx, uint8_t EXTI_PinSourcex)
 128:.\stm32f4periph\src/stm32f4xx_syscfg.c **** {
 134              		.loc 1 128 0
 135              		.cfi_startproc
 136              		@ args = 0, pretend = 0, frame = 0
 137              		@ frame_needed = 0, uses_anonymous_args = 0
 138              	.LVL3:
 129:.\stm32f4periph\src/stm32f4xx_syscfg.c ****   uint32_t tmp = 0x00;
 130:.\stm32f4periph\src/stm32f4xx_syscfg.c **** 
 131:.\stm32f4periph\src/stm32f4xx_syscfg.c ****   /* Check the parameters */
 132:.\stm32f4periph\src/stm32f4xx_syscfg.c ****   assert_param(IS_EXTI_PORT_SOURCE(EXTI_PortSourceGPIOx));
 133:.\stm32f4periph\src/stm32f4xx_syscfg.c ****   assert_param(IS_EXTI_PIN_SOURCE(EXTI_PinSourcex));
 134:.\stm32f4periph\src/stm32f4xx_syscfg.c **** 
 135:.\stm32f4periph\src/stm32f4xx_syscfg.c ****   tmp = ((uint32_t)0x0F) << (0x04 * (EXTI_PinSourcex & (uint8_t)0x03));
 139              		.loc 1 135 0
 140 0024 01F00302 		and	r2, r1, #3	@ D.7351, EXTI_PinSourcex,
 136:.\stm32f4periph\src/stm32f4xx_syscfg.c ****   SYSCFG->EXTICR[EXTI_PinSourcex >> 0x02] &= ~tmp;
 141              		.loc 1 136 0
 142 0028 8908     		lsrs	r1, r1, #2	@ D.7336, EXTI_PinSourcex,
 143              	.LVL4:
 144 002a 0A4B     		ldr	r3, .L6	@ tmp154,
 145 002c 0231     		adds	r1, r1, #2	@ tmp155, D.7336,
 128:.\stm32f4periph\src/stm32f4xx_syscfg.c **** {
 146              		.loc 1 128 0
 147 002e 30B5     		push	{r4, r5, lr}	@
ARM GAS  C:\Users\Kevin\AppData\Local\Temp\cc980Kfj.s 			page 6


 148              	.LCFI1:
 149              		.cfi_def_cfa_offset 12
 150              		.cfi_offset 4, -12
 151              		.cfi_offset 5, -8
 152              		.cfi_offset 14, -4
 135:.\stm32f4periph\src/stm32f4xx_syscfg.c ****   tmp = ((uint32_t)0x0F) << (0x04 * (EXTI_PinSourcex & (uint8_t)0x03));
 153              		.loc 1 135 0
 154 0030 9200     		lsls	r2, r2, #2	@ D.7333, D.7351,
 155              	.LVL5:
 156              		.loc 1 136 0
 157 0032 53F82150 		ldr	r5, [r3, r1, lsl #2]	@ D.7337, MEM[(struct SYSCFG_TypeDef *)1073821696B].EXTICR
 135:.\stm32f4periph\src/stm32f4xx_syscfg.c ****   tmp = ((uint32_t)0x0F) << (0x04 * (EXTI_PinSourcex & (uint8_t)0x03));
 158              		.loc 1 135 0
 159 0036 0F24     		movs	r4, #15	@ tmp157,
 160 0038 04FA02F4 		lsl	r4, r4, r2	@ tmp156, tmp157, D.7333
 161              	.LVL6:
 162              		.loc 1 136 0
 163 003c 25EA0404 		bic	r4, r5, r4	@ D.7339, D.7337, tmp156
 164              	.LVL7:
 165 0040 43F82140 		str	r4, [r3, r1, lsl #2]	@ D.7339, MEM[(struct SYSCFG_TypeDef *)1073821696B].EXTICR
 137:.\stm32f4periph\src/stm32f4xx_syscfg.c ****   SYSCFG->EXTICR[EXTI_PinSourcex >> 0x02] |= (((uint32_t)EXTI_PortSourceGPIOx) << (0x04 * (EXTI_Pin
 166              		.loc 1 137 0
 167 0044 53F82140 		ldr	r4, [r3, r1, lsl #2]	@ D.7340, MEM[(struct SYSCFG_TypeDef *)1073821696B].EXTICR
 168 0048 00FA02F0 		lsl	r0, r0, r2	@ tmp163, EXTI_PortSourceGPIOx, D.7333
 169              	.LVL8:
 170 004c 0443     		orrs	r4, r4, r0	@, D.7343, D.7340, tmp163
 171 004e 43F82140 		str	r4, [r3, r1, lsl #2]	@ D.7343, MEM[(struct SYSCFG_TypeDef *)1073821696B].EXTICR
 172 0052 30BD     		pop	{r4, r5, pc}	@
 173              	.L7:
 174              		.align	2
 175              	.L6:
 176 0054 00380140 		.word	1073821696
 177              		.cfi_endproc
 178              	.LFE112:
 179              		.size	SYSCFG_EXTILineConfig, .-SYSCFG_EXTILineConfig
 180              		.align	1
 181              		.global	SYSCFG_ETH_MediaInterfaceConfig
 182              		.thumb
 183              		.thumb_func
 184              		.type	SYSCFG_ETH_MediaInterfaceConfig, %function
 185              	SYSCFG_ETH_MediaInterfaceConfig:
 186              	.LFB113:
 138:.\stm32f4periph\src/stm32f4xx_syscfg.c **** }
 139:.\stm32f4periph\src/stm32f4xx_syscfg.c **** 
 140:.\stm32f4periph\src/stm32f4xx_syscfg.c **** /**
 141:.\stm32f4periph\src/stm32f4xx_syscfg.c ****   * @brief  Selects the ETHERNET media interface 
 142:.\stm32f4periph\src/stm32f4xx_syscfg.c ****   * @param  SYSCFG_ETH_MediaInterface: specifies the Media Interface mode. 
 143:.\stm32f4periph\src/stm32f4xx_syscfg.c ****   *          This parameter can be one of the following values: 
 144:.\stm32f4periph\src/stm32f4xx_syscfg.c ****   *            @arg SYSCFG_ETH_MediaInterface_MII: MII mode selected
 145:.\stm32f4periph\src/stm32f4xx_syscfg.c ****   *            @arg SYSCFG_ETH_MediaInterface_RMII: RMII mode selected 
 146:.\stm32f4periph\src/stm32f4xx_syscfg.c ****   * @retval None 
 147:.\stm32f4periph\src/stm32f4xx_syscfg.c ****   */
 148:.\stm32f4periph\src/stm32f4xx_syscfg.c **** void SYSCFG_ETH_MediaInterfaceConfig(uint32_t SYSCFG_ETH_MediaInterface) 
 149:.\stm32f4periph\src/stm32f4xx_syscfg.c **** { 
 187              		.loc 1 149 0
 188              		.cfi_startproc
 189              		@ args = 0, pretend = 0, frame = 0
ARM GAS  C:\Users\Kevin\AppData\Local\Temp\cc980Kfj.s 			page 7


 190              		@ frame_needed = 0, uses_anonymous_args = 0
 191              		@ link register save eliminated.
 192              	.LVL9:
 150:.\stm32f4periph\src/stm32f4xx_syscfg.c ****   assert_param(IS_SYSCFG_ETH_MEDIA_INTERFACE(SYSCFG_ETH_MediaInterface)); 
 151:.\stm32f4periph\src/stm32f4xx_syscfg.c ****   /* Configure MII_RMII selection bit */ 
 152:.\stm32f4periph\src/stm32f4xx_syscfg.c ****   *(__IO uint32_t *) PMC_MII_RMII_SEL_BB = SYSCFG_ETH_MediaInterface; 
 193              		.loc 1 152 0
 194 0058 014B     		ldr	r3, .L9	@ tmp135,
 195 005a 1860     		str	r0, [r3, #0]	@ SYSCFG_ETH_MediaInterface, MEM[(volatile uint32_t *)1109852380B]
 196 005c 7047     		bx	lr	@
 197              	.L10:
 198 005e 00BF     		.align	2
 199              	.L9:
 200 0060 DC002742 		.word	1109852380
 201              		.cfi_endproc
 202              	.LFE113:
 203              		.size	SYSCFG_ETH_MediaInterfaceConfig, .-SYSCFG_ETH_MediaInterfaceConfig
 204              		.align	1
 205              		.global	SYSCFG_CompensationCellCmd
 206              		.thumb
 207              		.thumb_func
 208              		.type	SYSCFG_CompensationCellCmd, %function
 209              	SYSCFG_CompensationCellCmd:
 210              	.LFB114:
 153:.\stm32f4periph\src/stm32f4xx_syscfg.c **** }
 154:.\stm32f4periph\src/stm32f4xx_syscfg.c **** 
 155:.\stm32f4periph\src/stm32f4xx_syscfg.c **** /**
 156:.\stm32f4periph\src/stm32f4xx_syscfg.c ****   * @brief  Enables or disables the I/O Compensation Cell.
 157:.\stm32f4periph\src/stm32f4xx_syscfg.c ****   * @note   The I/O compensation cell can be used only when the device supply
 158:.\stm32f4periph\src/stm32f4xx_syscfg.c ****   *         voltage ranges from 2.4 to 3.6 V.  
 159:.\stm32f4periph\src/stm32f4xx_syscfg.c ****   * @param  NewState: new state of the I/O Compensation Cell.
 160:.\stm32f4periph\src/stm32f4xx_syscfg.c ****   *          This parameter can be one of the following values:
 161:.\stm32f4periph\src/stm32f4xx_syscfg.c ****   *            @arg ENABLE: I/O compensation cell enabled  
 162:.\stm32f4periph\src/stm32f4xx_syscfg.c ****   *            @arg DISABLE: I/O compensation cell power-down mode  
 163:.\stm32f4periph\src/stm32f4xx_syscfg.c ****   * @retval None
 164:.\stm32f4periph\src/stm32f4xx_syscfg.c ****   */
 165:.\stm32f4periph\src/stm32f4xx_syscfg.c **** void SYSCFG_CompensationCellCmd(FunctionalState NewState)
 166:.\stm32f4periph\src/stm32f4xx_syscfg.c **** {
 211              		.loc 1 166 0
 212              		.cfi_startproc
 213              		@ args = 0, pretend = 0, frame = 0
 214              		@ frame_needed = 0, uses_anonymous_args = 0
 215              		@ link register save eliminated.
 216              	.LVL10:
 167:.\stm32f4periph\src/stm32f4xx_syscfg.c ****   /* Check the parameters */
 168:.\stm32f4periph\src/stm32f4xx_syscfg.c ****   assert_param(IS_FUNCTIONAL_STATE(NewState));
 169:.\stm32f4periph\src/stm32f4xx_syscfg.c **** 
 170:.\stm32f4periph\src/stm32f4xx_syscfg.c ****   *(__IO uint32_t *) CMPCR_CMP_PD_BB = (uint32_t)NewState;
 217              		.loc 1 170 0
 218 0064 014B     		ldr	r3, .L12	@ tmp136,
 219 0066 1860     		str	r0, [r3, #0]	@ NewState, MEM[(volatile uint32_t *)1109853184B]
 220 0068 7047     		bx	lr	@
 221              	.L13:
 222 006a 00BF     		.align	2
 223              	.L12:
 224 006c 00042742 		.word	1109853184
 225              		.cfi_endproc
ARM GAS  C:\Users\Kevin\AppData\Local\Temp\cc980Kfj.s 			page 8


 226              	.LFE114:
 227              		.size	SYSCFG_CompensationCellCmd, .-SYSCFG_CompensationCellCmd
 228              		.align	1
 229              		.global	SYSCFG_GetCompensationCellStatus
 230              		.thumb
 231              		.thumb_func
 232              		.type	SYSCFG_GetCompensationCellStatus, %function
 233              	SYSCFG_GetCompensationCellStatus:
 234              	.LFB115:
 171:.\stm32f4periph\src/stm32f4xx_syscfg.c **** }
 172:.\stm32f4periph\src/stm32f4xx_syscfg.c **** 
 173:.\stm32f4periph\src/stm32f4xx_syscfg.c **** /**
 174:.\stm32f4periph\src/stm32f4xx_syscfg.c ****   * @brief  Checks whether the I/O Compensation Cell ready flag is set or not.
 175:.\stm32f4periph\src/stm32f4xx_syscfg.c ****   * @param  None
 176:.\stm32f4periph\src/stm32f4xx_syscfg.c ****   * @retval The new state of the I/O Compensation Cell ready flag (SET or RESET)
 177:.\stm32f4periph\src/stm32f4xx_syscfg.c ****   */
 178:.\stm32f4periph\src/stm32f4xx_syscfg.c **** FlagStatus SYSCFG_GetCompensationCellStatus(void)
 179:.\stm32f4periph\src/stm32f4xx_syscfg.c **** {
 235              		.loc 1 179 0
 236              		.cfi_startproc
 237              		@ args = 0, pretend = 0, frame = 0
 238              		@ frame_needed = 0, uses_anonymous_args = 0
 239              		@ link register save eliminated.
 240              	.LVL11:
 180:.\stm32f4periph\src/stm32f4xx_syscfg.c ****   FlagStatus bitstatus = RESET;
 181:.\stm32f4periph\src/stm32f4xx_syscfg.c ****     
 182:.\stm32f4periph\src/stm32f4xx_syscfg.c ****   if ((SYSCFG->CMPCR & SYSCFG_CMPCR_READY ) != (uint32_t)RESET)
 241              		.loc 1 182 0
 242 0070 024B     		ldr	r3, .L15	@ tmp139,
 243 0072 186A     		ldr	r0, [r3, #32]	@ D.7321, MEM[(struct SYSCFG_TypeDef *)1073821696B].CMPCR
 244              	.LVL12:
 183:.\stm32f4periph\src/stm32f4xx_syscfg.c ****   {
 184:.\stm32f4periph\src/stm32f4xx_syscfg.c ****     bitstatus = SET;
 185:.\stm32f4periph\src/stm32f4xx_syscfg.c ****   }
 186:.\stm32f4periph\src/stm32f4xx_syscfg.c ****   else
 187:.\stm32f4periph\src/stm32f4xx_syscfg.c ****   {
 188:.\stm32f4periph\src/stm32f4xx_syscfg.c ****     bitstatus = RESET;
 189:.\stm32f4periph\src/stm32f4xx_syscfg.c ****   }
 190:.\stm32f4periph\src/stm32f4xx_syscfg.c ****   return bitstatus;
 191:.\stm32f4periph\src/stm32f4xx_syscfg.c **** }
 245              		.loc 1 191 0
 246 0074 C0F30020 		ubfx	r0, r0, #8, #1	@, D.7321,,
 247              	.LVL13:
 248 0078 7047     		bx	lr	@
 249              	.L16:
 250 007a 00BF     		.align	2
 251              	.L15:
 252 007c 00380140 		.word	1073821696
 253              		.cfi_endproc
 254              	.LFE115:
 255              		.size	SYSCFG_GetCompensationCellStatus, .-SYSCFG_GetCompensationCellStatus
 256              	.Letext0:
 257              		.file 2 "k:\\electronics\\gcc\\bin\\../lib/gcc/arm-none-eabi/4.7.2/../../../../arm-none-eabi/inclu
 258              		.file 3 ".\\inc/stm32f4xx.h"
 259              		.file 4 ".\\inc/core_cm4.h"
 260              		.file 5 ".\\stm32f4periph\\inc/stm32f4xx_rcc.h"