ARM GAS  C:\Users\Kevin\AppData\Local\Temp\ccBfPlKb.s 			page 1


   1              		.syntax unified
   2              		.cpu cortex-m4
   3              		.eabi_attribute 27, 3	@ Tag_ABI_HardFP_use
   4              		.eabi_attribute 28, 1	@ Tag_ABI_VFP_args
   5              		.fpu fpv4-sp-d16
   6              		.eabi_attribute 20, 1	@ Tag_ABI_FP_denormal
   7              		.eabi_attribute 21, 1	@ Tag_ABI_FP_exceptions
   8              		.eabi_attribute 23, 3	@ Tag_ABI_FP_number_model
   9              		.eabi_attribute 24, 1	@ Tag_ABI_align8_needed
  10              		.eabi_attribute 25, 1	@ Tag_ABI_align8_preserved
  11              		.eabi_attribute 26, 1	@ Tag_ABI_enum_size
  12              		.eabi_attribute 30, 4	@ Tag_ABI_optimization_goals
  13              		.eabi_attribute 34, 1	@ Tag_CPU_unaligned_access
  14              		.eabi_attribute 18, 4	@ Tag_ABI_PCS_wchar_t
  15              		.file	"stm32f4xx_exti.c"
  16              	@ GNU C (Sourcery CodeBench Lite 2012.09-63) version 4.7.2 (arm-none-eabi)
  17              	@	compiled by GNU C version 4.3.2, GMP version 5.0.5, MPFR version 3.1.1-p2, MPC version 1.0.1
  18              	@ GGC heuristics: --param ggc-min-expand=100 --param ggc-min-heapsize=131072
  19              	@ options passed:  -I . -I \STMSPINCDDIR -I .\stm32f4periph\inc
  20              	@ -I .\CMSIS\Include -I .\inc\commo\usb -I .\inc\commo -I .\inc\common
  21              	@ -I .\inc -imultilib thumb2
  22              	@ -iprefix k:\electronics\gcc\bin\../lib/gcc/arm-none-eabi/4.7.2/
  23              	@ -isysroot k:\electronics\gcc\bin\../arm-none-eabi
  24              	@ -MD .\stm32f4periph\src\stm32f4xx_exti.d -MF .dep\stm32f4xx_exti.o.d -MP
  25              	@ -MQ .\stm32f4periph\src\stm32f4xx_exti.o -D__USES_INITFINI__ -D STM32F0XX
  26              	@ -D USE_STDPERIPH_DRIVER -D RUN_FROM_FLASH=1
  27              	@ -D __CS_SOURCERYGXX_MAJ__=2012 -D __CS_SOURCERYGXX_MIN__=9
  28              	@ -D __CS_SOURCERYGXX_REV__=63 .\stm32f4periph\src\stm32f4xx_exti.c
  29              	@ -mcpu=cortex-m4 -mfpu=fpv4-sp-d16 -mfloat-abi=hard -mthumb
  30              	@ -auxbase-strip .\stm32f4periph\src\stm32f4xx_exti.o -gdwarf-2 -Os -Wall
  31              	@ -Wstrict-prototypes -std=gnu99 -fomit-frame-pointer -fverbose-asm
  32              	@ options enabled:  -fauto-inc-dec -fbranch-count-reg -fcaller-saves
  33              	@ -fcombine-stack-adjustments -fcommon -fcompare-elim -fcprop-registers
  34              	@ -fcrossjumping -fcse-follow-jumps -fdebug-types-section -fdefer-pop
  35              	@ -fdelete-null-pointer-checks -fdevirtualize -fdwarf2-cfi-asm
  36              	@ -fearly-inlining -feliminate-unused-debug-types -fexpensive-optimizations
  37              	@ -fextension-elimination -fforward-propagate -ffunction-cse -fgcse
  38              	@ -fgcse-lm -fgnu-runtime -fguess-branch-probability -fident
  39              	@ -fif-conversion -fif-conversion2 -findirect-inlining -finline
  40              	@ -finline-atomics -finline-functions -finline-functions-called-once
  41              	@ -finline-small-functions -fipa-cp -fipa-profile -fipa-pure-const
  42              	@ -fipa-reference -fipa-sra -fira-share-save-slots -fira-share-spill-slots
  43              	@ -fivopts -fkeep-static-consts -fleading-underscore -fmath-errno
  44              	@ -fmerge-constants -fmerge-debug-strings -fmove-loop-invariants
  45              	@ -fomit-frame-pointer -foptimize-register-move -foptimize-sibling-calls
  46              	@ -fpartial-inlining -fpeephole -fpeephole2 -fprefetch-loop-arrays
  47              	@ -freg-struct-return -fregmove -freorder-blocks -freorder-functions
  48              	@ -frerun-cse-after-loop -fsched-critical-path-heuristic
  49              	@ -fsched-dep-count-heuristic -fsched-group-heuristic -fsched-interblock
  50              	@ -fsched-last-insn-heuristic -fsched-rank-heuristic -fsched-spec
  51              	@ -fsched-spec-insn-heuristic -fsched-stalled-insns-dep -fschedule-insns2
  52              	@ -fsection-anchors -fshow-column -fshrink-wrap -fsigned-zeros
  53              	@ -fsplit-ivs-in-unroller -fsplit-wide-types -fstrict-aliasing
  54              	@ -fstrict-overflow -fstrict-volatile-bitfields -fthread-jumps
  55              	@ -ftoplevel-reorder -ftrapping-math -ftree-bit-ccp -ftree-builtin-call-dce
  56              	@ -ftree-ccp -ftree-ch -ftree-copy-prop -ftree-copyrename -ftree-cselim
  57              	@ -ftree-dce -ftree-dominator-opts -ftree-dse -ftree-forwprop -ftree-fre
ARM GAS  C:\Users\Kevin\AppData\Local\Temp\ccBfPlKb.s 			page 2


  58              	@ -ftree-if-to-switch-conversion -ftree-loop-if-convert -ftree-loop-im
  59              	@ -ftree-loop-ivcanon -ftree-loop-optimize -ftree-parallelize-loops=
  60              	@ -ftree-phiprop -ftree-pre -ftree-pta -ftree-reassoc -ftree-scev-cprop
  61              	@ -ftree-sink -ftree-slp-vectorize -ftree-sra -ftree-switch-conversion
  62              	@ -ftree-tail-merge -ftree-ter -ftree-vect-loop-version -ftree-vrp
  63              	@ -funit-at-a-time -fvar-tracking -fvar-tracking-assignments -fverbose-asm
  64              	@ -fzero-initialized-in-bss -mlittle-endian -msched-prolog -mthumb
  65              	@ -munaligned-access -mvectorize-with-neon-quad
  66              	
  67              		.text
  68              	.Ltext0:
  69              		.cfi_sections	.debug_frame
  70              		.align	1
  71              		.global	EXTI_DeInit
  72              		.thumb
  73              		.thumb_func
  74              		.type	EXTI_DeInit, %function
  75              	EXTI_DeInit:
  76              	.LFB110:
  77              		.file 1 ".\\stm32f4periph\\src\\stm32f4xx_exti.c"
   1:.\stm32f4periph\src/stm32f4xx_exti.c **** /**
   2:.\stm32f4periph\src/stm32f4xx_exti.c ****   ******************************************************************************
   3:.\stm32f4periph\src/stm32f4xx_exti.c ****   * @file    stm32f4xx_exti.c
   4:.\stm32f4periph\src/stm32f4xx_exti.c ****   * @author  MCD Application Team
   5:.\stm32f4periph\src/stm32f4xx_exti.c ****   * @version V1.0.2
   6:.\stm32f4periph\src/stm32f4xx_exti.c ****   * @date    05-March-2012
   7:.\stm32f4periph\src/stm32f4xx_exti.c ****   * @brief   This file provides firmware functions to manage the following 
   8:.\stm32f4periph\src/stm32f4xx_exti.c ****   *          functionalities of the EXTI peripheral:           
   9:.\stm32f4periph\src/stm32f4xx_exti.c ****   *           - Initialization and Configuration
  10:.\stm32f4periph\src/stm32f4xx_exti.c ****   *           - Interrupts and flags management
  11:.\stm32f4periph\src/stm32f4xx_exti.c ****   *
  12:.\stm32f4periph\src/stm32f4xx_exti.c ****   *  @verbatim  
  13:.\stm32f4periph\src/stm32f4xx_exti.c ****   *  
  14:.\stm32f4periph\src/stm32f4xx_exti.c ****   *          ===================================================================
  15:.\stm32f4periph\src/stm32f4xx_exti.c ****   *                                     EXTI features
  16:.\stm32f4periph\src/stm32f4xx_exti.c ****   *          ===================================================================
  17:.\stm32f4periph\src/stm32f4xx_exti.c ****   *    
  18:.\stm32f4periph\src/stm32f4xx_exti.c ****   *          External interrupt/event lines are mapped as following:
  19:.\stm32f4periph\src/stm32f4xx_exti.c ****   *            1- All available GPIO pins are connected to the 16 external 
  20:.\stm32f4periph\src/stm32f4xx_exti.c ****   *               interrupt/event lines from EXTI0 to EXTI15.
  21:.\stm32f4periph\src/stm32f4xx_exti.c ****   *            2- EXTI line 16 is connected to the PVD Output
  22:.\stm32f4periph\src/stm32f4xx_exti.c ****   *            3- EXTI line 17 is connected to the RTC Alarm event
  23:.\stm32f4periph\src/stm32f4xx_exti.c ****   *            4- EXTI line 18 is connected to the USB OTG FS Wakeup from suspend event            
  24:.\stm32f4periph\src/stm32f4xx_exti.c ****   *            5- EXTI line 19 is connected to the Ethernet Wakeup event
  25:.\stm32f4periph\src/stm32f4xx_exti.c ****   *            6- EXTI line 20 is connected to the USB OTG HS (configured in FS) Wakeup event 
  26:.\stm32f4periph\src/stm32f4xx_exti.c ****   *            7- EXTI line 21 is connected to the RTC Tamper and Time Stamp events                
  27:.\stm32f4periph\src/stm32f4xx_exti.c ****   *            8- EXTI line 22 is connected to the RTC Wakeup event
  28:.\stm32f4periph\src/stm32f4xx_exti.c ****   *        
  29:.\stm32f4periph\src/stm32f4xx_exti.c ****   *          ===================================================================
  30:.\stm32f4periph\src/stm32f4xx_exti.c ****   *                                 How to use this driver
  31:.\stm32f4periph\src/stm32f4xx_exti.c ****   *          ===================================================================  
  32:.\stm32f4periph\src/stm32f4xx_exti.c ****   *              
  33:.\stm32f4periph\src/stm32f4xx_exti.c ****   *          In order to use an I/O pin as an external interrupt source, follow
  34:.\stm32f4periph\src/stm32f4xx_exti.c ****   *          steps below:
  35:.\stm32f4periph\src/stm32f4xx_exti.c ****   *            1- Configure the I/O in input mode using GPIO_Init()
  36:.\stm32f4periph\src/stm32f4xx_exti.c ****   *            2- Select the input source pin for the EXTI line using SYSCFG_EXTILineConfig()
  37:.\stm32f4periph\src/stm32f4xx_exti.c ****   *            3- Select the mode(interrupt, event) and configure the trigger 
ARM GAS  C:\Users\Kevin\AppData\Local\Temp\ccBfPlKb.s 			page 3


  38:.\stm32f4periph\src/stm32f4xx_exti.c ****   *               selection (Rising, falling or both) using EXTI_Init()
  39:.\stm32f4periph\src/stm32f4xx_exti.c ****   *            4- Configure NVIC IRQ channel mapped to the EXTI line using NVIC_Init()
  40:.\stm32f4periph\src/stm32f4xx_exti.c ****   *   
  41:.\stm32f4periph\src/stm32f4xx_exti.c ****   *  @note  SYSCFG APB clock must be enabled to get write access to SYSCFG_EXTICRx
  42:.\stm32f4periph\src/stm32f4xx_exti.c ****   *         registers using RCC_APB2PeriphClockCmd(RCC_APB2Periph_SYSCFG, ENABLE);
  43:.\stm32f4periph\src/stm32f4xx_exti.c ****   *          
  44:.\stm32f4periph\src/stm32f4xx_exti.c ****   *  @endverbatim                  
  45:.\stm32f4periph\src/stm32f4xx_exti.c ****   *
  46:.\stm32f4periph\src/stm32f4xx_exti.c ****   ******************************************************************************
  47:.\stm32f4periph\src/stm32f4xx_exti.c ****   * @attention
  48:.\stm32f4periph\src/stm32f4xx_exti.c ****   *
  49:.\stm32f4periph\src/stm32f4xx_exti.c ****   * <h2><center>&copy; COPYRIGHT 2012 STMicroelectronics</center></h2>
  50:.\stm32f4periph\src/stm32f4xx_exti.c ****   *
  51:.\stm32f4periph\src/stm32f4xx_exti.c ****   * Licensed under MCD-ST Liberty SW License Agreement V2, (the "License");
  52:.\stm32f4periph\src/stm32f4xx_exti.c ****   * You may not use this file except in compliance with the License.
  53:.\stm32f4periph\src/stm32f4xx_exti.c ****   * You may obtain a copy of the License at:
  54:.\stm32f4periph\src/stm32f4xx_exti.c ****   *
  55:.\stm32f4periph\src/stm32f4xx_exti.c ****   *        http://www.st.com/software_license_agreement_liberty_v2
  56:.\stm32f4periph\src/stm32f4xx_exti.c ****   *
  57:.\stm32f4periph\src/stm32f4xx_exti.c ****   * Unless required by applicable law or agreed to in writing, software 
  58:.\stm32f4periph\src/stm32f4xx_exti.c ****   * distributed under the License is distributed on an "AS IS" BASIS, 
  59:.\stm32f4periph\src/stm32f4xx_exti.c ****   * WITHOUT WARRANTIES OR CONDITIONS OF ANY KIND, either express or implied.
  60:.\stm32f4periph\src/stm32f4xx_exti.c ****   * See the License for the specific language governing permissions and
  61:.\stm32f4periph\src/stm32f4xx_exti.c ****   * limitations under the License.
  62:.\stm32f4periph\src/stm32f4xx_exti.c ****   *
  63:.\stm32f4periph\src/stm32f4xx_exti.c ****   ******************************************************************************
  64:.\stm32f4periph\src/stm32f4xx_exti.c ****   */
  65:.\stm32f4periph\src/stm32f4xx_exti.c **** 
  66:.\stm32f4periph\src/stm32f4xx_exti.c **** /* Includes ------------------------------------------------------------------*/
  67:.\stm32f4periph\src/stm32f4xx_exti.c **** #include "stm32f4xx_exti.h"
  68:.\stm32f4periph\src/stm32f4xx_exti.c **** #define assert_param(expr) ((void)0)
  69:.\stm32f4periph\src/stm32f4xx_exti.c **** /** @addtogroup STM32F4xx_StdPeriph_Driver
  70:.\stm32f4periph\src/stm32f4xx_exti.c ****   * @{
  71:.\stm32f4periph\src/stm32f4xx_exti.c ****   */
  72:.\stm32f4periph\src/stm32f4xx_exti.c **** 
  73:.\stm32f4periph\src/stm32f4xx_exti.c **** /** @defgroup EXTI 
  74:.\stm32f4periph\src/stm32f4xx_exti.c ****   * @brief EXTI driver modules
  75:.\stm32f4periph\src/stm32f4xx_exti.c ****   * @{
  76:.\stm32f4periph\src/stm32f4xx_exti.c ****   */
  77:.\stm32f4periph\src/stm32f4xx_exti.c **** 
  78:.\stm32f4periph\src/stm32f4xx_exti.c **** /* Private typedef -----------------------------------------------------------*/
  79:.\stm32f4periph\src/stm32f4xx_exti.c **** /* Private define ------------------------------------------------------------*/
  80:.\stm32f4periph\src/stm32f4xx_exti.c **** 
  81:.\stm32f4periph\src/stm32f4xx_exti.c **** #define EXTI_LINENONE    ((uint32_t)0x00000)  /* No interrupt selected */
  82:.\stm32f4periph\src/stm32f4xx_exti.c **** 
  83:.\stm32f4periph\src/stm32f4xx_exti.c **** /* Private macro -------------------------------------------------------------*/
  84:.\stm32f4periph\src/stm32f4xx_exti.c **** /* Private variables ---------------------------------------------------------*/
  85:.\stm32f4periph\src/stm32f4xx_exti.c **** /* Private function prototypes -----------------------------------------------*/
  86:.\stm32f4periph\src/stm32f4xx_exti.c **** /* Private functions ---------------------------------------------------------*/
  87:.\stm32f4periph\src/stm32f4xx_exti.c **** 
  88:.\stm32f4periph\src/stm32f4xx_exti.c **** /** @defgroup EXTI_Private_Functions
  89:.\stm32f4periph\src/stm32f4xx_exti.c ****   * @{
  90:.\stm32f4periph\src/stm32f4xx_exti.c ****   */
  91:.\stm32f4periph\src/stm32f4xx_exti.c **** 
  92:.\stm32f4periph\src/stm32f4xx_exti.c **** /** @defgroup EXTI_Group1 Initialization and Configuration functions
  93:.\stm32f4periph\src/stm32f4xx_exti.c ****  *  @brief   Initialization and Configuration functions 
  94:.\stm32f4periph\src/stm32f4xx_exti.c ****  *
ARM GAS  C:\Users\Kevin\AppData\Local\Temp\ccBfPlKb.s 			page 4


  95:.\stm32f4periph\src/stm32f4xx_exti.c **** @verbatim   
  96:.\stm32f4periph\src/stm32f4xx_exti.c ****  ===============================================================================
  97:.\stm32f4periph\src/stm32f4xx_exti.c ****                   Initialization and Configuration functions
  98:.\stm32f4periph\src/stm32f4xx_exti.c ****  ===============================================================================  
  99:.\stm32f4periph\src/stm32f4xx_exti.c **** 
 100:.\stm32f4periph\src/stm32f4xx_exti.c **** @endverbatim
 101:.\stm32f4periph\src/stm32f4xx_exti.c ****   * @{
 102:.\stm32f4periph\src/stm32f4xx_exti.c ****   */
 103:.\stm32f4periph\src/stm32f4xx_exti.c **** 
 104:.\stm32f4periph\src/stm32f4xx_exti.c **** /**
 105:.\stm32f4periph\src/stm32f4xx_exti.c ****   * @brief  Deinitializes the EXTI peripheral registers to their default reset values.
 106:.\stm32f4periph\src/stm32f4xx_exti.c ****   * @param  None
 107:.\stm32f4periph\src/stm32f4xx_exti.c ****   * @retval None
 108:.\stm32f4periph\src/stm32f4xx_exti.c ****   */
 109:.\stm32f4periph\src/stm32f4xx_exti.c **** void EXTI_DeInit(void)
 110:.\stm32f4periph\src/stm32f4xx_exti.c **** {
  78              		.loc 1 110 0
  79              		.cfi_startproc
  80              		@ args = 0, pretend = 0, frame = 0
  81              		@ frame_needed = 0, uses_anonymous_args = 0
  82              		@ link register save eliminated.
 111:.\stm32f4periph\src/stm32f4xx_exti.c ****   EXTI->IMR = 0x00000000;
  83              		.loc 1 111 0
  84 0000 044B     		ldr	r3, .L2	@ tmp134,
  85 0002 0022     		movs	r2, #0	@ tmp135,
  86 0004 1A60     		str	r2, [r3, #0]	@ tmp135, MEM[(struct EXTI_TypeDef *)1073822720B].IMR
 112:.\stm32f4periph\src/stm32f4xx_exti.c ****   EXTI->EMR = 0x00000000;
  87              		.loc 1 112 0
  88 0006 5A60     		str	r2, [r3, #4]	@ tmp135, MEM[(struct EXTI_TypeDef *)1073822720B].EMR
 113:.\stm32f4periph\src/stm32f4xx_exti.c ****   EXTI->RTSR = 0x00000000;
  89              		.loc 1 113 0
  90 0008 9A60     		str	r2, [r3, #8]	@ tmp135, MEM[(struct EXTI_TypeDef *)1073822720B].RTSR
 114:.\stm32f4periph\src/stm32f4xx_exti.c ****   EXTI->FTSR = 0x00000000;
  91              		.loc 1 114 0
  92 000a DA60     		str	r2, [r3, #12]	@ tmp135, MEM[(struct EXTI_TypeDef *)1073822720B].FTSR
 115:.\stm32f4periph\src/stm32f4xx_exti.c ****   EXTI->PR = 0x007FFFFF;
  93              		.loc 1 115 0
  94 000c 024A     		ldr	r2, .L2+4	@ tmp143,
  95 000e 5A61     		str	r2, [r3, #20]	@ tmp143, MEM[(struct EXTI_TypeDef *)1073822720B].PR
  96 0010 7047     		bx	lr	@
  97              	.L3:
  98 0012 00BF     		.align	2
  99              	.L2:
 100 0014 003C0140 		.word	1073822720
 101 0018 FFFF7F00 		.word	8388607
 102              		.cfi_endproc
 103              	.LFE110:
 104              		.size	EXTI_DeInit, .-EXTI_DeInit
 105              		.align	1
 106              		.global	EXTI_Init
 107              		.thumb
 108              		.thumb_func
 109              		.type	EXTI_Init, %function
 110              	EXTI_Init:
 111              	.LFB111:
 116:.\stm32f4periph\src/stm32f4xx_exti.c **** }
 117:.\stm32f4periph\src/stm32f4xx_exti.c **** 
ARM GAS  C:\Users\Kevin\AppData\Local\Temp\ccBfPlKb.s 			page 5


 118:.\stm32f4periph\src/stm32f4xx_exti.c **** /**
 119:.\stm32f4periph\src/stm32f4xx_exti.c ****   * @brief  Initializes the EXTI peripheral according to the specified
 120:.\stm32f4periph\src/stm32f4xx_exti.c ****   *         parameters in the EXTI_InitStruct.
 121:.\stm32f4periph\src/stm32f4xx_exti.c ****   * @param  EXTI_InitStruct: pointer to a EXTI_InitTypeDef structure
 122:.\stm32f4periph\src/stm32f4xx_exti.c ****   *         that contains the configuration information for the EXTI peripheral.
 123:.\stm32f4periph\src/stm32f4xx_exti.c ****   * @retval None
 124:.\stm32f4periph\src/stm32f4xx_exti.c ****   */
 125:.\stm32f4periph\src/stm32f4xx_exti.c **** void EXTI_Init(EXTI_InitTypeDef* EXTI_InitStruct)
 126:.\stm32f4periph\src/stm32f4xx_exti.c **** {
 112              		.loc 1 126 0
 113              		.cfi_startproc
 114              		@ args = 0, pretend = 0, frame = 0
 115              		@ frame_needed = 0, uses_anonymous_args = 0
 116              	.LVL0:
 127:.\stm32f4periph\src/stm32f4xx_exti.c ****   uint32_t tmp = 0;
 128:.\stm32f4periph\src/stm32f4xx_exti.c **** 
 129:.\stm32f4periph\src/stm32f4xx_exti.c ****   /* Check the parameters */
 130:.\stm32f4periph\src/stm32f4xx_exti.c ****   assert_param(IS_EXTI_MODE(EXTI_InitStruct->EXTI_Mode));
 131:.\stm32f4periph\src/stm32f4xx_exti.c ****   assert_param(IS_EXTI_TRIGGER(EXTI_InitStruct->EXTI_Trigger));
 132:.\stm32f4periph\src/stm32f4xx_exti.c ****   assert_param(IS_EXTI_LINE(EXTI_InitStruct->EXTI_Line));  
 133:.\stm32f4periph\src/stm32f4xx_exti.c ****   assert_param(IS_FUNCTIONAL_STATE(EXTI_InitStruct->EXTI_LineCmd));
 134:.\stm32f4periph\src/stm32f4xx_exti.c **** 
 135:.\stm32f4periph\src/stm32f4xx_exti.c ****   tmp = (uint32_t)EXTI_BASE;
 136:.\stm32f4periph\src/stm32f4xx_exti.c ****      
 137:.\stm32f4periph\src/stm32f4xx_exti.c ****   if (EXTI_InitStruct->EXTI_LineCmd != DISABLE)
 117              		.loc 1 137 0
 118 001c 8379     		ldrb	r3, [r0, #6]	@ zero_extendqisi2	@ EXTI_InitStruct_3(D)->EXTI_LineCmd, EXTI_InitStruct_3(D)->E
 126:.\stm32f4periph\src/stm32f4xx_exti.c **** {
 119              		.loc 1 126 0
 120 001e 10B5     		push	{r4, lr}	@
 121              	.LCFI0:
 122              		.cfi_def_cfa_offset 8
 123              		.cfi_offset 4, -8
 124              		.cfi_offset 14, -4
 125              		.loc 1 137 0
 126 0020 002B     		cmp	r3, #0	@ EXTI_InitStruct_3(D)->EXTI_LineCmd
 127 0022 29D0     		beq	.L5	@
 138:.\stm32f4periph\src/stm32f4xx_exti.c ****   {
 139:.\stm32f4periph\src/stm32f4xx_exti.c ****     /* Clear EXTI line configuration */
 140:.\stm32f4periph\src/stm32f4xx_exti.c ****     EXTI->IMR &= ~EXTI_InitStruct->EXTI_Line;
 128              		.loc 1 140 0
 129 0024 1A4B     		ldr	r3, .L9	@ tmp173,
 130 0026 0168     		ldr	r1, [r0, #0]	@ D.7355, EXTI_InitStruct_3(D)->EXTI_Line
 131 0028 1C68     		ldr	r4, [r3, #0]	@ D.7354, MEM[(struct EXTI_TypeDef *)1073822720B].IMR
 132 002a CA43     		mvns	r2, r1	@ D.7356, D.7355
 133 002c 1440     		ands	r4, r4, r2	@, D.7357, D.7354, D.7356
 134 002e 1C60     		str	r4, [r3, #0]	@ D.7357, MEM[(struct EXTI_TypeDef *)1073822720B].IMR
 141:.\stm32f4periph\src/stm32f4xx_exti.c ****     EXTI->EMR &= ~EXTI_InitStruct->EXTI_Line;
 135              		.loc 1 141 0
 136 0030 5C68     		ldr	r4, [r3, #4]	@ D.7358, MEM[(struct EXTI_TypeDef *)1073822720B].EMR
 137 0032 2240     		ands	r2, r2, r4	@, D.7359, D.7356, D.7358
 138 0034 5A60     		str	r2, [r3, #4]	@ D.7359, MEM[(struct EXTI_TypeDef *)1073822720B].EMR
 139              	.LVL1:
 142:.\stm32f4periph\src/stm32f4xx_exti.c ****     
 143:.\stm32f4periph\src/stm32f4xx_exti.c ****     tmp += EXTI_InitStruct->EXTI_Mode;
 140              		.loc 1 143 0
 141 0036 0279     		ldrb	r2, [r0, #4]	@ zero_extendqisi2	@ EXTI_InitStruct_3(D)->EXTI_Mode, EXTI_InitStruct_3(D)->EXTI
ARM GAS  C:\Users\Kevin\AppData\Local\Temp\ccBfPlKb.s 			page 6


 142 0038 02F18042 		add	r2, r2, #1073741824	@ tmp178, EXTI_InitStruct_3(D)->EXTI_Mode,
 143 003c 02F59E32 		add	r2, r2, #80896	@ tmp.0, tmp178,
 144:.\stm32f4periph\src/stm32f4xx_exti.c **** 
 145:.\stm32f4periph\src/stm32f4xx_exti.c ****     *(__IO uint32_t *) tmp |= EXTI_InitStruct->EXTI_Line;
 144              		.loc 1 145 0
 145 0040 1468     		ldr	r4, [r2, #0]	@ D.7363, *tmp.0_21
 146 0042 2143     		orrs	r1, r1, r4	@, D.7364, D.7355, D.7363
 147 0044 1160     		str	r1, [r2, #0]	@ D.7364, *tmp.0_21
 146:.\stm32f4periph\src/stm32f4xx_exti.c **** 
 147:.\stm32f4periph\src/stm32f4xx_exti.c ****     /* Clear Rising Falling edge configuration */
 148:.\stm32f4periph\src/stm32f4xx_exti.c ****     EXTI->RTSR &= ~EXTI_InitStruct->EXTI_Line;
 148              		.loc 1 148 0
 149 0046 0268     		ldr	r2, [r0, #0]	@ D.7355, EXTI_InitStruct_3(D)->EXTI_Line
 150 0048 9C68     		ldr	r4, [r3, #8]	@ D.7365, MEM[(struct EXTI_TypeDef *)1073822720B].RTSR
 151 004a D143     		mvns	r1, r2	@ D.7356, D.7355
 152 004c 0C40     		ands	r4, r4, r1	@, D.7366, D.7365, D.7356
 153 004e 9C60     		str	r4, [r3, #8]	@ D.7366, MEM[(struct EXTI_TypeDef *)1073822720B].RTSR
 149:.\stm32f4periph\src/stm32f4xx_exti.c ****     EXTI->FTSR &= ~EXTI_InitStruct->EXTI_Line;
 154              		.loc 1 149 0
 155 0050 DC68     		ldr	r4, [r3, #12]	@ D.7367, MEM[(struct EXTI_TypeDef *)1073822720B].FTSR
 156 0052 2140     		ands	r1, r1, r4	@, D.7368, D.7356, D.7367
 157 0054 D960     		str	r1, [r3, #12]	@ D.7368, MEM[(struct EXTI_TypeDef *)1073822720B].FTSR
 150:.\stm32f4periph\src/stm32f4xx_exti.c ****     
 151:.\stm32f4periph\src/stm32f4xx_exti.c ****     /* Select the trigger for the selected external interrupts */
 152:.\stm32f4periph\src/stm32f4xx_exti.c ****     if (EXTI_InitStruct->EXTI_Trigger == EXTI_Trigger_Rising_Falling)
 158              		.loc 1 152 0
 159 0056 4179     		ldrb	r1, [r0, #5]	@ zero_extendqisi2	@ D.7369, EXTI_InitStruct_3(D)->EXTI_Trigger
 160 0058 1029     		cmp	r1, #16	@ D.7369,
 161 005a 06D1     		bne	.L6	@,
 153:.\stm32f4periph\src/stm32f4xx_exti.c ****     {
 154:.\stm32f4periph\src/stm32f4xx_exti.c ****       /* Rising Falling edge */
 155:.\stm32f4periph\src/stm32f4xx_exti.c ****       EXTI->RTSR |= EXTI_InitStruct->EXTI_Line;
 162              		.loc 1 155 0
 163 005c 9968     		ldr	r1, [r3, #8]	@ D.7372, MEM[(struct EXTI_TypeDef *)1073822720B].RTSR
 164 005e 1143     		orrs	r1, r1, r2	@, D.7373, D.7372, D.7355
 165 0060 9960     		str	r1, [r3, #8]	@ D.7373, MEM[(struct EXTI_TypeDef *)1073822720B].RTSR
 156:.\stm32f4periph\src/stm32f4xx_exti.c ****       EXTI->FTSR |= EXTI_InitStruct->EXTI_Line;
 166              		.loc 1 156 0
 167 0062 D968     		ldr	r1, [r3, #12]	@ D.7374, MEM[(struct EXTI_TypeDef *)1073822720B].FTSR
 168 0064 0A43     		orrs	r2, r2, r1	@, D.7375, D.7355, D.7374
 169 0066 DA60     		str	r2, [r3, #12]	@ D.7375, MEM[(struct EXTI_TypeDef *)1073822720B].FTSR
 170 0068 10BD     		pop	{r4, pc}	@
 171              	.L6:
 172              	.LVL2:
 157:.\stm32f4periph\src/stm32f4xx_exti.c ****     }
 158:.\stm32f4periph\src/stm32f4xx_exti.c ****     else
 159:.\stm32f4periph\src/stm32f4xx_exti.c ****     {
 160:.\stm32f4periph\src/stm32f4xx_exti.c ****       tmp = (uint32_t)EXTI_BASE;
 161:.\stm32f4periph\src/stm32f4xx_exti.c ****       tmp += EXTI_InitStruct->EXTI_Trigger;
 173              		.loc 1 161 0
 174 006a 01F18043 		add	r3, r1, #1073741824	@ tmp187, D.7369,
 175 006e 03F59E33 		add	r3, r3, #80896	@ tmp.0, tmp187,
 162:.\stm32f4periph\src/stm32f4xx_exti.c **** 
 163:.\stm32f4periph\src/stm32f4xx_exti.c ****       *(__IO uint32_t *) tmp |= EXTI_InitStruct->EXTI_Line;
 176              		.loc 1 163 0
 177 0072 1968     		ldr	r1, [r3, #0]	@ D.7378, *tmp.0_53
 178              	.LVL3:
ARM GAS  C:\Users\Kevin\AppData\Local\Temp\ccBfPlKb.s 			page 7


 179 0074 0A43     		orrs	r2, r2, r1	@, D.7379, D.7355, D.7378
 180 0076 08E0     		b	.L8	@
 181              	.LVL4:
 182              	.L5:
 164:.\stm32f4periph\src/stm32f4xx_exti.c ****     }
 165:.\stm32f4periph\src/stm32f4xx_exti.c ****   }
 166:.\stm32f4periph\src/stm32f4xx_exti.c ****   else
 167:.\stm32f4periph\src/stm32f4xx_exti.c ****   {
 168:.\stm32f4periph\src/stm32f4xx_exti.c ****     tmp += EXTI_InitStruct->EXTI_Mode;
 183              		.loc 1 168 0
 184 0078 0379     		ldrb	r3, [r0, #4]	@ zero_extendqisi2	@ EXTI_InitStruct_3(D)->EXTI_Mode, EXTI_InitStruct_3(D)->EXTI
 169:.\stm32f4periph\src/stm32f4xx_exti.c **** 
 170:.\stm32f4periph\src/stm32f4xx_exti.c ****     /* Disable the selected external lines */
 171:.\stm32f4periph\src/stm32f4xx_exti.c ****     *(__IO uint32_t *) tmp &= ~EXTI_InitStruct->EXTI_Line;
 185              		.loc 1 171 0
 186 007a 0168     		ldr	r1, [r0, #0]	@ EXTI_InitStruct_3(D)->EXTI_Line, EXTI_InitStruct_3(D)->EXTI_Line
 168:.\stm32f4periph\src/stm32f4xx_exti.c ****     tmp += EXTI_InitStruct->EXTI_Mode;
 187              		.loc 1 168 0
 188 007c 03F18043 		add	r3, r3, #1073741824	@ tmp189, EXTI_InitStruct_3(D)->EXTI_Mode,
 189 0080 03F59E33 		add	r3, r3, #80896	@ tmp.0, tmp189,
 190              		.loc 1 171 0
 191 0084 1A68     		ldr	r2, [r3, #0]	@ D.7381, *tmp.0_61
 192 0086 22EA0102 		bic	r2, r2, r1	@ D.7382, D.7381, EXTI_InitStruct_3(D)->EXTI_Line
 193              	.LVL5:
 194              	.L8:
 195 008a 1A60     		str	r2, [r3, #0]	@ D.7382,* tmp.0
 196 008c 10BD     		pop	{r4, pc}	@
 197              	.L10:
 198 008e 00BF     		.align	2
 199              	.L9:
 200 0090 003C0140 		.word	1073822720
 201              		.cfi_endproc
 202              	.LFE111:
 203              		.size	EXTI_Init, .-EXTI_Init
 204              		.align	1
 205              		.global	EXTI_StructInit
 206              		.thumb
 207              		.thumb_func
 208              		.type	EXTI_StructInit, %function
 209              	EXTI_StructInit:
 210              	.LFB112:
 172:.\stm32f4periph\src/stm32f4xx_exti.c ****   }
 173:.\stm32f4periph\src/stm32f4xx_exti.c **** }
 174:.\stm32f4periph\src/stm32f4xx_exti.c **** 
 175:.\stm32f4periph\src/stm32f4xx_exti.c **** /**
 176:.\stm32f4periph\src/stm32f4xx_exti.c ****   * @brief  Fills each EXTI_InitStruct member with its reset value.
 177:.\stm32f4periph\src/stm32f4xx_exti.c ****   * @param  EXTI_InitStruct: pointer to a EXTI_InitTypeDef structure which will
 178:.\stm32f4periph\src/stm32f4xx_exti.c ****   *         be initialized.
 179:.\stm32f4periph\src/stm32f4xx_exti.c ****   * @retval None
 180:.\stm32f4periph\src/stm32f4xx_exti.c ****   */
 181:.\stm32f4periph\src/stm32f4xx_exti.c **** void EXTI_StructInit(EXTI_InitTypeDef* EXTI_InitStruct)
 182:.\stm32f4periph\src/stm32f4xx_exti.c **** {
 211              		.loc 1 182 0
 212              		.cfi_startproc
 213              		@ args = 0, pretend = 0, frame = 0
 214              		@ frame_needed = 0, uses_anonymous_args = 0
 215              		@ link register save eliminated.
ARM GAS  C:\Users\Kevin\AppData\Local\Temp\ccBfPlKb.s 			page 8


 216              	.LVL6:
 183:.\stm32f4periph\src/stm32f4xx_exti.c ****   EXTI_InitStruct->EXTI_Line = EXTI_LINENONE;
 217              		.loc 1 183 0
 218 0094 0023     		movs	r3, #0	@ tmp135,
 184:.\stm32f4periph\src/stm32f4xx_exti.c ****   EXTI_InitStruct->EXTI_Mode = EXTI_Mode_Interrupt;
 185:.\stm32f4periph\src/stm32f4xx_exti.c ****   EXTI_InitStruct->EXTI_Trigger = EXTI_Trigger_Falling;
 219              		.loc 1 185 0
 220 0096 0C22     		movs	r2, #12	@ tmp138,
 183:.\stm32f4periph\src/stm32f4xx_exti.c ****   EXTI_InitStruct->EXTI_Line = EXTI_LINENONE;
 221              		.loc 1 183 0
 222 0098 0360     		str	r3, [r0, #0]	@ tmp135, EXTI_InitStruct_1(D)->EXTI_Line
 184:.\stm32f4periph\src/stm32f4xx_exti.c ****   EXTI_InitStruct->EXTI_Mode = EXTI_Mode_Interrupt;
 223              		.loc 1 184 0
 224 009a 0371     		strb	r3, [r0, #4]	@ tmp135, EXTI_InitStruct_1(D)->EXTI_Mode
 225              		.loc 1 185 0
 226 009c 4271     		strb	r2, [r0, #5]	@ tmp138, EXTI_InitStruct_1(D)->EXTI_Trigger
 186:.\stm32f4periph\src/stm32f4xx_exti.c ****   EXTI_InitStruct->EXTI_LineCmd = DISABLE;
 227              		.loc 1 186 0
 228 009e 8371     		strb	r3, [r0, #6]	@ tmp135, EXTI_InitStruct_1(D)->EXTI_LineCmd
 229 00a0 7047     		bx	lr	@
 230              		.cfi_endproc
 231              	.LFE112:
 232              		.size	EXTI_StructInit, .-EXTI_StructInit
 233              		.align	1
 234              		.global	EXTI_GenerateSWInterrupt
 235              		.thumb
 236              		.thumb_func
 237              		.type	EXTI_GenerateSWInterrupt, %function
 238              	EXTI_GenerateSWInterrupt:
 239              	.LFB113:
 187:.\stm32f4periph\src/stm32f4xx_exti.c **** }
 188:.\stm32f4periph\src/stm32f4xx_exti.c **** 
 189:.\stm32f4periph\src/stm32f4xx_exti.c **** /**
 190:.\stm32f4periph\src/stm32f4xx_exti.c ****   * @brief  Generates a Software interrupt on selected EXTI line.
 191:.\stm32f4periph\src/stm32f4xx_exti.c ****   * @param  EXTI_Line: specifies the EXTI line on which the software interrupt
 192:.\stm32f4periph\src/stm32f4xx_exti.c ****   *         will be generated.
 193:.\stm32f4periph\src/stm32f4xx_exti.c ****   *         This parameter can be any combination of EXTI_Linex where x can be (0..22)
 194:.\stm32f4periph\src/stm32f4xx_exti.c ****   * @retval None
 195:.\stm32f4periph\src/stm32f4xx_exti.c ****   */
 196:.\stm32f4periph\src/stm32f4xx_exti.c **** void EXTI_GenerateSWInterrupt(uint32_t EXTI_Line)
 197:.\stm32f4periph\src/stm32f4xx_exti.c **** {
 240              		.loc 1 197 0
 241              		.cfi_startproc
 242              		@ args = 0, pretend = 0, frame = 0
 243              		@ frame_needed = 0, uses_anonymous_args = 0
 244              		@ link register save eliminated.
 245              	.LVL7:
 198:.\stm32f4periph\src/stm32f4xx_exti.c ****   /* Check the parameters */
 199:.\stm32f4periph\src/stm32f4xx_exti.c ****   assert_param(IS_EXTI_LINE(EXTI_Line));
 200:.\stm32f4periph\src/stm32f4xx_exti.c ****   
 201:.\stm32f4periph\src/stm32f4xx_exti.c ****   EXTI->SWIER |= EXTI_Line;
 246              		.loc 1 201 0
 247 00a2 024B     		ldr	r3, .L13	@ tmp137,
 248 00a4 1A69     		ldr	r2, [r3, #16]	@ D.7348, MEM[(struct EXTI_TypeDef *)1073822720B].SWIER
 249 00a6 1043     		orrs	r0, r0, r2	@, D.7349, EXTI_Line, D.7348
 250              	.LVL8:
 251 00a8 1861     		str	r0, [r3, #16]	@ D.7349, MEM[(struct EXTI_TypeDef *)1073822720B].SWIER
ARM GAS  C:\Users\Kevin\AppData\Local\Temp\ccBfPlKb.s 			page 9


 252 00aa 7047     		bx	lr	@
 253              	.L14:
 254              		.align	2
 255              	.L13:
 256 00ac 003C0140 		.word	1073822720
 257              		.cfi_endproc
 258              	.LFE113:
 259              		.size	EXTI_GenerateSWInterrupt, .-EXTI_GenerateSWInterrupt
 260              		.align	1
 261              		.global	EXTI_GetFlagStatus
 262              		.thumb
 263              		.thumb_func
 264              		.type	EXTI_GetFlagStatus, %function
 265              	EXTI_GetFlagStatus:
 266              	.LFB114:
 202:.\stm32f4periph\src/stm32f4xx_exti.c **** }
 203:.\stm32f4periph\src/stm32f4xx_exti.c **** 
 204:.\stm32f4periph\src/stm32f4xx_exti.c **** /**
 205:.\stm32f4periph\src/stm32f4xx_exti.c ****   * @}
 206:.\stm32f4periph\src/stm32f4xx_exti.c ****   */
 207:.\stm32f4periph\src/stm32f4xx_exti.c **** 
 208:.\stm32f4periph\src/stm32f4xx_exti.c **** /** @defgroup EXTI_Group2 Interrupts and flags management functions
 209:.\stm32f4periph\src/stm32f4xx_exti.c ****  *  @brief   Interrupts and flags management functions 
 210:.\stm32f4periph\src/stm32f4xx_exti.c ****  *
 211:.\stm32f4periph\src/stm32f4xx_exti.c **** @verbatim   
 212:.\stm32f4periph\src/stm32f4xx_exti.c ****  ===============================================================================
 213:.\stm32f4periph\src/stm32f4xx_exti.c ****                   Interrupts and flags management functions
 214:.\stm32f4periph\src/stm32f4xx_exti.c ****  ===============================================================================  
 215:.\stm32f4periph\src/stm32f4xx_exti.c **** 
 216:.\stm32f4periph\src/stm32f4xx_exti.c **** @endverbatim
 217:.\stm32f4periph\src/stm32f4xx_exti.c ****   * @{
 218:.\stm32f4periph\src/stm32f4xx_exti.c ****   */
 219:.\stm32f4periph\src/stm32f4xx_exti.c **** 
 220:.\stm32f4periph\src/stm32f4xx_exti.c **** /**
 221:.\stm32f4periph\src/stm32f4xx_exti.c ****   * @brief  Checks whether the specified EXTI line flag is set or not.
 222:.\stm32f4periph\src/stm32f4xx_exti.c ****   * @param  EXTI_Line: specifies the EXTI line flag to check.
 223:.\stm32f4periph\src/stm32f4xx_exti.c ****   *          This parameter can be EXTI_Linex where x can be(0..22)
 224:.\stm32f4periph\src/stm32f4xx_exti.c ****   * @retval The new state of EXTI_Line (SET or RESET).
 225:.\stm32f4periph\src/stm32f4xx_exti.c ****   */
 226:.\stm32f4periph\src/stm32f4xx_exti.c **** FlagStatus EXTI_GetFlagStatus(uint32_t EXTI_Line)
 227:.\stm32f4periph\src/stm32f4xx_exti.c **** {
 267              		.loc 1 227 0
 268              		.cfi_startproc
 269              		@ args = 0, pretend = 0, frame = 0
 270              		@ frame_needed = 0, uses_anonymous_args = 0
 271              		@ link register save eliminated.
 272              	.LVL9:
 228:.\stm32f4periph\src/stm32f4xx_exti.c ****   FlagStatus bitstatus = RESET;
 229:.\stm32f4periph\src/stm32f4xx_exti.c ****   /* Check the parameters */
 230:.\stm32f4periph\src/stm32f4xx_exti.c ****   assert_param(IS_GET_EXTI_LINE(EXTI_Line));
 231:.\stm32f4periph\src/stm32f4xx_exti.c ****   
 232:.\stm32f4periph\src/stm32f4xx_exti.c ****   if ((EXTI->PR & EXTI_Line) != (uint32_t)RESET)
 273              		.loc 1 232 0
 274 00b0 034B     		ldr	r3, .L16	@ tmp140,
 275 00b2 5B69     		ldr	r3, [r3, #20]	@ D.7340, MEM[(struct EXTI_TypeDef *)1073822720B].PR
 276              	.LVL10:
 277 00b4 1842     		tst	r0, r3	@ EXTI_Line, D.7340
ARM GAS  C:\Users\Kevin\AppData\Local\Temp\ccBfPlKb.s 			page 10


 233:.\stm32f4periph\src/stm32f4xx_exti.c ****   {
 234:.\stm32f4periph\src/stm32f4xx_exti.c ****     bitstatus = SET;
 235:.\stm32f4periph\src/stm32f4xx_exti.c ****   }
 236:.\stm32f4periph\src/stm32f4xx_exti.c ****   else
 237:.\stm32f4periph\src/stm32f4xx_exti.c ****   {
 238:.\stm32f4periph\src/stm32f4xx_exti.c ****     bitstatus = RESET;
 239:.\stm32f4periph\src/stm32f4xx_exti.c ****   }
 240:.\stm32f4periph\src/stm32f4xx_exti.c ****   return bitstatus;
 241:.\stm32f4periph\src/stm32f4xx_exti.c **** }
 278              		.loc 1 241 0
 279 00b6 0CBF     		ite	eq	@
 280 00b8 0020     		moveq	r0, #0	@,
 281 00ba 0120     		movne	r0, #1	@,
 282              	.LVL11:
 283 00bc 7047     		bx	lr	@
 284              	.L17:
 285 00be 00BF     		.align	2
 286              	.L16:
 287 00c0 003C0140 		.word	1073822720
 288              		.cfi_endproc
 289              	.LFE114:
 290              		.size	EXTI_GetFlagStatus, .-EXTI_GetFlagStatus
 291              		.align	1
 292              		.global	EXTI_ClearFlag
 293              		.thumb
 294              		.thumb_func
 295              		.type	EXTI_ClearFlag, %function
 296              	EXTI_ClearFlag:
 297              	.LFB115:
 242:.\stm32f4periph\src/stm32f4xx_exti.c **** 
 243:.\stm32f4periph\src/stm32f4xx_exti.c **** /**
 244:.\stm32f4periph\src/stm32f4xx_exti.c ****   * @brief  Clears the EXTI's line pending flags.
 245:.\stm32f4periph\src/stm32f4xx_exti.c ****   * @param  EXTI_Line: specifies the EXTI lines flags to clear.
 246:.\stm32f4periph\src/stm32f4xx_exti.c ****   *          This parameter can be any combination of EXTI_Linex where x can be (0..22)
 247:.\stm32f4periph\src/stm32f4xx_exti.c ****   * @retval None
 248:.\stm32f4periph\src/stm32f4xx_exti.c ****   */
 249:.\stm32f4periph\src/stm32f4xx_exti.c **** void EXTI_ClearFlag(uint32_t EXTI_Line)
 250:.\stm32f4periph\src/stm32f4xx_exti.c **** {
 298              		.loc 1 250 0
 299              		.cfi_startproc
 300              		@ args = 0, pretend = 0, frame = 0
 301              		@ frame_needed = 0, uses_anonymous_args = 0
 302              		@ link register save eliminated.
 303              	.LVL12:
 251:.\stm32f4periph\src/stm32f4xx_exti.c ****   /* Check the parameters */
 252:.\stm32f4periph\src/stm32f4xx_exti.c ****   assert_param(IS_EXTI_LINE(EXTI_Line));
 253:.\stm32f4periph\src/stm32f4xx_exti.c ****   
 254:.\stm32f4periph\src/stm32f4xx_exti.c ****   EXTI->PR = EXTI_Line;
 304              		.loc 1 254 0
 305 00c4 014B     		ldr	r3, .L19	@ tmp135,
 306 00c6 5861     		str	r0, [r3, #20]	@ EXTI_Line, MEM[(struct EXTI_TypeDef *)1073822720B].PR
 307 00c8 7047     		bx	lr	@
 308              	.L20:
 309 00ca 00BF     		.align	2
 310              	.L19:
 311 00cc 003C0140 		.word	1073822720
 312              		.cfi_endproc
ARM GAS  C:\Users\Kevin\AppData\Local\Temp\ccBfPlKb.s 			page 11


 313              	.LFE115:
 314              		.size	EXTI_ClearFlag, .-EXTI_ClearFlag
 315              		.align	1
 316              		.global	EXTI_GetITStatus
 317              		.thumb
 318              		.thumb_func
 319              		.type	EXTI_GetITStatus, %function
 320              	EXTI_GetITStatus:
 321              	.LFB116:
 255:.\stm32f4periph\src/stm32f4xx_exti.c **** }
 256:.\stm32f4periph\src/stm32f4xx_exti.c **** 
 257:.\stm32f4periph\src/stm32f4xx_exti.c **** /**
 258:.\stm32f4periph\src/stm32f4xx_exti.c ****   * @brief  Checks whether the specified EXTI line is asserted or not.
 259:.\stm32f4periph\src/stm32f4xx_exti.c ****   * @param  EXTI_Line: specifies the EXTI line to check.
 260:.\stm32f4periph\src/stm32f4xx_exti.c ****   *          This parameter can be EXTI_Linex where x can be(0..22)
 261:.\stm32f4periph\src/stm32f4xx_exti.c ****   * @retval The new state of EXTI_Line (SET or RESET).
 262:.\stm32f4periph\src/stm32f4xx_exti.c ****   */
 263:.\stm32f4periph\src/stm32f4xx_exti.c **** ITStatus EXTI_GetITStatus(uint32_t EXTI_Line)
 264:.\stm32f4periph\src/stm32f4xx_exti.c **** {
 322              		.loc 1 264 0
 323              		.cfi_startproc
 324              		@ args = 0, pretend = 0, frame = 0
 325              		@ frame_needed = 0, uses_anonymous_args = 0
 326              		@ link register save eliminated.
 327              	.LVL13:
 265:.\stm32f4periph\src/stm32f4xx_exti.c ****   ITStatus bitstatus = RESET;
 266:.\stm32f4periph\src/stm32f4xx_exti.c ****   uint32_t enablestatus = 0;
 267:.\stm32f4periph\src/stm32f4xx_exti.c ****   /* Check the parameters */
 268:.\stm32f4periph\src/stm32f4xx_exti.c ****   assert_param(IS_GET_EXTI_LINE(EXTI_Line));
 269:.\stm32f4periph\src/stm32f4xx_exti.c ****   
 270:.\stm32f4periph\src/stm32f4xx_exti.c ****   enablestatus =  EXTI->IMR & EXTI_Line;
 328              		.loc 1 270 0
 329 00d0 054B     		ldr	r3, .L24	@ tmp142,
 330 00d2 1A68     		ldr	r2, [r3, #0]	@ D.7329, MEM[(struct EXTI_TypeDef *)1073822720B].IMR
 331              	.LVL14:
 271:.\stm32f4periph\src/stm32f4xx_exti.c ****   if (((EXTI->PR & EXTI_Line) != (uint32_t)RESET) && (enablestatus != (uint32_t)RESET))
 332              		.loc 1 271 0
 333 00d4 5B69     		ldr	r3, [r3, #20]	@ D.7332, MEM[(struct EXTI_TypeDef *)1073822720B].PR
 334 00d6 0340     		ands	r3, r0, r3	@ tmp144, EXTI_Line, D.7332
 335 00d8 04D0     		beq	.L23	@,
 336              		.loc 1 271 0 is_stmt 0 discriminator 1
 337 00da 1042     		tst	r0, r2	@ EXTI_Line, D.7329
 272:.\stm32f4periph\src/stm32f4xx_exti.c ****   {
 273:.\stm32f4periph\src/stm32f4xx_exti.c ****     bitstatus = SET;
 338              		.loc 1 273 0 is_stmt 1 discriminator 1
 339 00dc 0CBF     		ite	eq	@
 340 00de 0020     		moveq	r0, #0	@, bitstatus
 341 00e0 0120     		movne	r0, #1	@, bitstatus
 342              	.LVL15:
 343 00e2 7047     		bx	lr	@
 344              	.LVL16:
 345              	.L23:
 274:.\stm32f4periph\src/stm32f4xx_exti.c ****   }
 275:.\stm32f4periph\src/stm32f4xx_exti.c ****   else
 276:.\stm32f4periph\src/stm32f4xx_exti.c ****   {
 277:.\stm32f4periph\src/stm32f4xx_exti.c ****     bitstatus = RESET;
 346              		.loc 1 277 0
ARM GAS  C:\Users\Kevin\AppData\Local\Temp\ccBfPlKb.s 			page 12


 347 00e4 1846     		mov	r0, r3	@ bitstatus, tmp144
 348              	.LVL17:
 278:.\stm32f4periph\src/stm32f4xx_exti.c ****   }
 279:.\stm32f4periph\src/stm32f4xx_exti.c ****   return bitstatus;
 280:.\stm32f4periph\src/stm32f4xx_exti.c **** }
 349              		.loc 1 280 0
 350 00e6 7047     		bx	lr	@
 351              	.L25:
 352              		.align	2
 353              	.L24:
 354 00e8 003C0140 		.word	1073822720
 355              		.cfi_endproc
 356              	.LFE116:
 357              		.size	EXTI_GetITStatus, .-EXTI_GetITStatus
 358              		.align	1
 359              		.global	EXTI_ClearITPendingBit
 360              		.thumb
 361              		.thumb_func
 362              		.type	EXTI_ClearITPendingBit, %function
 363              	EXTI_ClearITPendingBit:
 364              	.LFB117:
 281:.\stm32f4periph\src/stm32f4xx_exti.c **** 
 282:.\stm32f4periph\src/stm32f4xx_exti.c **** /**
 283:.\stm32f4periph\src/stm32f4xx_exti.c ****   * @brief  Clears the EXTI's line pending bits.
 284:.\stm32f4periph\src/stm32f4xx_exti.c ****   * @param  EXTI_Line: specifies the EXTI lines to clear.
 285:.\stm32f4periph\src/stm32f4xx_exti.c ****   *          This parameter can be any combination of EXTI_Linex where x can be (0..22)
 286:.\stm32f4periph\src/stm32f4xx_exti.c ****   * @retval None
 287:.\stm32f4periph\src/stm32f4xx_exti.c ****   */
 288:.\stm32f4periph\src/stm32f4xx_exti.c **** void EXTI_ClearITPendingBit(uint32_t EXTI_Line)
 289:.\stm32f4periph\src/stm32f4xx_exti.c **** {
 365              		.loc 1 289 0
 366              		.cfi_startproc
 367              		@ args = 0, pretend = 0, frame = 0
 368              		@ frame_needed = 0, uses_anonymous_args = 0
 369              		@ link register save eliminated.
 370              	.LVL18:
 290:.\stm32f4periph\src/stm32f4xx_exti.c ****   /* Check the parameters */
 291:.\stm32f4periph\src/stm32f4xx_exti.c ****   assert_param(IS_EXTI_LINE(EXTI_Line));
 292:.\stm32f4periph\src/stm32f4xx_exti.c ****   
 293:.\stm32f4periph\src/stm32f4xx_exti.c ****   EXTI->PR = EXTI_Line;
 371              		.loc 1 293 0
 372 00ec 014B     		ldr	r3, .L27	@ tmp135,
 373 00ee 5861     		str	r0, [r3, #20]	@ EXTI_Line, MEM[(struct EXTI_TypeDef *)1073822720B].PR
 374 00f0 7047     		bx	lr	@
 375              	.L28:
 376 00f2 00BF     		.align	2
 377              	.L27:
 378 00f4 003C0140 		.word	1073822720
 379              		.cfi_endproc
 380              	.LFE117:
 381              		.size	EXTI_ClearITPendingBit, .-EXTI_ClearITPendingBit
 382              	.Letext0:
 383              		.file 2 "k:\\electronics\\gcc\\bin\\../lib/gcc/arm-none-eabi/4.7.2/../../../../arm-none-eabi/inclu
 384              		.file 3 ".\\inc/stm32f4xx.h"
 385              		.file 4 ".\\stm32f4periph\\inc/stm32f4xx_exti.h"
 386              		.file 5 ".\\inc/core_cm4.h"