ARM GAS  C:\Users\Kevin\AppData\Local\Temp\ccW48Nb3.s 			page 1


   1              		.syntax unified
   2              		.cpu cortex-m4
   3              		.eabi_attribute 27, 3	@ Tag_ABI_HardFP_use
   4              		.eabi_attribute 28, 1	@ Tag_ABI_VFP_args
   5              		.fpu fpv4-sp-d16
   6              		.eabi_attribute 20, 1	@ Tag_ABI_FP_denormal
   7              		.eabi_attribute 21, 1	@ Tag_ABI_FP_exceptions
   8              		.eabi_attribute 23, 3	@ Tag_ABI_FP_number_model
   9              		.eabi_attribute 24, 1	@ Tag_ABI_align8_needed
  10              		.eabi_attribute 25, 1	@ Tag_ABI_align8_preserved
  11              		.eabi_attribute 26, 1	@ Tag_ABI_enum_size
  12              		.eabi_attribute 30, 4	@ Tag_ABI_optimization_goals
  13              		.eabi_attribute 34, 1	@ Tag_CPU_unaligned_access
  14              		.eabi_attribute 18, 4	@ Tag_ABI_PCS_wchar_t
  15              		.file	"stm32f4xx_usart.c"
  16              	@ GNU C (Sourcery CodeBench Lite 2012.09-63) version 4.7.2 (arm-none-eabi)
  17              	@	compiled by GNU C version 4.3.2, GMP version 5.0.5, MPFR version 3.1.1-p2, MPC version 1.0.1
  18              	@ GGC heuristics: --param ggc-min-expand=100 --param ggc-min-heapsize=131072
  19              	@ options passed:  -I . -I \STMSPINCDDIR -I .\stm32f4periph\inc
  20              	@ -I .\CMSIS\Include -I .\inc\commo\usb -I .\inc\commo -I .\inc\common
  21              	@ -I .\inc -imultilib thumb2
  22              	@ -iprefix k:\electronics\gcc\bin\../lib/gcc/arm-none-eabi/4.7.2/
  23              	@ -isysroot k:\electronics\gcc\bin\../arm-none-eabi
  24              	@ -MD .\stm32f4periph\src\stm32f4xx_usart.d -MF .dep\stm32f4xx_usart.o.d
  25              	@ -MP -MQ .\stm32f4periph\src\stm32f4xx_usart.o -D__USES_INITFINI__
  26              	@ -D STM32F0XX -D USE_STDPERIPH_DRIVER -D RUN_FROM_FLASH=1
  27              	@ -D __CS_SOURCERYGXX_MAJ__=2012 -D __CS_SOURCERYGXX_MIN__=9
  28              	@ -D __CS_SOURCERYGXX_REV__=63 .\stm32f4periph\src\stm32f4xx_usart.c
  29              	@ -mcpu=cortex-m4 -mfpu=fpv4-sp-d16 -mfloat-abi=hard -mthumb
  30              	@ -auxbase-strip .\stm32f4periph\src\stm32f4xx_usart.o -gdwarf-2 -Os -Wall
  31              	@ -Wstrict-prototypes -std=gnu99 -fomit-frame-pointer -fverbose-asm
  32              	@ options enabled:  -fauto-inc-dec -fbranch-count-reg -fcaller-saves
  33              	@ -fcombine-stack-adjustments -fcommon -fcompare-elim -fcprop-registers
  34              	@ -fcrossjumping -fcse-follow-jumps -fdebug-types-section -fdefer-pop
  35              	@ -fdelete-null-pointer-checks -fdevirtualize -fdwarf2-cfi-asm
  36              	@ -fearly-inlining -feliminate-unused-debug-types -fexpensive-optimizations
  37              	@ -fextension-elimination -fforward-propagate -ffunction-cse -fgcse
  38              	@ -fgcse-lm -fgnu-runtime -fguess-branch-probability -fident
  39              	@ -fif-conversion -fif-conversion2 -findirect-inlining -finline
  40              	@ -finline-atomics -finline-functions -finline-functions-called-once
  41              	@ -finline-small-functions -fipa-cp -fipa-profile -fipa-pure-const
  42              	@ -fipa-reference -fipa-sra -fira-share-save-slots -fira-share-spill-slots
  43              	@ -fivopts -fkeep-static-consts -fleading-underscore -fmath-errno
  44              	@ -fmerge-constants -fmerge-debug-strings -fmove-loop-invariants
  45              	@ -fomit-frame-pointer -foptimize-register-move -foptimize-sibling-calls
  46              	@ -fpartial-inlining -fpeephole -fpeephole2 -fprefetch-loop-arrays
  47              	@ -freg-struct-return -fregmove -freorder-blocks -freorder-functions
  48              	@ -frerun-cse-after-loop -fsched-critical-path-heuristic
  49              	@ -fsched-dep-count-heuristic -fsched-group-heuristic -fsched-interblock
  50              	@ -fsched-last-insn-heuristic -fsched-rank-heuristic -fsched-spec
  51              	@ -fsched-spec-insn-heuristic -fsched-stalled-insns-dep -fschedule-insns2
  52              	@ -fsection-anchors -fshow-column -fshrink-wrap -fsigned-zeros
  53              	@ -fsplit-ivs-in-unroller -fsplit-wide-types -fstrict-aliasing
  54              	@ -fstrict-overflow -fstrict-volatile-bitfields -fthread-jumps
  55              	@ -ftoplevel-reorder -ftrapping-math -ftree-bit-ccp -ftree-builtin-call-dce
  56              	@ -ftree-ccp -ftree-ch -ftree-copy-prop -ftree-copyrename -ftree-cselim
  57              	@ -ftree-dce -ftree-dominator-opts -ftree-dse -ftree-forwprop -ftree-fre
ARM GAS  C:\Users\Kevin\AppData\Local\Temp\ccW48Nb3.s 			page 2


  58              	@ -ftree-if-to-switch-conversion -ftree-loop-if-convert -ftree-loop-im
  59              	@ -ftree-loop-ivcanon -ftree-loop-optimize -ftree-parallelize-loops=
  60              	@ -ftree-phiprop -ftree-pre -ftree-pta -ftree-reassoc -ftree-scev-cprop
  61              	@ -ftree-sink -ftree-slp-vectorize -ftree-sra -ftree-switch-conversion
  62              	@ -ftree-tail-merge -ftree-ter -ftree-vect-loop-version -ftree-vrp
  63              	@ -funit-at-a-time -fvar-tracking -fvar-tracking-assignments -fverbose-asm
  64              	@ -fzero-initialized-in-bss -mlittle-endian -msched-prolog -mthumb
  65              	@ -munaligned-access -mvectorize-with-neon-quad
  66              	
  67              		.text
  68              	.Ltext0:
  69              		.cfi_sections	.debug_frame
  70              		.align	1
  71              		.global	USART_DeInit
  72              		.thumb
  73              		.thumb_func
  74              		.type	USART_DeInit, %function
  75              	USART_DeInit:
  76              	.LFB110:
  77              		.file 1 ".\\stm32f4periph\\src\\stm32f4xx_usart.c"
   1:.\stm32f4periph\src/stm32f4xx_usart.c **** /**
   2:.\stm32f4periph\src/stm32f4xx_usart.c ****   ******************************************************************************
   3:.\stm32f4periph\src/stm32f4xx_usart.c ****   * @file    stm32f4xx_usart.c
   4:.\stm32f4periph\src/stm32f4xx_usart.c ****   * @author  MCD Application Team
   5:.\stm32f4periph\src/stm32f4xx_usart.c ****   * @version V1.0.2
   6:.\stm32f4periph\src/stm32f4xx_usart.c ****   * @date    05-March-2012
   7:.\stm32f4periph\src/stm32f4xx_usart.c ****   * @brief   This file provides firmware functions to manage the following 
   8:.\stm32f4periph\src/stm32f4xx_usart.c ****   *          functionalities of the Universal synchronous asynchronous receiver
   9:.\stm32f4periph\src/stm32f4xx_usart.c ****   *          transmitter (USART):           
  10:.\stm32f4periph\src/stm32f4xx_usart.c ****   *           - Initialization and Configuration
  11:.\stm32f4periph\src/stm32f4xx_usart.c ****   *           - Data transfers
  12:.\stm32f4periph\src/stm32f4xx_usart.c ****   *           - Multi-Processor Communication
  13:.\stm32f4periph\src/stm32f4xx_usart.c ****   *           - LIN mode
  14:.\stm32f4periph\src/stm32f4xx_usart.c ****   *           - Half-duplex mode
  15:.\stm32f4periph\src/stm32f4xx_usart.c ****   *           - Smartcard mode
  16:.\stm32f4periph\src/stm32f4xx_usart.c ****   *           - IrDA mode
  17:.\stm32f4periph\src/stm32f4xx_usart.c ****   *           - DMA transfers management
  18:.\stm32f4periph\src/stm32f4xx_usart.c ****   *           - Interrupts and flags management 
  19:.\stm32f4periph\src/stm32f4xx_usart.c ****   *           
  20:.\stm32f4periph\src/stm32f4xx_usart.c ****   *  @verbatim
  21:.\stm32f4periph\src/stm32f4xx_usart.c ****   *      
  22:.\stm32f4periph\src/stm32f4xx_usart.c ****   *          ===================================================================
  23:.\stm32f4periph\src/stm32f4xx_usart.c ****   *                                 How to use this driver
  24:.\stm32f4periph\src/stm32f4xx_usart.c ****   *          ===================================================================
  25:.\stm32f4periph\src/stm32f4xx_usart.c ****   *          1. Enable peripheral clock using the follwoing functions
  26:.\stm32f4periph\src/stm32f4xx_usart.c ****   *             RCC_APB2PeriphClockCmd(RCC_APB2Periph_USARTx, ENABLE) for USART1 and USART6 
  27:.\stm32f4periph\src/stm32f4xx_usart.c ****   *             RCC_APB1PeriphClockCmd(RCC_APB1Periph_USARTx, ENABLE) for USART2, USART3, UART4 or 
  28:.\stm32f4periph\src/stm32f4xx_usart.c ****   *
  29:.\stm32f4periph\src/stm32f4xx_usart.c ****   *          2.  According to the USART mode, enable the GPIO clocks using 
  30:.\stm32f4periph\src/stm32f4xx_usart.c ****   *              RCC_AHB1PeriphClockCmd() function. (The I/O can be TX, RX, CTS, 
  31:.\stm32f4periph\src/stm32f4xx_usart.c ****   *              or/and SCLK). 
  32:.\stm32f4periph\src/stm32f4xx_usart.c ****   *
  33:.\stm32f4periph\src/stm32f4xx_usart.c ****   *          3. Peripheral's alternate function: 
  34:.\stm32f4periph\src/stm32f4xx_usart.c ****   *                 - Connect the pin to the desired peripherals' Alternate 
  35:.\stm32f4periph\src/stm32f4xx_usart.c ****   *                   Function (AF) using GPIO_PinAFConfig() function
  36:.\stm32f4periph\src/stm32f4xx_usart.c ****   *                 - Configure the desired pin in alternate function by:
  37:.\stm32f4periph\src/stm32f4xx_usart.c ****   *                   GPIO_InitStruct->GPIO_Mode = GPIO_Mode_AF
ARM GAS  C:\Users\Kevin\AppData\Local\Temp\ccW48Nb3.s 			page 3


  38:.\stm32f4periph\src/stm32f4xx_usart.c ****   *                 - Select the type, pull-up/pull-down and output speed via 
  39:.\stm32f4periph\src/stm32f4xx_usart.c ****   *                   GPIO_PuPd, GPIO_OType and GPIO_Speed members
  40:.\stm32f4periph\src/stm32f4xx_usart.c ****   *                 - Call GPIO_Init() function
  41:.\stm32f4periph\src/stm32f4xx_usart.c ****   *        
  42:.\stm32f4periph\src/stm32f4xx_usart.c ****   *          4. Program the Baud Rate, Word Length , Stop Bit, Parity, Hardware 
  43:.\stm32f4periph\src/stm32f4xx_usart.c ****   *             flow control and Mode(Receiver/Transmitter) using the USART_Init()
  44:.\stm32f4periph\src/stm32f4xx_usart.c ****   *             function.
  45:.\stm32f4periph\src/stm32f4xx_usart.c ****   *
  46:.\stm32f4periph\src/stm32f4xx_usart.c ****   *          5. For synchronous mode, enable the clock and program the polarity,
  47:.\stm32f4periph\src/stm32f4xx_usart.c ****   *             phase and last bit using the USART_ClockInit() function.
  48:.\stm32f4periph\src/stm32f4xx_usart.c ****   *
  49:.\stm32f4periph\src/stm32f4xx_usart.c ****   *          5. Enable the NVIC and the corresponding interrupt using the function 
  50:.\stm32f4periph\src/stm32f4xx_usart.c ****   *             USART_ITConfig() if you need to use interrupt mode. 
  51:.\stm32f4periph\src/stm32f4xx_usart.c ****   *
  52:.\stm32f4periph\src/stm32f4xx_usart.c ****   *          6. When using the DMA mode 
  53:.\stm32f4periph\src/stm32f4xx_usart.c ****   *                   - Configure the DMA using DMA_Init() function
  54:.\stm32f4periph\src/stm32f4xx_usart.c ****   *                   - Active the needed channel Request using USART_DMACmd() function
  55:.\stm32f4periph\src/stm32f4xx_usart.c ****   * 
  56:.\stm32f4periph\src/stm32f4xx_usart.c ****   *          7. Enable the USART using the USART_Cmd() function.
  57:.\stm32f4periph\src/stm32f4xx_usart.c ****   * 
  58:.\stm32f4periph\src/stm32f4xx_usart.c ****   *          8. Enable the DMA using the DMA_Cmd() function, when using DMA mode. 
  59:.\stm32f4periph\src/stm32f4xx_usart.c ****   *
  60:.\stm32f4periph\src/stm32f4xx_usart.c ****   *          Refer to Multi-Processor, LIN, half-duplex, Smartcard, IrDA sub-sections
  61:.\stm32f4periph\src/stm32f4xx_usart.c ****   *          for more details
  62:.\stm32f4periph\src/stm32f4xx_usart.c ****   *          
  63:.\stm32f4periph\src/stm32f4xx_usart.c ****   *          In order to reach higher communication baudrates, it is possible to
  64:.\stm32f4periph\src/stm32f4xx_usart.c ****   *          enable the oversampling by 8 mode using the function USART_OverSampling8Cmd().
  65:.\stm32f4periph\src/stm32f4xx_usart.c ****   *          This function should be called after enabling the USART clock (RCC_APBxPeriphClockCmd(
  66:.\stm32f4periph\src/stm32f4xx_usart.c ****   *          and before calling the function USART_Init().
  67:.\stm32f4periph\src/stm32f4xx_usart.c ****   *          
  68:.\stm32f4periph\src/stm32f4xx_usart.c ****   *  @endverbatim
  69:.\stm32f4periph\src/stm32f4xx_usart.c ****   *        
  70:.\stm32f4periph\src/stm32f4xx_usart.c ****   ******************************************************************************
  71:.\stm32f4periph\src/stm32f4xx_usart.c ****   * @attention
  72:.\stm32f4periph\src/stm32f4xx_usart.c ****   *
  73:.\stm32f4periph\src/stm32f4xx_usart.c ****   * <h2><center>&copy; COPYRIGHT 2012 STMicroelectronics</center></h2>
  74:.\stm32f4periph\src/stm32f4xx_usart.c ****   *
  75:.\stm32f4periph\src/stm32f4xx_usart.c ****   * Licensed under MCD-ST Liberty SW License Agreement V2, (the "License");
  76:.\stm32f4periph\src/stm32f4xx_usart.c ****   * You may not use this file except in compliance with the License.
  77:.\stm32f4periph\src/stm32f4xx_usart.c ****   * You may obtain a copy of the License at:
  78:.\stm32f4periph\src/stm32f4xx_usart.c ****   *
  79:.\stm32f4periph\src/stm32f4xx_usart.c ****   *        http://www.st.com/software_license_agreement_liberty_v2
  80:.\stm32f4periph\src/stm32f4xx_usart.c ****   *
  81:.\stm32f4periph\src/stm32f4xx_usart.c ****   * Unless required by applicable law or agreed to in writing, software 
  82:.\stm32f4periph\src/stm32f4xx_usart.c ****   * distributed under the License is distributed on an "AS IS" BASIS, 
  83:.\stm32f4periph\src/stm32f4xx_usart.c ****   * WITHOUT WARRANTIES OR CONDITIONS OF ANY KIND, either express or implied.
  84:.\stm32f4periph\src/stm32f4xx_usart.c ****   * See the License for the specific language governing permissions and
  85:.\stm32f4periph\src/stm32f4xx_usart.c ****   * limitations under the License.
  86:.\stm32f4periph\src/stm32f4xx_usart.c ****   *
  87:.\stm32f4periph\src/stm32f4xx_usart.c ****   ******************************************************************************
  88:.\stm32f4periph\src/stm32f4xx_usart.c ****   */ 
  89:.\stm32f4periph\src/stm32f4xx_usart.c **** 
  90:.\stm32f4periph\src/stm32f4xx_usart.c **** /* Includes ------------------------------------------------------------------*/
  91:.\stm32f4periph\src/stm32f4xx_usart.c **** #include "stm32f4xx_usart.h"
  92:.\stm32f4periph\src/stm32f4xx_usart.c **** #include "stm32f4xx_rcc.h"
  93:.\stm32f4periph\src/stm32f4xx_usart.c **** 
  94:.\stm32f4periph\src/stm32f4xx_usart.c **** #define assert_param(expr) ((void)0)
ARM GAS  C:\Users\Kevin\AppData\Local\Temp\ccW48Nb3.s 			page 4


  95:.\stm32f4periph\src/stm32f4xx_usart.c **** 
  96:.\stm32f4periph\src/stm32f4xx_usart.c **** /** @addtogroup STM32F4xx_StdPeriph_Driver
  97:.\stm32f4periph\src/stm32f4xx_usart.c ****   * @{
  98:.\stm32f4periph\src/stm32f4xx_usart.c ****   */
  99:.\stm32f4periph\src/stm32f4xx_usart.c **** 
 100:.\stm32f4periph\src/stm32f4xx_usart.c **** /** @defgroup USART 
 101:.\stm32f4periph\src/stm32f4xx_usart.c ****   * @brief USART driver modules
 102:.\stm32f4periph\src/stm32f4xx_usart.c ****   * @{
 103:.\stm32f4periph\src/stm32f4xx_usart.c ****   */
 104:.\stm32f4periph\src/stm32f4xx_usart.c **** 
 105:.\stm32f4periph\src/stm32f4xx_usart.c **** /* Private typedef -----------------------------------------------------------*/
 106:.\stm32f4periph\src/stm32f4xx_usart.c **** /* Private define ------------------------------------------------------------*/
 107:.\stm32f4periph\src/stm32f4xx_usart.c **** 
 108:.\stm32f4periph\src/stm32f4xx_usart.c **** /*!< USART CR1 register clear Mask ((~(uint16_t)0xE9F3)) */
 109:.\stm32f4periph\src/stm32f4xx_usart.c **** #define CR1_CLEAR_MASK            ((uint16_t)(USART_CR1_M | USART_CR1_PCE | \
 110:.\stm32f4periph\src/stm32f4xx_usart.c ****                                               USART_CR1_PS | USART_CR1_TE | \
 111:.\stm32f4periph\src/stm32f4xx_usart.c ****                                               USART_CR1_RE))
 112:.\stm32f4periph\src/stm32f4xx_usart.c **** 
 113:.\stm32f4periph\src/stm32f4xx_usart.c **** /*!< USART CR2 register clock bits clear Mask ((~(uint16_t)0xF0FF)) */
 114:.\stm32f4periph\src/stm32f4xx_usart.c **** #define CR2_CLOCK_CLEAR_MASK      ((uint16_t)(USART_CR2_CLKEN | USART_CR2_CPOL | \
 115:.\stm32f4periph\src/stm32f4xx_usart.c ****                                               USART_CR2_CPHA | USART_CR2_LBCL))
 116:.\stm32f4periph\src/stm32f4xx_usart.c **** 
 117:.\stm32f4periph\src/stm32f4xx_usart.c **** /*!< USART CR3 register clear Mask ((~(uint16_t)0xFCFF)) */
 118:.\stm32f4periph\src/stm32f4xx_usart.c **** #define CR3_CLEAR_MASK            ((uint16_t)(USART_CR3_RTSE | USART_CR3_CTSE))
 119:.\stm32f4periph\src/stm32f4xx_usart.c **** 
 120:.\stm32f4periph\src/stm32f4xx_usart.c **** /*!< USART Interrupts mask */
 121:.\stm32f4periph\src/stm32f4xx_usart.c **** #define IT_MASK                   ((uint16_t)0x001F)
 122:.\stm32f4periph\src/stm32f4xx_usart.c **** 
 123:.\stm32f4periph\src/stm32f4xx_usart.c **** /* Private macro -------------------------------------------------------------*/
 124:.\stm32f4periph\src/stm32f4xx_usart.c **** /* Private variables ---------------------------------------------------------*/
 125:.\stm32f4periph\src/stm32f4xx_usart.c **** /* Private function prototypes -----------------------------------------------*/
 126:.\stm32f4periph\src/stm32f4xx_usart.c **** /* Private functions ---------------------------------------------------------*/
 127:.\stm32f4periph\src/stm32f4xx_usart.c **** 
 128:.\stm32f4periph\src/stm32f4xx_usart.c **** /** @defgroup USART_Private_Functions
 129:.\stm32f4periph\src/stm32f4xx_usart.c ****   * @{
 130:.\stm32f4periph\src/stm32f4xx_usart.c ****   */
 131:.\stm32f4periph\src/stm32f4xx_usart.c **** 
 132:.\stm32f4periph\src/stm32f4xx_usart.c **** /** @defgroup USART_Group1 Initialization and Configuration functions
 133:.\stm32f4periph\src/stm32f4xx_usart.c ****  *  @brief   Initialization and Configuration functions 
 134:.\stm32f4periph\src/stm32f4xx_usart.c ****  *
 135:.\stm32f4periph\src/stm32f4xx_usart.c **** @verbatim   
 136:.\stm32f4periph\src/stm32f4xx_usart.c ****  ===============================================================================
 137:.\stm32f4periph\src/stm32f4xx_usart.c ****                   Initialization and Configuration functions
 138:.\stm32f4periph\src/stm32f4xx_usart.c ****  ===============================================================================  
 139:.\stm32f4periph\src/stm32f4xx_usart.c **** 
 140:.\stm32f4periph\src/stm32f4xx_usart.c ****   This subsection provides a set of functions allowing to initialize the USART 
 141:.\stm32f4periph\src/stm32f4xx_usart.c ****   in asynchronous and in synchronous modes.
 142:.\stm32f4periph\src/stm32f4xx_usart.c ****    - For the asynchronous mode only these parameters can be configured: 
 143:.\stm32f4periph\src/stm32f4xx_usart.c ****         - Baud Rate
 144:.\stm32f4periph\src/stm32f4xx_usart.c ****         - Word Length 
 145:.\stm32f4periph\src/stm32f4xx_usart.c ****         - Stop Bit
 146:.\stm32f4periph\src/stm32f4xx_usart.c ****         - Parity: If the parity is enabled, then the MSB bit of the data written
 147:.\stm32f4periph\src/stm32f4xx_usart.c ****           in the data register is transmitted but is changed by the parity bit.
 148:.\stm32f4periph\src/stm32f4xx_usart.c ****           Depending on the frame length defined by the M bit (8-bits or 9-bits),
 149:.\stm32f4periph\src/stm32f4xx_usart.c ****           the possible USART frame formats are as listed in the following table:
 150:.\stm32f4periph\src/stm32f4xx_usart.c ****    +-------------------------------------------------------------+     
 151:.\stm32f4periph\src/stm32f4xx_usart.c ****    |   M bit |  PCE bit  |            USART frame                |
ARM GAS  C:\Users\Kevin\AppData\Local\Temp\ccW48Nb3.s 			page 5


 152:.\stm32f4periph\src/stm32f4xx_usart.c ****    |---------------------|---------------------------------------|             
 153:.\stm32f4periph\src/stm32f4xx_usart.c ****    |    0    |    0      |    | SB | 8 bit data | STB |          |
 154:.\stm32f4periph\src/stm32f4xx_usart.c ****    |---------|-----------|---------------------------------------|  
 155:.\stm32f4periph\src/stm32f4xx_usart.c ****    |    0    |    1      |    | SB | 7 bit data | PB | STB |     |
 156:.\stm32f4periph\src/stm32f4xx_usart.c ****    |---------|-----------|---------------------------------------|  
 157:.\stm32f4periph\src/stm32f4xx_usart.c ****    |    1    |    0      |    | SB | 9 bit data | STB |          |
 158:.\stm32f4periph\src/stm32f4xx_usart.c ****    |---------|-----------|---------------------------------------|  
 159:.\stm32f4periph\src/stm32f4xx_usart.c ****    |    1    |    1      |    | SB | 8 bit data | PB | STB |     |
 160:.\stm32f4periph\src/stm32f4xx_usart.c ****    +-------------------------------------------------------------+            
 161:.\stm32f4periph\src/stm32f4xx_usart.c ****         - Hardware flow control
 162:.\stm32f4periph\src/stm32f4xx_usart.c ****         - Receiver/transmitter modes
 163:.\stm32f4periph\src/stm32f4xx_usart.c **** 
 164:.\stm32f4periph\src/stm32f4xx_usart.c ****   The USART_Init() function follows the USART  asynchronous configuration procedure
 165:.\stm32f4periph\src/stm32f4xx_usart.c ****   (details for the procedure are available in reference manual (RM0090)).
 166:.\stm32f4periph\src/stm32f4xx_usart.c **** 
 167:.\stm32f4periph\src/stm32f4xx_usart.c ****   - For the synchronous mode in addition to the asynchronous mode parameters these 
 168:.\stm32f4periph\src/stm32f4xx_usart.c ****     parameters should be also configured:
 169:.\stm32f4periph\src/stm32f4xx_usart.c ****         - USART Clock Enabled
 170:.\stm32f4periph\src/stm32f4xx_usart.c ****         - USART polarity
 171:.\stm32f4periph\src/stm32f4xx_usart.c ****         - USART phase
 172:.\stm32f4periph\src/stm32f4xx_usart.c ****         - USART LastBit
 173:.\stm32f4periph\src/stm32f4xx_usart.c ****   
 174:.\stm32f4periph\src/stm32f4xx_usart.c ****   These parameters can be configured using the USART_ClockInit() function.
 175:.\stm32f4periph\src/stm32f4xx_usart.c **** 
 176:.\stm32f4periph\src/stm32f4xx_usart.c **** @endverbatim
 177:.\stm32f4periph\src/stm32f4xx_usart.c ****   * @{
 178:.\stm32f4periph\src/stm32f4xx_usart.c ****   */
 179:.\stm32f4periph\src/stm32f4xx_usart.c ****   
 180:.\stm32f4periph\src/stm32f4xx_usart.c **** /**
 181:.\stm32f4periph\src/stm32f4xx_usart.c ****   * @brief  Deinitializes the USARTx peripheral registers to their default reset values.
 182:.\stm32f4periph\src/stm32f4xx_usart.c ****   * @param  USARTx: where x can be 1, 2, 3, 4, 5 or 6 to select the USART or 
 183:.\stm32f4periph\src/stm32f4xx_usart.c ****   *         UART peripheral.
 184:.\stm32f4periph\src/stm32f4xx_usart.c ****   * @retval None
 185:.\stm32f4periph\src/stm32f4xx_usart.c ****   */
 186:.\stm32f4periph\src/stm32f4xx_usart.c **** void USART_DeInit(USART_TypeDef* USARTx)
 187:.\stm32f4periph\src/stm32f4xx_usart.c **** {
  78              		.loc 1 187 0
  79              		.cfi_startproc
  80              		@ args = 0, pretend = 0, frame = 0
  81              		@ frame_needed = 0, uses_anonymous_args = 0
  82              	.LVL0:
  83 0000 08B5     		push	{r3, lr}	@
  84              	.LCFI0:
  85              		.cfi_def_cfa_offset 8
  86              		.cfi_offset 3, -8
  87              		.cfi_offset 14, -4
 188:.\stm32f4periph\src/stm32f4xx_usart.c ****   /* Check the parameters */
 189:.\stm32f4periph\src/stm32f4xx_usart.c **** 
 190:.\stm32f4periph\src/stm32f4xx_usart.c ****   if (USARTx == USART1)
  88              		.loc 1 190 0
  89 0002 234B     		ldr	r3, .L10	@ tmp135,
  90 0004 9842     		cmp	r0, r3	@ USARTx, tmp135
  91 0006 05D1     		bne	.L2	@,
 191:.\stm32f4periph\src/stm32f4xx_usart.c ****   {
 192:.\stm32f4periph\src/stm32f4xx_usart.c ****     RCC_APB2PeriphResetCmd(RCC_APB2Periph_USART1, ENABLE);
  92              		.loc 1 192 0
  93 0008 1020     		movs	r0, #16	@,
ARM GAS  C:\Users\Kevin\AppData\Local\Temp\ccW48Nb3.s 			page 6


  94              	.LVL1:
  95 000a 0121     		movs	r1, #1	@,
  96 000c FFF7FEFF 		bl	RCC_APB2PeriphResetCmd	@
  97              	.LVL2:
 193:.\stm32f4periph\src/stm32f4xx_usart.c ****     RCC_APB2PeriphResetCmd(RCC_APB2Periph_USART1, DISABLE);
  98              		.loc 1 193 0
  99 0010 1020     		movs	r0, #16	@,
 100 0012 37E0     		b	.L8	@
 101              	.LVL3:
 102              	.L2:
 194:.\stm32f4periph\src/stm32f4xx_usart.c ****   }
 195:.\stm32f4periph\src/stm32f4xx_usart.c ****   else if (USARTx == USART2)
 103              		.loc 1 195 0
 104 0014 1F4B     		ldr	r3, .L10+4	@ tmp136,
 105 0016 9842     		cmp	r0, r3	@ USARTx, tmp136
 106 0018 07D1     		bne	.L3	@,
 196:.\stm32f4periph\src/stm32f4xx_usart.c ****   {
 197:.\stm32f4periph\src/stm32f4xx_usart.c ****     RCC_APB1PeriphResetCmd(RCC_APB1Periph_USART2, ENABLE);
 107              		.loc 1 197 0
 108 001a 4FF40030 		mov	r0, #131072	@,
 109              	.LVL4:
 110 001e 0121     		movs	r1, #1	@,
 111 0020 FFF7FEFF 		bl	RCC_APB1PeriphResetCmd	@
 112              	.LVL5:
 198:.\stm32f4periph\src/stm32f4xx_usart.c ****     RCC_APB1PeriphResetCmd(RCC_APB1Periph_USART2, DISABLE);
 113              		.loc 1 198 0
 114 0024 4FF40030 		mov	r0, #131072	@,
 115 0028 09E0     		b	.L9	@
 116              	.LVL6:
 117              	.L3:
 199:.\stm32f4periph\src/stm32f4xx_usart.c ****   }
 200:.\stm32f4periph\src/stm32f4xx_usart.c ****   else if (USARTx == USART3)
 118              		.loc 1 200 0
 119 002a 1B4B     		ldr	r3, .L10+8	@ tmp137,
 120 002c 9842     		cmp	r0, r3	@ USARTx, tmp137
 121 002e 0BD1     		bne	.L4	@,
 201:.\stm32f4periph\src/stm32f4xx_usart.c ****   {
 202:.\stm32f4periph\src/stm32f4xx_usart.c ****     RCC_APB1PeriphResetCmd(RCC_APB1Periph_USART3, ENABLE);
 122              		.loc 1 202 0
 123 0030 4FF48020 		mov	r0, #262144	@,
 124              	.LVL7:
 125 0034 0121     		movs	r1, #1	@,
 126 0036 FFF7FEFF 		bl	RCC_APB1PeriphResetCmd	@
 127              	.LVL8:
 203:.\stm32f4periph\src/stm32f4xx_usart.c ****     RCC_APB1PeriphResetCmd(RCC_APB1Periph_USART3, DISABLE);
 128              		.loc 1 203 0
 129 003a 4FF48020 		mov	r0, #262144	@,
 130              	.L9:
 131 003e 0021     		movs	r1, #0	@,
 204:.\stm32f4periph\src/stm32f4xx_usart.c ****   }    
 205:.\stm32f4periph\src/stm32f4xx_usart.c ****   else if (USARTx == UART4)
 206:.\stm32f4periph\src/stm32f4xx_usart.c ****   {
 207:.\stm32f4periph\src/stm32f4xx_usart.c ****     RCC_APB1PeriphResetCmd(RCC_APB1Periph_UART4, ENABLE);
 208:.\stm32f4periph\src/stm32f4xx_usart.c ****     RCC_APB1PeriphResetCmd(RCC_APB1Periph_UART4, DISABLE);
 209:.\stm32f4periph\src/stm32f4xx_usart.c ****   }
 210:.\stm32f4periph\src/stm32f4xx_usart.c ****   else if (USARTx == UART5)
 211:.\stm32f4periph\src/stm32f4xx_usart.c ****   {
ARM GAS  C:\Users\Kevin\AppData\Local\Temp\ccW48Nb3.s 			page 7


 212:.\stm32f4periph\src/stm32f4xx_usart.c ****     RCC_APB1PeriphResetCmd(RCC_APB1Periph_UART5, ENABLE);
 213:.\stm32f4periph\src/stm32f4xx_usart.c ****     RCC_APB1PeriphResetCmd(RCC_APB1Periph_UART5, DISABLE);
 214:.\stm32f4periph\src/stm32f4xx_usart.c ****   }     
 215:.\stm32f4periph\src/stm32f4xx_usart.c ****   else
 216:.\stm32f4periph\src/stm32f4xx_usart.c ****   {
 217:.\stm32f4periph\src/stm32f4xx_usart.c ****     if (USARTx == USART6)
 218:.\stm32f4periph\src/stm32f4xx_usart.c ****     { 
 219:.\stm32f4periph\src/stm32f4xx_usart.c ****       RCC_APB2PeriphResetCmd(RCC_APB2Periph_USART6, ENABLE);
 220:.\stm32f4periph\src/stm32f4xx_usart.c ****       RCC_APB2PeriphResetCmd(RCC_APB2Periph_USART6, DISABLE);
 221:.\stm32f4periph\src/stm32f4xx_usart.c ****     }
 222:.\stm32f4periph\src/stm32f4xx_usart.c ****   }
 223:.\stm32f4periph\src/stm32f4xx_usart.c **** }
 132              		.loc 1 223 0
 133 0040 BDE80840 		pop	{r3, lr}	@
 203:.\stm32f4periph\src/stm32f4xx_usart.c ****     RCC_APB1PeriphResetCmd(RCC_APB1Periph_USART3, DISABLE);
 134              		.loc 1 203 0
 135 0044 FFF7FEBF 		b	RCC_APB1PeriphResetCmd	@
 136              	.LVL9:
 137              	.L4:
 205:.\stm32f4periph\src/stm32f4xx_usart.c ****   else if (USARTx == UART4)
 138              		.loc 1 205 0
 139 0048 144B     		ldr	r3, .L10+12	@ tmp138,
 140 004a 9842     		cmp	r0, r3	@ USARTx, tmp138
 141 004c 07D1     		bne	.L5	@,
 207:.\stm32f4periph\src/stm32f4xx_usart.c ****     RCC_APB1PeriphResetCmd(RCC_APB1Periph_UART4, ENABLE);
 142              		.loc 1 207 0
 143 004e 4FF40020 		mov	r0, #524288	@,
 144              	.LVL10:
 145 0052 0121     		movs	r1, #1	@,
 146 0054 FFF7FEFF 		bl	RCC_APB1PeriphResetCmd	@
 147              	.LVL11:
 208:.\stm32f4periph\src/stm32f4xx_usart.c ****     RCC_APB1PeriphResetCmd(RCC_APB1Periph_UART4, DISABLE);
 148              		.loc 1 208 0
 149 0058 4FF40020 		mov	r0, #524288	@,
 150 005c EFE7     		b	.L9	@
 151              	.LVL12:
 152              	.L5:
 210:.\stm32f4periph\src/stm32f4xx_usart.c ****   else if (USARTx == UART5)
 153              		.loc 1 210 0
 154 005e 104B     		ldr	r3, .L10+16	@ tmp139,
 155 0060 9842     		cmp	r0, r3	@ USARTx, tmp139
 156 0062 07D1     		bne	.L6	@,
 212:.\stm32f4periph\src/stm32f4xx_usart.c ****     RCC_APB1PeriphResetCmd(RCC_APB1Periph_UART5, ENABLE);
 157              		.loc 1 212 0
 158 0064 4FF48010 		mov	r0, #1048576	@,
 159              	.LVL13:
 160 0068 0121     		movs	r1, #1	@,
 161 006a FFF7FEFF 		bl	RCC_APB1PeriphResetCmd	@
 162              	.LVL14:
 213:.\stm32f4periph\src/stm32f4xx_usart.c ****     RCC_APB1PeriphResetCmd(RCC_APB1Periph_UART5, DISABLE);
 163              		.loc 1 213 0
 164 006e 4FF48010 		mov	r0, #1048576	@,
 165 0072 E4E7     		b	.L9	@
 166              	.LVL15:
 167              	.L6:
 217:.\stm32f4periph\src/stm32f4xx_usart.c ****     if (USARTx == USART6)
 168              		.loc 1 217 0
ARM GAS  C:\Users\Kevin\AppData\Local\Temp\ccW48Nb3.s 			page 8


 169 0074 0B4B     		ldr	r3, .L10+20	@ tmp140,
 170 0076 9842     		cmp	r0, r3	@ USARTx, tmp140
 171 0078 09D1     		bne	.L1	@,
 219:.\stm32f4periph\src/stm32f4xx_usart.c ****       RCC_APB2PeriphResetCmd(RCC_APB2Periph_USART6, ENABLE);
 172              		.loc 1 219 0
 173 007a 2020     		movs	r0, #32	@,
 174              	.LVL16:
 175 007c 0121     		movs	r1, #1	@,
 176 007e FFF7FEFF 		bl	RCC_APB2PeriphResetCmd	@
 177              	.LVL17:
 220:.\stm32f4periph\src/stm32f4xx_usart.c ****       RCC_APB2PeriphResetCmd(RCC_APB2Periph_USART6, DISABLE);
 178              		.loc 1 220 0
 179 0082 2020     		movs	r0, #32	@,
 180              	.L8:
 181 0084 0021     		movs	r1, #0	@,
 182              		.loc 1 223 0
 183 0086 BDE80840 		pop	{r3, lr}	@
 220:.\stm32f4periph\src/stm32f4xx_usart.c ****       RCC_APB2PeriphResetCmd(RCC_APB2Periph_USART6, DISABLE);
 184              		.loc 1 220 0
 185 008a FFF7FEBF 		b	RCC_APB2PeriphResetCmd	@
 186              	.LVL18:
 187              	.L1:
 188 008e 08BD     		pop	{r3, pc}	@
 189              	.L11:
 190              		.align	2
 191              	.L10:
 192 0090 00100140 		.word	1073811456
 193 0094 00440040 		.word	1073759232
 194 0098 00480040 		.word	1073760256
 195 009c 004C0040 		.word	1073761280
 196 00a0 00500040 		.word	1073762304
 197 00a4 00140140 		.word	1073812480
 198              		.cfi_endproc
 199              	.LFE110:
 200              		.size	USART_DeInit, .-USART_DeInit
 201              		.align	1
 202              		.global	USART_Init
 203              		.thumb
 204              		.thumb_func
 205              		.type	USART_Init, %function
 206              	USART_Init:
 207              	.LFB111:
 224:.\stm32f4periph\src/stm32f4xx_usart.c **** 
 225:.\stm32f4periph\src/stm32f4xx_usart.c **** /**
 226:.\stm32f4periph\src/stm32f4xx_usart.c ****   * @brief  Initializes the USARTx peripheral according to the specified
 227:.\stm32f4periph\src/stm32f4xx_usart.c ****   *         parameters in the USART_InitStruct .
 228:.\stm32f4periph\src/stm32f4xx_usart.c ****   * @param  USARTx: where x can be 1, 2, 3, 4, 5 or 6 to select the USART or 
 229:.\stm32f4periph\src/stm32f4xx_usart.c ****   *         UART peripheral.
 230:.\stm32f4periph\src/stm32f4xx_usart.c ****   * @param  USART_InitStruct: pointer to a USART_InitTypeDef structure that contains
 231:.\stm32f4periph\src/stm32f4xx_usart.c ****   *         the configuration information for the specified USART peripheral.
 232:.\stm32f4periph\src/stm32f4xx_usart.c ****   * @retval None
 233:.\stm32f4periph\src/stm32f4xx_usart.c ****   */
 234:.\stm32f4periph\src/stm32f4xx_usart.c **** void USART_Init(USART_TypeDef* USARTx, USART_InitTypeDef* USART_InitStruct)
 235:.\stm32f4periph\src/stm32f4xx_usart.c **** {
 208              		.loc 1 235 0
 209              		.cfi_startproc
 210              		@ args = 0, pretend = 0, frame = 16
ARM GAS  C:\Users\Kevin\AppData\Local\Temp\ccW48Nb3.s 			page 9


 211              		@ frame_needed = 0, uses_anonymous_args = 0
 212              	.LVL19:
 236:.\stm32f4periph\src/stm32f4xx_usart.c ****   uint32_t tmpreg = 0x00, apbclock = 0x00;
 237:.\stm32f4periph\src/stm32f4xx_usart.c ****   uint32_t integerdivider = 0x00;
 238:.\stm32f4periph\src/stm32f4xx_usart.c ****   uint32_t fractionaldivider = 0x00;
 239:.\stm32f4periph\src/stm32f4xx_usart.c ****   RCC_ClocksTypeDef RCC_ClocksStatus;
 240:.\stm32f4periph\src/stm32f4xx_usart.c **** 
 241:.\stm32f4periph\src/stm32f4xx_usart.c ****   /* Check the parameters */
 242:.\stm32f4periph\src/stm32f4xx_usart.c ****   assert_param(IS_USART_ALL_PERIPH(USARTx));
 243:.\stm32f4periph\src/stm32f4xx_usart.c ****   assert_param(IS_USART_BAUDRATE(USART_InitStruct->USART_BaudRate));  
 244:.\stm32f4periph\src/stm32f4xx_usart.c ****   assert_param(IS_USART_WORD_LENGTH(USART_InitStruct->USART_WordLength));
 245:.\stm32f4periph\src/stm32f4xx_usart.c ****   assert_param(IS_USART_STOPBITS(USART_InitStruct->USART_StopBits));
 246:.\stm32f4periph\src/stm32f4xx_usart.c ****   assert_param(IS_USART_PARITY(USART_InitStruct->USART_Parity));
 247:.\stm32f4periph\src/stm32f4xx_usart.c ****   assert_param(IS_USART_MODE(USART_InitStruct->USART_Mode));
 248:.\stm32f4periph\src/stm32f4xx_usart.c ****   assert_param(IS_USART_HARDWARE_FLOW_CONTROL(USART_InitStruct->USART_HardwareFlowControl));
 249:.\stm32f4periph\src/stm32f4xx_usart.c **** 
 250:.\stm32f4periph\src/stm32f4xx_usart.c ****   /* The hardware flow control is available only for USART1, USART2, USART3 and USART6 */
 251:.\stm32f4periph\src/stm32f4xx_usart.c ****   if (USART_InitStruct->USART_HardwareFlowControl != USART_HardwareFlowControl_None)
 252:.\stm32f4periph\src/stm32f4xx_usart.c ****   {
 253:.\stm32f4periph\src/stm32f4xx_usart.c ****     assert_param(IS_USART_1236_PERIPH(USARTx));
 254:.\stm32f4periph\src/stm32f4xx_usart.c ****   }
 255:.\stm32f4periph\src/stm32f4xx_usart.c **** 
 256:.\stm32f4periph\src/stm32f4xx_usart.c **** /*---------------------------- USART CR2 Configuration -----------------------*/
 257:.\stm32f4periph\src/stm32f4xx_usart.c ****   tmpreg = USARTx->CR2;
 213              		.loc 1 257 0
 214 00a8 038A     		ldrh	r3, [r0, #16]	@, USARTx_10(D)->CR2
 258:.\stm32f4periph\src/stm32f4xx_usart.c **** 
 259:.\stm32f4periph\src/stm32f4xx_usart.c ****   /* Clear STOP[13:12] bits */
 260:.\stm32f4periph\src/stm32f4xx_usart.c ****   tmpreg &= (uint32_t)~((uint32_t)USART_CR2_STOP);
 261:.\stm32f4periph\src/stm32f4xx_usart.c **** 
 262:.\stm32f4periph\src/stm32f4xx_usart.c ****   /* Configure the USART Stop Bits, Clock, CPOL, CPHA and LastBit :
 263:.\stm32f4periph\src/stm32f4xx_usart.c ****       Set STOP[13:12] bits according to USART_StopBits value */
 264:.\stm32f4periph\src/stm32f4xx_usart.c ****   tmpreg |= (uint32_t)USART_InitStruct->USART_StopBits;
 215              		.loc 1 264 0
 216 00aa CA88     		ldrh	r2, [r1, #6]	@ USART_InitStruct_8(D)->USART_StopBits, USART_InitStruct_8(D)->USART_StopBits
 257:.\stm32f4periph\src/stm32f4xx_usart.c ****   tmpreg = USARTx->CR2;
 217              		.loc 1 257 0
 218 00ac 9BB2     		uxth	r3, r3	@ D.7613, USARTx_10(D)->CR2
 219              	.LVL20:
 260:.\stm32f4periph\src/stm32f4xx_usart.c ****   tmpreg &= (uint32_t)~((uint32_t)USART_CR2_STOP);
 220              		.loc 1 260 0
 221 00ae 23F44053 		bic	r3, r3, #12288	@ tmpreg, D.7613,
 222              	.LVL21:
 235:.\stm32f4periph\src/stm32f4xx_usart.c **** {
 223              		.loc 1 235 0
 224 00b2 30B5     		push	{r4, r5, lr}	@
 225              	.LCFI1:
 226              		.cfi_def_cfa_offset 12
 227              		.cfi_offset 4, -12
 228              		.cfi_offset 5, -8
 229              		.cfi_offset 14, -4
 265:.\stm32f4periph\src/stm32f4xx_usart.c ****   
 266:.\stm32f4periph\src/stm32f4xx_usart.c ****   /* Write to USART CR2 */
 267:.\stm32f4periph\src/stm32f4xx_usart.c ****   USARTx->CR2 = (uint16_t)tmpreg;
 230              		.loc 1 267 0
 231 00b4 1343     		orrs	r3, r3, r2	@, D.7616, tmpreg, USART_InitStruct_8(D)->USART_StopBits
 232              	.LVL22:
ARM GAS  C:\Users\Kevin\AppData\Local\Temp\ccW48Nb3.s 			page 10


 235:.\stm32f4periph\src/stm32f4xx_usart.c **** {
 233              		.loc 1 235 0
 234 00b6 0D46     		mov	r5, r1	@ USART_InitStruct, USART_InitStruct
 235              		.loc 1 267 0
 236 00b8 0382     		strh	r3, [r0, #16]	@ movhi	@ D.7616, USARTx_10(D)->CR2
 268:.\stm32f4periph\src/stm32f4xx_usart.c **** 
 269:.\stm32f4periph\src/stm32f4xx_usart.c **** /*---------------------------- USART CR1 Configuration -----------------------*/
 270:.\stm32f4periph\src/stm32f4xx_usart.c ****   tmpreg = USARTx->CR1;
 237              		.loc 1 270 0
 238 00ba 8389     		ldrh	r3, [r0, #12]	@, USARTx_10(D)->CR1
 239              	.LVL23:
 271:.\stm32f4periph\src/stm32f4xx_usart.c **** 
 272:.\stm32f4periph\src/stm32f4xx_usart.c ****   /* Clear M, PCE, PS, TE and RE bits */
 273:.\stm32f4periph\src/stm32f4xx_usart.c ****   tmpreg &= (uint32_t)~((uint32_t)CR1_CLEAR_MASK);
 274:.\stm32f4periph\src/stm32f4xx_usart.c **** 
 275:.\stm32f4periph\src/stm32f4xx_usart.c ****   /* Configure the USART Word Length, Parity and mode: 
 276:.\stm32f4periph\src/stm32f4xx_usart.c ****      Set the M bits according to USART_WordLength value 
 277:.\stm32f4periph\src/stm32f4xx_usart.c ****      Set PCE and PS bits according to USART_Parity value
 278:.\stm32f4periph\src/stm32f4xx_usart.c ****      Set TE and RE bits according to USART_Mode value */
 279:.\stm32f4periph\src/stm32f4xx_usart.c ****   tmpreg |= (uint32_t)USART_InitStruct->USART_WordLength | USART_InitStruct->USART_Parity |
 240              		.loc 1 279 0
 241 00bc 0989     		ldrh	r1, [r1, #8]	@, USART_InitStruct_8(D)->USART_Parity
 242              	.LVL24:
 243 00be AA88     		ldrh	r2, [r5, #4]	@, USART_InitStruct_8(D)->USART_WordLength
 273:.\stm32f4periph\src/stm32f4xx_usart.c ****   tmpreg &= (uint32_t)~((uint32_t)CR1_CLEAR_MASK);
 244              		.loc 1 273 0
 245 00c0 23F4B053 		bic	r3, r3, #5632	@ tmpreg, USARTx_10(D)->CR1,
 246              	.LVL25:
 247              		.loc 1 279 0
 248 00c4 0A43     		orrs	r2, r2, r1	@, tmp206, USART_InitStruct_8(D)->USART_WordLength, USART_InitStruct_8(D)->USART_P
 249 00c6 6989     		ldrh	r1, [r5, #10]	@, USART_InitStruct_8(D)->USART_Mode
 273:.\stm32f4periph\src/stm32f4xx_usart.c ****   tmpreg &= (uint32_t)~((uint32_t)CR1_CLEAR_MASK);
 250              		.loc 1 273 0
 251 00c8 23F00C03 		bic	r3, r3, #12	@ tmpreg, tmpreg,
 252 00cc 1B04     		lsls	r3, r3, #16	@ tmpreg, tmpreg,
 253              		.loc 1 279 0
 254 00ce 0A43     		orrs	r2, r2, r1	@, tmp209, tmp206, USART_InitStruct_8(D)->USART_Mode
 273:.\stm32f4periph\src/stm32f4xx_usart.c ****   tmpreg &= (uint32_t)~((uint32_t)CR1_CLEAR_MASK);
 255              		.loc 1 273 0
 256 00d0 1B0C     		lsrs	r3, r3, #16	@ tmpreg, tmpreg,
 257              		.loc 1 279 0
 258 00d2 92B2     		uxth	r2, r2	@ tmp210, tmp209
 280:.\stm32f4periph\src/stm32f4xx_usart.c ****             USART_InitStruct->USART_Mode;
 281:.\stm32f4periph\src/stm32f4xx_usart.c **** 
 282:.\stm32f4periph\src/stm32f4xx_usart.c ****   /* Write to USART CR1 */
 283:.\stm32f4periph\src/stm32f4xx_usart.c ****   USARTx->CR1 = (uint16_t)tmpreg;
 259              		.loc 1 283 0
 260 00d4 1343     		orrs	r3, r3, r2	@, D.7616, tmpreg, tmp210
 261 00d6 8381     		strh	r3, [r0, #12]	@ movhi	@ D.7616, USARTx_10(D)->CR1
 284:.\stm32f4periph\src/stm32f4xx_usart.c **** 
 285:.\stm32f4periph\src/stm32f4xx_usart.c **** /*---------------------------- USART CR3 Configuration -----------------------*/  
 286:.\stm32f4periph\src/stm32f4xx_usart.c ****   tmpreg = USARTx->CR3;
 262              		.loc 1 286 0
 263 00d8 838A     		ldrh	r3, [r0, #20]	@, USARTx_10(D)->CR3
 287:.\stm32f4periph\src/stm32f4xx_usart.c **** 
 288:.\stm32f4periph\src/stm32f4xx_usart.c ****   /* Clear CTSE and RTSE bits */
 289:.\stm32f4periph\src/stm32f4xx_usart.c ****   tmpreg &= (uint32_t)~((uint32_t)CR3_CLEAR_MASK);
ARM GAS  C:\Users\Kevin\AppData\Local\Temp\ccW48Nb3.s 			page 11


 290:.\stm32f4periph\src/stm32f4xx_usart.c **** 
 291:.\stm32f4periph\src/stm32f4xx_usart.c ****   /* Configure the USART HFC : 
 292:.\stm32f4periph\src/stm32f4xx_usart.c ****       Set CTSE and RTSE bits according to USART_HardwareFlowControl value */
 293:.\stm32f4periph\src/stm32f4xx_usart.c ****   tmpreg |= USART_InitStruct->USART_HardwareFlowControl;
 264              		.loc 1 293 0
 265 00da AA89     		ldrh	r2, [r5, #12]	@ USART_InitStruct_8(D)->USART_HardwareFlowControl, USART_InitStruct_8(D)->USAR
 286:.\stm32f4periph\src/stm32f4xx_usart.c ****   tmpreg = USARTx->CR3;
 266              		.loc 1 286 0
 267 00dc 9BB2     		uxth	r3, r3	@ D.7624, USARTx_10(D)->CR3
 268              	.LVL26:
 289:.\stm32f4periph\src/stm32f4xx_usart.c ****   tmpreg &= (uint32_t)~((uint32_t)CR3_CLEAR_MASK);
 269              		.loc 1 289 0
 270 00de 23F44073 		bic	r3, r3, #768	@ tmpreg, D.7624,
 271              	.LVL27:
 294:.\stm32f4periph\src/stm32f4xx_usart.c **** 
 295:.\stm32f4periph\src/stm32f4xx_usart.c ****   /* Write to USART CR3 */
 296:.\stm32f4periph\src/stm32f4xx_usart.c ****   USARTx->CR3 = (uint16_t)tmpreg;
 272              		.loc 1 296 0
 273 00e2 1343     		orrs	r3, r3, r2	@, D.7616, tmpreg, USART_InitStruct_8(D)->USART_HardwareFlowControl
 274              	.LVL28:
 235:.\stm32f4periph\src/stm32f4xx_usart.c **** {
 275              		.loc 1 235 0
 276 00e4 85B0     		sub	sp, sp, #20	@,,
 277              	.LCFI2:
 278              		.cfi_def_cfa_offset 32
 279              		.loc 1 296 0
 280 00e6 8382     		strh	r3, [r0, #20]	@ movhi	@ D.7616, USARTx_10(D)->CR3
 235:.\stm32f4periph\src/stm32f4xx_usart.c **** {
 281              		.loc 1 235 0
 282 00e8 0446     		mov	r4, r0	@ USARTx, USARTx
 297:.\stm32f4periph\src/stm32f4xx_usart.c **** 
 298:.\stm32f4periph\src/stm32f4xx_usart.c **** /*---------------------------- USART BRR Configuration -----------------------*/
 299:.\stm32f4periph\src/stm32f4xx_usart.c ****   /* Configure the USART Baud Rate */
 300:.\stm32f4periph\src/stm32f4xx_usart.c ****   RCC_GetClocksFreq(&RCC_ClocksStatus);
 283              		.loc 1 300 0
 284 00ea 6846     		mov	r0, sp	@,
 285              	.LVL29:
 286 00ec FFF7FEFF 		bl	RCC_GetClocksFreq	@
 287              	.LVL30:
 301:.\stm32f4periph\src/stm32f4xx_usart.c **** 
 302:.\stm32f4periph\src/stm32f4xx_usart.c ****   if ((USARTx == USART1) || (USARTx == USART6))
 288              		.loc 1 302 0
 289 00f0 194B     		ldr	r3, .L22	@ tmp219,
 290 00f2 9C42     		cmp	r4, r3	@ USARTx, tmp219
 291 00f4 03D0     		beq	.L13	@,
 292              		.loc 1 302 0 is_stmt 0 discriminator 1
 293 00f6 03F58063 		add	r3, r3, #1024	@ tmp220, tmp220,
 294 00fa 9C42     		cmp	r4, r3	@ USARTx, tmp220
 295 00fc 01D1     		bne	.L14	@,
 296              	.L13:
 303:.\stm32f4periph\src/stm32f4xx_usart.c ****   {
 304:.\stm32f4periph\src/stm32f4xx_usart.c ****     apbclock = RCC_ClocksStatus.PCLK2_Frequency;
 297              		.loc 1 304 0 is_stmt 1
 298 00fe 039B     		ldr	r3, [sp, #12]	@ apbclock, RCC_ClocksStatus.PCLK2_Frequency
 299              	.LVL31:
 300 0100 00E0     		b	.L15	@
 301              	.LVL32:
ARM GAS  C:\Users\Kevin\AppData\Local\Temp\ccW48Nb3.s 			page 12


 302              	.L14:
 305:.\stm32f4periph\src/stm32f4xx_usart.c ****   }
 306:.\stm32f4periph\src/stm32f4xx_usart.c ****   else
 307:.\stm32f4periph\src/stm32f4xx_usart.c ****   {
 308:.\stm32f4periph\src/stm32f4xx_usart.c ****     apbclock = RCC_ClocksStatus.PCLK1_Frequency;
 303              		.loc 1 308 0
 304 0102 029B     		ldr	r3, [sp, #8]	@ apbclock, RCC_ClocksStatus.PCLK1_Frequency
 305              	.LVL33:
 306              	.L15:
 309:.\stm32f4periph\src/stm32f4xx_usart.c ****   }
 310:.\stm32f4periph\src/stm32f4xx_usart.c ****   
 311:.\stm32f4periph\src/stm32f4xx_usart.c ****   /* Determine the integer part */
 312:.\stm32f4periph\src/stm32f4xx_usart.c ****   if ((USARTx->CR1 & USART_CR1_OVER8) != 0)
 307              		.loc 1 312 0
 308 0104 A289     		ldrh	r2, [r4, #12]	@, USARTx_10(D)->CR1
 309 0106 12B2     		sxth	r2, r2	@ D.7630, USARTx_10(D)->CR1
 310 0108 002A     		cmp	r2, #0	@ D.7630,
 311 010a 4FF01901 		mov	r1, #25	@ tmp254,
 312 010e 2A68     		ldr	r2, [r5, #0]	@ USART_InitStruct_8(D)->USART_BaudRate, USART_InitStruct_8(D)->USART_BaudRate
 313:.\stm32f4periph\src/stm32f4xx_usart.c ****   {
 314:.\stm32f4periph\src/stm32f4xx_usart.c ****     /* Integer part computing in case Oversampling mode is 8 Samples */
 315:.\stm32f4periph\src/stm32f4xx_usart.c ****     integerdivider = ((25 * apbclock) / (2 * (USART_InitStruct->USART_BaudRate)));    
 313              		.loc 1 315 0
 314 0110 01FB03F1 		mul	r1, r1, r3	@ tmp224, tmp254, apbclock
 312:.\stm32f4periph\src/stm32f4xx_usart.c ****   if ((USARTx->CR1 & USART_CR1_OVER8) != 0)
 315              		.loc 1 312 0
 316 0114 01DA     		bge	.L16	@,
 317              		.loc 1 315 0
 318 0116 5200     		lsls	r2, r2, #1	@ tmp226, USART_InitStruct_8(D)->USART_BaudRate,
 319 0118 00E0     		b	.L20	@
 320              	.L16:
 316:.\stm32f4periph\src/stm32f4xx_usart.c ****   }
 317:.\stm32f4periph\src/stm32f4xx_usart.c ****   else /* if ((USARTx->CR1 & USART_CR1_OVER8) == 0) */
 318:.\stm32f4periph\src/stm32f4xx_usart.c ****   {
 319:.\stm32f4periph\src/stm32f4xx_usart.c ****     /* Integer part computing in case Oversampling mode is 16 Samples */
 320:.\stm32f4periph\src/stm32f4xx_usart.c ****     integerdivider = ((25 * apbclock) / (4 * (USART_InitStruct->USART_BaudRate)));    
 321              		.loc 1 320 0
 322 011a 9200     		lsls	r2, r2, #2	@ tmp230, USART_InitStruct_8(D)->USART_BaudRate,
 323              	.L20:
 321:.\stm32f4periph\src/stm32f4xx_usart.c ****   }
 322:.\stm32f4periph\src/stm32f4xx_usart.c ****   tmpreg = (integerdivider / 100) << 4;
 324              		.loc 1 322 0
 325 011c 6423     		movs	r3, #100	@ tmp234,
 326              	.LVL34:
 320:.\stm32f4periph\src/stm32f4xx_usart.c ****     integerdivider = ((25 * apbclock) / (4 * (USART_InitStruct->USART_BaudRate)));    
 327              		.loc 1 320 0
 328 011e B1FBF2F1 		udiv	r1, r1, r2	@ integerdivider, tmp228, tmp230
 329              	.LVL35:
 330              		.loc 1 322 0
 331 0122 B1FBF3F2 		udiv	r2, r1, r3	@ tmp233, integerdivider, tmp234
 332 0126 1201     		lsls	r2, r2, #4	@ tmpreg, tmp233,
 333              	.LVL36:
 323:.\stm32f4periph\src/stm32f4xx_usart.c **** 
 324:.\stm32f4periph\src/stm32f4xx_usart.c ****   /* Determine the fractional part */
 325:.\stm32f4periph\src/stm32f4xx_usart.c ****   fractionaldivider = integerdivider - (100 * (tmpreg >> 4));
 334              		.loc 1 325 0
 335 0128 1009     		lsrs	r0, r2, #4	@ tmp235, tmpreg,
ARM GAS  C:\Users\Kevin\AppData\Local\Temp\ccW48Nb3.s 			page 13


 336 012a 03FB1011 		mls	r1, r3, r0, r1	@ fractionaldivider, tmp234, tmp235, integerdivider
 337              	.LVL37:
 326:.\stm32f4periph\src/stm32f4xx_usart.c **** 
 327:.\stm32f4periph\src/stm32f4xx_usart.c ****   /* Implement the fractional part in the register */
 328:.\stm32f4periph\src/stm32f4xx_usart.c ****   if ((USARTx->CR1 & USART_CR1_OVER8) != 0)
 338              		.loc 1 328 0
 339 012e A089     		ldrh	r0, [r4, #12]	@, USARTx_10(D)->CR1
 340 0130 00B2     		sxth	r0, r0	@ D.7642, USARTx_10(D)->CR1
 341 0132 0028     		cmp	r0, #0	@ D.7642,
 342 0134 06DA     		bge	.L18	@,
 329:.\stm32f4periph\src/stm32f4xx_usart.c ****   {
 330:.\stm32f4periph\src/stm32f4xx_usart.c ****     tmpreg |= ((((fractionaldivider * 8) + 50) / 100)) & ((uint8_t)0x07);
 343              		.loc 1 330 0
 344 0136 C900     		lsls	r1, r1, #3	@ tmp241, fractionaldivider,
 345              	.LVL38:
 346 0138 3231     		adds	r1, r1, #50	@ tmp242, tmp241,
 347 013a B1FBF3F3 		udiv	r3, r1, r3	@ tmp244, tmp242, tmp234
 348 013e 03F00703 		and	r3, r3, #7	@ tmp246, tmp244,
 349 0142 05E0     		b	.L21	@
 350              	.LVL39:
 351              	.L18:
 331:.\stm32f4periph\src/stm32f4xx_usart.c ****   }
 332:.\stm32f4periph\src/stm32f4xx_usart.c ****   else /* if ((USARTx->CR1 & USART_CR1_OVER8) == 0) */
 333:.\stm32f4periph\src/stm32f4xx_usart.c ****   {
 334:.\stm32f4periph\src/stm32f4xx_usart.c ****     tmpreg |= ((((fractionaldivider * 16) + 50) / 100)) & ((uint8_t)0x0F);
 352              		.loc 1 334 0
 353 0144 0901     		lsls	r1, r1, #4	@ tmp247, fractionaldivider,
 354              	.LVL40:
 355 0146 3231     		adds	r1, r1, #50	@ tmp248, tmp247,
 356 0148 B1FBF3F3 		udiv	r3, r1, r3	@ tmp250, tmp248, tmp234
 357 014c 03F00F03 		and	r3, r3, #15	@ tmp252, tmp250,
 358              	.L21:
 359 0150 1A43     		orrs	r2, r2, r3	@, tmpreg, tmpreg, tmp252
 360              	.LVL41:
 335:.\stm32f4periph\src/stm32f4xx_usart.c ****   }
 336:.\stm32f4periph\src/stm32f4xx_usart.c ****   
 337:.\stm32f4periph\src/stm32f4xx_usart.c ****   /* Write to USART BRR register */
 338:.\stm32f4periph\src/stm32f4xx_usart.c ****   USARTx->BRR = (uint16_t)tmpreg;
 361              		.loc 1 338 0
 362 0152 2281     		strh	r2, [r4, #8]	@ movhi	@ D.7616, USARTx_10(D)->BRR
 339:.\stm32f4periph\src/stm32f4xx_usart.c **** }
 363              		.loc 1 339 0
 364 0154 05B0     		add	sp, sp, #20	@,,
 365 0156 30BD     		pop	{r4, r5, pc}
 366              	.L23:
 367              		.align	2
 368              	.L22:
 369 0158 00100140 		.word	1073811456
 370              		.cfi_endproc
 371              	.LFE111:
 372              		.size	USART_Init, .-USART_Init
 373              		.align	1
 374              		.global	USART_StructInit
 375              		.thumb
 376              		.thumb_func
 377              		.type	USART_StructInit, %function
 378              	USART_StructInit:
ARM GAS  C:\Users\Kevin\AppData\Local\Temp\ccW48Nb3.s 			page 14


 379              	.LFB112:
 340:.\stm32f4periph\src/stm32f4xx_usart.c **** 
 341:.\stm32f4periph\src/stm32f4xx_usart.c **** /**
 342:.\stm32f4periph\src/stm32f4xx_usart.c ****   * @brief  Fills each USART_InitStruct member with its default value.
 343:.\stm32f4periph\src/stm32f4xx_usart.c ****   * @param  USART_InitStruct: pointer to a USART_InitTypeDef structure which will
 344:.\stm32f4periph\src/stm32f4xx_usart.c ****   *         be initialized.
 345:.\stm32f4periph\src/stm32f4xx_usart.c ****   * @retval None
 346:.\stm32f4periph\src/stm32f4xx_usart.c ****   */
 347:.\stm32f4periph\src/stm32f4xx_usart.c **** void USART_StructInit(USART_InitTypeDef* USART_InitStruct)
 348:.\stm32f4periph\src/stm32f4xx_usart.c **** {
 380              		.loc 1 348 0
 381              		.cfi_startproc
 382              		@ args = 0, pretend = 0, frame = 0
 383              		@ frame_needed = 0, uses_anonymous_args = 0
 384              		@ link register save eliminated.
 385              	.LVL42:
 349:.\stm32f4periph\src/stm32f4xx_usart.c ****   /* USART_InitStruct members default value */
 350:.\stm32f4periph\src/stm32f4xx_usart.c ****   USART_InitStruct->USART_BaudRate = 9600;
 386              		.loc 1 350 0
 387 015c 4FF41653 		mov	r3, #9600	@ tmp135,
 388 0160 0360     		str	r3, [r0, #0]	@ tmp135, USART_InitStruct_1(D)->USART_BaudRate
 351:.\stm32f4periph\src/stm32f4xx_usart.c ****   USART_InitStruct->USART_WordLength = USART_WordLength_8b;
 352:.\stm32f4periph\src/stm32f4xx_usart.c ****   USART_InitStruct->USART_StopBits = USART_StopBits_1;
 353:.\stm32f4periph\src/stm32f4xx_usart.c ****   USART_InitStruct->USART_Parity = USART_Parity_No ;
 354:.\stm32f4periph\src/stm32f4xx_usart.c ****   USART_InitStruct->USART_Mode = USART_Mode_Rx | USART_Mode_Tx;
 389              		.loc 1 354 0
 390 0162 0C22     		movs	r2, #12	@ tmp143,
 351:.\stm32f4periph\src/stm32f4xx_usart.c ****   USART_InitStruct->USART_WordLength = USART_WordLength_8b;
 391              		.loc 1 351 0
 392 0164 0023     		movs	r3, #0	@ tmp137,
 393 0166 8380     		strh	r3, [r0, #4]	@ movhi	@ tmp137, USART_InitStruct_1(D)->USART_WordLength
 352:.\stm32f4periph\src/stm32f4xx_usart.c ****   USART_InitStruct->USART_StopBits = USART_StopBits_1;
 394              		.loc 1 352 0
 395 0168 C380     		strh	r3, [r0, #6]	@ movhi	@ tmp137, USART_InitStruct_1(D)->USART_StopBits
 353:.\stm32f4periph\src/stm32f4xx_usart.c ****   USART_InitStruct->USART_Parity = USART_Parity_No ;
 396              		.loc 1 353 0
 397 016a 0381     		strh	r3, [r0, #8]	@ movhi	@ tmp137, USART_InitStruct_1(D)->USART_Parity
 398              		.loc 1 354 0
 399 016c 4281     		strh	r2, [r0, #10]	@ movhi	@ tmp143, USART_InitStruct_1(D)->USART_Mode
 355:.\stm32f4periph\src/stm32f4xx_usart.c ****   USART_InitStruct->USART_HardwareFlowControl = USART_HardwareFlowControl_None;  
 400              		.loc 1 355 0
 401 016e 8381     		strh	r3, [r0, #12]	@ movhi	@ tmp137, USART_InitStruct_1(D)->USART_HardwareFlowControl
 402 0170 7047     		bx	lr	@
 403              		.cfi_endproc
 404              	.LFE112:
 405              		.size	USART_StructInit, .-USART_StructInit
 406              		.align	1
 407              		.global	USART_ClockInit
 408              		.thumb
 409              		.thumb_func
 410              		.type	USART_ClockInit, %function
 411              	USART_ClockInit:
 412              	.LFB113:
 356:.\stm32f4periph\src/stm32f4xx_usart.c **** }
 357:.\stm32f4periph\src/stm32f4xx_usart.c **** 
 358:.\stm32f4periph\src/stm32f4xx_usart.c **** /**
 359:.\stm32f4periph\src/stm32f4xx_usart.c ****   * @brief  Initializes the USARTx peripheral Clock according to the 
ARM GAS  C:\Users\Kevin\AppData\Local\Temp\ccW48Nb3.s 			page 15


 360:.\stm32f4periph\src/stm32f4xx_usart.c ****   *         specified parameters in the USART_ClockInitStruct .
 361:.\stm32f4periph\src/stm32f4xx_usart.c ****   * @param  USARTx: where x can be 1, 2, 3 or 6 to select the USART peripheral.
 362:.\stm32f4periph\src/stm32f4xx_usart.c ****   * @param  USART_ClockInitStruct: pointer to a USART_ClockInitTypeDef structure that
 363:.\stm32f4periph\src/stm32f4xx_usart.c ****   *         contains the configuration information for the specified  USART peripheral.
 364:.\stm32f4periph\src/stm32f4xx_usart.c ****   * @note   The Smart Card and Synchronous modes are not available for UART4 and UART5.    
 365:.\stm32f4periph\src/stm32f4xx_usart.c ****   * @retval None
 366:.\stm32f4periph\src/stm32f4xx_usart.c ****   */
 367:.\stm32f4periph\src/stm32f4xx_usart.c **** void USART_ClockInit(USART_TypeDef* USARTx, USART_ClockInitTypeDef* USART_ClockInitStruct)
 368:.\stm32f4periph\src/stm32f4xx_usart.c **** {
 413              		.loc 1 368 0
 414              		.cfi_startproc
 415              		@ args = 0, pretend = 0, frame = 0
 416              		@ frame_needed = 0, uses_anonymous_args = 0
 417              	.LVL43:
 369:.\stm32f4periph\src/stm32f4xx_usart.c ****   uint32_t tmpreg = 0x00;
 370:.\stm32f4periph\src/stm32f4xx_usart.c ****   /* Check the parameters */
 371:.\stm32f4periph\src/stm32f4xx_usart.c ****   assert_param(IS_USART_1236_PERIPH(USARTx));
 372:.\stm32f4periph\src/stm32f4xx_usart.c ****   assert_param(IS_USART_CLOCK(USART_ClockInitStruct->USART_Clock));
 373:.\stm32f4periph\src/stm32f4xx_usart.c ****   assert_param(IS_USART_CPOL(USART_ClockInitStruct->USART_CPOL));
 374:.\stm32f4periph\src/stm32f4xx_usart.c ****   assert_param(IS_USART_CPHA(USART_ClockInitStruct->USART_CPHA));
 375:.\stm32f4periph\src/stm32f4xx_usart.c ****   assert_param(IS_USART_LASTBIT(USART_ClockInitStruct->USART_LastBit));
 376:.\stm32f4periph\src/stm32f4xx_usart.c ****   
 377:.\stm32f4periph\src/stm32f4xx_usart.c **** /*---------------------------- USART CR2 Configuration -----------------------*/
 378:.\stm32f4periph\src/stm32f4xx_usart.c ****   tmpreg = USARTx->CR2;
 379:.\stm32f4periph\src/stm32f4xx_usart.c ****   /* Clear CLKEN, CPOL, CPHA and LBCL bits */
 380:.\stm32f4periph\src/stm32f4xx_usart.c ****   tmpreg &= (uint32_t)~((uint32_t)CR2_CLOCK_CLEAR_MASK);
 381:.\stm32f4periph\src/stm32f4xx_usart.c ****   /* Configure the USART Clock, CPOL, CPHA and LastBit ------------*/
 382:.\stm32f4periph\src/stm32f4xx_usart.c ****   /* Set CLKEN bit according to USART_Clock value */
 383:.\stm32f4periph\src/stm32f4xx_usart.c ****   /* Set CPOL bit according to USART_CPOL value */
 384:.\stm32f4periph\src/stm32f4xx_usart.c ****   /* Set CPHA bit according to USART_CPHA value */
 385:.\stm32f4periph\src/stm32f4xx_usart.c ****   /* Set LBCL bit according to USART_LastBit value */
 386:.\stm32f4periph\src/stm32f4xx_usart.c ****   tmpreg |= (uint32_t)USART_ClockInitStruct->USART_Clock | USART_ClockInitStruct->USART_CPOL | 
 387:.\stm32f4periph\src/stm32f4xx_usart.c ****                  USART_ClockInitStruct->USART_CPHA | USART_ClockInitStruct->USART_LastBit;
 418              		.loc 1 387 0
 419 0172 0B88     		ldrh	r3, [r1, #0]	@, USART_ClockInitStruct_6(D)->USART_Clock
 378:.\stm32f4periph\src/stm32f4xx_usart.c ****   tmpreg = USARTx->CR2;
 420              		.loc 1 378 0
 421 0174 028A     		ldrh	r2, [r0, #16]	@, USARTx_2(D)->CR2
 368:.\stm32f4periph\src/stm32f4xx_usart.c **** {
 422              		.loc 1 368 0
 423 0176 10B5     		push	{r4, lr}	@
 424              	.LCFI3:
 425              		.cfi_def_cfa_offset 8
 426              		.cfi_offset 4, -8
 427              		.cfi_offset 14, -4
 428              		.loc 1 387 0
 429 0178 4C88     		ldrh	r4, [r1, #2]	@, USART_ClockInitStruct_6(D)->USART_CPOL
 430 017a 2343     		orrs	r3, r3, r4	@, tmp153, USART_ClockInitStruct_6(D)->USART_Clock, USART_ClockInitStruct_6(D)->US
 431 017c 8C88     		ldrh	r4, [r1, #4]	@, USART_ClockInitStruct_6(D)->USART_CPHA
 432 017e C988     		ldrh	r1, [r1, #6]	@, USART_ClockInitStruct_6(D)->USART_LastBit
 433              	.LVL44:
 434 0180 2343     		orrs	r3, r3, r4	@, tmp156, tmp153, USART_ClockInitStruct_6(D)->USART_CPHA
 378:.\stm32f4periph\src/stm32f4xx_usart.c ****   tmpreg = USARTx->CR2;
 435              		.loc 1 378 0
 436 0182 92B2     		uxth	r2, r2	@ D.7600, USARTx_2(D)->CR2
 437              	.LVL45:
 438              		.loc 1 387 0
ARM GAS  C:\Users\Kevin\AppData\Local\Temp\ccW48Nb3.s 			page 16


 439 0184 0B43     		orrs	r3, r3, r1	@, tmp159, tmp156, USART_ClockInitStruct_6(D)->USART_LastBit
 380:.\stm32f4periph\src/stm32f4xx_usart.c ****   tmpreg &= (uint32_t)~((uint32_t)CR2_CLOCK_CLEAR_MASK);
 440              		.loc 1 380 0
 441 0186 22F47062 		bic	r2, r2, #3840	@ tmpreg, D.7600,
 442              	.LVL46:
 443              		.loc 1 387 0
 444 018a 9BB2     		uxth	r3, r3	@ tmp160, tmp159
 388:.\stm32f4periph\src/stm32f4xx_usart.c ****   /* Write to USART CR2 */
 389:.\stm32f4periph\src/stm32f4xx_usart.c ****   USARTx->CR2 = (uint16_t)tmpreg;
 445              		.loc 1 389 0
 446 018c 1343     		orrs	r3, r3, r2	@, D.7609, tmp160, tmpreg
 447 018e 0382     		strh	r3, [r0, #16]	@ movhi	@ D.7609, USARTx_2(D)->CR2
 448 0190 10BD     		pop	{r4, pc}	@
 449              		.cfi_endproc
 450              	.LFE113:
 451              		.size	USART_ClockInit, .-USART_ClockInit
 452              		.align	1
 453              		.global	USART_ClockStructInit
 454              		.thumb
 455              		.thumb_func
 456              		.type	USART_ClockStructInit, %function
 457              	USART_ClockStructInit:
 458              	.LFB114:
 390:.\stm32f4periph\src/stm32f4xx_usart.c **** }
 391:.\stm32f4periph\src/stm32f4xx_usart.c **** 
 392:.\stm32f4periph\src/stm32f4xx_usart.c **** /**
 393:.\stm32f4periph\src/stm32f4xx_usart.c ****   * @brief  Fills each USART_ClockInitStruct member with its default value.
 394:.\stm32f4periph\src/stm32f4xx_usart.c ****   * @param  USART_ClockInitStruct: pointer to a USART_ClockInitTypeDef structure
 395:.\stm32f4periph\src/stm32f4xx_usart.c ****   *         which will be initialized.
 396:.\stm32f4periph\src/stm32f4xx_usart.c ****   * @retval None
 397:.\stm32f4periph\src/stm32f4xx_usart.c ****   */
 398:.\stm32f4periph\src/stm32f4xx_usart.c **** void USART_ClockStructInit(USART_ClockInitTypeDef* USART_ClockInitStruct)
 399:.\stm32f4periph\src/stm32f4xx_usart.c **** {
 459              		.loc 1 399 0
 460              		.cfi_startproc
 461              		@ args = 0, pretend = 0, frame = 0
 462              		@ frame_needed = 0, uses_anonymous_args = 0
 463              		@ link register save eliminated.
 464              	.LVL47:
 400:.\stm32f4periph\src/stm32f4xx_usart.c ****   /* USART_ClockInitStruct members default value */
 401:.\stm32f4periph\src/stm32f4xx_usart.c ****   USART_ClockInitStruct->USART_Clock = USART_Clock_Disable;
 465              		.loc 1 401 0
 466 0192 0023     		movs	r3, #0	@ tmp136,
 467 0194 0380     		strh	r3, [r0, #0]	@ movhi	@ tmp136, USART_ClockInitStruct_1(D)->USART_Clock
 402:.\stm32f4periph\src/stm32f4xx_usart.c ****   USART_ClockInitStruct->USART_CPOL = USART_CPOL_Low;
 468              		.loc 1 402 0
 469 0196 4380     		strh	r3, [r0, #2]	@ movhi	@ tmp136, USART_ClockInitStruct_1(D)->USART_CPOL
 403:.\stm32f4periph\src/stm32f4xx_usart.c ****   USART_ClockInitStruct->USART_CPHA = USART_CPHA_1Edge;
 470              		.loc 1 403 0
 471 0198 8380     		strh	r3, [r0, #4]	@ movhi	@ tmp136, USART_ClockInitStruct_1(D)->USART_CPHA
 404:.\stm32f4periph\src/stm32f4xx_usart.c ****   USART_ClockInitStruct->USART_LastBit = USART_LastBit_Disable;
 472              		.loc 1 404 0
 473 019a C380     		strh	r3, [r0, #6]	@ movhi	@ tmp136, USART_ClockInitStruct_1(D)->USART_LastBit
 474 019c 7047     		bx	lr	@
 475              		.cfi_endproc
 476              	.LFE114:
 477              		.size	USART_ClockStructInit, .-USART_ClockStructInit
ARM GAS  C:\Users\Kevin\AppData\Local\Temp\ccW48Nb3.s 			page 17


 478              		.align	1
 479              		.global	USART_Cmd
 480              		.thumb
 481              		.thumb_func
 482              		.type	USART_Cmd, %function
 483              	USART_Cmd:
 484              	.LFB115:
 405:.\stm32f4periph\src/stm32f4xx_usart.c **** }
 406:.\stm32f4periph\src/stm32f4xx_usart.c **** 
 407:.\stm32f4periph\src/stm32f4xx_usart.c **** /**
 408:.\stm32f4periph\src/stm32f4xx_usart.c ****   * @brief  Enables or disables the specified USART peripheral.
 409:.\stm32f4periph\src/stm32f4xx_usart.c ****   * @param  USARTx: where x can be 1, 2, 3, 4, 5 or 6 to select the USART or 
 410:.\stm32f4periph\src/stm32f4xx_usart.c ****   *         UART peripheral.
 411:.\stm32f4periph\src/stm32f4xx_usart.c ****   * @param  NewState: new state of the USARTx peripheral.
 412:.\stm32f4periph\src/stm32f4xx_usart.c ****   *          This parameter can be: ENABLE or DISABLE.
 413:.\stm32f4periph\src/stm32f4xx_usart.c ****   * @retval None
 414:.\stm32f4periph\src/stm32f4xx_usart.c ****   */
 415:.\stm32f4periph\src/stm32f4xx_usart.c **** void USART_Cmd(USART_TypeDef* USARTx, FunctionalState NewState)
 416:.\stm32f4periph\src/stm32f4xx_usart.c **** {
 485              		.loc 1 416 0
 486              		.cfi_startproc
 487              		@ args = 0, pretend = 0, frame = 0
 488              		@ frame_needed = 0, uses_anonymous_args = 0
 489              		@ link register save eliminated.
 490              	.LVL48:
 417:.\stm32f4periph\src/stm32f4xx_usart.c ****   /* Check the parameters */
 418:.\stm32f4periph\src/stm32f4xx_usart.c ****   assert_param(IS_USART_ALL_PERIPH(USARTx));
 419:.\stm32f4periph\src/stm32f4xx_usart.c ****   assert_param(IS_FUNCTIONAL_STATE(NewState));
 420:.\stm32f4periph\src/stm32f4xx_usart.c ****   
 421:.\stm32f4periph\src/stm32f4xx_usart.c ****   if (NewState != DISABLE)
 422:.\stm32f4periph\src/stm32f4xx_usart.c ****   {
 423:.\stm32f4periph\src/stm32f4xx_usart.c ****     /* Enable the selected USART by setting the UE bit in the CR1 register */
 424:.\stm32f4periph\src/stm32f4xx_usart.c ****     USARTx->CR1 |= USART_CR1_UE;
 491              		.loc 1 424 0
 492 019e 8389     		ldrh	r3, [r0, #12]	@,
 421:.\stm32f4periph\src/stm32f4xx_usart.c ****   if (NewState != DISABLE)
 493              		.loc 1 421 0
 494 01a0 19B1     		cbz	r1, .L28	@ NewState,
 495              		.loc 1 424 0
 496 01a2 9BB2     		uxth	r3, r3	@ D.7595, USARTx_2(D)->CR1
 497 01a4 43F40053 		orr	r3, r3, #8192	@ D.7596, D.7595,
 498 01a8 03E0     		b	.L30	@
 499              	.L28:
 425:.\stm32f4periph\src/stm32f4xx_usart.c ****   }
 426:.\stm32f4periph\src/stm32f4xx_usart.c ****   else
 427:.\stm32f4periph\src/stm32f4xx_usart.c ****   {
 428:.\stm32f4periph\src/stm32f4xx_usart.c ****     /* Disable the selected USART by clearing the UE bit in the CR1 register */
 429:.\stm32f4periph\src/stm32f4xx_usart.c ****     USARTx->CR1 &= (uint16_t)~((uint16_t)USART_CR1_UE);
 500              		.loc 1 429 0
 501 01aa 23F40053 		bic	r3, r3, #8192	@ D.7599, USARTx_2(D)->CR1,
 502 01ae 1B04     		lsls	r3, r3, #16	@ D.7599, D.7599,
 503 01b0 1B0C     		lsrs	r3, r3, #16	@ D.7599, D.7599,
 504              	.L30:
 505 01b2 8381     		strh	r3, [r0, #12]	@ movhi	@ D.7599,
 506 01b4 7047     		bx	lr	@
 507              		.cfi_endproc
 508              	.LFE115:
ARM GAS  C:\Users\Kevin\AppData\Local\Temp\ccW48Nb3.s 			page 18


 509              		.size	USART_Cmd, .-USART_Cmd
 510              		.align	1
 511              		.global	USART_SetPrescaler
 512              		.thumb
 513              		.thumb_func
 514              		.type	USART_SetPrescaler, %function
 515              	USART_SetPrescaler:
 516              	.LFB116:
 430:.\stm32f4periph\src/stm32f4xx_usart.c ****   }
 431:.\stm32f4periph\src/stm32f4xx_usart.c **** }
 432:.\stm32f4periph\src/stm32f4xx_usart.c **** 
 433:.\stm32f4periph\src/stm32f4xx_usart.c **** /**
 434:.\stm32f4periph\src/stm32f4xx_usart.c ****   * @brief  Sets the system clock prescaler.
 435:.\stm32f4periph\src/stm32f4xx_usart.c ****   * @param  USARTx: where x can be 1, 2, 3, 4, 5 or 6 to select the USART or 
 436:.\stm32f4periph\src/stm32f4xx_usart.c ****   *         UART peripheral.
 437:.\stm32f4periph\src/stm32f4xx_usart.c ****   * @param  USART_Prescaler: specifies the prescaler clock. 
 438:.\stm32f4periph\src/stm32f4xx_usart.c ****   * @note   The function is used for IrDA mode with UART4 and UART5.   
 439:.\stm32f4periph\src/stm32f4xx_usart.c ****   * @retval None
 440:.\stm32f4periph\src/stm32f4xx_usart.c ****   */
 441:.\stm32f4periph\src/stm32f4xx_usart.c **** void USART_SetPrescaler(USART_TypeDef* USARTx, uint8_t USART_Prescaler)
 442:.\stm32f4periph\src/stm32f4xx_usart.c **** { 
 517              		.loc 1 442 0
 518              		.cfi_startproc
 519              		@ args = 0, pretend = 0, frame = 0
 520              		@ frame_needed = 0, uses_anonymous_args = 0
 521              		@ link register save eliminated.
 522              	.LVL49:
 443:.\stm32f4periph\src/stm32f4xx_usart.c ****   /* Check the parameters */
 444:.\stm32f4periph\src/stm32f4xx_usart.c ****   assert_param(IS_USART_ALL_PERIPH(USARTx));
 445:.\stm32f4periph\src/stm32f4xx_usart.c ****   
 446:.\stm32f4periph\src/stm32f4xx_usart.c ****   /* Clear the USART prescaler */
 447:.\stm32f4periph\src/stm32f4xx_usart.c ****   USARTx->GTPR &= USART_GTPR_GT;
 523              		.loc 1 447 0
 524 01b6 038B     		ldrh	r3, [r0, #24]	@, USARTx_1(D)->GTPR
 525 01b8 03F47F43 		and	r3, r3, #65280	@ D.7589, USARTx_1(D)->GTPR,
 526 01bc 0383     		strh	r3, [r0, #24]	@ movhi	@ D.7589, USARTx_1(D)->GTPR
 448:.\stm32f4periph\src/stm32f4xx_usart.c ****   /* Set the USART prescaler */
 449:.\stm32f4periph\src/stm32f4xx_usart.c ****   USARTx->GTPR |= USART_Prescaler;
 527              		.loc 1 449 0
 528 01be 038B     		ldrh	r3, [r0, #24]	@, USARTx_1(D)->GTPR
 529 01c0 9BB2     		uxth	r3, r3	@ D.7590, USARTx_1(D)->GTPR
 530 01c2 1943     		orrs	r1, r1, r3	@, D.7592, USART_Prescaler, D.7590
 531              	.LVL50:
 532 01c4 0183     		strh	r1, [r0, #24]	@ movhi	@ D.7592, USARTx_1(D)->GTPR
 533 01c6 7047     		bx	lr	@
 534              		.cfi_endproc
 535              	.LFE116:
 536              		.size	USART_SetPrescaler, .-USART_SetPrescaler
 537              		.align	1
 538              		.global	USART_OverSampling8Cmd
 539              		.thumb
 540              		.thumb_func
 541              		.type	USART_OverSampling8Cmd, %function
 542              	USART_OverSampling8Cmd:
 543              	.LFB117:
 450:.\stm32f4periph\src/stm32f4xx_usart.c **** }
 451:.\stm32f4periph\src/stm32f4xx_usart.c **** 
ARM GAS  C:\Users\Kevin\AppData\Local\Temp\ccW48Nb3.s 			page 19


 452:.\stm32f4periph\src/stm32f4xx_usart.c **** /**
 453:.\stm32f4periph\src/stm32f4xx_usart.c ****   * @brief  Enables or disables the USART's 8x oversampling mode.
 454:.\stm32f4periph\src/stm32f4xx_usart.c ****   * @note   This function has to be called before calling USART_Init() function
 455:.\stm32f4periph\src/stm32f4xx_usart.c ****   *         in order to have correct baudrate Divider value.
 456:.\stm32f4periph\src/stm32f4xx_usart.c ****   * @param  USARTx: where x can be 1, 2, 3, 4, 5 or 6 to select the USART or 
 457:.\stm32f4periph\src/stm32f4xx_usart.c ****   *         UART peripheral.
 458:.\stm32f4periph\src/stm32f4xx_usart.c ****   * @param  NewState: new state of the USART 8x oversampling mode.
 459:.\stm32f4periph\src/stm32f4xx_usart.c ****   *          This parameter can be: ENABLE or DISABLE.
 460:.\stm32f4periph\src/stm32f4xx_usart.c ****   * @retval None
 461:.\stm32f4periph\src/stm32f4xx_usart.c ****   */
 462:.\stm32f4periph\src/stm32f4xx_usart.c **** void USART_OverSampling8Cmd(USART_TypeDef* USARTx, FunctionalState NewState)
 463:.\stm32f4periph\src/stm32f4xx_usart.c **** {
 544              		.loc 1 463 0
 545              		.cfi_startproc
 546              		@ args = 0, pretend = 0, frame = 0
 547              		@ frame_needed = 0, uses_anonymous_args = 0
 548              		@ link register save eliminated.
 549              	.LVL51:
 464:.\stm32f4periph\src/stm32f4xx_usart.c ****   /* Check the parameters */
 465:.\stm32f4periph\src/stm32f4xx_usart.c ****   assert_param(IS_USART_ALL_PERIPH(USARTx));
 466:.\stm32f4periph\src/stm32f4xx_usart.c ****   assert_param(IS_FUNCTIONAL_STATE(NewState));
 467:.\stm32f4periph\src/stm32f4xx_usart.c ****   
 468:.\stm32f4periph\src/stm32f4xx_usart.c ****   if (NewState != DISABLE)
 469:.\stm32f4periph\src/stm32f4xx_usart.c ****   {
 470:.\stm32f4periph\src/stm32f4xx_usart.c ****     /* Enable the 8x Oversampling mode by setting the OVER8 bit in the CR1 register */
 471:.\stm32f4periph\src/stm32f4xx_usart.c ****     USARTx->CR1 |= USART_CR1_OVER8;
 550              		.loc 1 471 0
 551 01c8 8389     		ldrh	r3, [r0, #12]	@,
 468:.\stm32f4periph\src/stm32f4xx_usart.c ****   if (NewState != DISABLE)
 552              		.loc 1 468 0
 553 01ca 21B1     		cbz	r1, .L33	@ NewState,
 554              		.loc 1 471 0
 555 01cc 6FEA4343 		mvn	r3, r3, lsl #17	@ tmp142, USARTx_2(D)->CR1,
 556 01d0 6FEA5343 		mvn	r3, r3, lsr #17	@ tmp142, tmp142,
 557 01d4 01E0     		b	.L35	@
 558              	.L33:
 472:.\stm32f4periph\src/stm32f4xx_usart.c ****   }
 473:.\stm32f4periph\src/stm32f4xx_usart.c ****   else
 474:.\stm32f4periph\src/stm32f4xx_usart.c ****   {
 475:.\stm32f4periph\src/stm32f4xx_usart.c ****     /* Disable the 8x Oversampling mode by clearing the OVER8 bit in the CR1 register */
 476:.\stm32f4periph\src/stm32f4xx_usart.c ****     USARTx->CR1 &= (uint16_t)~((uint16_t)USART_CR1_OVER8);
 559              		.loc 1 476 0
 560 01d6 5B04     		lsls	r3, r3, #17	@ tmp148, USARTx_2(D)->CR1,
 561 01d8 5B0C     		lsrs	r3, r3, #17	@ D.7587, tmp148,
 562              	.L35:
 563 01da 8381     		strh	r3, [r0, #12]	@ movhi	@ D.7587,
 564 01dc 7047     		bx	lr	@
 565              		.cfi_endproc
 566              	.LFE117:
 567              		.size	USART_OverSampling8Cmd, .-USART_OverSampling8Cmd
 568              		.align	1
 569              		.global	USART_OneBitMethodCmd
 570              		.thumb
 571              		.thumb_func
 572              		.type	USART_OneBitMethodCmd, %function
 573              	USART_OneBitMethodCmd:
 574              	.LFB118:
ARM GAS  C:\Users\Kevin\AppData\Local\Temp\ccW48Nb3.s 			page 20


 477:.\stm32f4periph\src/stm32f4xx_usart.c ****   }
 478:.\stm32f4periph\src/stm32f4xx_usart.c **** }  
 479:.\stm32f4periph\src/stm32f4xx_usart.c **** 
 480:.\stm32f4periph\src/stm32f4xx_usart.c **** /**
 481:.\stm32f4periph\src/stm32f4xx_usart.c ****   * @brief  Enables or disables the USART's one bit sampling method.
 482:.\stm32f4periph\src/stm32f4xx_usart.c ****   * @param  USARTx: where x can be 1, 2, 3, 4, 5 or 6 to select the USART or 
 483:.\stm32f4periph\src/stm32f4xx_usart.c ****   *         UART peripheral.
 484:.\stm32f4periph\src/stm32f4xx_usart.c ****   * @param  NewState: new state of the USART one bit sampling method.
 485:.\stm32f4periph\src/stm32f4xx_usart.c ****   *          This parameter can be: ENABLE or DISABLE.
 486:.\stm32f4periph\src/stm32f4xx_usart.c ****   * @retval None
 487:.\stm32f4periph\src/stm32f4xx_usart.c ****   */
 488:.\stm32f4periph\src/stm32f4xx_usart.c **** void USART_OneBitMethodCmd(USART_TypeDef* USARTx, FunctionalState NewState)
 489:.\stm32f4periph\src/stm32f4xx_usart.c **** {
 575              		.loc 1 489 0
 576              		.cfi_startproc
 577              		@ args = 0, pretend = 0, frame = 0
 578              		@ frame_needed = 0, uses_anonymous_args = 0
 579              		@ link register save eliminated.
 580              	.LVL52:
 490:.\stm32f4periph\src/stm32f4xx_usart.c ****   /* Check the parameters */
 491:.\stm32f4periph\src/stm32f4xx_usart.c ****   assert_param(IS_USART_ALL_PERIPH(USARTx));
 492:.\stm32f4periph\src/stm32f4xx_usart.c ****   assert_param(IS_FUNCTIONAL_STATE(NewState));
 493:.\stm32f4periph\src/stm32f4xx_usart.c ****   
 494:.\stm32f4periph\src/stm32f4xx_usart.c ****   if (NewState != DISABLE)
 495:.\stm32f4periph\src/stm32f4xx_usart.c ****   {
 496:.\stm32f4periph\src/stm32f4xx_usart.c ****     /* Enable the one bit method by setting the ONEBITE bit in the CR3 register */
 497:.\stm32f4periph\src/stm32f4xx_usart.c ****     USARTx->CR3 |= USART_CR3_ONEBIT;
 581              		.loc 1 497 0
 582 01de 838A     		ldrh	r3, [r0, #20]	@,
 494:.\stm32f4periph\src/stm32f4xx_usart.c ****   if (NewState != DISABLE)
 583              		.loc 1 494 0
 584 01e0 19B1     		cbz	r1, .L37	@ NewState,
 585              		.loc 1 497 0
 586 01e2 9BB2     		uxth	r3, r3	@ D.7576, USARTx_2(D)->CR3
 587 01e4 43F40063 		orr	r3, r3, #2048	@ D.7577, D.7576,
 588 01e8 03E0     		b	.L39	@
 589              	.L37:
 498:.\stm32f4periph\src/stm32f4xx_usart.c ****   }
 499:.\stm32f4periph\src/stm32f4xx_usart.c ****   else
 500:.\stm32f4periph\src/stm32f4xx_usart.c ****   {
 501:.\stm32f4periph\src/stm32f4xx_usart.c ****     /* Disable the one bit method by clearing the ONEBITE bit in the CR3 register */
 502:.\stm32f4periph\src/stm32f4xx_usart.c ****     USARTx->CR3 &= (uint16_t)~((uint16_t)USART_CR3_ONEBIT);
 590              		.loc 1 502 0
 591 01ea 23F40063 		bic	r3, r3, #2048	@ D.7580, USARTx_2(D)->CR3,
 592 01ee 1B04     		lsls	r3, r3, #16	@ D.7580, D.7580,
 593 01f0 1B0C     		lsrs	r3, r3, #16	@ D.7580, D.7580,
 594              	.L39:
 595 01f2 8382     		strh	r3, [r0, #20]	@ movhi	@ D.7580,
 596 01f4 7047     		bx	lr	@
 597              		.cfi_endproc
 598              	.LFE118:
 599              		.size	USART_OneBitMethodCmd, .-USART_OneBitMethodCmd
 600              		.align	1
 601              		.global	USART_SendData
 602              		.thumb
 603              		.thumb_func
 604              		.type	USART_SendData, %function
ARM GAS  C:\Users\Kevin\AppData\Local\Temp\ccW48Nb3.s 			page 21


 605              	USART_SendData:
 606              	.LFB119:
 503:.\stm32f4periph\src/stm32f4xx_usart.c ****   }
 504:.\stm32f4periph\src/stm32f4xx_usart.c **** }
 505:.\stm32f4periph\src/stm32f4xx_usart.c **** 
 506:.\stm32f4periph\src/stm32f4xx_usart.c **** /**
 507:.\stm32f4periph\src/stm32f4xx_usart.c ****   * @}
 508:.\stm32f4periph\src/stm32f4xx_usart.c ****   */
 509:.\stm32f4periph\src/stm32f4xx_usart.c **** 
 510:.\stm32f4periph\src/stm32f4xx_usart.c **** /** @defgroup USART_Group2 Data transfers functions
 511:.\stm32f4periph\src/stm32f4xx_usart.c ****  *  @brief   Data transfers functions 
 512:.\stm32f4periph\src/stm32f4xx_usart.c ****  *
 513:.\stm32f4periph\src/stm32f4xx_usart.c **** @verbatim   
 514:.\stm32f4periph\src/stm32f4xx_usart.c ****  ===============================================================================
 515:.\stm32f4periph\src/stm32f4xx_usart.c ****                             Data transfers functions
 516:.\stm32f4periph\src/stm32f4xx_usart.c ****  ===============================================================================  
 517:.\stm32f4periph\src/stm32f4xx_usart.c **** 
 518:.\stm32f4periph\src/stm32f4xx_usart.c ****   This subsection provides a set of functions allowing to manage the USART data 
 519:.\stm32f4periph\src/stm32f4xx_usart.c ****   transfers.
 520:.\stm32f4periph\src/stm32f4xx_usart.c ****   
 521:.\stm32f4periph\src/stm32f4xx_usart.c ****   During an USART reception, data shifts in least significant bit first through 
 522:.\stm32f4periph\src/stm32f4xx_usart.c ****   the RX pin. In this mode, the USART_DR register consists of a buffer (RDR) 
 523:.\stm32f4periph\src/stm32f4xx_usart.c ****   between the internal bus and the received shift register.
 524:.\stm32f4periph\src/stm32f4xx_usart.c **** 
 525:.\stm32f4periph\src/stm32f4xx_usart.c ****   When a transmission is taking place, a write instruction to the USART_DR register 
 526:.\stm32f4periph\src/stm32f4xx_usart.c ****   stores the data in the TDR register and which is copied in the shift register 
 527:.\stm32f4periph\src/stm32f4xx_usart.c ****   at the end of the current transmission.
 528:.\stm32f4periph\src/stm32f4xx_usart.c **** 
 529:.\stm32f4periph\src/stm32f4xx_usart.c ****   The read access of the USART_DR register can be done using the USART_ReceiveData()
 530:.\stm32f4periph\src/stm32f4xx_usart.c ****   function and returns the RDR buffered value. Whereas a write access to the USART_DR 
 531:.\stm32f4periph\src/stm32f4xx_usart.c ****   can be done using USART_SendData() function and stores the written data into 
 532:.\stm32f4periph\src/stm32f4xx_usart.c ****   TDR buffer.
 533:.\stm32f4periph\src/stm32f4xx_usart.c **** 
 534:.\stm32f4periph\src/stm32f4xx_usart.c **** @endverbatim
 535:.\stm32f4periph\src/stm32f4xx_usart.c ****   * @{
 536:.\stm32f4periph\src/stm32f4xx_usart.c ****   */
 537:.\stm32f4periph\src/stm32f4xx_usart.c **** 
 538:.\stm32f4periph\src/stm32f4xx_usart.c **** /**
 539:.\stm32f4periph\src/stm32f4xx_usart.c ****   * @brief  Transmits single data through the USARTx peripheral.
 540:.\stm32f4periph\src/stm32f4xx_usart.c ****   * @param  USARTx: where x can be 1, 2, 3, 4, 5 or 6 to select the USART or 
 541:.\stm32f4periph\src/stm32f4xx_usart.c ****   *         UART peripheral.
 542:.\stm32f4periph\src/stm32f4xx_usart.c ****   * @param  Data: the data to transmit.
 543:.\stm32f4periph\src/stm32f4xx_usart.c ****   * @retval None
 544:.\stm32f4periph\src/stm32f4xx_usart.c ****   */
 545:.\stm32f4periph\src/stm32f4xx_usart.c **** void USART_SendData(USART_TypeDef* USARTx, uint16_t Data)
 546:.\stm32f4periph\src/stm32f4xx_usart.c **** {
 607              		.loc 1 546 0
 608              		.cfi_startproc
 609              		@ args = 0, pretend = 0, frame = 0
 610              		@ frame_needed = 0, uses_anonymous_args = 0
 611              		@ link register save eliminated.
 612              	.LVL53:
 547:.\stm32f4periph\src/stm32f4xx_usart.c ****   /* Check the parameters */
 548:.\stm32f4periph\src/stm32f4xx_usart.c ****   assert_param(IS_USART_ALL_PERIPH(USARTx));
 549:.\stm32f4periph\src/stm32f4xx_usart.c ****   assert_param(IS_USART_DATA(Data)); 
 550:.\stm32f4periph\src/stm32f4xx_usart.c ****     
 551:.\stm32f4periph\src/stm32f4xx_usart.c ****   /* Transmit Data */
ARM GAS  C:\Users\Kevin\AppData\Local\Temp\ccW48Nb3.s 			page 22


 552:.\stm32f4periph\src/stm32f4xx_usart.c ****   USARTx->DR = (Data & (uint16_t)0x01FF);
 613              		.loc 1 552 0
 614 01f6 C905     		lsls	r1, r1, #23	@ tmp138, Data,
 615              	.LVL54:
 616 01f8 C90D     		lsrs	r1, r1, #23	@ D.7573, tmp138,
 617 01fa 8180     		strh	r1, [r0, #4]	@ movhi	@ D.7573, USARTx_3(D)->DR
 618 01fc 7047     		bx	lr	@
 619              		.cfi_endproc
 620              	.LFE119:
 621              		.size	USART_SendData, .-USART_SendData
 622              		.align	1
 623              		.global	USART_ReceiveData
 624              		.thumb
 625              		.thumb_func
 626              		.type	USART_ReceiveData, %function
 627              	USART_ReceiveData:
 628              	.LFB120:
 553:.\stm32f4periph\src/stm32f4xx_usart.c **** }
 554:.\stm32f4periph\src/stm32f4xx_usart.c **** 
 555:.\stm32f4periph\src/stm32f4xx_usart.c **** /**
 556:.\stm32f4periph\src/stm32f4xx_usart.c ****   * @brief  Returns the most recent received data by the USARTx peripheral.
 557:.\stm32f4periph\src/stm32f4xx_usart.c ****   * @param  USARTx: where x can be 1, 2, 3, 4, 5 or 6 to select the USART or 
 558:.\stm32f4periph\src/stm32f4xx_usart.c ****   *         UART peripheral.
 559:.\stm32f4periph\src/stm32f4xx_usart.c ****   * @retval The received data.
 560:.\stm32f4periph\src/stm32f4xx_usart.c ****   */
 561:.\stm32f4periph\src/stm32f4xx_usart.c **** uint16_t USART_ReceiveData(USART_TypeDef* USARTx)
 562:.\stm32f4periph\src/stm32f4xx_usart.c **** {
 629              		.loc 1 562 0
 630              		.cfi_startproc
 631              		@ args = 0, pretend = 0, frame = 0
 632              		@ frame_needed = 0, uses_anonymous_args = 0
 633              		@ link register save eliminated.
 634              	.LVL55:
 563:.\stm32f4periph\src/stm32f4xx_usart.c ****   /* Check the parameters */
 564:.\stm32f4periph\src/stm32f4xx_usart.c ****   assert_param(IS_USART_ALL_PERIPH(USARTx));
 565:.\stm32f4periph\src/stm32f4xx_usart.c ****   
 566:.\stm32f4periph\src/stm32f4xx_usart.c ****   /* Receive Data */
 567:.\stm32f4periph\src/stm32f4xx_usart.c ****   return (uint16_t)(USARTx->DR & (uint16_t)0x01FF);
 635              		.loc 1 567 0
 636 01fe 8088     		ldrh	r0, [r0, #4]	@, USARTx_1(D)->DR
 637              	.LVL56:
 638 0200 C005     		lsls	r0, r0, #23	@ tmp142, USARTx_1(D)->DR,
 568:.\stm32f4periph\src/stm32f4xx_usart.c **** }
 639              		.loc 1 568 0
 640 0202 C00D     		lsrs	r0, r0, #23	@, tmp142,
 641 0204 7047     		bx	lr	@
 642              		.cfi_endproc
 643              	.LFE120:
 644              		.size	USART_ReceiveData, .-USART_ReceiveData
 645              		.align	1
 646              		.global	USART_SetAddress
 647              		.thumb
 648              		.thumb_func
 649              		.type	USART_SetAddress, %function
 650              	USART_SetAddress:
 651              	.LFB121:
 569:.\stm32f4periph\src/stm32f4xx_usart.c **** 
ARM GAS  C:\Users\Kevin\AppData\Local\Temp\ccW48Nb3.s 			page 23


 570:.\stm32f4periph\src/stm32f4xx_usart.c **** /**
 571:.\stm32f4periph\src/stm32f4xx_usart.c ****   * @}
 572:.\stm32f4periph\src/stm32f4xx_usart.c ****   */
 573:.\stm32f4periph\src/stm32f4xx_usart.c **** 
 574:.\stm32f4periph\src/stm32f4xx_usart.c **** /** @defgroup USART_Group3 MultiProcessor Communication functions
 575:.\stm32f4periph\src/stm32f4xx_usart.c ****  *  @brief   Multi-Processor Communication functions 
 576:.\stm32f4periph\src/stm32f4xx_usart.c ****  *
 577:.\stm32f4periph\src/stm32f4xx_usart.c **** @verbatim   
 578:.\stm32f4periph\src/stm32f4xx_usart.c ****  ===============================================================================
 579:.\stm32f4periph\src/stm32f4xx_usart.c ****                     Multi-Processor Communication functions
 580:.\stm32f4periph\src/stm32f4xx_usart.c ****  ===============================================================================  
 581:.\stm32f4periph\src/stm32f4xx_usart.c **** 
 582:.\stm32f4periph\src/stm32f4xx_usart.c ****   This subsection provides a set of functions allowing to manage the USART 
 583:.\stm32f4periph\src/stm32f4xx_usart.c ****   multiprocessor communication.
 584:.\stm32f4periph\src/stm32f4xx_usart.c ****   
 585:.\stm32f4periph\src/stm32f4xx_usart.c ****   For instance one of the USARTs can be the master, its TX output is connected to 
 586:.\stm32f4periph\src/stm32f4xx_usart.c ****   the RX input of the other USART. The others are slaves, their respective TX outputs 
 587:.\stm32f4periph\src/stm32f4xx_usart.c ****   are logically ANDed together and connected to the RX input of the master.
 588:.\stm32f4periph\src/stm32f4xx_usart.c **** 
 589:.\stm32f4periph\src/stm32f4xx_usart.c ****   USART multiprocessor communication is possible through the following procedure:
 590:.\stm32f4periph\src/stm32f4xx_usart.c ****      1. Program the Baud rate, Word length = 9 bits, Stop bits, Parity, Mode transmitter 
 591:.\stm32f4periph\src/stm32f4xx_usart.c ****         or Mode receiver and hardware flow control values using the USART_Init()
 592:.\stm32f4periph\src/stm32f4xx_usart.c ****         function.
 593:.\stm32f4periph\src/stm32f4xx_usart.c ****      2. Configures the USART address using the USART_SetAddress() function.
 594:.\stm32f4periph\src/stm32f4xx_usart.c ****      3. Configures the wake up method (USART_WakeUp_IdleLine or USART_WakeUp_AddressMark)
 595:.\stm32f4periph\src/stm32f4xx_usart.c ****         using USART_WakeUpConfig() function only for the slaves.
 596:.\stm32f4periph\src/stm32f4xx_usart.c ****      4. Enable the USART using the USART_Cmd() function.
 597:.\stm32f4periph\src/stm32f4xx_usart.c ****      5. Enter the USART slaves in mute mode using USART_ReceiverWakeUpCmd() function.
 598:.\stm32f4periph\src/stm32f4xx_usart.c **** 
 599:.\stm32f4periph\src/stm32f4xx_usart.c ****   The USART Slave exit from mute mode when receive the wake up condition.
 600:.\stm32f4periph\src/stm32f4xx_usart.c **** 
 601:.\stm32f4periph\src/stm32f4xx_usart.c **** @endverbatim
 602:.\stm32f4periph\src/stm32f4xx_usart.c ****   * @{
 603:.\stm32f4periph\src/stm32f4xx_usart.c ****   */
 604:.\stm32f4periph\src/stm32f4xx_usart.c **** 
 605:.\stm32f4periph\src/stm32f4xx_usart.c **** /**
 606:.\stm32f4periph\src/stm32f4xx_usart.c ****   * @brief  Sets the address of the USART node.
 607:.\stm32f4periph\src/stm32f4xx_usart.c ****   * @param  USARTx: where x can be 1, 2, 3, 4, 5 or 6 to select the USART or 
 608:.\stm32f4periph\src/stm32f4xx_usart.c ****   *         UART peripheral.
 609:.\stm32f4periph\src/stm32f4xx_usart.c ****   * @param  USART_Address: Indicates the address of the USART node.
 610:.\stm32f4periph\src/stm32f4xx_usart.c ****   * @retval None
 611:.\stm32f4periph\src/stm32f4xx_usart.c ****   */
 612:.\stm32f4periph\src/stm32f4xx_usart.c **** void USART_SetAddress(USART_TypeDef* USARTx, uint8_t USART_Address)
 613:.\stm32f4periph\src/stm32f4xx_usart.c **** {
 652              		.loc 1 613 0
 653              		.cfi_startproc
 654              		@ args = 0, pretend = 0, frame = 0
 655              		@ frame_needed = 0, uses_anonymous_args = 0
 656              		@ link register save eliminated.
 657              	.LVL57:
 614:.\stm32f4periph\src/stm32f4xx_usart.c ****   /* Check the parameters */
 615:.\stm32f4periph\src/stm32f4xx_usart.c ****   assert_param(IS_USART_ALL_PERIPH(USARTx));
 616:.\stm32f4periph\src/stm32f4xx_usart.c ****   assert_param(IS_USART_ADDRESS(USART_Address)); 
 617:.\stm32f4periph\src/stm32f4xx_usart.c ****     
 618:.\stm32f4periph\src/stm32f4xx_usart.c ****   /* Clear the USART address */
 619:.\stm32f4periph\src/stm32f4xx_usart.c ****   USARTx->CR2 &= (uint16_t)~((uint16_t)USART_CR2_ADD);
 658              		.loc 1 619 0
ARM GAS  C:\Users\Kevin\AppData\Local\Temp\ccW48Nb3.s 			page 24


 659 0206 038A     		ldrh	r3, [r0, #16]	@, USARTx_1(D)->CR2
 660 0208 23F00F03 		bic	r3, r3, #15	@ D.7566, USARTx_1(D)->CR2,
 661 020c 1B04     		lsls	r3, r3, #16	@ D.7566, D.7566,
 662 020e 1B0C     		lsrs	r3, r3, #16	@ D.7566, D.7566,
 663 0210 0382     		strh	r3, [r0, #16]	@ movhi	@ D.7566, USARTx_1(D)->CR2
 620:.\stm32f4periph\src/stm32f4xx_usart.c ****   /* Set the USART address node */
 621:.\stm32f4periph\src/stm32f4xx_usart.c ****   USARTx->CR2 |= USART_Address;
 664              		.loc 1 621 0
 665 0212 038A     		ldrh	r3, [r0, #16]	@, USARTx_1(D)->CR2
 666 0214 9BB2     		uxth	r3, r3	@ D.7567, USARTx_1(D)->CR2
 667 0216 1943     		orrs	r1, r1, r3	@, D.7569, USART_Address, D.7567
 668              	.LVL58:
 669 0218 0182     		strh	r1, [r0, #16]	@ movhi	@ D.7569, USARTx_1(D)->CR2
 670 021a 7047     		bx	lr	@
 671              		.cfi_endproc
 672              	.LFE121:
 673              		.size	USART_SetAddress, .-USART_SetAddress
 674              		.align	1
 675              		.global	USART_ReceiverWakeUpCmd
 676              		.thumb
 677              		.thumb_func
 678              		.type	USART_ReceiverWakeUpCmd, %function
 679              	USART_ReceiverWakeUpCmd:
 680              	.LFB122:
 622:.\stm32f4periph\src/stm32f4xx_usart.c **** }
 623:.\stm32f4periph\src/stm32f4xx_usart.c **** 
 624:.\stm32f4periph\src/stm32f4xx_usart.c **** /**
 625:.\stm32f4periph\src/stm32f4xx_usart.c ****   * @brief  Determines if the USART is in mute mode or not.
 626:.\stm32f4periph\src/stm32f4xx_usart.c ****   * @param  USARTx: where x can be 1, 2, 3, 4, 5 or 6 to select the USART or 
 627:.\stm32f4periph\src/stm32f4xx_usart.c ****   *         UART peripheral.
 628:.\stm32f4periph\src/stm32f4xx_usart.c ****   * @param  NewState: new state of the USART mute mode.
 629:.\stm32f4periph\src/stm32f4xx_usart.c ****   *          This parameter can be: ENABLE or DISABLE.
 630:.\stm32f4periph\src/stm32f4xx_usart.c ****   * @retval None
 631:.\stm32f4periph\src/stm32f4xx_usart.c ****   */
 632:.\stm32f4periph\src/stm32f4xx_usart.c **** void USART_ReceiverWakeUpCmd(USART_TypeDef* USARTx, FunctionalState NewState)
 633:.\stm32f4periph\src/stm32f4xx_usart.c **** {
 681              		.loc 1 633 0
 682              		.cfi_startproc
 683              		@ args = 0, pretend = 0, frame = 0
 684              		@ frame_needed = 0, uses_anonymous_args = 0
 685              		@ link register save eliminated.
 686              	.LVL59:
 634:.\stm32f4periph\src/stm32f4xx_usart.c ****   /* Check the parameters */
 635:.\stm32f4periph\src/stm32f4xx_usart.c ****   assert_param(IS_USART_ALL_PERIPH(USARTx));
 636:.\stm32f4periph\src/stm32f4xx_usart.c ****   assert_param(IS_FUNCTIONAL_STATE(NewState)); 
 637:.\stm32f4periph\src/stm32f4xx_usart.c ****   
 638:.\stm32f4periph\src/stm32f4xx_usart.c ****   if (NewState != DISABLE)
 639:.\stm32f4periph\src/stm32f4xx_usart.c ****   {
 640:.\stm32f4periph\src/stm32f4xx_usart.c ****     /* Enable the USART mute mode  by setting the RWU bit in the CR1 register */
 641:.\stm32f4periph\src/stm32f4xx_usart.c ****     USARTx->CR1 |= USART_CR1_RWU;
 687              		.loc 1 641 0
 688 021c 8389     		ldrh	r3, [r0, #12]	@,
 638:.\stm32f4periph\src/stm32f4xx_usart.c ****   if (NewState != DISABLE)
 689              		.loc 1 638 0
 690 021e 19B1     		cbz	r1, .L44	@ NewState,
 691              		.loc 1 641 0
 692 0220 9BB2     		uxth	r3, r3	@ D.7560, USARTx_2(D)->CR1
ARM GAS  C:\Users\Kevin\AppData\Local\Temp\ccW48Nb3.s 			page 25


 693 0222 43F00203 		orr	r3, r3, #2	@ D.7561, D.7560,
 694 0226 03E0     		b	.L46	@
 695              	.L44:
 642:.\stm32f4periph\src/stm32f4xx_usart.c ****   }
 643:.\stm32f4periph\src/stm32f4xx_usart.c ****   else
 644:.\stm32f4periph\src/stm32f4xx_usart.c ****   {
 645:.\stm32f4periph\src/stm32f4xx_usart.c ****     /* Disable the USART mute mode by clearing the RWU bit in the CR1 register */
 646:.\stm32f4periph\src/stm32f4xx_usart.c ****     USARTx->CR1 &= (uint16_t)~((uint16_t)USART_CR1_RWU);
 696              		.loc 1 646 0
 697 0228 23F00203 		bic	r3, r3, #2	@ D.7564, USARTx_2(D)->CR1,
 698 022c 1B04     		lsls	r3, r3, #16	@ D.7564, D.7564,
 699 022e 1B0C     		lsrs	r3, r3, #16	@ D.7564, D.7564,
 700              	.L46:
 701 0230 8381     		strh	r3, [r0, #12]	@ movhi	@ D.7564,
 702 0232 7047     		bx	lr	@
 703              		.cfi_endproc
 704              	.LFE122:
 705              		.size	USART_ReceiverWakeUpCmd, .-USART_ReceiverWakeUpCmd
 706              		.align	1
 707              		.global	USART_WakeUpConfig
 708              		.thumb
 709              		.thumb_func
 710              		.type	USART_WakeUpConfig, %function
 711              	USART_WakeUpConfig:
 712              	.LFB123:
 647:.\stm32f4periph\src/stm32f4xx_usart.c ****   }
 648:.\stm32f4periph\src/stm32f4xx_usart.c **** }
 649:.\stm32f4periph\src/stm32f4xx_usart.c **** /**
 650:.\stm32f4periph\src/stm32f4xx_usart.c ****   * @brief  Selects the USART WakeUp method.
 651:.\stm32f4periph\src/stm32f4xx_usart.c ****   * @param  USARTx: where x can be 1, 2, 3, 4, 5 or 6 to select the USART or 
 652:.\stm32f4periph\src/stm32f4xx_usart.c ****   *         UART peripheral.
 653:.\stm32f4periph\src/stm32f4xx_usart.c ****   * @param  USART_WakeUp: specifies the USART wakeup method.
 654:.\stm32f4periph\src/stm32f4xx_usart.c ****   *          This parameter can be one of the following values:
 655:.\stm32f4periph\src/stm32f4xx_usart.c ****   *            @arg USART_WakeUp_IdleLine: WakeUp by an idle line detection
 656:.\stm32f4periph\src/stm32f4xx_usart.c ****   *            @arg USART_WakeUp_AddressMark: WakeUp by an address mark
 657:.\stm32f4periph\src/stm32f4xx_usart.c ****   * @retval None
 658:.\stm32f4periph\src/stm32f4xx_usart.c ****   */
 659:.\stm32f4periph\src/stm32f4xx_usart.c **** void USART_WakeUpConfig(USART_TypeDef* USARTx, uint16_t USART_WakeUp)
 660:.\stm32f4periph\src/stm32f4xx_usart.c **** {
 713              		.loc 1 660 0
 714              		.cfi_startproc
 715              		@ args = 0, pretend = 0, frame = 0
 716              		@ frame_needed = 0, uses_anonymous_args = 0
 717              		@ link register save eliminated.
 718              	.LVL60:
 661:.\stm32f4periph\src/stm32f4xx_usart.c ****   /* Check the parameters */
 662:.\stm32f4periph\src/stm32f4xx_usart.c ****   assert_param(IS_USART_ALL_PERIPH(USARTx));
 663:.\stm32f4periph\src/stm32f4xx_usart.c ****   assert_param(IS_USART_WAKEUP(USART_WakeUp));
 664:.\stm32f4periph\src/stm32f4xx_usart.c ****   
 665:.\stm32f4periph\src/stm32f4xx_usart.c ****   USARTx->CR1 &= (uint16_t)~((uint16_t)USART_CR1_WAKE);
 719              		.loc 1 665 0
 720 0234 8389     		ldrh	r3, [r0, #12]	@, USARTx_1(D)->CR1
 721 0236 23F40063 		bic	r3, r3, #2048	@ D.7555, USARTx_1(D)->CR1,
 722 023a 1B04     		lsls	r3, r3, #16	@ D.7555, D.7555,
 723 023c 1B0C     		lsrs	r3, r3, #16	@ D.7555, D.7555,
 724 023e 8381     		strh	r3, [r0, #12]	@ movhi	@ D.7555, USARTx_1(D)->CR1
 666:.\stm32f4periph\src/stm32f4xx_usart.c ****   USARTx->CR1 |= USART_WakeUp;
ARM GAS  C:\Users\Kevin\AppData\Local\Temp\ccW48Nb3.s 			page 26


 725              		.loc 1 666 0
 726 0240 8389     		ldrh	r3, [r0, #12]	@, USARTx_1(D)->CR1
 727 0242 9BB2     		uxth	r3, r3	@ D.7556, USARTx_1(D)->CR1
 728 0244 1943     		orrs	r1, r1, r3	@, D.7557, USART_WakeUp, D.7556
 729              	.LVL61:
 730 0246 8181     		strh	r1, [r0, #12]	@ movhi	@ D.7557, USARTx_1(D)->CR1
 731 0248 7047     		bx	lr	@
 732              		.cfi_endproc
 733              	.LFE123:
 734              		.size	USART_WakeUpConfig, .-USART_WakeUpConfig
 735              		.align	1
 736              		.global	USART_LINBreakDetectLengthConfig
 737              		.thumb
 738              		.thumb_func
 739              		.type	USART_LINBreakDetectLengthConfig, %function
 740              	USART_LINBreakDetectLengthConfig:
 741              	.LFB124:
 667:.\stm32f4periph\src/stm32f4xx_usart.c **** }
 668:.\stm32f4periph\src/stm32f4xx_usart.c **** 
 669:.\stm32f4periph\src/stm32f4xx_usart.c **** /**
 670:.\stm32f4periph\src/stm32f4xx_usart.c ****   * @}
 671:.\stm32f4periph\src/stm32f4xx_usart.c ****   */
 672:.\stm32f4periph\src/stm32f4xx_usart.c **** 
 673:.\stm32f4periph\src/stm32f4xx_usart.c **** /** @defgroup USART_Group4 LIN mode functions
 674:.\stm32f4periph\src/stm32f4xx_usart.c ****  *  @brief   LIN mode functions 
 675:.\stm32f4periph\src/stm32f4xx_usart.c ****  *
 676:.\stm32f4periph\src/stm32f4xx_usart.c **** @verbatim   
 677:.\stm32f4periph\src/stm32f4xx_usart.c ****  ===============================================================================
 678:.\stm32f4periph\src/stm32f4xx_usart.c ****                                 LIN mode functions
 679:.\stm32f4periph\src/stm32f4xx_usart.c ****  ===============================================================================  
 680:.\stm32f4periph\src/stm32f4xx_usart.c **** 
 681:.\stm32f4periph\src/stm32f4xx_usart.c ****   This subsection provides a set of functions allowing to manage the USART LIN 
 682:.\stm32f4periph\src/stm32f4xx_usart.c ****   Mode communication.
 683:.\stm32f4periph\src/stm32f4xx_usart.c ****   
 684:.\stm32f4periph\src/stm32f4xx_usart.c ****   In LIN mode, 8-bit data format with 1 stop bit is required in accordance with 
 685:.\stm32f4periph\src/stm32f4xx_usart.c ****   the LIN standard.
 686:.\stm32f4periph\src/stm32f4xx_usart.c **** 
 687:.\stm32f4periph\src/stm32f4xx_usart.c ****   Only this LIN Feature is supported by the USART IP:
 688:.\stm32f4periph\src/stm32f4xx_usart.c ****     - LIN Master Synchronous Break send capability and LIN slave break detection
 689:.\stm32f4periph\src/stm32f4xx_usart.c ****       capability :  13-bit break generation and 10/11 bit break detection
 690:.\stm32f4periph\src/stm32f4xx_usart.c **** 
 691:.\stm32f4periph\src/stm32f4xx_usart.c **** 
 692:.\stm32f4periph\src/stm32f4xx_usart.c ****   USART LIN Master transmitter communication is possible through the following procedure:
 693:.\stm32f4periph\src/stm32f4xx_usart.c ****      1. Program the Baud rate, Word length = 8bits, Stop bits = 1bit, Parity, 
 694:.\stm32f4periph\src/stm32f4xx_usart.c ****         Mode transmitter or Mode receiver and hardware flow control values using 
 695:.\stm32f4periph\src/stm32f4xx_usart.c ****         the USART_Init() function.
 696:.\stm32f4periph\src/stm32f4xx_usart.c ****      2. Enable the USART using the USART_Cmd() function.
 697:.\stm32f4periph\src/stm32f4xx_usart.c ****      3. Enable the LIN mode using the USART_LINCmd() function.
 698:.\stm32f4periph\src/stm32f4xx_usart.c ****      4. Send the break character using USART_SendBreak() function.
 699:.\stm32f4periph\src/stm32f4xx_usart.c **** 
 700:.\stm32f4periph\src/stm32f4xx_usart.c ****   USART LIN Master receiver communication is possible through the following procedure:
 701:.\stm32f4periph\src/stm32f4xx_usart.c ****      1. Program the Baud rate, Word length = 8bits, Stop bits = 1bit, Parity, 
 702:.\stm32f4periph\src/stm32f4xx_usart.c ****         Mode transmitter or Mode receiver and hardware flow control values using 
 703:.\stm32f4periph\src/stm32f4xx_usart.c ****         the USART_Init() function.
 704:.\stm32f4periph\src/stm32f4xx_usart.c ****      2. Enable the USART using the USART_Cmd() function.
 705:.\stm32f4periph\src/stm32f4xx_usart.c ****      3. Configures the break detection length using the USART_LINBreakDetectLengthConfig()
 706:.\stm32f4periph\src/stm32f4xx_usart.c ****         function.
ARM GAS  C:\Users\Kevin\AppData\Local\Temp\ccW48Nb3.s 			page 27


 707:.\stm32f4periph\src/stm32f4xx_usart.c ****      4. Enable the LIN mode using the USART_LINCmd() function.
 708:.\stm32f4periph\src/stm32f4xx_usart.c **** 
 709:.\stm32f4periph\src/stm32f4xx_usart.c **** 
 710:.\stm32f4periph\src/stm32f4xx_usart.c **** @note In LIN mode, the following bits must be kept cleared:
 711:.\stm32f4periph\src/stm32f4xx_usart.c ****         - CLKEN in the USART_CR2 register,
 712:.\stm32f4periph\src/stm32f4xx_usart.c ****         - STOP[1:0], SCEN, HDSEL and IREN in the USART_CR3 register.
 713:.\stm32f4periph\src/stm32f4xx_usart.c **** 
 714:.\stm32f4periph\src/stm32f4xx_usart.c **** @endverbatim
 715:.\stm32f4periph\src/stm32f4xx_usart.c ****   * @{
 716:.\stm32f4periph\src/stm32f4xx_usart.c ****   */
 717:.\stm32f4periph\src/stm32f4xx_usart.c **** 
 718:.\stm32f4periph\src/stm32f4xx_usart.c **** /**
 719:.\stm32f4periph\src/stm32f4xx_usart.c ****   * @brief  Sets the USART LIN Break detection length.
 720:.\stm32f4periph\src/stm32f4xx_usart.c ****   * @param  USARTx: where x can be 1, 2, 3, 4, 5 or 6 to select the USART or 
 721:.\stm32f4periph\src/stm32f4xx_usart.c ****   *         UART peripheral.
 722:.\stm32f4periph\src/stm32f4xx_usart.c ****   * @param  USART_LINBreakDetectLength: specifies the LIN break detection length.
 723:.\stm32f4periph\src/stm32f4xx_usart.c ****   *          This parameter can be one of the following values:
 724:.\stm32f4periph\src/stm32f4xx_usart.c ****   *            @arg USART_LINBreakDetectLength_10b: 10-bit break detection
 725:.\stm32f4periph\src/stm32f4xx_usart.c ****   *            @arg USART_LINBreakDetectLength_11b: 11-bit break detection
 726:.\stm32f4periph\src/stm32f4xx_usart.c ****   * @retval None
 727:.\stm32f4periph\src/stm32f4xx_usart.c ****   */
 728:.\stm32f4periph\src/stm32f4xx_usart.c **** void USART_LINBreakDetectLengthConfig(USART_TypeDef* USARTx, uint16_t USART_LINBreakDetectLength)
 729:.\stm32f4periph\src/stm32f4xx_usart.c **** {
 742              		.loc 1 729 0
 743              		.cfi_startproc
 744              		@ args = 0, pretend = 0, frame = 0
 745              		@ frame_needed = 0, uses_anonymous_args = 0
 746              		@ link register save eliminated.
 747              	.LVL62:
 730:.\stm32f4periph\src/stm32f4xx_usart.c ****   /* Check the parameters */
 731:.\stm32f4periph\src/stm32f4xx_usart.c ****   assert_param(IS_USART_ALL_PERIPH(USARTx));
 732:.\stm32f4periph\src/stm32f4xx_usart.c ****   assert_param(IS_USART_LIN_BREAK_DETECT_LENGTH(USART_LINBreakDetectLength));
 733:.\stm32f4periph\src/stm32f4xx_usart.c ****   
 734:.\stm32f4periph\src/stm32f4xx_usart.c ****   USARTx->CR2 &= (uint16_t)~((uint16_t)USART_CR2_LBDL);
 748              		.loc 1 734 0
 749 024a 038A     		ldrh	r3, [r0, #16]	@, USARTx_1(D)->CR2
 750 024c 23F02003 		bic	r3, r3, #32	@ D.7551, USARTx_1(D)->CR2,
 751 0250 1B04     		lsls	r3, r3, #16	@ D.7551, D.7551,
 752 0252 1B0C     		lsrs	r3, r3, #16	@ D.7551, D.7551,
 753 0254 0382     		strh	r3, [r0, #16]	@ movhi	@ D.7551, USARTx_1(D)->CR2
 735:.\stm32f4periph\src/stm32f4xx_usart.c ****   USARTx->CR2 |= USART_LINBreakDetectLength;  
 754              		.loc 1 735 0
 755 0256 038A     		ldrh	r3, [r0, #16]	@, USARTx_1(D)->CR2
 756 0258 9BB2     		uxth	r3, r3	@ D.7552, USARTx_1(D)->CR2
 757 025a 1943     		orrs	r1, r1, r3	@, D.7553, USART_LINBreakDetectLength, D.7552
 758              	.LVL63:
 759 025c 0182     		strh	r1, [r0, #16]	@ movhi	@ D.7553, USARTx_1(D)->CR2
 760 025e 7047     		bx	lr	@
 761              		.cfi_endproc
 762              	.LFE124:
 763              		.size	USART_LINBreakDetectLengthConfig, .-USART_LINBreakDetectLengthConfig
 764              		.align	1
 765              		.global	USART_LINCmd
 766              		.thumb
 767              		.thumb_func
 768              		.type	USART_LINCmd, %function
 769              	USART_LINCmd:
ARM GAS  C:\Users\Kevin\AppData\Local\Temp\ccW48Nb3.s 			page 28


 770              	.LFB125:
 736:.\stm32f4periph\src/stm32f4xx_usart.c **** }
 737:.\stm32f4periph\src/stm32f4xx_usart.c **** 
 738:.\stm32f4periph\src/stm32f4xx_usart.c **** /**
 739:.\stm32f4periph\src/stm32f4xx_usart.c ****   * @brief  Enables or disables the USART's LIN mode.
 740:.\stm32f4periph\src/stm32f4xx_usart.c ****   * @param  USARTx: where x can be 1, 2, 3, 4, 5 or 6 to select the USART or 
 741:.\stm32f4periph\src/stm32f4xx_usart.c ****   *         UART peripheral.
 742:.\stm32f4periph\src/stm32f4xx_usart.c ****   * @param  NewState: new state of the USART LIN mode.
 743:.\stm32f4periph\src/stm32f4xx_usart.c ****   *          This parameter can be: ENABLE or DISABLE.
 744:.\stm32f4periph\src/stm32f4xx_usart.c ****   * @retval None
 745:.\stm32f4periph\src/stm32f4xx_usart.c ****   */
 746:.\stm32f4periph\src/stm32f4xx_usart.c **** void USART_LINCmd(USART_TypeDef* USARTx, FunctionalState NewState)
 747:.\stm32f4periph\src/stm32f4xx_usart.c **** {
 771              		.loc 1 747 0
 772              		.cfi_startproc
 773              		@ args = 0, pretend = 0, frame = 0
 774              		@ frame_needed = 0, uses_anonymous_args = 0
 775              		@ link register save eliminated.
 776              	.LVL64:
 748:.\stm32f4periph\src/stm32f4xx_usart.c ****   /* Check the parameters */
 749:.\stm32f4periph\src/stm32f4xx_usart.c ****   assert_param(IS_USART_ALL_PERIPH(USARTx));
 750:.\stm32f4periph\src/stm32f4xx_usart.c ****   assert_param(IS_FUNCTIONAL_STATE(NewState));
 751:.\stm32f4periph\src/stm32f4xx_usart.c ****   
 752:.\stm32f4periph\src/stm32f4xx_usart.c ****   if (NewState != DISABLE)
 753:.\stm32f4periph\src/stm32f4xx_usart.c ****   {
 754:.\stm32f4periph\src/stm32f4xx_usart.c ****     /* Enable the LIN mode by setting the LINEN bit in the CR2 register */
 755:.\stm32f4periph\src/stm32f4xx_usart.c ****     USARTx->CR2 |= USART_CR2_LINEN;
 777              		.loc 1 755 0
 778 0260 038A     		ldrh	r3, [r0, #16]	@,
 752:.\stm32f4periph\src/stm32f4xx_usart.c ****   if (NewState != DISABLE)
 779              		.loc 1 752 0
 780 0262 19B1     		cbz	r1, .L50	@ NewState,
 781              		.loc 1 755 0
 782 0264 9BB2     		uxth	r3, r3	@ D.7545, USARTx_2(D)->CR2
 783 0266 43F48043 		orr	r3, r3, #16384	@ D.7546, D.7545,
 784 026a 03E0     		b	.L52	@
 785              	.L50:
 756:.\stm32f4periph\src/stm32f4xx_usart.c ****   }
 757:.\stm32f4periph\src/stm32f4xx_usart.c ****   else
 758:.\stm32f4periph\src/stm32f4xx_usart.c ****   {
 759:.\stm32f4periph\src/stm32f4xx_usart.c ****     /* Disable the LIN mode by clearing the LINEN bit in the CR2 register */
 760:.\stm32f4periph\src/stm32f4xx_usart.c ****     USARTx->CR2 &= (uint16_t)~((uint16_t)USART_CR2_LINEN);
 786              		.loc 1 760 0
 787 026c 23F48043 		bic	r3, r3, #16384	@ D.7549, USARTx_2(D)->CR2,
 788 0270 1B04     		lsls	r3, r3, #16	@ D.7549, D.7549,
 789 0272 1B0C     		lsrs	r3, r3, #16	@ D.7549, D.7549,
 790              	.L52:
 791 0274 0382     		strh	r3, [r0, #16]	@ movhi	@ D.7549,
 792 0276 7047     		bx	lr	@
 793              		.cfi_endproc
 794              	.LFE125:
 795              		.size	USART_LINCmd, .-USART_LINCmd
 796              		.align	1
 797              		.global	USART_SendBreak
 798              		.thumb
 799              		.thumb_func
 800              		.type	USART_SendBreak, %function
ARM GAS  C:\Users\Kevin\AppData\Local\Temp\ccW48Nb3.s 			page 29


 801              	USART_SendBreak:
 802              	.LFB126:
 761:.\stm32f4periph\src/stm32f4xx_usart.c ****   }
 762:.\stm32f4periph\src/stm32f4xx_usart.c **** }
 763:.\stm32f4periph\src/stm32f4xx_usart.c **** 
 764:.\stm32f4periph\src/stm32f4xx_usart.c **** /**
 765:.\stm32f4periph\src/stm32f4xx_usart.c ****   * @brief  Transmits break characters.
 766:.\stm32f4periph\src/stm32f4xx_usart.c ****   * @param  USARTx: where x can be 1, 2, 3, 4, 5 or 6 to select the USART or 
 767:.\stm32f4periph\src/stm32f4xx_usart.c ****   *         UART peripheral.
 768:.\stm32f4periph\src/stm32f4xx_usart.c ****   * @retval None
 769:.\stm32f4periph\src/stm32f4xx_usart.c ****   */
 770:.\stm32f4periph\src/stm32f4xx_usart.c **** void USART_SendBreak(USART_TypeDef* USARTx)
 771:.\stm32f4periph\src/stm32f4xx_usart.c **** {
 803              		.loc 1 771 0
 804              		.cfi_startproc
 805              		@ args = 0, pretend = 0, frame = 0
 806              		@ frame_needed = 0, uses_anonymous_args = 0
 807              		@ link register save eliminated.
 808              	.LVL65:
 772:.\stm32f4periph\src/stm32f4xx_usart.c ****   /* Check the parameters */
 773:.\stm32f4periph\src/stm32f4xx_usart.c ****   assert_param(IS_USART_ALL_PERIPH(USARTx));
 774:.\stm32f4periph\src/stm32f4xx_usart.c ****   
 775:.\stm32f4periph\src/stm32f4xx_usart.c ****   /* Send break characters */
 776:.\stm32f4periph\src/stm32f4xx_usart.c ****   USARTx->CR1 |= USART_CR1_SBK;
 809              		.loc 1 776 0
 810 0278 8389     		ldrh	r3, [r0, #12]	@, USARTx_1(D)->CR1
 811 027a 9BB2     		uxth	r3, r3	@ D.7541, USARTx_1(D)->CR1
 812 027c 43F00103 		orr	r3, r3, #1	@ D.7542, D.7541,
 813 0280 8381     		strh	r3, [r0, #12]	@ movhi	@ D.7542, USARTx_1(D)->CR1
 814 0282 7047     		bx	lr	@
 815              		.cfi_endproc
 816              	.LFE126:
 817              		.size	USART_SendBreak, .-USART_SendBreak
 818              		.align	1
 819              		.global	USART_HalfDuplexCmd
 820              		.thumb
 821              		.thumb_func
 822              		.type	USART_HalfDuplexCmd, %function
 823              	USART_HalfDuplexCmd:
 824              	.LFB127:
 777:.\stm32f4periph\src/stm32f4xx_usart.c **** }
 778:.\stm32f4periph\src/stm32f4xx_usart.c **** 
 779:.\stm32f4periph\src/stm32f4xx_usart.c **** /**
 780:.\stm32f4periph\src/stm32f4xx_usart.c ****   * @}
 781:.\stm32f4periph\src/stm32f4xx_usart.c ****   */
 782:.\stm32f4periph\src/stm32f4xx_usart.c **** 
 783:.\stm32f4periph\src/stm32f4xx_usart.c **** /** @defgroup USART_Group5 Halfduplex mode function
 784:.\stm32f4periph\src/stm32f4xx_usart.c ****  *  @brief   Half-duplex mode function 
 785:.\stm32f4periph\src/stm32f4xx_usart.c ****  *
 786:.\stm32f4periph\src/stm32f4xx_usart.c **** @verbatim   
 787:.\stm32f4periph\src/stm32f4xx_usart.c ****  ===============================================================================
 788:.\stm32f4periph\src/stm32f4xx_usart.c ****                          Half-duplex mode function
 789:.\stm32f4periph\src/stm32f4xx_usart.c ****  ===============================================================================  
 790:.\stm32f4periph\src/stm32f4xx_usart.c **** 
 791:.\stm32f4periph\src/stm32f4xx_usart.c ****   This subsection provides a set of functions allowing to manage the USART 
 792:.\stm32f4periph\src/stm32f4xx_usart.c ****   Half-duplex communication.
 793:.\stm32f4periph\src/stm32f4xx_usart.c ****   
ARM GAS  C:\Users\Kevin\AppData\Local\Temp\ccW48Nb3.s 			page 30


 794:.\stm32f4periph\src/stm32f4xx_usart.c ****   The USART can be configured to follow a single-wire half-duplex protocol where 
 795:.\stm32f4periph\src/stm32f4xx_usart.c ****   the TX and RX lines are internally connected.
 796:.\stm32f4periph\src/stm32f4xx_usart.c **** 
 797:.\stm32f4periph\src/stm32f4xx_usart.c ****   USART Half duplex communication is possible through the following procedure:
 798:.\stm32f4periph\src/stm32f4xx_usart.c ****      1. Program the Baud rate, Word length, Stop bits, Parity, Mode transmitter 
 799:.\stm32f4periph\src/stm32f4xx_usart.c ****         or Mode receiver and hardware flow control values using the USART_Init()
 800:.\stm32f4periph\src/stm32f4xx_usart.c ****         function.
 801:.\stm32f4periph\src/stm32f4xx_usart.c ****      2. Configures the USART address using the USART_SetAddress() function.
 802:.\stm32f4periph\src/stm32f4xx_usart.c ****      3. Enable the USART using the USART_Cmd() function.
 803:.\stm32f4periph\src/stm32f4xx_usart.c ****      4. Enable the half duplex mode using USART_HalfDuplexCmd() function.
 804:.\stm32f4periph\src/stm32f4xx_usart.c **** 
 805:.\stm32f4periph\src/stm32f4xx_usart.c **** 
 806:.\stm32f4periph\src/stm32f4xx_usart.c **** @note The RX pin is no longer used
 807:.\stm32f4periph\src/stm32f4xx_usart.c **** @note In Half-duplex mode the following bits must be kept cleared:
 808:.\stm32f4periph\src/stm32f4xx_usart.c ****         - LINEN and CLKEN bits in the USART_CR2 register.
 809:.\stm32f4periph\src/stm32f4xx_usart.c ****         - SCEN and IREN bits in the USART_CR3 register.
 810:.\stm32f4periph\src/stm32f4xx_usart.c **** 
 811:.\stm32f4periph\src/stm32f4xx_usart.c **** @endverbatim
 812:.\stm32f4periph\src/stm32f4xx_usart.c ****   * @{
 813:.\stm32f4periph\src/stm32f4xx_usart.c ****   */
 814:.\stm32f4periph\src/stm32f4xx_usart.c **** 
 815:.\stm32f4periph\src/stm32f4xx_usart.c **** /**
 816:.\stm32f4periph\src/stm32f4xx_usart.c ****   * @brief  Enables or disables the USART's Half Duplex communication.
 817:.\stm32f4periph\src/stm32f4xx_usart.c ****   * @param  USARTx: where x can be 1, 2, 3, 4, 5 or 6 to select the USART or 
 818:.\stm32f4periph\src/stm32f4xx_usart.c ****   *         UART peripheral.
 819:.\stm32f4periph\src/stm32f4xx_usart.c ****   * @param  NewState: new state of the USART Communication.
 820:.\stm32f4periph\src/stm32f4xx_usart.c ****   *          This parameter can be: ENABLE or DISABLE.
 821:.\stm32f4periph\src/stm32f4xx_usart.c ****   * @retval None
 822:.\stm32f4periph\src/stm32f4xx_usart.c ****   */
 823:.\stm32f4periph\src/stm32f4xx_usart.c **** void USART_HalfDuplexCmd(USART_TypeDef* USARTx, FunctionalState NewState)
 824:.\stm32f4periph\src/stm32f4xx_usart.c **** {
 825              		.loc 1 824 0
 826              		.cfi_startproc
 827              		@ args = 0, pretend = 0, frame = 0
 828              		@ frame_needed = 0, uses_anonymous_args = 0
 829              		@ link register save eliminated.
 830              	.LVL66:
 825:.\stm32f4periph\src/stm32f4xx_usart.c ****   /* Check the parameters */
 826:.\stm32f4periph\src/stm32f4xx_usart.c ****   assert_param(IS_USART_ALL_PERIPH(USARTx));
 827:.\stm32f4periph\src/stm32f4xx_usart.c ****   assert_param(IS_FUNCTIONAL_STATE(NewState));
 828:.\stm32f4periph\src/stm32f4xx_usart.c ****   
 829:.\stm32f4periph\src/stm32f4xx_usart.c ****   if (NewState != DISABLE)
 830:.\stm32f4periph\src/stm32f4xx_usart.c ****   {
 831:.\stm32f4periph\src/stm32f4xx_usart.c ****     /* Enable the Half-Duplex mode by setting the HDSEL bit in the CR3 register */
 832:.\stm32f4periph\src/stm32f4xx_usart.c ****     USARTx->CR3 |= USART_CR3_HDSEL;
 831              		.loc 1 832 0
 832 0284 838A     		ldrh	r3, [r0, #20]	@,
 829:.\stm32f4periph\src/stm32f4xx_usart.c ****   if (NewState != DISABLE)
 833              		.loc 1 829 0
 834 0286 19B1     		cbz	r1, .L55	@ NewState,
 835              		.loc 1 832 0
 836 0288 9BB2     		uxth	r3, r3	@ D.7536, USARTx_2(D)->CR3
 837 028a 43F00803 		orr	r3, r3, #8	@ D.7537, D.7536,
 838 028e 03E0     		b	.L57	@
 839              	.L55:
 833:.\stm32f4periph\src/stm32f4xx_usart.c ****   }
 834:.\stm32f4periph\src/stm32f4xx_usart.c ****   else
ARM GAS  C:\Users\Kevin\AppData\Local\Temp\ccW48Nb3.s 			page 31


 835:.\stm32f4periph\src/stm32f4xx_usart.c ****   {
 836:.\stm32f4periph\src/stm32f4xx_usart.c ****     /* Disable the Half-Duplex mode by clearing the HDSEL bit in the CR3 register */
 837:.\stm32f4periph\src/stm32f4xx_usart.c ****     USARTx->CR3 &= (uint16_t)~((uint16_t)USART_CR3_HDSEL);
 840              		.loc 1 837 0
 841 0290 23F00803 		bic	r3, r3, #8	@ D.7540, USARTx_2(D)->CR3,
 842 0294 1B04     		lsls	r3, r3, #16	@ D.7540, D.7540,
 843 0296 1B0C     		lsrs	r3, r3, #16	@ D.7540, D.7540,
 844              	.L57:
 845 0298 8382     		strh	r3, [r0, #20]	@ movhi	@ D.7540,
 846 029a 7047     		bx	lr	@
 847              		.cfi_endproc
 848              	.LFE127:
 849              		.size	USART_HalfDuplexCmd, .-USART_HalfDuplexCmd
 850              		.align	1
 851              		.global	USART_SetGuardTime
 852              		.thumb
 853              		.thumb_func
 854              		.type	USART_SetGuardTime, %function
 855              	USART_SetGuardTime:
 856              	.LFB128:
 838:.\stm32f4periph\src/stm32f4xx_usart.c ****   }
 839:.\stm32f4periph\src/stm32f4xx_usart.c **** }
 840:.\stm32f4periph\src/stm32f4xx_usart.c **** 
 841:.\stm32f4periph\src/stm32f4xx_usart.c **** /**
 842:.\stm32f4periph\src/stm32f4xx_usart.c ****   * @}
 843:.\stm32f4periph\src/stm32f4xx_usart.c ****   */
 844:.\stm32f4periph\src/stm32f4xx_usart.c **** 
 845:.\stm32f4periph\src/stm32f4xx_usart.c **** 
 846:.\stm32f4periph\src/stm32f4xx_usart.c **** /** @defgroup USART_Group6 Smartcard mode functions
 847:.\stm32f4periph\src/stm32f4xx_usart.c ****  *  @brief   Smartcard mode functions 
 848:.\stm32f4periph\src/stm32f4xx_usart.c ****  *
 849:.\stm32f4periph\src/stm32f4xx_usart.c **** @verbatim   
 850:.\stm32f4periph\src/stm32f4xx_usart.c ****  ===============================================================================
 851:.\stm32f4periph\src/stm32f4xx_usart.c ****                                Smartcard mode functions
 852:.\stm32f4periph\src/stm32f4xx_usart.c ****  ===============================================================================  
 853:.\stm32f4periph\src/stm32f4xx_usart.c **** 
 854:.\stm32f4periph\src/stm32f4xx_usart.c ****   This subsection provides a set of functions allowing to manage the USART 
 855:.\stm32f4periph\src/stm32f4xx_usart.c ****   Smartcard communication.
 856:.\stm32f4periph\src/stm32f4xx_usart.c ****   
 857:.\stm32f4periph\src/stm32f4xx_usart.c ****   The Smartcard interface is designed to support asynchronous protocol Smartcards as
 858:.\stm32f4periph\src/stm32f4xx_usart.c ****   defined in the ISO 7816-3 standard.
 859:.\stm32f4periph\src/stm32f4xx_usart.c **** 
 860:.\stm32f4periph\src/stm32f4xx_usart.c ****   The USART can provide a clock to the smartcard through the SCLK output.
 861:.\stm32f4periph\src/stm32f4xx_usart.c ****   In smartcard mode, SCLK is not associated to the communication but is simply derived 
 862:.\stm32f4periph\src/stm32f4xx_usart.c ****   from the internal peripheral input clock through a 5-bit prescaler.
 863:.\stm32f4periph\src/stm32f4xx_usart.c **** 
 864:.\stm32f4periph\src/stm32f4xx_usart.c ****   Smartcard communication is possible through the following procedure:
 865:.\stm32f4periph\src/stm32f4xx_usart.c ****      1. Configures the Smartcard Prescaler using the USART_SetPrescaler() function.
 866:.\stm32f4periph\src/stm32f4xx_usart.c ****      2. Configures the Smartcard Guard Time using the USART_SetGuardTime() function.
 867:.\stm32f4periph\src/stm32f4xx_usart.c ****      3. Program the USART clock using the USART_ClockInit() function as following:
 868:.\stm32f4periph\src/stm32f4xx_usart.c ****         - USART Clock enabled
 869:.\stm32f4periph\src/stm32f4xx_usart.c ****         - USART CPOL Low
 870:.\stm32f4periph\src/stm32f4xx_usart.c ****         - USART CPHA on first edge
 871:.\stm32f4periph\src/stm32f4xx_usart.c ****         - USART Last Bit Clock Enabled
 872:.\stm32f4periph\src/stm32f4xx_usart.c ****      4. Program the Smartcard interface using the USART_Init() function as following:
 873:.\stm32f4periph\src/stm32f4xx_usart.c ****         - Word Length = 9 Bits
 874:.\stm32f4periph\src/stm32f4xx_usart.c ****         - 1.5 Stop Bit
ARM GAS  C:\Users\Kevin\AppData\Local\Temp\ccW48Nb3.s 			page 32


 875:.\stm32f4periph\src/stm32f4xx_usart.c ****         - Even parity
 876:.\stm32f4periph\src/stm32f4xx_usart.c ****         - BaudRate = 12096 baud
 877:.\stm32f4periph\src/stm32f4xx_usart.c ****         - Hardware flow control disabled (RTS and CTS signals)
 878:.\stm32f4periph\src/stm32f4xx_usart.c ****         - Tx and Rx enabled
 879:.\stm32f4periph\src/stm32f4xx_usart.c ****      5. Optionally you can enable the parity error interrupt using the USART_ITConfig()
 880:.\stm32f4periph\src/stm32f4xx_usart.c ****         function
 881:.\stm32f4periph\src/stm32f4xx_usart.c ****      6. Enable the USART using the USART_Cmd() function.
 882:.\stm32f4periph\src/stm32f4xx_usart.c ****      7. Enable the Smartcard NACK using the USART_SmartCardNACKCmd() function.
 883:.\stm32f4periph\src/stm32f4xx_usart.c ****      8. Enable the Smartcard interface using the USART_SmartCardCmd() function.
 884:.\stm32f4periph\src/stm32f4xx_usart.c **** 
 885:.\stm32f4periph\src/stm32f4xx_usart.c ****   Please refer to the ISO 7816-3 specification for more details.
 886:.\stm32f4periph\src/stm32f4xx_usart.c **** 
 887:.\stm32f4periph\src/stm32f4xx_usart.c **** 
 888:.\stm32f4periph\src/stm32f4xx_usart.c **** @note It is also possible to choose 0.5 stop bit for receiving but it is recommended 
 889:.\stm32f4periph\src/stm32f4xx_usart.c ****       to use 1.5 stop bits for both transmitting and receiving to avoid switching 
 890:.\stm32f4periph\src/stm32f4xx_usart.c ****       between the two configurations.
 891:.\stm32f4periph\src/stm32f4xx_usart.c **** @note In smartcard mode, the following bits must be kept cleared:
 892:.\stm32f4periph\src/stm32f4xx_usart.c ****         - LINEN bit in the USART_CR2 register.
 893:.\stm32f4periph\src/stm32f4xx_usart.c ****         - HDSEL and IREN bits in the USART_CR3 register.
 894:.\stm32f4periph\src/stm32f4xx_usart.c **** @note Smartcard mode is available on USART peripherals only (not available on UART4 
 895:.\stm32f4periph\src/stm32f4xx_usart.c ****       and UART5 peripherals).
 896:.\stm32f4periph\src/stm32f4xx_usart.c **** 
 897:.\stm32f4periph\src/stm32f4xx_usart.c **** @endverbatim
 898:.\stm32f4periph\src/stm32f4xx_usart.c ****   * @{
 899:.\stm32f4periph\src/stm32f4xx_usart.c ****   */
 900:.\stm32f4periph\src/stm32f4xx_usart.c **** 
 901:.\stm32f4periph\src/stm32f4xx_usart.c **** /**
 902:.\stm32f4periph\src/stm32f4xx_usart.c ****   * @brief  Sets the specified USART guard time.
 903:.\stm32f4periph\src/stm32f4xx_usart.c ****   * @param  USARTx: where x can be 1, 2, 3 or 6 to select the USART or 
 904:.\stm32f4periph\src/stm32f4xx_usart.c ****   *         UART peripheral.
 905:.\stm32f4periph\src/stm32f4xx_usart.c ****   * @param  USART_GuardTime: specifies the guard time.   
 906:.\stm32f4periph\src/stm32f4xx_usart.c ****   * @retval None
 907:.\stm32f4periph\src/stm32f4xx_usart.c ****   */
 908:.\stm32f4periph\src/stm32f4xx_usart.c **** void USART_SetGuardTime(USART_TypeDef* USARTx, uint8_t USART_GuardTime)
 909:.\stm32f4periph\src/stm32f4xx_usart.c **** {    
 857              		.loc 1 909 0
 858              		.cfi_startproc
 859              		@ args = 0, pretend = 0, frame = 0
 860              		@ frame_needed = 0, uses_anonymous_args = 0
 861              		@ link register save eliminated.
 862              	.LVL67:
 910:.\stm32f4periph\src/stm32f4xx_usart.c ****   /* Check the parameters */
 911:.\stm32f4periph\src/stm32f4xx_usart.c ****   assert_param(IS_USART_1236_PERIPH(USARTx));
 912:.\stm32f4periph\src/stm32f4xx_usart.c ****   
 913:.\stm32f4periph\src/stm32f4xx_usart.c ****   /* Clear the USART Guard time */
 914:.\stm32f4periph\src/stm32f4xx_usart.c ****   USARTx->GTPR &= USART_GTPR_PSC;
 863              		.loc 1 914 0
 864 029c 038B     		ldrh	r3, [r0, #24]	@, USARTx_1(D)->GTPR
 865 029e DBB2     		uxtb	r3, r3	@ D.7529, USARTx_1(D)->GTPR
 866 02a0 0383     		strh	r3, [r0, #24]	@ movhi	@ D.7529, USARTx_1(D)->GTPR
 915:.\stm32f4periph\src/stm32f4xx_usart.c ****   /* Set the USART guard time */
 916:.\stm32f4periph\src/stm32f4xx_usart.c ****   USARTx->GTPR |= (uint16_t)((uint16_t)USART_GuardTime << 0x08);
 867              		.loc 1 916 0
 868 02a2 038B     		ldrh	r3, [r0, #24]	@, USARTx_1(D)->GTPR
 869 02a4 9BB2     		uxth	r3, r3	@ D.7530, USARTx_1(D)->GTPR
 870 02a6 43EA0121 		orr	r1, r3, r1, lsl #8	@, D.7533, D.7530, USART_GuardTime,
 871              	.LVL68:
ARM GAS  C:\Users\Kevin\AppData\Local\Temp\ccW48Nb3.s 			page 33


 872 02aa 0183     		strh	r1, [r0, #24]	@ movhi	@ D.7533, USARTx_1(D)->GTPR
 873 02ac 7047     		bx	lr	@
 874              		.cfi_endproc
 875              	.LFE128:
 876              		.size	USART_SetGuardTime, .-USART_SetGuardTime
 877              		.align	1
 878              		.global	USART_SmartCardCmd
 879              		.thumb
 880              		.thumb_func
 881              		.type	USART_SmartCardCmd, %function
 882              	USART_SmartCardCmd:
 883              	.LFB129:
 917:.\stm32f4periph\src/stm32f4xx_usart.c **** }
 918:.\stm32f4periph\src/stm32f4xx_usart.c **** 
 919:.\stm32f4periph\src/stm32f4xx_usart.c **** /**
 920:.\stm32f4periph\src/stm32f4xx_usart.c ****   * @brief  Enables or disables the USART's Smart Card mode.
 921:.\stm32f4periph\src/stm32f4xx_usart.c ****   * @param  USARTx: where x can be 1, 2, 3 or 6 to select the USART or 
 922:.\stm32f4periph\src/stm32f4xx_usart.c ****   *         UART peripheral.
 923:.\stm32f4periph\src/stm32f4xx_usart.c ****   * @param  NewState: new state of the Smart Card mode.
 924:.\stm32f4periph\src/stm32f4xx_usart.c ****   *          This parameter can be: ENABLE or DISABLE.      
 925:.\stm32f4periph\src/stm32f4xx_usart.c ****   * @retval None
 926:.\stm32f4periph\src/stm32f4xx_usart.c ****   */
 927:.\stm32f4periph\src/stm32f4xx_usart.c **** void USART_SmartCardCmd(USART_TypeDef* USARTx, FunctionalState NewState)
 928:.\stm32f4periph\src/stm32f4xx_usart.c **** {
 884              		.loc 1 928 0
 885              		.cfi_startproc
 886              		@ args = 0, pretend = 0, frame = 0
 887              		@ frame_needed = 0, uses_anonymous_args = 0
 888              		@ link register save eliminated.
 889              	.LVL69:
 929:.\stm32f4periph\src/stm32f4xx_usart.c ****   /* Check the parameters */
 930:.\stm32f4periph\src/stm32f4xx_usart.c ****   assert_param(IS_USART_1236_PERIPH(USARTx));
 931:.\stm32f4periph\src/stm32f4xx_usart.c ****   assert_param(IS_FUNCTIONAL_STATE(NewState));
 932:.\stm32f4periph\src/stm32f4xx_usart.c ****   if (NewState != DISABLE)
 933:.\stm32f4periph\src/stm32f4xx_usart.c ****   {
 934:.\stm32f4periph\src/stm32f4xx_usart.c ****     /* Enable the SC mode by setting the SCEN bit in the CR3 register */
 935:.\stm32f4periph\src/stm32f4xx_usart.c ****     USARTx->CR3 |= USART_CR3_SCEN;
 890              		.loc 1 935 0
 891 02ae 838A     		ldrh	r3, [r0, #20]	@,
 932:.\stm32f4periph\src/stm32f4xx_usart.c ****   if (NewState != DISABLE)
 892              		.loc 1 932 0
 893 02b0 19B1     		cbz	r1, .L60	@ NewState,
 894              		.loc 1 935 0
 895 02b2 9BB2     		uxth	r3, r3	@ D.7523, USARTx_2(D)->CR3
 896 02b4 43F02003 		orr	r3, r3, #32	@ D.7524, D.7523,
 897 02b8 03E0     		b	.L62	@
 898              	.L60:
 936:.\stm32f4periph\src/stm32f4xx_usart.c ****   }
 937:.\stm32f4periph\src/stm32f4xx_usart.c ****   else
 938:.\stm32f4periph\src/stm32f4xx_usart.c ****   {
 939:.\stm32f4periph\src/stm32f4xx_usart.c ****     /* Disable the SC mode by clearing the SCEN bit in the CR3 register */
 940:.\stm32f4periph\src/stm32f4xx_usart.c ****     USARTx->CR3 &= (uint16_t)~((uint16_t)USART_CR3_SCEN);
 899              		.loc 1 940 0
 900 02ba 23F02003 		bic	r3, r3, #32	@ D.7527, USARTx_2(D)->CR3,
 901 02be 1B04     		lsls	r3, r3, #16	@ D.7527, D.7527,
 902 02c0 1B0C     		lsrs	r3, r3, #16	@ D.7527, D.7527,
 903              	.L62:
ARM GAS  C:\Users\Kevin\AppData\Local\Temp\ccW48Nb3.s 			page 34


 904 02c2 8382     		strh	r3, [r0, #20]	@ movhi	@ D.7527,
 905 02c4 7047     		bx	lr	@
 906              		.cfi_endproc
 907              	.LFE129:
 908              		.size	USART_SmartCardCmd, .-USART_SmartCardCmd
 909              		.align	1
 910              		.global	USART_SmartCardNACKCmd
 911              		.thumb
 912              		.thumb_func
 913              		.type	USART_SmartCardNACKCmd, %function
 914              	USART_SmartCardNACKCmd:
 915              	.LFB130:
 941:.\stm32f4periph\src/stm32f4xx_usart.c ****   }
 942:.\stm32f4periph\src/stm32f4xx_usart.c **** }
 943:.\stm32f4periph\src/stm32f4xx_usart.c **** 
 944:.\stm32f4periph\src/stm32f4xx_usart.c **** /**
 945:.\stm32f4periph\src/stm32f4xx_usart.c ****   * @brief  Enables or disables NACK transmission.
 946:.\stm32f4periph\src/stm32f4xx_usart.c ****   * @param  USARTx: where x can be 1, 2, 3 or 6 to select the USART or 
 947:.\stm32f4periph\src/stm32f4xx_usart.c ****   *         UART peripheral.
 948:.\stm32f4periph\src/stm32f4xx_usart.c ****   * @param  NewState: new state of the NACK transmission.
 949:.\stm32f4periph\src/stm32f4xx_usart.c ****   *          This parameter can be: ENABLE or DISABLE.  
 950:.\stm32f4periph\src/stm32f4xx_usart.c ****   * @retval None
 951:.\stm32f4periph\src/stm32f4xx_usart.c ****   */
 952:.\stm32f4periph\src/stm32f4xx_usart.c **** void USART_SmartCardNACKCmd(USART_TypeDef* USARTx, FunctionalState NewState)
 953:.\stm32f4periph\src/stm32f4xx_usart.c **** {
 916              		.loc 1 953 0
 917              		.cfi_startproc
 918              		@ args = 0, pretend = 0, frame = 0
 919              		@ frame_needed = 0, uses_anonymous_args = 0
 920              		@ link register save eliminated.
 921              	.LVL70:
 954:.\stm32f4periph\src/stm32f4xx_usart.c ****   /* Check the parameters */
 955:.\stm32f4periph\src/stm32f4xx_usart.c ****   assert_param(IS_USART_1236_PERIPH(USARTx)); 
 956:.\stm32f4periph\src/stm32f4xx_usart.c ****   assert_param(IS_FUNCTIONAL_STATE(NewState));
 957:.\stm32f4periph\src/stm32f4xx_usart.c ****   if (NewState != DISABLE)
 958:.\stm32f4periph\src/stm32f4xx_usart.c ****   {
 959:.\stm32f4periph\src/stm32f4xx_usart.c ****     /* Enable the NACK transmission by setting the NACK bit in the CR3 register */
 960:.\stm32f4periph\src/stm32f4xx_usart.c ****     USARTx->CR3 |= USART_CR3_NACK;
 922              		.loc 1 960 0
 923 02c6 838A     		ldrh	r3, [r0, #20]	@,
 957:.\stm32f4periph\src/stm32f4xx_usart.c ****   if (NewState != DISABLE)
 924              		.loc 1 957 0
 925 02c8 19B1     		cbz	r1, .L64	@ NewState,
 926              		.loc 1 960 0
 927 02ca 9BB2     		uxth	r3, r3	@ D.7516, USARTx_2(D)->CR3
 928 02cc 43F01003 		orr	r3, r3, #16	@ D.7517, D.7516,
 929 02d0 03E0     		b	.L66	@
 930              	.L64:
 961:.\stm32f4periph\src/stm32f4xx_usart.c ****   }
 962:.\stm32f4periph\src/stm32f4xx_usart.c ****   else
 963:.\stm32f4periph\src/stm32f4xx_usart.c ****   {
 964:.\stm32f4periph\src/stm32f4xx_usart.c ****     /* Disable the NACK transmission by clearing the NACK bit in the CR3 register */
 965:.\stm32f4periph\src/stm32f4xx_usart.c ****     USARTx->CR3 &= (uint16_t)~((uint16_t)USART_CR3_NACK);
 931              		.loc 1 965 0
 932 02d2 23F01003 		bic	r3, r3, #16	@ D.7520, USARTx_2(D)->CR3,
 933 02d6 1B04     		lsls	r3, r3, #16	@ D.7520, D.7520,
 934 02d8 1B0C     		lsrs	r3, r3, #16	@ D.7520, D.7520,
ARM GAS  C:\Users\Kevin\AppData\Local\Temp\ccW48Nb3.s 			page 35


 935              	.L66:
 936 02da 8382     		strh	r3, [r0, #20]	@ movhi	@ D.7520,
 937 02dc 7047     		bx	lr	@
 938              		.cfi_endproc
 939              	.LFE130:
 940              		.size	USART_SmartCardNACKCmd, .-USART_SmartCardNACKCmd
 941              		.align	1
 942              		.global	USART_IrDAConfig
 943              		.thumb
 944              		.thumb_func
 945              		.type	USART_IrDAConfig, %function
 946              	USART_IrDAConfig:
 947              	.LFB131:
 966:.\stm32f4periph\src/stm32f4xx_usart.c ****   }
 967:.\stm32f4periph\src/stm32f4xx_usart.c **** }
 968:.\stm32f4periph\src/stm32f4xx_usart.c **** 
 969:.\stm32f4periph\src/stm32f4xx_usart.c **** /**
 970:.\stm32f4periph\src/stm32f4xx_usart.c ****   * @}
 971:.\stm32f4periph\src/stm32f4xx_usart.c ****   */
 972:.\stm32f4periph\src/stm32f4xx_usart.c **** 
 973:.\stm32f4periph\src/stm32f4xx_usart.c **** /** @defgroup USART_Group7 IrDA mode functions
 974:.\stm32f4periph\src/stm32f4xx_usart.c ****  *  @brief   IrDA mode functions 
 975:.\stm32f4periph\src/stm32f4xx_usart.c ****  *
 976:.\stm32f4periph\src/stm32f4xx_usart.c **** @verbatim   
 977:.\stm32f4periph\src/stm32f4xx_usart.c ****  ===============================================================================
 978:.\stm32f4periph\src/stm32f4xx_usart.c ****                                 IrDA mode functions
 979:.\stm32f4periph\src/stm32f4xx_usart.c ****  ===============================================================================  
 980:.\stm32f4periph\src/stm32f4xx_usart.c **** 
 981:.\stm32f4periph\src/stm32f4xx_usart.c ****   This subsection provides a set of functions allowing to manage the USART 
 982:.\stm32f4periph\src/stm32f4xx_usart.c ****   IrDA communication.
 983:.\stm32f4periph\src/stm32f4xx_usart.c ****   
 984:.\stm32f4periph\src/stm32f4xx_usart.c ****   IrDA is a half duplex communication protocol. If the Transmitter is busy, any data
 985:.\stm32f4periph\src/stm32f4xx_usart.c ****   on the IrDA receive line will be ignored by the IrDA decoder and if the Receiver 
 986:.\stm32f4periph\src/stm32f4xx_usart.c ****   is busy, data on the TX from the USART to IrDA will not be encoded by IrDA.
 987:.\stm32f4periph\src/stm32f4xx_usart.c ****   While receiving data, transmission should be avoided as the data to be transmitted
 988:.\stm32f4periph\src/stm32f4xx_usart.c ****   could be corrupted.
 989:.\stm32f4periph\src/stm32f4xx_usart.c **** 
 990:.\stm32f4periph\src/stm32f4xx_usart.c ****   IrDA communication is possible through the following procedure:
 991:.\stm32f4periph\src/stm32f4xx_usart.c ****      1. Program the Baud rate, Word length = 8 bits, Stop bits, Parity, Transmitter/Receiver 
 992:.\stm32f4periph\src/stm32f4xx_usart.c ****         modes and hardware flow control values using the USART_Init() function.
 993:.\stm32f4periph\src/stm32f4xx_usart.c ****      2. Enable the USART using the USART_Cmd() function.
 994:.\stm32f4periph\src/stm32f4xx_usart.c ****      3. Configures the IrDA pulse width by configuring the prescaler using  
 995:.\stm32f4periph\src/stm32f4xx_usart.c ****         the USART_SetPrescaler() function.
 996:.\stm32f4periph\src/stm32f4xx_usart.c ****      4. Configures the IrDA  USART_IrDAMode_LowPower or USART_IrDAMode_Normal mode
 997:.\stm32f4periph\src/stm32f4xx_usart.c ****         using the USART_IrDAConfig() function.
 998:.\stm32f4periph\src/stm32f4xx_usart.c ****      5. Enable the IrDA using the USART_IrDACmd() function.
 999:.\stm32f4periph\src/stm32f4xx_usart.c **** 
1000:.\stm32f4periph\src/stm32f4xx_usart.c **** @note A pulse of width less than two and greater than one PSC period(s) may or may
1001:.\stm32f4periph\src/stm32f4xx_usart.c ****       not be rejected.
1002:.\stm32f4periph\src/stm32f4xx_usart.c **** @note The receiver set up time should be managed by software. The IrDA physical layer
1003:.\stm32f4periph\src/stm32f4xx_usart.c ****       specification specifies a minimum of 10 ms delay between transmission and 
1004:.\stm32f4periph\src/stm32f4xx_usart.c ****       reception (IrDA is a half duplex protocol).
1005:.\stm32f4periph\src/stm32f4xx_usart.c **** @note In IrDA mode, the following bits must be kept cleared:
1006:.\stm32f4periph\src/stm32f4xx_usart.c ****         - LINEN, STOP and CLKEN bits in the USART_CR2 register.
1007:.\stm32f4periph\src/stm32f4xx_usart.c ****         - SCEN and HDSEL bits in the USART_CR3 register.
1008:.\stm32f4periph\src/stm32f4xx_usart.c **** 
1009:.\stm32f4periph\src/stm32f4xx_usart.c **** @endverbatim
ARM GAS  C:\Users\Kevin\AppData\Local\Temp\ccW48Nb3.s 			page 36


1010:.\stm32f4periph\src/stm32f4xx_usart.c ****   * @{
1011:.\stm32f4periph\src/stm32f4xx_usart.c ****   */
1012:.\stm32f4periph\src/stm32f4xx_usart.c **** 
1013:.\stm32f4periph\src/stm32f4xx_usart.c **** /**
1014:.\stm32f4periph\src/stm32f4xx_usart.c ****   * @brief  Configures the USART's IrDA interface.
1015:.\stm32f4periph\src/stm32f4xx_usart.c ****   * @param  USARTx: where x can be 1, 2, 3, 4, 5 or 6 to select the USART or 
1016:.\stm32f4periph\src/stm32f4xx_usart.c ****   *         UART peripheral.
1017:.\stm32f4periph\src/stm32f4xx_usart.c ****   * @param  USART_IrDAMode: specifies the IrDA mode.
1018:.\stm32f4periph\src/stm32f4xx_usart.c ****   *          This parameter can be one of the following values:
1019:.\stm32f4periph\src/stm32f4xx_usart.c ****   *            @arg USART_IrDAMode_LowPower
1020:.\stm32f4periph\src/stm32f4xx_usart.c ****   *            @arg USART_IrDAMode_Normal
1021:.\stm32f4periph\src/stm32f4xx_usart.c ****   * @retval None
1022:.\stm32f4periph\src/stm32f4xx_usart.c ****   */
1023:.\stm32f4periph\src/stm32f4xx_usart.c **** void USART_IrDAConfig(USART_TypeDef* USARTx, uint16_t USART_IrDAMode)
1024:.\stm32f4periph\src/stm32f4xx_usart.c **** {
 948              		.loc 1 1024 0
 949              		.cfi_startproc
 950              		@ args = 0, pretend = 0, frame = 0
 951              		@ frame_needed = 0, uses_anonymous_args = 0
 952              		@ link register save eliminated.
 953              	.LVL71:
1025:.\stm32f4periph\src/stm32f4xx_usart.c ****   /* Check the parameters */
1026:.\stm32f4periph\src/stm32f4xx_usart.c ****   assert_param(IS_USART_ALL_PERIPH(USARTx));
1027:.\stm32f4periph\src/stm32f4xx_usart.c ****   assert_param(IS_USART_IRDA_MODE(USART_IrDAMode));
1028:.\stm32f4periph\src/stm32f4xx_usart.c ****     
1029:.\stm32f4periph\src/stm32f4xx_usart.c ****   USARTx->CR3 &= (uint16_t)~((uint16_t)USART_CR3_IRLP);
 954              		.loc 1 1029 0
 955 02de 838A     		ldrh	r3, [r0, #20]	@, USARTx_1(D)->CR3
 956 02e0 23F00403 		bic	r3, r3, #4	@ D.7511, USARTx_1(D)->CR3,
 957 02e4 1B04     		lsls	r3, r3, #16	@ D.7511, D.7511,
 958 02e6 1B0C     		lsrs	r3, r3, #16	@ D.7511, D.7511,
 959 02e8 8382     		strh	r3, [r0, #20]	@ movhi	@ D.7511, USARTx_1(D)->CR3
1030:.\stm32f4periph\src/stm32f4xx_usart.c ****   USARTx->CR3 |= USART_IrDAMode;
 960              		.loc 1 1030 0
 961 02ea 838A     		ldrh	r3, [r0, #20]	@, USARTx_1(D)->CR3
 962 02ec 9BB2     		uxth	r3, r3	@ D.7512, USARTx_1(D)->CR3
 963 02ee 1943     		orrs	r1, r1, r3	@, D.7513, USART_IrDAMode, D.7512
 964              	.LVL72:
 965 02f0 8182     		strh	r1, [r0, #20]	@ movhi	@ D.7513, USARTx_1(D)->CR3
 966 02f2 7047     		bx	lr	@
 967              		.cfi_endproc
 968              	.LFE131:
 969              		.size	USART_IrDAConfig, .-USART_IrDAConfig
 970              		.align	1
 971              		.global	USART_IrDACmd
 972              		.thumb
 973              		.thumb_func
 974              		.type	USART_IrDACmd, %function
 975              	USART_IrDACmd:
 976              	.LFB132:
1031:.\stm32f4periph\src/stm32f4xx_usart.c **** }
1032:.\stm32f4periph\src/stm32f4xx_usart.c **** 
1033:.\stm32f4periph\src/stm32f4xx_usart.c **** /**
1034:.\stm32f4periph\src/stm32f4xx_usart.c ****   * @brief  Enables or disables the USART's IrDA interface.
1035:.\stm32f4periph\src/stm32f4xx_usart.c ****   * @param  USARTx: where x can be 1, 2, 3, 4, 5 or 6 to select the USART or 
1036:.\stm32f4periph\src/stm32f4xx_usart.c ****   *         UART peripheral.
1037:.\stm32f4periph\src/stm32f4xx_usart.c ****   * @param  NewState: new state of the IrDA mode.
ARM GAS  C:\Users\Kevin\AppData\Local\Temp\ccW48Nb3.s 			page 37


1038:.\stm32f4periph\src/stm32f4xx_usart.c ****   *          This parameter can be: ENABLE or DISABLE.
1039:.\stm32f4periph\src/stm32f4xx_usart.c ****   * @retval None
1040:.\stm32f4periph\src/stm32f4xx_usart.c ****   */
1041:.\stm32f4periph\src/stm32f4xx_usart.c **** void USART_IrDACmd(USART_TypeDef* USARTx, FunctionalState NewState)
1042:.\stm32f4periph\src/stm32f4xx_usart.c **** {
 977              		.loc 1 1042 0
 978              		.cfi_startproc
 979              		@ args = 0, pretend = 0, frame = 0
 980              		@ frame_needed = 0, uses_anonymous_args = 0
 981              		@ link register save eliminated.
 982              	.LVL73:
1043:.\stm32f4periph\src/stm32f4xx_usart.c ****   /* Check the parameters */
1044:.\stm32f4periph\src/stm32f4xx_usart.c ****   assert_param(IS_USART_ALL_PERIPH(USARTx));
1045:.\stm32f4periph\src/stm32f4xx_usart.c ****   assert_param(IS_FUNCTIONAL_STATE(NewState));
1046:.\stm32f4periph\src/stm32f4xx_usart.c ****     
1047:.\stm32f4periph\src/stm32f4xx_usart.c ****   if (NewState != DISABLE)
1048:.\stm32f4periph\src/stm32f4xx_usart.c ****   {
1049:.\stm32f4periph\src/stm32f4xx_usart.c ****     /* Enable the IrDA mode by setting the IREN bit in the CR3 register */
1050:.\stm32f4periph\src/stm32f4xx_usart.c ****     USARTx->CR3 |= USART_CR3_IREN;
 983              		.loc 1 1050 0
 984 02f4 838A     		ldrh	r3, [r0, #20]	@,
1047:.\stm32f4periph\src/stm32f4xx_usart.c ****   if (NewState != DISABLE)
 985              		.loc 1 1047 0
 986 02f6 19B1     		cbz	r1, .L69	@ NewState,
 987              		.loc 1 1050 0
 988 02f8 9BB2     		uxth	r3, r3	@ D.7505, USARTx_2(D)->CR3
 989 02fa 43F00203 		orr	r3, r3, #2	@ D.7506, D.7505,
 990 02fe 03E0     		b	.L71	@
 991              	.L69:
1051:.\stm32f4periph\src/stm32f4xx_usart.c ****   }
1052:.\stm32f4periph\src/stm32f4xx_usart.c ****   else
1053:.\stm32f4periph\src/stm32f4xx_usart.c ****   {
1054:.\stm32f4periph\src/stm32f4xx_usart.c ****     /* Disable the IrDA mode by clearing the IREN bit in the CR3 register */
1055:.\stm32f4periph\src/stm32f4xx_usart.c ****     USARTx->CR3 &= (uint16_t)~((uint16_t)USART_CR3_IREN);
 992              		.loc 1 1055 0
 993 0300 23F00203 		bic	r3, r3, #2	@ D.7509, USARTx_2(D)->CR3,
 994 0304 1B04     		lsls	r3, r3, #16	@ D.7509, D.7509,
 995 0306 1B0C     		lsrs	r3, r3, #16	@ D.7509, D.7509,
 996              	.L71:
 997 0308 8382     		strh	r3, [r0, #20]	@ movhi	@ D.7509,
 998 030a 7047     		bx	lr	@
 999              		.cfi_endproc
 1000              	.LFE132:
 1001              		.size	USART_IrDACmd, .-USART_IrDACmd
 1002              		.align	1
 1003              		.global	USART_DMACmd
 1004              		.thumb
 1005              		.thumb_func
 1006              		.type	USART_DMACmd, %function
 1007              	USART_DMACmd:
 1008              	.LFB133:
1056:.\stm32f4periph\src/stm32f4xx_usart.c ****   }
1057:.\stm32f4periph\src/stm32f4xx_usart.c **** }
1058:.\stm32f4periph\src/stm32f4xx_usart.c **** 
1059:.\stm32f4periph\src/stm32f4xx_usart.c **** /**
1060:.\stm32f4periph\src/stm32f4xx_usart.c ****   * @}
1061:.\stm32f4periph\src/stm32f4xx_usart.c ****   */
ARM GAS  C:\Users\Kevin\AppData\Local\Temp\ccW48Nb3.s 			page 38


1062:.\stm32f4periph\src/stm32f4xx_usart.c **** 
1063:.\stm32f4periph\src/stm32f4xx_usart.c **** /** @defgroup USART_Group8 DMA transfers management functions
1064:.\stm32f4periph\src/stm32f4xx_usart.c ****  *  @brief   DMA transfers management functions
1065:.\stm32f4periph\src/stm32f4xx_usart.c ****  *
1066:.\stm32f4periph\src/stm32f4xx_usart.c **** @verbatim   
1067:.\stm32f4periph\src/stm32f4xx_usart.c ****  ===============================================================================
1068:.\stm32f4periph\src/stm32f4xx_usart.c ****                       DMA transfers management functions
1069:.\stm32f4periph\src/stm32f4xx_usart.c ****  ===============================================================================  
1070:.\stm32f4periph\src/stm32f4xx_usart.c **** 
1071:.\stm32f4periph\src/stm32f4xx_usart.c **** @endverbatim
1072:.\stm32f4periph\src/stm32f4xx_usart.c ****   * @{
1073:.\stm32f4periph\src/stm32f4xx_usart.c ****   */
1074:.\stm32f4periph\src/stm32f4xx_usart.c ****   
1075:.\stm32f4periph\src/stm32f4xx_usart.c **** /**
1076:.\stm32f4periph\src/stm32f4xx_usart.c ****   * @brief  Enables or disables the USART's DMA interface.
1077:.\stm32f4periph\src/stm32f4xx_usart.c ****   * @param  USARTx: where x can be 1, 2, 3, 4, 5 or 6 to select the USART or 
1078:.\stm32f4periph\src/stm32f4xx_usart.c ****   *         UART peripheral.
1079:.\stm32f4periph\src/stm32f4xx_usart.c ****   * @param  USART_DMAReq: specifies the DMA request.
1080:.\stm32f4periph\src/stm32f4xx_usart.c ****   *          This parameter can be any combination of the following values:
1081:.\stm32f4periph\src/stm32f4xx_usart.c ****   *            @arg USART_DMAReq_Tx: USART DMA transmit request
1082:.\stm32f4periph\src/stm32f4xx_usart.c ****   *            @arg USART_DMAReq_Rx: USART DMA receive request
1083:.\stm32f4periph\src/stm32f4xx_usart.c ****   * @param  NewState: new state of the DMA Request sources.
1084:.\stm32f4periph\src/stm32f4xx_usart.c ****   *          This parameter can be: ENABLE or DISABLE.   
1085:.\stm32f4periph\src/stm32f4xx_usart.c ****   * @retval None
1086:.\stm32f4periph\src/stm32f4xx_usart.c ****   */
1087:.\stm32f4periph\src/stm32f4xx_usart.c **** void USART_DMACmd(USART_TypeDef* USARTx, uint16_t USART_DMAReq, FunctionalState NewState)
1088:.\stm32f4periph\src/stm32f4xx_usart.c **** {
 1009              		.loc 1 1088 0
 1010              		.cfi_startproc
 1011              		@ args = 0, pretend = 0, frame = 0
 1012              		@ frame_needed = 0, uses_anonymous_args = 0
 1013              		@ link register save eliminated.
 1014              	.LVL74:
1089:.\stm32f4periph\src/stm32f4xx_usart.c ****   /* Check the parameters */
1090:.\stm32f4periph\src/stm32f4xx_usart.c ****   assert_param(IS_USART_ALL_PERIPH(USARTx));
1091:.\stm32f4periph\src/stm32f4xx_usart.c ****   assert_param(IS_USART_DMAREQ(USART_DMAReq));  
1092:.\stm32f4periph\src/stm32f4xx_usart.c ****   assert_param(IS_FUNCTIONAL_STATE(NewState)); 
1093:.\stm32f4periph\src/stm32f4xx_usart.c **** 
1094:.\stm32f4periph\src/stm32f4xx_usart.c ****   if (NewState != DISABLE)
1095:.\stm32f4periph\src/stm32f4xx_usart.c ****   {
1096:.\stm32f4periph\src/stm32f4xx_usart.c ****     /* Enable the DMA transfer for selected requests by setting the DMAT and/or
1097:.\stm32f4periph\src/stm32f4xx_usart.c ****        DMAR bits in the USART CR3 register */
1098:.\stm32f4periph\src/stm32f4xx_usart.c ****     USARTx->CR3 |= USART_DMAReq;
 1015              		.loc 1 1098 0
 1016 030c 838A     		ldrh	r3, [r0, #20]	@,
 1017 030e 9BB2     		uxth	r3, r3	@ D.7497, USARTx_2(D)->CR3
1094:.\stm32f4periph\src/stm32f4xx_usart.c ****   if (NewState != DISABLE)
 1018              		.loc 1 1094 0
 1019 0310 0AB1     		cbz	r2, .L73	@ NewState,
 1020              		.loc 1 1098 0
 1021 0312 1943     		orrs	r1, r1, r3	@, D.7498, USART_DMAReq, D.7497
 1022              	.LVL75:
 1023 0314 01E0     		b	.L75	@
 1024              	.LVL76:
 1025              	.L73:
1099:.\stm32f4periph\src/stm32f4xx_usart.c ****   }
1100:.\stm32f4periph\src/stm32f4xx_usart.c ****   else
ARM GAS  C:\Users\Kevin\AppData\Local\Temp\ccW48Nb3.s 			page 39


1101:.\stm32f4periph\src/stm32f4xx_usart.c ****   {
1102:.\stm32f4periph\src/stm32f4xx_usart.c ****     /* Disable the DMA transfer for selected requests by clearing the DMAT and/or
1103:.\stm32f4periph\src/stm32f4xx_usart.c ****        DMAR bits in the USART CR3 register */
1104:.\stm32f4periph\src/stm32f4xx_usart.c ****     USARTx->CR3 &= (uint16_t)~USART_DMAReq;
 1026              		.loc 1 1104 0
 1027 0316 23EA0101 		bic	r1, r3, r1	@ D.7502, D.7500, USART_DMAReq
 1028              	.LVL77:
 1029              	.L75:
 1030 031a 8182     		strh	r1, [r0, #20]	@ movhi	@ D.7502,
 1031 031c 7047     		bx	lr	@
 1032              		.cfi_endproc
 1033              	.LFE133:
 1034              		.size	USART_DMACmd, .-USART_DMACmd
 1035              		.align	1
 1036              		.global	USART_ITConfig
 1037              		.thumb
 1038              		.thumb_func
 1039              		.type	USART_ITConfig, %function
 1040              	USART_ITConfig:
 1041              	.LFB134:
1105:.\stm32f4periph\src/stm32f4xx_usart.c ****   }
1106:.\stm32f4periph\src/stm32f4xx_usart.c **** }
1107:.\stm32f4periph\src/stm32f4xx_usart.c **** 
1108:.\stm32f4periph\src/stm32f4xx_usart.c **** /**
1109:.\stm32f4periph\src/stm32f4xx_usart.c ****   * @}
1110:.\stm32f4periph\src/stm32f4xx_usart.c ****   */
1111:.\stm32f4periph\src/stm32f4xx_usart.c ****   
1112:.\stm32f4periph\src/stm32f4xx_usart.c **** /** @defgroup USART_Group9 Interrupts and flags management functions
1113:.\stm32f4periph\src/stm32f4xx_usart.c ****  *  @brief   Interrupts and flags management functions 
1114:.\stm32f4periph\src/stm32f4xx_usart.c ****  *
1115:.\stm32f4periph\src/stm32f4xx_usart.c **** @verbatim   
1116:.\stm32f4periph\src/stm32f4xx_usart.c ****  ===============================================================================
1117:.\stm32f4periph\src/stm32f4xx_usart.c ****                    Interrupts and flags management functions
1118:.\stm32f4periph\src/stm32f4xx_usart.c ****  ===============================================================================  
1119:.\stm32f4periph\src/stm32f4xx_usart.c **** 
1120:.\stm32f4periph\src/stm32f4xx_usart.c ****   This subsection provides a set of functions allowing to configure the USART 
1121:.\stm32f4periph\src/stm32f4xx_usart.c ****   Interrupts sources, DMA channels requests and check or clear the flags or 
1122:.\stm32f4periph\src/stm32f4xx_usart.c ****   pending bits status.
1123:.\stm32f4periph\src/stm32f4xx_usart.c ****   The user should identify which mode will be used in his application to manage 
1124:.\stm32f4periph\src/stm32f4xx_usart.c ****   the communication: Polling mode, Interrupt mode or DMA mode. 
1125:.\stm32f4periph\src/stm32f4xx_usart.c ****     
1126:.\stm32f4periph\src/stm32f4xx_usart.c ****   Polling Mode
1127:.\stm32f4periph\src/stm32f4xx_usart.c ****   =============
1128:.\stm32f4periph\src/stm32f4xx_usart.c ****   In Polling Mode, the SPI communication can be managed by 10 flags:
1129:.\stm32f4periph\src/stm32f4xx_usart.c ****      1. USART_FLAG_TXE : to indicate the status of the transmit buffer register
1130:.\stm32f4periph\src/stm32f4xx_usart.c ****      2. USART_FLAG_RXNE : to indicate the status of the receive buffer register
1131:.\stm32f4periph\src/stm32f4xx_usart.c ****      3. USART_FLAG_TC : to indicate the status of the transmit operation
1132:.\stm32f4periph\src/stm32f4xx_usart.c ****      4. USART_FLAG_IDLE : to indicate the status of the Idle Line             
1133:.\stm32f4periph\src/stm32f4xx_usart.c ****      5. USART_FLAG_CTS : to indicate the status of the nCTS input
1134:.\stm32f4periph\src/stm32f4xx_usart.c ****      6. USART_FLAG_LBD : to indicate the status of the LIN break detection
1135:.\stm32f4periph\src/stm32f4xx_usart.c ****      7. USART_FLAG_NE : to indicate if a noise error occur
1136:.\stm32f4periph\src/stm32f4xx_usart.c ****      8. USART_FLAG_FE : to indicate if a frame error occur
1137:.\stm32f4periph\src/stm32f4xx_usart.c ****      9. USART_FLAG_PE : to indicate if a parity error occur
1138:.\stm32f4periph\src/stm32f4xx_usart.c ****      10. USART_FLAG_ORE : to indicate if an Overrun error occur
1139:.\stm32f4periph\src/stm32f4xx_usart.c **** 
1140:.\stm32f4periph\src/stm32f4xx_usart.c ****   In this Mode it is advised to use the following functions:
1141:.\stm32f4periph\src/stm32f4xx_usart.c ****       - FlagStatus USART_GetFlagStatus(USART_TypeDef* USARTx, uint16_t USART_FLAG);
ARM GAS  C:\Users\Kevin\AppData\Local\Temp\ccW48Nb3.s 			page 40


1142:.\stm32f4periph\src/stm32f4xx_usart.c ****       - void USART_ClearFlag(USART_TypeDef* USARTx, uint16_t USART_FLAG);
1143:.\stm32f4periph\src/stm32f4xx_usart.c **** 
1144:.\stm32f4periph\src/stm32f4xx_usart.c ****   Interrupt Mode
1145:.\stm32f4periph\src/stm32f4xx_usart.c ****   ===============
1146:.\stm32f4periph\src/stm32f4xx_usart.c ****   In Interrupt Mode, the USART communication can be managed by 8 interrupt sources
1147:.\stm32f4periph\src/stm32f4xx_usart.c ****   and 10 pending bits: 
1148:.\stm32f4periph\src/stm32f4xx_usart.c **** 
1149:.\stm32f4periph\src/stm32f4xx_usart.c ****   Pending Bits:
1150:.\stm32f4periph\src/stm32f4xx_usart.c ****   ------------- 
1151:.\stm32f4periph\src/stm32f4xx_usart.c ****      1. USART_IT_TXE : to indicate the status of the transmit buffer register
1152:.\stm32f4periph\src/stm32f4xx_usart.c ****      2. USART_IT_RXNE : to indicate the status of the receive buffer register
1153:.\stm32f4periph\src/stm32f4xx_usart.c ****      3. USART_IT_TC : to indicate the status of the transmit operation
1154:.\stm32f4periph\src/stm32f4xx_usart.c ****      4. USART_IT_IDLE : to indicate the status of the Idle Line             
1155:.\stm32f4periph\src/stm32f4xx_usart.c ****      5. USART_IT_CTS : to indicate the status of the nCTS input
1156:.\stm32f4periph\src/stm32f4xx_usart.c ****      6. USART_IT_LBD : to indicate the status of the LIN break detection
1157:.\stm32f4periph\src/stm32f4xx_usart.c ****      7. USART_IT_NE : to indicate if a noise error occur
1158:.\stm32f4periph\src/stm32f4xx_usart.c ****      8. USART_IT_FE : to indicate if a frame error occur
1159:.\stm32f4periph\src/stm32f4xx_usart.c ****      9. USART_IT_PE : to indicate if a parity error occur
1160:.\stm32f4periph\src/stm32f4xx_usart.c ****      10. USART_IT_ORE : to indicate if an Overrun error occur
1161:.\stm32f4periph\src/stm32f4xx_usart.c **** 
1162:.\stm32f4periph\src/stm32f4xx_usart.c ****   Interrupt Source:
1163:.\stm32f4periph\src/stm32f4xx_usart.c ****   -----------------
1164:.\stm32f4periph\src/stm32f4xx_usart.c ****      1. USART_IT_TXE : specifies the interrupt source for the Tx buffer empty 
1165:.\stm32f4periph\src/stm32f4xx_usart.c ****                        interrupt. 
1166:.\stm32f4periph\src/stm32f4xx_usart.c ****      2. USART_IT_RXNE : specifies the interrupt source for the Rx buffer not 
1167:.\stm32f4periph\src/stm32f4xx_usart.c ****                         empty interrupt.
1168:.\stm32f4periph\src/stm32f4xx_usart.c ****      3. USART_IT_TC : specifies the interrupt source for the Transmit complete 
1169:.\stm32f4periph\src/stm32f4xx_usart.c ****                        interrupt. 
1170:.\stm32f4periph\src/stm32f4xx_usart.c ****      4. USART_IT_IDLE : specifies the interrupt source for the Idle Line interrupt.             
1171:.\stm32f4periph\src/stm32f4xx_usart.c ****      5. USART_IT_CTS : specifies the interrupt source for the CTS interrupt. 
1172:.\stm32f4periph\src/stm32f4xx_usart.c ****      6. USART_IT_LBD : specifies the interrupt source for the LIN break detection
1173:.\stm32f4periph\src/stm32f4xx_usart.c ****                        interrupt. 
1174:.\stm32f4periph\src/stm32f4xx_usart.c ****      7. USART_IT_PE : specifies the interrupt source for the parity error interrupt. 
1175:.\stm32f4periph\src/stm32f4xx_usart.c ****      8. USART_IT_ERR :  specifies the interrupt source for the errors interrupt.
1176:.\stm32f4periph\src/stm32f4xx_usart.c **** 
1177:.\stm32f4periph\src/stm32f4xx_usart.c **** @note Some parameters are coded in order to use them as interrupt source or as pending bits.
1178:.\stm32f4periph\src/stm32f4xx_usart.c **** 
1179:.\stm32f4periph\src/stm32f4xx_usart.c ****   In this Mode it is advised to use the following functions:
1180:.\stm32f4periph\src/stm32f4xx_usart.c ****      - void USART_ITConfig(USART_TypeDef* USARTx, uint16_t USART_IT, FunctionalState NewState);
1181:.\stm32f4periph\src/stm32f4xx_usart.c ****      - ITStatus USART_GetITStatus(USART_TypeDef* USARTx, uint16_t USART_IT);
1182:.\stm32f4periph\src/stm32f4xx_usart.c ****      - void USART_ClearITPendingBit(USART_TypeDef* USARTx, uint16_t USART_IT);
1183:.\stm32f4periph\src/stm32f4xx_usart.c **** 
1184:.\stm32f4periph\src/stm32f4xx_usart.c ****   DMA Mode
1185:.\stm32f4periph\src/stm32f4xx_usart.c ****   ========
1186:.\stm32f4periph\src/stm32f4xx_usart.c ****   In DMA Mode, the USART communication can be managed by 2 DMA Channel requests:
1187:.\stm32f4periph\src/stm32f4xx_usart.c ****      1. USART_DMAReq_Tx: specifies the Tx buffer DMA transfer request
1188:.\stm32f4periph\src/stm32f4xx_usart.c ****      2. USART_DMAReq_Rx: specifies the Rx buffer DMA transfer request
1189:.\stm32f4periph\src/stm32f4xx_usart.c **** 
1190:.\stm32f4periph\src/stm32f4xx_usart.c ****   In this Mode it is advised to use the following function:
1191:.\stm32f4periph\src/stm32f4xx_usart.c ****      - void USART_DMACmd(USART_TypeDef* USARTx, uint16_t USART_DMAReq, FunctionalState NewState);
1192:.\stm32f4periph\src/stm32f4xx_usart.c **** 
1193:.\stm32f4periph\src/stm32f4xx_usart.c **** @endverbatim
1194:.\stm32f4periph\src/stm32f4xx_usart.c ****   * @{
1195:.\stm32f4periph\src/stm32f4xx_usart.c ****   */
1196:.\stm32f4periph\src/stm32f4xx_usart.c **** 
1197:.\stm32f4periph\src/stm32f4xx_usart.c **** /**
1198:.\stm32f4periph\src/stm32f4xx_usart.c ****   * @brief  Enables or disables the specified USART interrupts.
ARM GAS  C:\Users\Kevin\AppData\Local\Temp\ccW48Nb3.s 			page 41


1199:.\stm32f4periph\src/stm32f4xx_usart.c ****   * @param  USARTx: where x can be 1, 2, 3, 4, 5 or 6 to select the USART or 
1200:.\stm32f4periph\src/stm32f4xx_usart.c ****   *         UART peripheral.
1201:.\stm32f4periph\src/stm32f4xx_usart.c ****   * @param  USART_IT: specifies the USART interrupt sources to be enabled or disabled.
1202:.\stm32f4periph\src/stm32f4xx_usart.c ****   *          This parameter can be one of the following values:
1203:.\stm32f4periph\src/stm32f4xx_usart.c ****   *            @arg USART_IT_CTS:  CTS change interrupt
1204:.\stm32f4periph\src/stm32f4xx_usart.c ****   *            @arg USART_IT_LBD:  LIN Break detection interrupt
1205:.\stm32f4periph\src/stm32f4xx_usart.c ****   *            @arg USART_IT_TXE:  Transmit Data Register empty interrupt
1206:.\stm32f4periph\src/stm32f4xx_usart.c ****   *            @arg USART_IT_TC:   Transmission complete interrupt
1207:.\stm32f4periph\src/stm32f4xx_usart.c ****   *            @arg USART_IT_RXNE: Receive Data register not empty interrupt
1208:.\stm32f4periph\src/stm32f4xx_usart.c ****   *            @arg USART_IT_IDLE: Idle line detection interrupt
1209:.\stm32f4periph\src/stm32f4xx_usart.c ****   *            @arg USART_IT_PE:   Parity Error interrupt
1210:.\stm32f4periph\src/stm32f4xx_usart.c ****   *            @arg USART_IT_ERR:  Error interrupt(Frame error, noise error, overrun error)
1211:.\stm32f4periph\src/stm32f4xx_usart.c ****   * @param  NewState: new state of the specified USARTx interrupts.
1212:.\stm32f4periph\src/stm32f4xx_usart.c ****   *          This parameter can be: ENABLE or DISABLE.
1213:.\stm32f4periph\src/stm32f4xx_usart.c ****   * @retval None
1214:.\stm32f4periph\src/stm32f4xx_usart.c ****   */
1215:.\stm32f4periph\src/stm32f4xx_usart.c **** void USART_ITConfig(USART_TypeDef* USARTx, uint16_t USART_IT, FunctionalState NewState)
1216:.\stm32f4periph\src/stm32f4xx_usart.c **** {
 1042              		.loc 1 1216 0
 1043              		.cfi_startproc
 1044              		@ args = 0, pretend = 0, frame = 0
 1045              		@ frame_needed = 0, uses_anonymous_args = 0
 1046              	.LVL78:
1217:.\stm32f4periph\src/stm32f4xx_usart.c ****   uint32_t usartreg = 0x00, itpos = 0x00, itmask = 0x00;
1218:.\stm32f4periph\src/stm32f4xx_usart.c ****   uint32_t usartxbase = 0x00;
1219:.\stm32f4periph\src/stm32f4xx_usart.c ****   /* Check the parameters */
1220:.\stm32f4periph\src/stm32f4xx_usart.c ****     
1221:.\stm32f4periph\src/stm32f4xx_usart.c ****   usartxbase = (uint32_t)USARTx;
1222:.\stm32f4periph\src/stm32f4xx_usart.c **** 
1223:.\stm32f4periph\src/stm32f4xx_usart.c ****   /* Get the USART register index */
1224:.\stm32f4periph\src/stm32f4xx_usart.c ****   usartreg = (((uint8_t)USART_IT) >> 0x05);
 1047              		.loc 1 1224 0
 1048 031e C1F34213 		ubfx	r3, r1, #5, #3	@ usartreg, USART_IT,,
 1049              	.LVL79:
1216:.\stm32f4periph\src/stm32f4xx_usart.c **** {
 1050              		.loc 1 1216 0
 1051 0322 10B5     		push	{r4, lr}	@
 1052              	.LCFI4:
 1053              		.cfi_def_cfa_offset 8
 1054              		.cfi_offset 4, -8
 1055              		.cfi_offset 14, -4
1225:.\stm32f4periph\src/stm32f4xx_usart.c **** 
1226:.\stm32f4periph\src/stm32f4xx_usart.c ****   /* Get the interrupt position */
1227:.\stm32f4periph\src/stm32f4xx_usart.c ****   itpos = USART_IT & IT_MASK;
1228:.\stm32f4periph\src/stm32f4xx_usart.c ****   itmask = (((uint32_t)0x01) << itpos);
 1056              		.loc 1 1228 0
 1057 0324 0124     		movs	r4, #1	@ tmp156,
 1058 0326 01F01F01 		and	r1, r1, #31	@ tmp155, USART_IT,
 1059              	.LVL80:
1229:.\stm32f4periph\src/stm32f4xx_usart.c ****     
1230:.\stm32f4periph\src/stm32f4xx_usart.c ****   if (usartreg == 0x01) /* The IT is in CR1 register */
 1060              		.loc 1 1230 0
 1061 032a A342     		cmp	r3, r4	@ usartreg,
1228:.\stm32f4periph\src/stm32f4xx_usart.c ****   itmask = (((uint32_t)0x01) << itpos);
 1062              		.loc 1 1228 0
 1063 032c 04FA01F1 		lsl	r1, r4, r1	@ itmask, tmp156, tmp155
 1064              	.LVL81:
ARM GAS  C:\Users\Kevin\AppData\Local\Temp\ccW48Nb3.s 			page 42


 1065              		.loc 1 1230 0
 1066 0330 01D1     		bne	.L77	@,
1231:.\stm32f4periph\src/stm32f4xx_usart.c ****   {
1232:.\stm32f4periph\src/stm32f4xx_usart.c ****     usartxbase += 0x0C;
 1067              		.loc 1 1232 0
 1068 0332 0C30     		adds	r0, r0, #12	@ usartxbase, USARTx,
 1069              	.LVL82:
 1070 0334 04E0     		b	.L78	@
 1071              	.LVL83:
 1072              	.L77:
1233:.\stm32f4periph\src/stm32f4xx_usart.c ****   }
1234:.\stm32f4periph\src/stm32f4xx_usart.c ****   else if (usartreg == 0x02) /* The IT is in CR2 register */
 1073              		.loc 1 1234 0
 1074 0336 022B     		cmp	r3, #2	@ usartreg,
 1075 0338 01D1     		bne	.L79	@,
1235:.\stm32f4periph\src/stm32f4xx_usart.c ****   {
1236:.\stm32f4periph\src/stm32f4xx_usart.c ****     usartxbase += 0x10;
 1076              		.loc 1 1236 0
 1077 033a 1030     		adds	r0, r0, #16	@ usartxbase, USARTx,
 1078              	.LVL84:
 1079 033c 00E0     		b	.L78	@
 1080              	.LVL85:
 1081              	.L79:
1237:.\stm32f4periph\src/stm32f4xx_usart.c ****   }
1238:.\stm32f4periph\src/stm32f4xx_usart.c ****   else /* The IT is in CR3 register */
1239:.\stm32f4periph\src/stm32f4xx_usart.c ****   {
1240:.\stm32f4periph\src/stm32f4xx_usart.c ****     usartxbase += 0x14; 
 1082              		.loc 1 1240 0
 1083 033e 1430     		adds	r0, r0, #20	@ usartxbase, USARTx,
 1084              	.LVL86:
 1085              	.L78:
1241:.\stm32f4periph\src/stm32f4xx_usart.c ****   }
1242:.\stm32f4periph\src/stm32f4xx_usart.c ****   if (NewState != DISABLE)
1243:.\stm32f4periph\src/stm32f4xx_usart.c ****   {
1244:.\stm32f4periph\src/stm32f4xx_usart.c ****     *(__IO uint32_t*)usartxbase  |= itmask;
 1086              		.loc 1 1244 0
 1087 0340 0368     		ldr	r3, [r0, #0]	@ D.7489,* usartxbase
 1088              	.LVL87:
1242:.\stm32f4periph\src/stm32f4xx_usart.c ****   if (NewState != DISABLE)
 1089              		.loc 1 1242 0
 1090 0342 0AB1     		cbz	r2, .L80	@ NewState,
 1091              		.loc 1 1244 0
 1092 0344 1943     		orrs	r1, r1, r3	@, D.7490, itmask, D.7489
 1093              	.LVL88:
 1094 0346 01E0     		b	.L82	@
 1095              	.LVL89:
 1096              	.L80:
1245:.\stm32f4periph\src/stm32f4xx_usart.c ****   }
1246:.\stm32f4periph\src/stm32f4xx_usart.c ****   else
1247:.\stm32f4periph\src/stm32f4xx_usart.c ****   {
1248:.\stm32f4periph\src/stm32f4xx_usart.c ****     *(__IO uint32_t*)usartxbase &= ~itmask;
 1097              		.loc 1 1248 0
 1098 0348 23EA0101 		bic	r1, r3, r1	@ D.7494, D.7492, itmask
 1099              	.LVL90:
 1100              	.L82:
 1101 034c 0160     		str	r1, [r0, #0]	@ D.7494,* usartxbase
 1102 034e 10BD     		pop	{r4, pc}	@
ARM GAS  C:\Users\Kevin\AppData\Local\Temp\ccW48Nb3.s 			page 43


 1103              		.cfi_endproc
 1104              	.LFE134:
 1105              		.size	USART_ITConfig, .-USART_ITConfig
 1106              		.align	1
 1107              		.global	USART_GetFlagStatus
 1108              		.thumb
 1109              		.thumb_func
 1110              		.type	USART_GetFlagStatus, %function
 1111              	USART_GetFlagStatus:
 1112              	.LFB135:
1249:.\stm32f4periph\src/stm32f4xx_usart.c ****   }
1250:.\stm32f4periph\src/stm32f4xx_usart.c **** }
1251:.\stm32f4periph\src/stm32f4xx_usart.c **** 
1252:.\stm32f4periph\src/stm32f4xx_usart.c **** /**
1253:.\stm32f4periph\src/stm32f4xx_usart.c ****   * @brief  Checks whether the specified USART flag is set or not.
1254:.\stm32f4periph\src/stm32f4xx_usart.c ****   * @param  USARTx: where x can be 1, 2, 3, 4, 5 or 6 to select the USART or 
1255:.\stm32f4periph\src/stm32f4xx_usart.c ****   *         UART peripheral.
1256:.\stm32f4periph\src/stm32f4xx_usart.c ****   * @param  USART_FLAG: specifies the flag to check.
1257:.\stm32f4periph\src/stm32f4xx_usart.c ****   *          This parameter can be one of the following values:
1258:.\stm32f4periph\src/stm32f4xx_usart.c ****   *            @arg USART_FLAG_CTS:  CTS Change flag (not available for UART4 and UART5)
1259:.\stm32f4periph\src/stm32f4xx_usart.c ****   *            @arg USART_FLAG_LBD:  LIN Break detection flag
1260:.\stm32f4periph\src/stm32f4xx_usart.c ****   *            @arg USART_FLAG_TXE:  Transmit data register empty flag
1261:.\stm32f4periph\src/stm32f4xx_usart.c ****   *            @arg USART_FLAG_TC:   Transmission Complete flag
1262:.\stm32f4periph\src/stm32f4xx_usart.c ****   *            @arg USART_FLAG_RXNE: Receive data register not empty flag
1263:.\stm32f4periph\src/stm32f4xx_usart.c ****   *            @arg USART_FLAG_IDLE: Idle Line detection flag
1264:.\stm32f4periph\src/stm32f4xx_usart.c ****   *            @arg USART_FLAG_ORE:  OverRun Error flag
1265:.\stm32f4periph\src/stm32f4xx_usart.c ****   *            @arg USART_FLAG_NE:   Noise Error flag
1266:.\stm32f4periph\src/stm32f4xx_usart.c ****   *            @arg USART_FLAG_FE:   Framing Error flag
1267:.\stm32f4periph\src/stm32f4xx_usart.c ****   *            @arg USART_FLAG_PE:   Parity Error flag
1268:.\stm32f4periph\src/stm32f4xx_usart.c ****   * @retval The new state of USART_FLAG (SET or RESET).
1269:.\stm32f4periph\src/stm32f4xx_usart.c ****   */
1270:.\stm32f4periph\src/stm32f4xx_usart.c **** FlagStatus USART_GetFlagStatus(USART_TypeDef* USARTx, uint16_t USART_FLAG)
1271:.\stm32f4periph\src/stm32f4xx_usart.c **** {
 1113              		.loc 1 1271 0
 1114              		.cfi_startproc
 1115              		@ args = 0, pretend = 0, frame = 0
 1116              		@ frame_needed = 0, uses_anonymous_args = 0
 1117              		@ link register save eliminated.
 1118              	.LVL91:
1272:.\stm32f4periph\src/stm32f4xx_usart.c ****   FlagStatus bitstatus = RESET;
1273:.\stm32f4periph\src/stm32f4xx_usart.c ****   /* Check the parameters */
1274:.\stm32f4periph\src/stm32f4xx_usart.c ****   assert_param(IS_USART_ALL_PERIPH(USARTx));
1275:.\stm32f4periph\src/stm32f4xx_usart.c ****   assert_param(IS_USART_FLAG(USART_FLAG));
1276:.\stm32f4periph\src/stm32f4xx_usart.c **** 
1277:.\stm32f4periph\src/stm32f4xx_usart.c ****   /* The CTS flag is not available for UART4 and UART5 */
1278:.\stm32f4periph\src/stm32f4xx_usart.c ****   if (USART_FLAG == USART_FLAG_CTS)
1279:.\stm32f4periph\src/stm32f4xx_usart.c ****   {
1280:.\stm32f4periph\src/stm32f4xx_usart.c ****     assert_param(IS_USART_1236_PERIPH(USARTx));
1281:.\stm32f4periph\src/stm32f4xx_usart.c ****   } 
1282:.\stm32f4periph\src/stm32f4xx_usart.c ****     
1283:.\stm32f4periph\src/stm32f4xx_usart.c ****   if ((USARTx->SR & USART_FLAG) != (uint16_t)RESET)
 1119              		.loc 1 1283 0
 1120 0350 0388     		ldrh	r3, [r0, #0]	@, USARTx_3(D)->SR
 1121              	.LVL92:
 1122 0352 1942     		tst	r1, r3	@ USART_FLAG, USARTx_3(D)->SR
1284:.\stm32f4periph\src/stm32f4xx_usart.c ****   {
1285:.\stm32f4periph\src/stm32f4xx_usart.c ****     bitstatus = SET;
ARM GAS  C:\Users\Kevin\AppData\Local\Temp\ccW48Nb3.s 			page 44


1286:.\stm32f4periph\src/stm32f4xx_usart.c ****   }
1287:.\stm32f4periph\src/stm32f4xx_usart.c ****   else
1288:.\stm32f4periph\src/stm32f4xx_usart.c ****   {
1289:.\stm32f4periph\src/stm32f4xx_usart.c ****     bitstatus = RESET;
1290:.\stm32f4periph\src/stm32f4xx_usart.c ****   }
1291:.\stm32f4periph\src/stm32f4xx_usart.c ****   return bitstatus;
1292:.\stm32f4periph\src/stm32f4xx_usart.c **** }
 1123              		.loc 1 1292 0
 1124 0354 0CBF     		ite	eq	@
 1125 0356 0020     		moveq	r0, #0	@,
 1126 0358 0120     		movne	r0, #1	@,
 1127              	.LVL93:
 1128 035a 7047     		bx	lr	@
 1129              		.cfi_endproc
 1130              	.LFE135:
 1131              		.size	USART_GetFlagStatus, .-USART_GetFlagStatus
 1132              		.align	1
 1133              		.global	USART_ClearFlag
 1134              		.thumb
 1135              		.thumb_func
 1136              		.type	USART_ClearFlag, %function
 1137              	USART_ClearFlag:
 1138              	.LFB136:
1293:.\stm32f4periph\src/stm32f4xx_usart.c **** 
1294:.\stm32f4periph\src/stm32f4xx_usart.c **** /**
1295:.\stm32f4periph\src/stm32f4xx_usart.c ****   * @brief  Clears the USARTx's pending flags.
1296:.\stm32f4periph\src/stm32f4xx_usart.c ****   * @param  USARTx: where x can be 1, 2, 3, 4, 5 or 6 to select the USART or 
1297:.\stm32f4periph\src/stm32f4xx_usart.c ****   *         UART peripheral.
1298:.\stm32f4periph\src/stm32f4xx_usart.c ****   * @param  USART_FLAG: specifies the flag to clear.
1299:.\stm32f4periph\src/stm32f4xx_usart.c ****   *          This parameter can be any combination of the following values:
1300:.\stm32f4periph\src/stm32f4xx_usart.c ****   *            @arg USART_FLAG_CTS:  CTS Change flag (not available for UART4 and UART5).
1301:.\stm32f4periph\src/stm32f4xx_usart.c ****   *            @arg USART_FLAG_LBD:  LIN Break detection flag.
1302:.\stm32f4periph\src/stm32f4xx_usart.c ****   *            @arg USART_FLAG_TC:   Transmission Complete flag.
1303:.\stm32f4periph\src/stm32f4xx_usart.c ****   *            @arg USART_FLAG_RXNE: Receive data register not empty flag.
1304:.\stm32f4periph\src/stm32f4xx_usart.c ****   *   
1305:.\stm32f4periph\src/stm32f4xx_usart.c ****   * @note   PE (Parity error), FE (Framing error), NE (Noise error), ORE (OverRun 
1306:.\stm32f4periph\src/stm32f4xx_usart.c ****   *          error) and IDLE (Idle line detected) flags are cleared by software 
1307:.\stm32f4periph\src/stm32f4xx_usart.c ****   *          sequence: a read operation to USART_SR register (USART_GetFlagStatus()) 
1308:.\stm32f4periph\src/stm32f4xx_usart.c ****   *          followed by a read operation to USART_DR register (USART_ReceiveData()).
1309:.\stm32f4periph\src/stm32f4xx_usart.c ****   * @note   RXNE flag can be also cleared by a read to the USART_DR register 
1310:.\stm32f4periph\src/stm32f4xx_usart.c ****   *          (USART_ReceiveData()).
1311:.\stm32f4periph\src/stm32f4xx_usart.c ****   * @note   TC flag can be also cleared by software sequence: a read operation to 
1312:.\stm32f4periph\src/stm32f4xx_usart.c ****   *          USART_SR register (USART_GetFlagStatus()) followed by a write operation
1313:.\stm32f4periph\src/stm32f4xx_usart.c ****   *          to USART_DR register (USART_SendData()).
1314:.\stm32f4periph\src/stm32f4xx_usart.c ****   * @note   TXE flag is cleared only by a write to the USART_DR register 
1315:.\stm32f4periph\src/stm32f4xx_usart.c ****   *          (USART_SendData()).
1316:.\stm32f4periph\src/stm32f4xx_usart.c ****   *   
1317:.\stm32f4periph\src/stm32f4xx_usart.c ****   * @retval None
1318:.\stm32f4periph\src/stm32f4xx_usart.c ****   */
1319:.\stm32f4periph\src/stm32f4xx_usart.c **** void USART_ClearFlag(USART_TypeDef* USARTx, uint16_t USART_FLAG)
1320:.\stm32f4periph\src/stm32f4xx_usart.c **** {
 1139              		.loc 1 1320 0
 1140              		.cfi_startproc
 1141              		@ args = 0, pretend = 0, frame = 0
 1142              		@ frame_needed = 0, uses_anonymous_args = 0
 1143              		@ link register save eliminated.
 1144              	.LVL94:
ARM GAS  C:\Users\Kevin\AppData\Local\Temp\ccW48Nb3.s 			page 45


1321:.\stm32f4periph\src/stm32f4xx_usart.c ****   /* Check the parameters */
1322:.\stm32f4periph\src/stm32f4xx_usart.c ****   assert_param(IS_USART_ALL_PERIPH(USARTx));
1323:.\stm32f4periph\src/stm32f4xx_usart.c ****   assert_param(IS_USART_CLEAR_FLAG(USART_FLAG));
1324:.\stm32f4periph\src/stm32f4xx_usart.c **** 
1325:.\stm32f4periph\src/stm32f4xx_usart.c ****   /* The CTS flag is not available for UART4 and UART5 */
1326:.\stm32f4periph\src/stm32f4xx_usart.c ****   if ((USART_FLAG & USART_FLAG_CTS) == USART_FLAG_CTS)
1327:.\stm32f4periph\src/stm32f4xx_usart.c ****   {
1328:.\stm32f4periph\src/stm32f4xx_usart.c ****     assert_param(IS_USART_1236_PERIPH(USARTx));
1329:.\stm32f4periph\src/stm32f4xx_usart.c ****   } 
1330:.\stm32f4periph\src/stm32f4xx_usart.c ****        
1331:.\stm32f4periph\src/stm32f4xx_usart.c ****   USARTx->SR = (uint16_t)~USART_FLAG;
 1145              		.loc 1 1331 0
 1146 035c C943     		mvns	r1, r1	@ tmp137, USART_FLAG
 1147              	.LVL95:
 1148 035e 0180     		strh	r1, [r0, #0]	@ movhi	@ D.7466, USARTx_5(D)->SR
 1149 0360 7047     		bx	lr	@
 1150              		.cfi_endproc
 1151              	.LFE136:
 1152              		.size	USART_ClearFlag, .-USART_ClearFlag
 1153              		.align	1
 1154              		.global	USART_GetITStatus
 1155              		.thumb
 1156              		.thumb_func
 1157              		.type	USART_GetITStatus, %function
 1158              	USART_GetITStatus:
 1159              	.LFB137:
1332:.\stm32f4periph\src/stm32f4xx_usart.c **** }
1333:.\stm32f4periph\src/stm32f4xx_usart.c **** 
1334:.\stm32f4periph\src/stm32f4xx_usart.c **** /**
1335:.\stm32f4periph\src/stm32f4xx_usart.c ****   * @brief  Checks whether the specified USART interrupt has occurred or not.
1336:.\stm32f4periph\src/stm32f4xx_usart.c ****   * @param  USARTx: where x can be 1, 2, 3, 4, 5 or 6 to select the USART or 
1337:.\stm32f4periph\src/stm32f4xx_usart.c ****   *         UART peripheral.
1338:.\stm32f4periph\src/stm32f4xx_usart.c ****   * @param  USART_IT: specifies the USART interrupt source to check.
1339:.\stm32f4periph\src/stm32f4xx_usart.c ****   *          This parameter can be one of the following values:
1340:.\stm32f4periph\src/stm32f4xx_usart.c ****   *            @arg USART_IT_CTS:  CTS change interrupt (not available for UART4 and UART5)
1341:.\stm32f4periph\src/stm32f4xx_usart.c ****   *            @arg USART_IT_LBD:  LIN Break detection interrupt
1342:.\stm32f4periph\src/stm32f4xx_usart.c ****   *            @arg USART_IT_TXE:  Transmit Data Register empty interrupt
1343:.\stm32f4periph\src/stm32f4xx_usart.c ****   *            @arg USART_IT_TC:   Transmission complete interrupt
1344:.\stm32f4periph\src/stm32f4xx_usart.c ****   *            @arg USART_IT_RXNE: Receive Data register not empty interrupt
1345:.\stm32f4periph\src/stm32f4xx_usart.c ****   *            @arg USART_IT_IDLE: Idle line detection interrupt
1346:.\stm32f4periph\src/stm32f4xx_usart.c ****   *            @arg USART_IT_ORE_RX : OverRun Error interrupt if the RXNEIE bit is set
1347:.\stm32f4periph\src/stm32f4xx_usart.c ****   *            @arg USART_IT_ORE_ER : OverRun Error interrupt if the EIE bit is set  
1348:.\stm32f4periph\src/stm32f4xx_usart.c ****   *            @arg USART_IT_NE:   Noise Error interrupt
1349:.\stm32f4periph\src/stm32f4xx_usart.c ****   *            @arg USART_IT_FE:   Framing Error interrupt
1350:.\stm32f4periph\src/stm32f4xx_usart.c ****   *            @arg USART_IT_PE:   Parity Error interrupt
1351:.\stm32f4periph\src/stm32f4xx_usart.c ****   * @retval The new state of USART_IT (SET or RESET).
1352:.\stm32f4periph\src/stm32f4xx_usart.c ****   */
1353:.\stm32f4periph\src/stm32f4xx_usart.c **** ITStatus USART_GetITStatus(USART_TypeDef* USARTx, uint16_t USART_IT)
1354:.\stm32f4periph\src/stm32f4xx_usart.c **** {
 1160              		.loc 1 1354 0
 1161              		.cfi_startproc
 1162              		@ args = 0, pretend = 0, frame = 0
 1163              		@ frame_needed = 0, uses_anonymous_args = 0
 1164              	.LVL96:
 1165 0362 10B5     		push	{r4, lr}	@
 1166              	.LCFI5:
 1167              		.cfi_def_cfa_offset 8
ARM GAS  C:\Users\Kevin\AppData\Local\Temp\ccW48Nb3.s 			page 46


 1168              		.cfi_offset 4, -8
 1169              		.cfi_offset 14, -4
1355:.\stm32f4periph\src/stm32f4xx_usart.c ****   uint32_t bitpos = 0x00, itmask = 0x00, usartreg = 0x00;
1356:.\stm32f4periph\src/stm32f4xx_usart.c ****   ITStatus bitstatus = RESET;
1357:.\stm32f4periph\src/stm32f4xx_usart.c ****   /* Check the parameters */
1358:.\stm32f4periph\src/stm32f4xx_usart.c ****   assert_param(IS_USART_ALL_PERIPH(USARTx));
1359:.\stm32f4periph\src/stm32f4xx_usart.c ****   assert_param(IS_USART_GET_IT(USART_IT)); 
1360:.\stm32f4periph\src/stm32f4xx_usart.c **** 
1361:.\stm32f4periph\src/stm32f4xx_usart.c ****   /* The CTS interrupt is not available for UART4 and UART5 */ 
1362:.\stm32f4periph\src/stm32f4xx_usart.c ****   if (USART_IT == USART_IT_CTS)
1363:.\stm32f4periph\src/stm32f4xx_usart.c ****   {
1364:.\stm32f4periph\src/stm32f4xx_usart.c ****     assert_param(IS_USART_1236_PERIPH(USARTx));
1365:.\stm32f4periph\src/stm32f4xx_usart.c ****   } 
1366:.\stm32f4periph\src/stm32f4xx_usart.c ****     
1367:.\stm32f4periph\src/stm32f4xx_usart.c ****   /* Get the USART register index */
1368:.\stm32f4periph\src/stm32f4xx_usart.c ****   usartreg = (((uint8_t)USART_IT) >> 0x05);
 1170              		.loc 1 1368 0
 1171 0364 C1F34214 		ubfx	r4, r1, #5, #3	@ usartreg, USART_IT,,
 1172              	.LVL97:
1369:.\stm32f4periph\src/stm32f4xx_usart.c ****   /* Get the interrupt position */
1370:.\stm32f4periph\src/stm32f4xx_usart.c ****   itmask = USART_IT & IT_MASK;
1371:.\stm32f4periph\src/stm32f4xx_usart.c ****   itmask = (uint32_t)0x01 << itmask;
 1173              		.loc 1 1371 0
 1174 0368 0122     		movs	r2, #1	@ tmp162,
 1175 036a 01F01F03 		and	r3, r1, #31	@ tmp161, USART_IT,
1372:.\stm32f4periph\src/stm32f4xx_usart.c ****   
1373:.\stm32f4periph\src/stm32f4xx_usart.c ****   if (usartreg == 0x01) /* The IT  is in CR1 register */
 1176              		.loc 1 1373 0
 1177 036e 012C     		cmp	r4, #1	@ usartreg,
1371:.\stm32f4periph\src/stm32f4xx_usart.c ****   itmask = (uint32_t)0x01 << itmask;
 1178              		.loc 1 1371 0
 1179 0370 02FA03F2 		lsl	r2, r2, r3	@ itmask, tmp162, tmp161
 1180              	.LVL98:
 1181              		.loc 1 1373 0
 1182 0374 01D1     		bne	.L86	@,
1374:.\stm32f4periph\src/stm32f4xx_usart.c ****   {
1375:.\stm32f4periph\src/stm32f4xx_usart.c ****     itmask &= USARTx->CR1;
 1183              		.loc 1 1375 0
 1184 0376 8389     		ldrh	r3, [r0, #12]	@, USARTx_15(D)->CR1
 1185 0378 03E0     		b	.L91	@
 1186              	.L86:
1376:.\stm32f4periph\src/stm32f4xx_usart.c ****   }
1377:.\stm32f4periph\src/stm32f4xx_usart.c ****   else if (usartreg == 0x02) /* The IT  is in CR2 register */
 1187              		.loc 1 1377 0
 1188 037a 022C     		cmp	r4, #2	@ usartreg,
1378:.\stm32f4periph\src/stm32f4xx_usart.c ****   {
1379:.\stm32f4periph\src/stm32f4xx_usart.c ****     itmask &= USARTx->CR2;
 1189              		.loc 1 1379 0
 1190 037c 0CBF     		ite	eq
 1191 037e 038A     		ldrheq	r3, [r0, #16]	@, USARTx_15(D)->CR2
1380:.\stm32f4periph\src/stm32f4xx_usart.c ****   }
1381:.\stm32f4periph\src/stm32f4xx_usart.c ****   else /* The IT  is in CR3 register */
1382:.\stm32f4periph\src/stm32f4xx_usart.c ****   {
1383:.\stm32f4periph\src/stm32f4xx_usart.c ****     itmask &= USARTx->CR3;
 1192              		.loc 1 1383 0
 1193 0380 838A     		ldrhne	r3, [r0, #20]	@, USARTx_15(D)->CR3
 1194              	.L91:
ARM GAS  C:\Users\Kevin\AppData\Local\Temp\ccW48Nb3.s 			page 47


 1195 0382 9BB2     		uxth	r3, r3	@ D.7450, USARTx_15(D)->CR3
 1196 0384 1340     		ands	r3, r3, r2	@, itmask, D.7450, itmask
 1197              	.LVL99:
1384:.\stm32f4periph\src/stm32f4xx_usart.c ****   }
1385:.\stm32f4periph\src/stm32f4xx_usart.c ****   
1386:.\stm32f4periph\src/stm32f4xx_usart.c ****   bitpos = USART_IT >> 0x08;
1387:.\stm32f4periph\src/stm32f4xx_usart.c ****   bitpos = (uint32_t)0x01 << bitpos;
1388:.\stm32f4periph\src/stm32f4xx_usart.c ****   bitpos &= USARTx->SR;
 1198              		.loc 1 1388 0
 1199 0386 0288     		ldrh	r2, [r0, #0]	@, USARTx_15(D)->SR
 1200 0388 92B2     		uxth	r2, r2	@ D.7454, USARTx_15(D)->SR
 1201              	.LVL100:
1389:.\stm32f4periph\src/stm32f4xx_usart.c ****   if ((itmask != (uint16_t)RESET)&&(bitpos != (uint16_t)RESET))
 1202              		.loc 1 1389 0
 1203 038a 43B1     		cbz	r3, .L90	@ itmask,
1387:.\stm32f4periph\src/stm32f4xx_usart.c ****   bitpos = (uint32_t)0x01 << bitpos;
 1204              		.loc 1 1387 0 discriminator 1
 1205 038c 0123     		movs	r3, #1	@ tmp172,
 1206              	.LVL101:
 1207 038e 090A     		lsrs	r1, r1, #8	@ tmp171, USART_IT,
 1208              	.LVL102:
 1209 0390 03FA01F1 		lsl	r1, r3, r1	@ bitpos, tmp172, tmp171
 1210              		.loc 1 1389 0 discriminator 1
 1211 0394 1142     		tst	r1, r2	@ bitpos, D.7454
1390:.\stm32f4periph\src/stm32f4xx_usart.c ****   {
1391:.\stm32f4periph\src/stm32f4xx_usart.c ****     bitstatus = SET;
 1212              		.loc 1 1391 0 discriminator 1
 1213 0396 0CBF     		ite	eq	@
 1214 0398 0020     		moveq	r0, #0	@, bitstatus
 1215 039a 0120     		movne	r0, #1	@, bitstatus
 1216              	.LVL103:
 1217 039c 10BD     		pop	{r4, pc}	@
 1218              	.LVL104:
 1219              	.L90:
1392:.\stm32f4periph\src/stm32f4xx_usart.c ****   }
1393:.\stm32f4periph\src/stm32f4xx_usart.c ****   else
1394:.\stm32f4periph\src/stm32f4xx_usart.c ****   {
1395:.\stm32f4periph\src/stm32f4xx_usart.c ****     bitstatus = RESET;
 1220              		.loc 1 1395 0
 1221 039e 1846     		mov	r0, r3	@ bitstatus, itmask
 1222              	.LVL105:
1396:.\stm32f4periph\src/stm32f4xx_usart.c ****   }
1397:.\stm32f4periph\src/stm32f4xx_usart.c ****   
1398:.\stm32f4periph\src/stm32f4xx_usart.c ****   return bitstatus;  
1399:.\stm32f4periph\src/stm32f4xx_usart.c **** }
 1223              		.loc 1 1399 0
 1224 03a0 10BD     		pop	{r4, pc}	@
 1225              		.cfi_endproc
 1226              	.LFE137:
 1227              		.size	USART_GetITStatus, .-USART_GetITStatus
 1228              		.align	1
 1229              		.global	USART_ClearITPendingBit
 1230              		.thumb
 1231              		.thumb_func
 1232              		.type	USART_ClearITPendingBit, %function
 1233              	USART_ClearITPendingBit:
 1234              	.LFB138:
ARM GAS  C:\Users\Kevin\AppData\Local\Temp\ccW48Nb3.s 			page 48


1400:.\stm32f4periph\src/stm32f4xx_usart.c **** 
1401:.\stm32f4periph\src/stm32f4xx_usart.c **** /**
1402:.\stm32f4periph\src/stm32f4xx_usart.c ****   * @brief  Clears the USARTx's interrupt pending bits.
1403:.\stm32f4periph\src/stm32f4xx_usart.c ****   * @param  USARTx: where x can be 1, 2, 3, 4, 5 or 6 to select the USART or 
1404:.\stm32f4periph\src/stm32f4xx_usart.c ****   *         UART peripheral.
1405:.\stm32f4periph\src/stm32f4xx_usart.c ****   * @param  USART_IT: specifies the interrupt pending bit to clear.
1406:.\stm32f4periph\src/stm32f4xx_usart.c ****   *          This parameter can be one of the following values:
1407:.\stm32f4periph\src/stm32f4xx_usart.c ****   *            @arg USART_IT_CTS:  CTS change interrupt (not available for UART4 and UART5)
1408:.\stm32f4periph\src/stm32f4xx_usart.c ****   *            @arg USART_IT_LBD:  LIN Break detection interrupt
1409:.\stm32f4periph\src/stm32f4xx_usart.c ****   *            @arg USART_IT_TC:   Transmission complete interrupt. 
1410:.\stm32f4periph\src/stm32f4xx_usart.c ****   *            @arg USART_IT_RXNE: Receive Data register not empty interrupt.
1411:.\stm32f4periph\src/stm32f4xx_usart.c ****   *
1412:.\stm32f4periph\src/stm32f4xx_usart.c ****   * @note   PE (Parity error), FE (Framing error), NE (Noise error), ORE (OverRun 
1413:.\stm32f4periph\src/stm32f4xx_usart.c ****   *          error) and IDLE (Idle line detected) pending bits are cleared by 
1414:.\stm32f4periph\src/stm32f4xx_usart.c ****   *          software sequence: a read operation to USART_SR register 
1415:.\stm32f4periph\src/stm32f4xx_usart.c ****   *          (USART_GetITStatus()) followed by a read operation to USART_DR register 
1416:.\stm32f4periph\src/stm32f4xx_usart.c ****   *          (USART_ReceiveData()).
1417:.\stm32f4periph\src/stm32f4xx_usart.c ****   * @note   RXNE pending bit can be also cleared by a read to the USART_DR register 
1418:.\stm32f4periph\src/stm32f4xx_usart.c ****   *          (USART_ReceiveData()).
1419:.\stm32f4periph\src/stm32f4xx_usart.c ****   * @note   TC pending bit can be also cleared by software sequence: a read 
1420:.\stm32f4periph\src/stm32f4xx_usart.c ****   *          operation to USART_SR register (USART_GetITStatus()) followed by a write 
1421:.\stm32f4periph\src/stm32f4xx_usart.c ****   *          operation to USART_DR register (USART_SendData()).
1422:.\stm32f4periph\src/stm32f4xx_usart.c ****   * @note   TXE pending bit is cleared only by a write to the USART_DR register 
1423:.\stm32f4periph\src/stm32f4xx_usart.c ****   *          (USART_SendData()).
1424:.\stm32f4periph\src/stm32f4xx_usart.c ****   *  
1425:.\stm32f4periph\src/stm32f4xx_usart.c ****   * @retval None
1426:.\stm32f4periph\src/stm32f4xx_usart.c ****   */
1427:.\stm32f4periph\src/stm32f4xx_usart.c **** void USART_ClearITPendingBit(USART_TypeDef* USARTx, uint16_t USART_IT)
1428:.\stm32f4periph\src/stm32f4xx_usart.c **** {
 1235              		.loc 1 1428 0
 1236              		.cfi_startproc
 1237              		@ args = 0, pretend = 0, frame = 0
 1238              		@ frame_needed = 0, uses_anonymous_args = 0
 1239              		@ link register save eliminated.
 1240              	.LVL106:
1429:.\stm32f4periph\src/stm32f4xx_usart.c ****   uint16_t bitpos = 0x00, itmask = 0x00;
1430:.\stm32f4periph\src/stm32f4xx_usart.c ****   /* Check the parameters */
1431:.\stm32f4periph\src/stm32f4xx_usart.c ****   assert_param(IS_USART_ALL_PERIPH(USARTx));
1432:.\stm32f4periph\src/stm32f4xx_usart.c ****   assert_param(IS_USART_CLEAR_IT(USART_IT)); 
1433:.\stm32f4periph\src/stm32f4xx_usart.c **** 
1434:.\stm32f4periph\src/stm32f4xx_usart.c ****   /* The CTS interrupt is not available for UART4 and UART5 */
1435:.\stm32f4periph\src/stm32f4xx_usart.c ****   if (USART_IT == USART_IT_CTS)
1436:.\stm32f4periph\src/stm32f4xx_usart.c ****   {
1437:.\stm32f4periph\src/stm32f4xx_usart.c ****     assert_param(IS_USART_1236_PERIPH(USARTx));
1438:.\stm32f4periph\src/stm32f4xx_usart.c ****   } 
1439:.\stm32f4periph\src/stm32f4xx_usart.c ****     
1440:.\stm32f4periph\src/stm32f4xx_usart.c ****   bitpos = USART_IT >> 0x08;
1441:.\stm32f4periph\src/stm32f4xx_usart.c ****   itmask = ((uint16_t)0x01 << (uint16_t)bitpos);
 1241              		.loc 1 1441 0
 1242 03a2 090A     		lsrs	r1, r1, #8	@ tmp142, USART_IT,
 1243              	.LVL107:
 1244 03a4 0123     		movs	r3, #1	@ tmp144,
 1245 03a6 03FA01F3 		lsl	r3, r3, r1	@ tmp143, tmp144, tmp142
1442:.\stm32f4periph\src/stm32f4xx_usart.c ****   USARTx->SR = (uint16_t)~itmask;
 1246              		.loc 1 1442 0
 1247 03aa DB43     		mvns	r3, r3	@ tmp146, tmp143
 1248 03ac 0380     		strh	r3, [r0, #0]	@ movhi	@ D.7433, USARTx_9(D)->SR
ARM GAS  C:\Users\Kevin\AppData\Local\Temp\ccW48Nb3.s 			page 49


 1249 03ae 7047     		bx	lr	@
 1250              		.cfi_endproc
 1251              	.LFE138:
 1252              		.size	USART_ClearITPendingBit, .-USART_ClearITPendingBit
 1253              	.Letext0:
 1254              		.file 2 "k:\\electronics\\gcc\\bin\\../lib/gcc/arm-none-eabi/4.7.2/../../../../arm-none-eabi/inclu
 1255              		.file 3 ".\\inc/stm32f4xx.h"
 1256              		.file 4 ".\\stm32f4periph\\inc/stm32f4xx_rcc.h"
 1257              		.file 5 ".\\stm32f4periph\\inc/stm32f4xx_usart.h"
 1258              		.file 6 ".\\inc/core_cm4.h"