ARM GAS  C:\Users\Kevin\AppData\Local\Temp\ccAyYxRs.s 			page 1


   1              		.syntax unified
   2              		.cpu cortex-m4
   3              		.eabi_attribute 27, 3	@ Tag_ABI_HardFP_use
   4              		.eabi_attribute 28, 1	@ Tag_ABI_VFP_args
   5              		.fpu fpv4-sp-d16
   6              		.eabi_attribute 20, 1	@ Tag_ABI_FP_denormal
   7              		.eabi_attribute 21, 1	@ Tag_ABI_FP_exceptions
   8              		.eabi_attribute 23, 3	@ Tag_ABI_FP_number_model
   9              		.eabi_attribute 24, 1	@ Tag_ABI_align8_needed
  10              		.eabi_attribute 25, 1	@ Tag_ABI_align8_preserved
  11              		.eabi_attribute 26, 1	@ Tag_ABI_enum_size
  12              		.eabi_attribute 30, 4	@ Tag_ABI_optimization_goals
  13              		.eabi_attribute 34, 1	@ Tag_CPU_unaligned_access
  14              		.eabi_attribute 18, 4	@ Tag_ABI_PCS_wchar_t
  15              		.file	"stm32f4xx_dma.c"
  16              	@ GNU C (Sourcery CodeBench Lite 2012.09-63) version 4.7.2 (arm-none-eabi)
  17              	@	compiled by GNU C version 4.3.2, GMP version 5.0.5, MPFR version 3.1.1-p2, MPC version 1.0.1
  18              	@ GGC heuristics: --param ggc-min-expand=100 --param ggc-min-heapsize=131072
  19              	@ options passed:  -I . -I \STMSPINCDDIR -I .\stm32f4periph\inc
  20              	@ -I .\CMSIS\Include -I .\inc\commo\usb -I .\inc\commo -I .\inc\common
  21              	@ -I .\inc -imultilib thumb2
  22              	@ -iprefix k:\electronics\gcc\bin\../lib/gcc/arm-none-eabi/4.7.2/
  23              	@ -isysroot k:\electronics\gcc\bin\../arm-none-eabi
  24              	@ -MD .\stm32f4periph\src\stm32f4xx_dma.d -MF .dep\stm32f4xx_dma.o.d -MP
  25              	@ -MQ .\stm32f4periph\src\stm32f4xx_dma.o -D__USES_INITFINI__ -D STM32F0XX
  26              	@ -D USE_STDPERIPH_DRIVER -D RUN_FROM_FLASH=1
  27              	@ -D __CS_SOURCERYGXX_MAJ__=2012 -D __CS_SOURCERYGXX_MIN__=9
  28              	@ -D __CS_SOURCERYGXX_REV__=63 .\stm32f4periph\src\stm32f4xx_dma.c
  29              	@ -mcpu=cortex-m4 -mfpu=fpv4-sp-d16 -mfloat-abi=hard -mthumb
  30              	@ -auxbase-strip .\stm32f4periph\src\stm32f4xx_dma.o -gdwarf-2 -Os -Wall
  31              	@ -Wstrict-prototypes -std=gnu99 -fomit-frame-pointer -fverbose-asm
  32              	@ options enabled:  -fauto-inc-dec -fbranch-count-reg -fcaller-saves
  33              	@ -fcombine-stack-adjustments -fcommon -fcompare-elim -fcprop-registers
  34              	@ -fcrossjumping -fcse-follow-jumps -fdebug-types-section -fdefer-pop
  35              	@ -fdelete-null-pointer-checks -fdevirtualize -fdwarf2-cfi-asm
  36              	@ -fearly-inlining -feliminate-unused-debug-types -fexpensive-optimizations
  37              	@ -fextension-elimination -fforward-propagate -ffunction-cse -fgcse
  38              	@ -fgcse-lm -fgnu-runtime -fguess-branch-probability -fident
  39              	@ -fif-conversion -fif-conversion2 -findirect-inlining -finline
  40              	@ -finline-atomics -finline-functions -finline-functions-called-once
  41              	@ -finline-small-functions -fipa-cp -fipa-profile -fipa-pure-const
  42              	@ -fipa-reference -fipa-sra -fira-share-save-slots -fira-share-spill-slots
  43              	@ -fivopts -fkeep-static-consts -fleading-underscore -fmath-errno
  44              	@ -fmerge-constants -fmerge-debug-strings -fmove-loop-invariants
  45              	@ -fomit-frame-pointer -foptimize-register-move -foptimize-sibling-calls
  46              	@ -fpartial-inlining -fpeephole -fpeephole2 -fprefetch-loop-arrays
  47              	@ -freg-struct-return -fregmove -freorder-blocks -freorder-functions
  48              	@ -frerun-cse-after-loop -fsched-critical-path-heuristic
  49              	@ -fsched-dep-count-heuristic -fsched-group-heuristic -fsched-interblock
  50              	@ -fsched-last-insn-heuristic -fsched-rank-heuristic -fsched-spec
  51              	@ -fsched-spec-insn-heuristic -fsched-stalled-insns-dep -fschedule-insns2
  52              	@ -fsection-anchors -fshow-column -fshrink-wrap -fsigned-zeros
  53              	@ -fsplit-ivs-in-unroller -fsplit-wide-types -fstrict-aliasing
  54              	@ -fstrict-overflow -fstrict-volatile-bitfields -fthread-jumps
  55              	@ -ftoplevel-reorder -ftrapping-math -ftree-bit-ccp -ftree-builtin-call-dce
  56              	@ -ftree-ccp -ftree-ch -ftree-copy-prop -ftree-copyrename -ftree-cselim
  57              	@ -ftree-dce -ftree-dominator-opts -ftree-dse -ftree-forwprop -ftree-fre
ARM GAS  C:\Users\Kevin\AppData\Local\Temp\ccAyYxRs.s 			page 2


  58              	@ -ftree-if-to-switch-conversion -ftree-loop-if-convert -ftree-loop-im
  59              	@ -ftree-loop-ivcanon -ftree-loop-optimize -ftree-parallelize-loops=
  60              	@ -ftree-phiprop -ftree-pre -ftree-pta -ftree-reassoc -ftree-scev-cprop
  61              	@ -ftree-sink -ftree-slp-vectorize -ftree-sra -ftree-switch-conversion
  62              	@ -ftree-tail-merge -ftree-ter -ftree-vect-loop-version -ftree-vrp
  63              	@ -funit-at-a-time -fvar-tracking -fvar-tracking-assignments -fverbose-asm
  64              	@ -fzero-initialized-in-bss -mlittle-endian -msched-prolog -mthumb
  65              	@ -munaligned-access -mvectorize-with-neon-quad
  66              	
  67              		.text
  68              	.Ltext0:
  69              		.cfi_sections	.debug_frame
  70              		.align	1
  71              		.global	DMA_DeInit
  72              		.thumb
  73              		.thumb_func
  74              		.type	DMA_DeInit, %function
  75              	DMA_DeInit:
  76              	.LFB110:
  77              		.file 1 ".\\stm32f4periph\\src\\stm32f4xx_dma.c"
   1:.\stm32f4periph\src/stm32f4xx_dma.c **** /**
   2:.\stm32f4periph\src/stm32f4xx_dma.c ****   ******************************************************************************
   3:.\stm32f4periph\src/stm32f4xx_dma.c ****   * @file    stm32f4xx_dma.c
   4:.\stm32f4periph\src/stm32f4xx_dma.c ****   * @author  MCD Application Team
   5:.\stm32f4periph\src/stm32f4xx_dma.c ****   * @version V1.0.2
   6:.\stm32f4periph\src/stm32f4xx_dma.c ****   * @date    05-March-2012
   7:.\stm32f4periph\src/stm32f4xx_dma.c ****   * @brief   This file provides firmware functions to manage the following 
   8:.\stm32f4periph\src/stm32f4xx_dma.c ****   *          functionalities of the Direct Memory Access controller (DMA):           
   9:.\stm32f4periph\src/stm32f4xx_dma.c ****   *           - Initialization and Configuration
  10:.\stm32f4periph\src/stm32f4xx_dma.c ****   *           - Data Counter
  11:.\stm32f4periph\src/stm32f4xx_dma.c ****   *           - Double Buffer mode configuration and command  
  12:.\stm32f4periph\src/stm32f4xx_dma.c ****   *           - Interrupts and flags management
  13:.\stm32f4periph\src/stm32f4xx_dma.c ****   *           
  14:.\stm32f4periph\src/stm32f4xx_dma.c ****   *  @verbatim
  15:.\stm32f4periph\src/stm32f4xx_dma.c ****   *      
  16:.\stm32f4periph\src/stm32f4xx_dma.c ****   *          ===================================================================      
  17:.\stm32f4periph\src/stm32f4xx_dma.c ****   *                                 How to use this driver
  18:.\stm32f4periph\src/stm32f4xx_dma.c ****   *          =================================================================== 
  19:.\stm32f4periph\src/stm32f4xx_dma.c ****   *          1. Enable The DMA controller clock using RCC_AHB1PeriphResetCmd(RCC_AHB1Periph_DMA1, E
  20:.\stm32f4periph\src/stm32f4xx_dma.c ****   *             function for DMA1 or using RCC_AHB1PeriphResetCmd(RCC_AHB1Periph_DMA2, ENABLE)
  21:.\stm32f4periph\src/stm32f4xx_dma.c ****   *             function for DMA2.
  22:.\stm32f4periph\src/stm32f4xx_dma.c ****   *
  23:.\stm32f4periph\src/stm32f4xx_dma.c ****   *          2. Enable and configure the peripheral to be connected to the DMA Stream
  24:.\stm32f4periph\src/stm32f4xx_dma.c ****   *             (except for internal SRAM / FLASH memories: no initialization is 
  25:.\stm32f4periph\src/stm32f4xx_dma.c ****   *             necessary). 
  26:.\stm32f4periph\src/stm32f4xx_dma.c ****   *        
  27:.\stm32f4periph\src/stm32f4xx_dma.c ****   *          3. For a given Stream, program the required configuration through following parameters
  28:.\stm32f4periph\src/stm32f4xx_dma.c ****   *             Source and Destination addresses, Transfer Direction, Transfer size, Source and Des
  29:.\stm32f4periph\src/stm32f4xx_dma.c ****   *             data formats, Circular or Normal mode, Stream Priority level, Source and Destinatio
  30:.\stm32f4periph\src/stm32f4xx_dma.c ****   *             Incrementation mode, FIFO mode and its Threshold (if needed), Burst mode for Source
  31:.\stm32f4periph\src/stm32f4xx_dma.c ****   *             Destination (if needed) using the DMA_Init() function.
  32:.\stm32f4periph\src/stm32f4xx_dma.c ****   *             To avoid filling un-nesecessary fields, you can call DMA_StructInit() function
  33:.\stm32f4periph\src/stm32f4xx_dma.c ****   *             to initialize a given structure with default values (reset values), the modify
  34:.\stm32f4periph\src/stm32f4xx_dma.c ****   *             only necessary fields (ie. Source and Destination addresses, Transfer size and Data
  35:.\stm32f4periph\src/stm32f4xx_dma.c ****   *
  36:.\stm32f4periph\src/stm32f4xx_dma.c ****   *          4. Enable the NVIC and the corresponding interrupt(s) using the function 
  37:.\stm32f4periph\src/stm32f4xx_dma.c ****   *             DMA_ITConfig() if you need to use DMA interrupts. 
ARM GAS  C:\Users\Kevin\AppData\Local\Temp\ccAyYxRs.s 			page 3


  38:.\stm32f4periph\src/stm32f4xx_dma.c ****   *
  39:.\stm32f4periph\src/stm32f4xx_dma.c ****   *          5. Optionally, if the Circular mode is enabled, you can use the Double buffer mode by 
  40:.\stm32f4periph\src/stm32f4xx_dma.c ****   *             the second Memory address and the first Memory to be used through the function 
  41:.\stm32f4periph\src/stm32f4xx_dma.c ****   *             DMA_DoubleBufferModeConfig(). Then enable the Double buffer mode through the functi
  42:.\stm32f4periph\src/stm32f4xx_dma.c ****   *             DMA_DoubleBufferModeCmd(). These operations must be done before step 6.
  43:.\stm32f4periph\src/stm32f4xx_dma.c ****   *    
  44:.\stm32f4periph\src/stm32f4xx_dma.c ****   *          6. Enable the DMA stream using the DMA_Cmd() function. 
  45:.\stm32f4periph\src/stm32f4xx_dma.c ****   *                
  46:.\stm32f4periph\src/stm32f4xx_dma.c ****   *          7. Activate the needed Stream Request using PPP_DMACmd() function for
  47:.\stm32f4periph\src/stm32f4xx_dma.c ****   *             any PPP peripheral except internal SRAM and FLASH (ie. SPI, USART ...)
  48:.\stm32f4periph\src/stm32f4xx_dma.c ****   *             The function allowing this operation is provided in each PPP peripheral
  49:.\stm32f4periph\src/stm32f4xx_dma.c ****   *             driver (ie. SPI_DMACmd for SPI peripheral).
  50:.\stm32f4periph\src/stm32f4xx_dma.c ****   *             Once the Stream is enabled, it is not possible to modify its configuration
  51:.\stm32f4periph\src/stm32f4xx_dma.c ****   *             unless the stream is stopped and disabled.
  52:.\stm32f4periph\src/stm32f4xx_dma.c ****   *             After enabling the Stream, it is advised to monitor the EN bit status using
  53:.\stm32f4periph\src/stm32f4xx_dma.c ****   *             the function DMA_GetCmdStatus(). In case of configuration errors or bus errors
  54:.\stm32f4periph\src/stm32f4xx_dma.c ****   *             this bit will remain reset and all transfers on this Stream will remain on hold.   
  55:.\stm32f4periph\src/stm32f4xx_dma.c ****   *
  56:.\stm32f4periph\src/stm32f4xx_dma.c ****   *          8. Optionally, you can configure the number of data to be transferred
  57:.\stm32f4periph\src/stm32f4xx_dma.c ****   *             when the Stream is disabled (ie. after each Transfer Complete event
  58:.\stm32f4periph\src/stm32f4xx_dma.c ****   *             or when a Transfer Error occurs) using the function DMA_SetCurrDataCounter().
  59:.\stm32f4periph\src/stm32f4xx_dma.c ****   *             And you can get the number of remaining data to be transferred using 
  60:.\stm32f4periph\src/stm32f4xx_dma.c ****   *             the function DMA_GetCurrDataCounter() at run time (when the DMA Stream is
  61:.\stm32f4periph\src/stm32f4xx_dma.c ****   *             enabled and running).  
  62:.\stm32f4periph\src/stm32f4xx_dma.c ****   *                   
  63:.\stm32f4periph\src/stm32f4xx_dma.c ****   *          9. To control DMA events you can use one of the following 
  64:.\stm32f4periph\src/stm32f4xx_dma.c ****   *              two methods:
  65:.\stm32f4periph\src/stm32f4xx_dma.c ****   *               a- Check on DMA Stream flags using the function DMA_GetFlagStatus().  
  66:.\stm32f4periph\src/stm32f4xx_dma.c ****   *               b- Use DMA interrupts through the function DMA_ITConfig() at initialization
  67:.\stm32f4periph\src/stm32f4xx_dma.c ****   *                  phase and DMA_GetITStatus() function into interrupt routines in
  68:.\stm32f4periph\src/stm32f4xx_dma.c ****   *                  communication phase.  
  69:.\stm32f4periph\src/stm32f4xx_dma.c ****   *              After checking on a flag you should clear it using DMA_ClearFlag()
  70:.\stm32f4periph\src/stm32f4xx_dma.c ****   *              function. And after checking on an interrupt event you should 
  71:.\stm32f4periph\src/stm32f4xx_dma.c ****   *              clear it using DMA_ClearITPendingBit() function.    
  72:.\stm32f4periph\src/stm32f4xx_dma.c ****   *              
  73:.\stm32f4periph\src/stm32f4xx_dma.c ****   *          10. Optionally, if Circular mode and Double Buffer mode are enabled, you can modify
  74:.\stm32f4periph\src/stm32f4xx_dma.c ****   *              the Memory Addresses using the function DMA_MemoryTargetConfig(). Make sure that
  75:.\stm32f4periph\src/stm32f4xx_dma.c ****   *              the Memory Address to be modified is not the one currently in use by DMA Stream.
  76:.\stm32f4periph\src/stm32f4xx_dma.c ****   *              This condition can be monitored using the function DMA_GetCurrentMemoryTarget().
  77:.\stm32f4periph\src/stm32f4xx_dma.c ****   *              
  78:.\stm32f4periph\src/stm32f4xx_dma.c ****   *          11. Optionally, Pause-Resume operations may be performed:
  79:.\stm32f4periph\src/stm32f4xx_dma.c ****   *              The DMA_Cmd() function may be used to perform Pause-Resume operation. When a 
  80:.\stm32f4periph\src/stm32f4xx_dma.c ****   *              transfer is ongoing, calling this function to disable the Stream will cause the 
  81:.\stm32f4periph\src/stm32f4xx_dma.c ****   *              transfer to be paused. All configuration registers and the number of remaining 
  82:.\stm32f4periph\src/stm32f4xx_dma.c ****   *              data will be preserved. When calling again this function to re-enable the Stream, 
  83:.\stm32f4periph\src/stm32f4xx_dma.c ****   *              the transfer will be resumed from the point where it was paused.          
  84:.\stm32f4periph\src/stm32f4xx_dma.c ****   *                 
  85:.\stm32f4periph\src/stm32f4xx_dma.c ****   * @note   Memory-to-Memory transfer is possible by setting the address of the memory into
  86:.\stm32f4periph\src/stm32f4xx_dma.c ****   *         the Peripheral registers. In this mode, Circular mode and Double Buffer mode
  87:.\stm32f4periph\src/stm32f4xx_dma.c ****   *         are not allowed.
  88:.\stm32f4periph\src/stm32f4xx_dma.c ****   *  
  89:.\stm32f4periph\src/stm32f4xx_dma.c ****   * @note   The FIFO is used mainly to reduce bus usage and to allow data packing/unpacking: it is
  90:.\stm32f4periph\src/stm32f4xx_dma.c ****   *         possible to set different Data Sizes for the Peripheral and the Memory (ie. you can set
  91:.\stm32f4periph\src/stm32f4xx_dma.c ****   *         Half-Word data size for the peripheral to access its data register and set Word data si
  92:.\stm32f4periph\src/stm32f4xx_dma.c ****   *         for the Memory to gain in access time. Each two Half-words will be packed and written i
  93:.\stm32f4periph\src/stm32f4xx_dma.c ****   *         a single access to a Word in the Memory).
  94:.\stm32f4periph\src/stm32f4xx_dma.c ****   *    
ARM GAS  C:\Users\Kevin\AppData\Local\Temp\ccAyYxRs.s 			page 4


  95:.\stm32f4periph\src/stm32f4xx_dma.c ****   * @note  When FIFO is disabled, it is not allowed to configure different Data Sizes for Source
  96:.\stm32f4periph\src/stm32f4xx_dma.c ****   *        and Destination. In this case the Peripheral Data Size will be applied to both Source
  97:.\stm32f4periph\src/stm32f4xx_dma.c ****   *        and Destination.               
  98:.\stm32f4periph\src/stm32f4xx_dma.c ****   *
  99:.\stm32f4periph\src/stm32f4xx_dma.c ****   *  @endverbatim
 100:.\stm32f4periph\src/stm32f4xx_dma.c ****   *                                  
 101:.\stm32f4periph\src/stm32f4xx_dma.c ****   ******************************************************************************
 102:.\stm32f4periph\src/stm32f4xx_dma.c ****   * @attention
 103:.\stm32f4periph\src/stm32f4xx_dma.c ****   *
 104:.\stm32f4periph\src/stm32f4xx_dma.c ****   * <h2><center>&copy; COPYRIGHT 2012 STMicroelectronics</center></h2>
 105:.\stm32f4periph\src/stm32f4xx_dma.c ****   *
 106:.\stm32f4periph\src/stm32f4xx_dma.c ****   * Licensed under MCD-ST Liberty SW License Agreement V2, (the "License");
 107:.\stm32f4periph\src/stm32f4xx_dma.c ****   * You may not use this file except in compliance with the License.
 108:.\stm32f4periph\src/stm32f4xx_dma.c ****   * You may obtain a copy of the License at:
 109:.\stm32f4periph\src/stm32f4xx_dma.c ****   *
 110:.\stm32f4periph\src/stm32f4xx_dma.c ****   *        http://www.st.com/software_license_agreement_liberty_v2
 111:.\stm32f4periph\src/stm32f4xx_dma.c ****   *
 112:.\stm32f4periph\src/stm32f4xx_dma.c ****   * Unless required by applicable law or agreed to in writing, software 
 113:.\stm32f4periph\src/stm32f4xx_dma.c ****   * distributed under the License is distributed on an "AS IS" BASIS, 
 114:.\stm32f4periph\src/stm32f4xx_dma.c ****   * WITHOUT WARRANTIES OR CONDITIONS OF ANY KIND, either express or implied.
 115:.\stm32f4periph\src/stm32f4xx_dma.c ****   * See the License for the specific language governing permissions and
 116:.\stm32f4periph\src/stm32f4xx_dma.c ****   * limitations under the License.
 117:.\stm32f4periph\src/stm32f4xx_dma.c ****   *
 118:.\stm32f4periph\src/stm32f4xx_dma.c ****   ******************************************************************************
 119:.\stm32f4periph\src/stm32f4xx_dma.c ****   */ 
 120:.\stm32f4periph\src/stm32f4xx_dma.c **** 
 121:.\stm32f4periph\src/stm32f4xx_dma.c **** /* Includes ------------------------------------------------------------------*/
 122:.\stm32f4periph\src/stm32f4xx_dma.c **** #include "stm32f4xx_dma.h"
 123:.\stm32f4periph\src/stm32f4xx_dma.c **** #include "stm32f4xx_rcc.h"
 124:.\stm32f4periph\src/stm32f4xx_dma.c **** 
 125:.\stm32f4periph\src/stm32f4xx_dma.c **** /** @addtogroup STM32F4xx_StdPeriph_Driver
 126:.\stm32f4periph\src/stm32f4xx_dma.c ****   * @{
 127:.\stm32f4periph\src/stm32f4xx_dma.c ****   */
 128:.\stm32f4periph\src/stm32f4xx_dma.c **** 
 129:.\stm32f4periph\src/stm32f4xx_dma.c **** /** @defgroup DMA 
 130:.\stm32f4periph\src/stm32f4xx_dma.c ****   * @brief DMA driver modules
 131:.\stm32f4periph\src/stm32f4xx_dma.c ****   * @{
 132:.\stm32f4periph\src/stm32f4xx_dma.c ****   */ 
 133:.\stm32f4periph\src/stm32f4xx_dma.c **** 
 134:.\stm32f4periph\src/stm32f4xx_dma.c **** /* Private typedef -----------------------------------------------------------*/
 135:.\stm32f4periph\src/stm32f4xx_dma.c **** /* Private define ------------------------------------------------------------*/
 136:.\stm32f4periph\src/stm32f4xx_dma.c **** 
 137:.\stm32f4periph\src/stm32f4xx_dma.c **** /* Masks Definition */
 138:.\stm32f4periph\src/stm32f4xx_dma.c **** #define TRANSFER_IT_ENABLE_MASK (uint32_t)(DMA_SxCR_TCIE | DMA_SxCR_HTIE | \
 139:.\stm32f4periph\src/stm32f4xx_dma.c ****                                            DMA_SxCR_TEIE | DMA_SxCR_DMEIE)
 140:.\stm32f4periph\src/stm32f4xx_dma.c **** 
 141:.\stm32f4periph\src/stm32f4xx_dma.c **** #define DMA_Stream0_IT_MASK     (uint32_t)(DMA_LISR_FEIF0 | DMA_LISR_DMEIF0 | \
 142:.\stm32f4periph\src/stm32f4xx_dma.c ****                                            DMA_LISR_TEIF0 | DMA_LISR_HTIF0 | \
 143:.\stm32f4periph\src/stm32f4xx_dma.c ****                                            DMA_LISR_TCIF0)
 144:.\stm32f4periph\src/stm32f4xx_dma.c **** 
 145:.\stm32f4periph\src/stm32f4xx_dma.c **** #define DMA_Stream1_IT_MASK     (uint32_t)(DMA_Stream0_IT_MASK << 6)
 146:.\stm32f4periph\src/stm32f4xx_dma.c **** #define DMA_Stream2_IT_MASK     (uint32_t)(DMA_Stream0_IT_MASK << 16)
 147:.\stm32f4periph\src/stm32f4xx_dma.c **** #define DMA_Stream3_IT_MASK     (uint32_t)(DMA_Stream0_IT_MASK << 22)
 148:.\stm32f4periph\src/stm32f4xx_dma.c **** #define DMA_Stream4_IT_MASK     (uint32_t)(DMA_Stream0_IT_MASK | (uint32_t)0x20000000)
 149:.\stm32f4periph\src/stm32f4xx_dma.c **** #define DMA_Stream5_IT_MASK     (uint32_t)(DMA_Stream1_IT_MASK | (uint32_t)0x20000000)
 150:.\stm32f4periph\src/stm32f4xx_dma.c **** #define DMA_Stream6_IT_MASK     (uint32_t)(DMA_Stream2_IT_MASK | (uint32_t)0x20000000)
 151:.\stm32f4periph\src/stm32f4xx_dma.c **** #define DMA_Stream7_IT_MASK     (uint32_t)(DMA_Stream3_IT_MASK | (uint32_t)0x20000000)
ARM GAS  C:\Users\Kevin\AppData\Local\Temp\ccAyYxRs.s 			page 5


 152:.\stm32f4periph\src/stm32f4xx_dma.c **** #define TRANSFER_IT_MASK        (uint32_t)0x0F3C0F3C
 153:.\stm32f4periph\src/stm32f4xx_dma.c **** #define HIGH_ISR_MASK           (uint32_t)0x20000000
 154:.\stm32f4periph\src/stm32f4xx_dma.c **** #define RESERVED_MASK           (uint32_t)0x0F7D0F7D  
 155:.\stm32f4periph\src/stm32f4xx_dma.c **** 
 156:.\stm32f4periph\src/stm32f4xx_dma.c **** /* Private macro -------------------------------------------------------------*/
 157:.\stm32f4periph\src/stm32f4xx_dma.c **** /* Private variables ---------------------------------------------------------*/
 158:.\stm32f4periph\src/stm32f4xx_dma.c **** /* Private function prototypes -----------------------------------------------*/
 159:.\stm32f4periph\src/stm32f4xx_dma.c **** /* Private functions ---------------------------------------------------------*/
 160:.\stm32f4periph\src/stm32f4xx_dma.c **** 
 161:.\stm32f4periph\src/stm32f4xx_dma.c **** 
 162:.\stm32f4periph\src/stm32f4xx_dma.c **** /** @defgroup DMA_Private_Functions
 163:.\stm32f4periph\src/stm32f4xx_dma.c ****   * @{
 164:.\stm32f4periph\src/stm32f4xx_dma.c ****   */
 165:.\stm32f4periph\src/stm32f4xx_dma.c **** 
 166:.\stm32f4periph\src/stm32f4xx_dma.c **** /** @defgroup DMA_Group1 Initialization and Configuration functions
 167:.\stm32f4periph\src/stm32f4xx_dma.c ****  *  @brief   Initialization and Configuration functions
 168:.\stm32f4periph\src/stm32f4xx_dma.c ****  *
 169:.\stm32f4periph\src/stm32f4xx_dma.c **** @verbatim   
 170:.\stm32f4periph\src/stm32f4xx_dma.c ****  ===============================================================================
 171:.\stm32f4periph\src/stm32f4xx_dma.c ****                  Initialization and Configuration functions
 172:.\stm32f4periph\src/stm32f4xx_dma.c ****  ===============================================================================  
 173:.\stm32f4periph\src/stm32f4xx_dma.c **** 
 174:.\stm32f4periph\src/stm32f4xx_dma.c ****   This subsection provides functions allowing to initialize the DMA Stream source
 175:.\stm32f4periph\src/stm32f4xx_dma.c ****   and destination addresses, incrementation and data sizes, transfer direction, 
 176:.\stm32f4periph\src/stm32f4xx_dma.c ****   buffer size, circular/normal mode selection, memory-to-memory mode selection 
 177:.\stm32f4periph\src/stm32f4xx_dma.c ****   and Stream priority value.
 178:.\stm32f4periph\src/stm32f4xx_dma.c ****   
 179:.\stm32f4periph\src/stm32f4xx_dma.c ****   The DMA_Init() function follows the DMA configuration procedures as described in
 180:.\stm32f4periph\src/stm32f4xx_dma.c ****   reference manual (RM0090) except the first point: waiting on EN bit to be reset.
 181:.\stm32f4periph\src/stm32f4xx_dma.c ****   This condition should be checked by user application using the function DMA_GetCmdStatus()
 182:.\stm32f4periph\src/stm32f4xx_dma.c ****   before calling the DMA_Init() function.
 183:.\stm32f4periph\src/stm32f4xx_dma.c **** 
 184:.\stm32f4periph\src/stm32f4xx_dma.c **** @endverbatim
 185:.\stm32f4periph\src/stm32f4xx_dma.c ****   * @{
 186:.\stm32f4periph\src/stm32f4xx_dma.c ****   */
 187:.\stm32f4periph\src/stm32f4xx_dma.c **** 
 188:.\stm32f4periph\src/stm32f4xx_dma.c **** /**
 189:.\stm32f4periph\src/stm32f4xx_dma.c ****   * @brief  Deinitialize the DMAy Streamx registers to their default reset values.
 190:.\stm32f4periph\src/stm32f4xx_dma.c ****   * @param  DMAy_Streamx: where y can be 1 or 2 to select the DMA and x can be 0
 191:.\stm32f4periph\src/stm32f4xx_dma.c ****   *         to 7 to select the DMA Stream.
 192:.\stm32f4periph\src/stm32f4xx_dma.c ****   * @retval None
 193:.\stm32f4periph\src/stm32f4xx_dma.c ****   */
 194:.\stm32f4periph\src/stm32f4xx_dma.c **** void DMA_DeInit(DMA_Stream_TypeDef* DMAy_Streamx)
 195:.\stm32f4periph\src/stm32f4xx_dma.c **** {
  78              		.loc 1 195 0
  79              		.cfi_startproc
  80              		@ args = 0, pretend = 0, frame = 0
  81              		@ frame_needed = 0, uses_anonymous_args = 0
  82              		@ link register save eliminated.
  83              	.LVL0:
 196:.\stm32f4periph\src/stm32f4xx_dma.c ****   /* Check the parameters */
 197:.\stm32f4periph\src/stm32f4xx_dma.c ****   assert_param(IS_DMA_ALL_PERIPH(DMAy_Streamx));
 198:.\stm32f4periph\src/stm32f4xx_dma.c **** 
 199:.\stm32f4periph\src/stm32f4xx_dma.c ****   /* Disable the selected DMAy Streamx */
 200:.\stm32f4periph\src/stm32f4xx_dma.c ****   DMAy_Streamx->CR &= ~((uint32_t)DMA_SxCR_EN);
  84              		.loc 1 200 0
  85 0000 0368     		ldr	r3, [r0, #0]	@ D.7540, DMAy_Streamx_1(D)->CR
ARM GAS  C:\Users\Kevin\AppData\Local\Temp\ccAyYxRs.s 			page 6


  86 0002 23F00103 		bic	r3, r3, #1	@ D.7541, D.7540,
  87 0006 0360     		str	r3, [r0, #0]	@ D.7541, DMAy_Streamx_1(D)->CR
 201:.\stm32f4periph\src/stm32f4xx_dma.c **** 
 202:.\stm32f4periph\src/stm32f4xx_dma.c ****   /* Reset DMAy Streamx control register */
 203:.\stm32f4periph\src/stm32f4xx_dma.c ****   DMAy_Streamx->CR  = 0;
  88              		.loc 1 203 0
  89 0008 0023     		movs	r3, #0	@ tmp137,
  90 000a 0360     		str	r3, [r0, #0]	@ tmp137, DMAy_Streamx_1(D)->CR
 204:.\stm32f4periph\src/stm32f4xx_dma.c ****   
 205:.\stm32f4periph\src/stm32f4xx_dma.c ****   /* Reset DMAy Streamx Number of Data to Transfer register */
 206:.\stm32f4periph\src/stm32f4xx_dma.c ****   DMAy_Streamx->NDTR = 0;
  91              		.loc 1 206 0
  92 000c 4360     		str	r3, [r0, #4]	@ tmp137, DMAy_Streamx_1(D)->NDTR
 207:.\stm32f4periph\src/stm32f4xx_dma.c ****   
 208:.\stm32f4periph\src/stm32f4xx_dma.c ****   /* Reset DMAy Streamx peripheral address register */
 209:.\stm32f4periph\src/stm32f4xx_dma.c ****   DMAy_Streamx->PAR  = 0;
  93              		.loc 1 209 0
  94 000e 8360     		str	r3, [r0, #8]	@ tmp137, DMAy_Streamx_1(D)->PAR
 210:.\stm32f4periph\src/stm32f4xx_dma.c ****   
 211:.\stm32f4periph\src/stm32f4xx_dma.c ****   /* Reset DMAy Streamx memory 0 address register */
 212:.\stm32f4periph\src/stm32f4xx_dma.c ****   DMAy_Streamx->M0AR = 0;
  95              		.loc 1 212 0
  96 0010 C360     		str	r3, [r0, #12]	@ tmp137, DMAy_Streamx_1(D)->M0AR
 213:.\stm32f4periph\src/stm32f4xx_dma.c **** 
 214:.\stm32f4periph\src/stm32f4xx_dma.c ****   /* Reset DMAy Streamx memory 1 address register */
 215:.\stm32f4periph\src/stm32f4xx_dma.c ****   DMAy_Streamx->M1AR = 0;
  97              		.loc 1 215 0
  98 0012 0361     		str	r3, [r0, #16]	@ tmp137, DMAy_Streamx_1(D)->M1AR
 216:.\stm32f4periph\src/stm32f4xx_dma.c **** 
 217:.\stm32f4periph\src/stm32f4xx_dma.c ****   /* Reset DMAy Streamx FIFO control register */
 218:.\stm32f4periph\src/stm32f4xx_dma.c ****   DMAy_Streamx->FCR = (uint32_t)0x00000021; 
  99              		.loc 1 218 0
 100 0014 2123     		movs	r3, #33	@ tmp142,
 101 0016 4361     		str	r3, [r0, #20]	@ tmp142, DMAy_Streamx_1(D)->FCR
 219:.\stm32f4periph\src/stm32f4xx_dma.c **** 
 220:.\stm32f4periph\src/stm32f4xx_dma.c ****   /* Reset interrupt pending bits for the selected stream */
 221:.\stm32f4periph\src/stm32f4xx_dma.c ****   if (DMAy_Streamx == DMA1_Stream0)
 102              		.loc 1 221 0
 103 0018 2D4B     		ldr	r3, .L26	@ tmp143,
 104 001a 9842     		cmp	r0, r3	@ DMAy_Streamx, tmp143
 105 001c 00D1     		bne	.L2	@,
 106 001e 1EE0     		b	.L18	@
 107              	.L2:
 222:.\stm32f4periph\src/stm32f4xx_dma.c ****   {
 223:.\stm32f4periph\src/stm32f4xx_dma.c ****     /* Reset interrupt pending bits for DMA1 Stream0 */
 224:.\stm32f4periph\src/stm32f4xx_dma.c ****     DMA1->LIFCR = DMA_Stream0_IT_MASK;
 225:.\stm32f4periph\src/stm32f4xx_dma.c ****   }
 226:.\stm32f4periph\src/stm32f4xx_dma.c ****   else if (DMAy_Streamx == DMA1_Stream1)
 108              		.loc 1 226 0
 109 0020 2C4B     		ldr	r3, .L26+4	@ tmp146,
 110 0022 9842     		cmp	r0, r3	@ DMAy_Streamx, tmp146
 111 0024 00D1     		bne	.L4	@,
 112 0026 21E0     		b	.L19	@
 113              	.L4:
 227:.\stm32f4periph\src/stm32f4xx_dma.c ****   {
 228:.\stm32f4periph\src/stm32f4xx_dma.c ****     /* Reset interrupt pending bits for DMA1 Stream1 */
 229:.\stm32f4periph\src/stm32f4xx_dma.c ****     DMA1->LIFCR = DMA_Stream1_IT_MASK;
ARM GAS  C:\Users\Kevin\AppData\Local\Temp\ccAyYxRs.s 			page 7


 230:.\stm32f4periph\src/stm32f4xx_dma.c ****   }
 231:.\stm32f4periph\src/stm32f4xx_dma.c ****   else if (DMAy_Streamx == DMA1_Stream2)
 114              		.loc 1 231 0
 115 0028 2B4B     		ldr	r3, .L26+8	@ tmp149,
 116 002a 9842     		cmp	r0, r3	@ DMAy_Streamx, tmp149
 117 002c 00D1     		bne	.L5	@,
 118 002e 25E0     		b	.L20	@
 119              	.L5:
 232:.\stm32f4periph\src/stm32f4xx_dma.c ****   {
 233:.\stm32f4periph\src/stm32f4xx_dma.c ****     /* Reset interrupt pending bits for DMA1 Stream2 */
 234:.\stm32f4periph\src/stm32f4xx_dma.c ****     DMA1->LIFCR = DMA_Stream2_IT_MASK;
 235:.\stm32f4periph\src/stm32f4xx_dma.c ****   }
 236:.\stm32f4periph\src/stm32f4xx_dma.c ****   else if (DMAy_Streamx == DMA1_Stream3)
 120              		.loc 1 236 0
 121 0030 2A4B     		ldr	r3, .L26+12	@ tmp152,
 122 0032 9842     		cmp	r0, r3	@ DMAy_Streamx, tmp152
 123 0034 00D1     		bne	.L6	@,
 124 0036 29E0     		b	.L21	@
 125              	.L6:
 237:.\stm32f4periph\src/stm32f4xx_dma.c ****   {
 238:.\stm32f4periph\src/stm32f4xx_dma.c ****     /* Reset interrupt pending bits for DMA1 Stream3 */
 239:.\stm32f4periph\src/stm32f4xx_dma.c ****     DMA1->LIFCR = DMA_Stream3_IT_MASK;
 240:.\stm32f4periph\src/stm32f4xx_dma.c ****   }
 241:.\stm32f4periph\src/stm32f4xx_dma.c ****   else if (DMAy_Streamx == DMA1_Stream4)
 126              		.loc 1 241 0
 127 0038 294B     		ldr	r3, .L26+16	@ tmp155,
 128 003a 9842     		cmp	r0, r3	@ DMAy_Streamx, tmp155
 129 003c 00D1     		bne	.L7	@,
 130 003e 2DE0     		b	.L22	@
 131              	.L7:
 242:.\stm32f4periph\src/stm32f4xx_dma.c ****   {
 243:.\stm32f4periph\src/stm32f4xx_dma.c ****     /* Reset interrupt pending bits for DMA1 Stream4 */
 244:.\stm32f4periph\src/stm32f4xx_dma.c ****     DMA1->HIFCR = DMA_Stream4_IT_MASK;
 245:.\stm32f4periph\src/stm32f4xx_dma.c ****   }
 246:.\stm32f4periph\src/stm32f4xx_dma.c ****   else if (DMAy_Streamx == DMA1_Stream5)
 132              		.loc 1 246 0
 133 0040 284B     		ldr	r3, .L26+20	@ tmp158,
 134 0042 9842     		cmp	r0, r3	@ DMAy_Streamx, tmp158
 135 0044 00D1     		bne	.L8	@,
 136 0046 30E0     		b	.L23	@
 137              	.L8:
 247:.\stm32f4periph\src/stm32f4xx_dma.c ****   {
 248:.\stm32f4periph\src/stm32f4xx_dma.c ****     /* Reset interrupt pending bits for DMA1 Stream5 */
 249:.\stm32f4periph\src/stm32f4xx_dma.c ****     DMA1->HIFCR = DMA_Stream5_IT_MASK;
 250:.\stm32f4periph\src/stm32f4xx_dma.c ****   }
 251:.\stm32f4periph\src/stm32f4xx_dma.c ****   else if (DMAy_Streamx == DMA1_Stream6)
 138              		.loc 1 251 0
 139 0048 274B     		ldr	r3, .L26+24	@ tmp161,
 140 004a 9842     		cmp	r0, r3	@ DMAy_Streamx, tmp161
 141 004c 00D1     		bne	.L9	@,
 142 004e 33E0     		b	.L24	@
 143              	.L9:
 252:.\stm32f4periph\src/stm32f4xx_dma.c ****   {
 253:.\stm32f4periph\src/stm32f4xx_dma.c ****     /* Reset interrupt pending bits for DMA1 Stream6 */
 254:.\stm32f4periph\src/stm32f4xx_dma.c ****     DMA1->HIFCR = (uint32_t)DMA_Stream6_IT_MASK;
 255:.\stm32f4periph\src/stm32f4xx_dma.c ****   }
 256:.\stm32f4periph\src/stm32f4xx_dma.c ****   else if (DMAy_Streamx == DMA1_Stream7)
ARM GAS  C:\Users\Kevin\AppData\Local\Temp\ccAyYxRs.s 			page 8


 144              		.loc 1 256 0
 145 0050 264B     		ldr	r3, .L26+28	@ tmp164,
 146 0052 9842     		cmp	r0, r3	@ DMAy_Streamx, tmp164
 147 0054 00D1     		bne	.L10	@,
 148 0056 36E0     		b	.L25	@
 149              	.L10:
 257:.\stm32f4periph\src/stm32f4xx_dma.c ****   {
 258:.\stm32f4periph\src/stm32f4xx_dma.c ****     /* Reset interrupt pending bits for DMA1 Stream7 */
 259:.\stm32f4periph\src/stm32f4xx_dma.c ****     DMA1->HIFCR = DMA_Stream7_IT_MASK;
 260:.\stm32f4periph\src/stm32f4xx_dma.c ****   }
 261:.\stm32f4periph\src/stm32f4xx_dma.c ****   else if (DMAy_Streamx == DMA2_Stream0)
 150              		.loc 1 261 0
 151 0058 254B     		ldr	r3, .L26+32	@ tmp167,
 152 005a 9842     		cmp	r0, r3	@ DMAy_Streamx, tmp167
 153 005c 03D1     		bne	.L11	@,
 154              	.L18:
 262:.\stm32f4periph\src/stm32f4xx_dma.c ****   {
 263:.\stm32f4periph\src/stm32f4xx_dma.c ****     /* Reset interrupt pending bits for DMA2 Stream0 */
 264:.\stm32f4periph\src/stm32f4xx_dma.c ****     DMA2->LIFCR = DMA_Stream0_IT_MASK;
 155              		.loc 1 264 0
 156 005e 3D22     		movs	r2, #61	@ tmp169,
 157 0060 43F8082C 		str	r2, [r3, #-8]	@ tmp169,
 158 0064 7047     		bx	lr	@
 159              	.L11:
 265:.\stm32f4periph\src/stm32f4xx_dma.c ****   }
 266:.\stm32f4periph\src/stm32f4xx_dma.c ****   else if (DMAy_Streamx == DMA2_Stream1)
 160              		.loc 1 266 0
 161 0066 234B     		ldr	r3, .L26+36	@ tmp170,
 162 0068 9842     		cmp	r0, r3	@ DMAy_Streamx, tmp170
 163 006a 04D1     		bne	.L12	@,
 164              	.L19:
 267:.\stm32f4periph\src/stm32f4xx_dma.c ****   {
 268:.\stm32f4periph\src/stm32f4xx_dma.c ****     /* Reset interrupt pending bits for DMA2 Stream1 */
 269:.\stm32f4periph\src/stm32f4xx_dma.c ****     DMA2->LIFCR = DMA_Stream1_IT_MASK;
 165              		.loc 1 269 0
 166 006c 4FF47462 		mov	r2, #3904	@ tmp172,
 167 0070 43F8202C 		str	r2, [r3, #-32]	@ tmp172,
 168 0074 7047     		bx	lr	@
 169              	.L12:
 270:.\stm32f4periph\src/stm32f4xx_dma.c ****   }
 271:.\stm32f4periph\src/stm32f4xx_dma.c ****   else if (DMAy_Streamx == DMA2_Stream2)
 170              		.loc 1 271 0
 171 0076 204B     		ldr	r3, .L26+40	@ tmp173,
 172 0078 9842     		cmp	r0, r3	@ DMAy_Streamx, tmp173
 173 007a 04D1     		bne	.L13	@,
 174              	.L20:
 272:.\stm32f4periph\src/stm32f4xx_dma.c ****   {
 273:.\stm32f4periph\src/stm32f4xx_dma.c ****     /* Reset interrupt pending bits for DMA2 Stream2 */
 274:.\stm32f4periph\src/stm32f4xx_dma.c ****     DMA2->LIFCR = DMA_Stream2_IT_MASK;
 175              		.loc 1 274 0
 176 007c 4FF47412 		mov	r2, #3997696	@ tmp175,
 177 0080 43F8382C 		str	r2, [r3, #-56]	@ tmp175,
 178 0084 7047     		bx	lr	@
 179              	.L13:
 275:.\stm32f4periph\src/stm32f4xx_dma.c ****   }
 276:.\stm32f4periph\src/stm32f4xx_dma.c ****   else if (DMAy_Streamx == DMA2_Stream3)
 180              		.loc 1 276 0
ARM GAS  C:\Users\Kevin\AppData\Local\Temp\ccAyYxRs.s 			page 9


 181 0086 1D4B     		ldr	r3, .L26+44	@ tmp176,
 182 0088 9842     		cmp	r0, r3	@ DMAy_Streamx, tmp176
 183 008a 04D1     		bne	.L14	@,
 184              	.L21:
 277:.\stm32f4periph\src/stm32f4xx_dma.c ****   {
 278:.\stm32f4periph\src/stm32f4xx_dma.c ****     /* Reset interrupt pending bits for DMA2 Stream3 */
 279:.\stm32f4periph\src/stm32f4xx_dma.c ****     DMA2->LIFCR = DMA_Stream3_IT_MASK;
 185              		.loc 1 279 0
 186 008c 4FF07462 		mov	r2, #255852544	@ tmp178,
 187 0090 43F8502C 		str	r2, [r3, #-80]	@ tmp178,
 188 0094 7047     		bx	lr	@
 189              	.L14:
 280:.\stm32f4periph\src/stm32f4xx_dma.c ****   }
 281:.\stm32f4periph\src/stm32f4xx_dma.c ****   else if (DMAy_Streamx == DMA2_Stream4)
 190              		.loc 1 281 0
 191 0096 1A4B     		ldr	r3, .L26+48	@ tmp179,
 192 0098 9842     		cmp	r0, r3	@ DMAy_Streamx, tmp179
 193 009a 03D1     		bne	.L15	@,
 194              	.L22:
 282:.\stm32f4periph\src/stm32f4xx_dma.c ****   {
 283:.\stm32f4periph\src/stm32f4xx_dma.c ****     /* Reset interrupt pending bits for DMA2 Stream4 */
 284:.\stm32f4periph\src/stm32f4xx_dma.c ****     DMA2->HIFCR = DMA_Stream4_IT_MASK;
 195              		.loc 1 284 0
 196 009c 194A     		ldr	r2, .L26+52	@ tmp181,
 197 009e 43F8642C 		str	r2, [r3, #-100]	@ tmp181,
 198 00a2 7047     		bx	lr	@
 199              	.L15:
 285:.\stm32f4periph\src/stm32f4xx_dma.c ****   }
 286:.\stm32f4periph\src/stm32f4xx_dma.c ****   else if (DMAy_Streamx == DMA2_Stream5)
 200              		.loc 1 286 0
 201 00a4 184B     		ldr	r3, .L26+56	@ tmp182,
 202 00a6 9842     		cmp	r0, r3	@ DMAy_Streamx, tmp182
 203 00a8 03D1     		bne	.L16	@,
 204              	.L23:
 287:.\stm32f4periph\src/stm32f4xx_dma.c ****   {
 288:.\stm32f4periph\src/stm32f4xx_dma.c ****     /* Reset interrupt pending bits for DMA2 Stream5 */
 289:.\stm32f4periph\src/stm32f4xx_dma.c ****     DMA2->HIFCR = DMA_Stream5_IT_MASK;
 205              		.loc 1 289 0
 206 00aa 184A     		ldr	r2, .L26+60	@ tmp184,
 207 00ac 43F87C2C 		str	r2, [r3, #-124]	@ tmp184,
 208 00b0 7047     		bx	lr	@
 209              	.L16:
 290:.\stm32f4periph\src/stm32f4xx_dma.c ****   }
 291:.\stm32f4periph\src/stm32f4xx_dma.c ****   else if (DMAy_Streamx == DMA2_Stream6)
 210              		.loc 1 291 0
 211 00b2 174B     		ldr	r3, .L26+64	@ tmp185,
 212 00b4 9842     		cmp	r0, r3	@ DMAy_Streamx, tmp185
 213 00b6 03D1     		bne	.L17	@,
 214              	.L24:
 292:.\stm32f4periph\src/stm32f4xx_dma.c ****   {
 293:.\stm32f4periph\src/stm32f4xx_dma.c ****     /* Reset interrupt pending bits for DMA2 Stream6 */
 294:.\stm32f4periph\src/stm32f4xx_dma.c ****     DMA2->HIFCR = DMA_Stream6_IT_MASK;
 215              		.loc 1 294 0
 216 00b8 164A     		ldr	r2, .L26+68	@ tmp187,
 217 00ba 43F8942C 		str	r2, [r3, #-148]	@ tmp187,
 218 00be 7047     		bx	lr	@
 219              	.L17:
ARM GAS  C:\Users\Kevin\AppData\Local\Temp\ccAyYxRs.s 			page 10


 295:.\stm32f4periph\src/stm32f4xx_dma.c ****   }
 296:.\stm32f4periph\src/stm32f4xx_dma.c ****   else 
 297:.\stm32f4periph\src/stm32f4xx_dma.c ****   {
 298:.\stm32f4periph\src/stm32f4xx_dma.c ****     if (DMAy_Streamx == DMA2_Stream7)
 220              		.loc 1 298 0
 221 00c0 154B     		ldr	r3, .L26+72	@ tmp188,
 222 00c2 9842     		cmp	r0, r3	@ DMAy_Streamx, tmp188
 223 00c4 03D1     		bne	.L1	@,
 224              	.L25:
 299:.\stm32f4periph\src/stm32f4xx_dma.c ****     {
 300:.\stm32f4periph\src/stm32f4xx_dma.c ****       /* Reset interrupt pending bits for DMA2 Stream7 */
 301:.\stm32f4periph\src/stm32f4xx_dma.c ****       DMA2->HIFCR = DMA_Stream7_IT_MASK;
 225              		.loc 1 301 0
 226 00c6 4FF03D52 		mov	r2, #792723456	@ tmp190,
 227 00ca 43F8AC2C 		str	r2, [r3, #-172]	@ tmp190,
 228              	.L1:
 229 00ce 7047     		bx	lr	@
 230              	.L27:
 231              		.align	2
 232              	.L26:
 233 00d0 10600240 		.word	1073897488
 234 00d4 28600240 		.word	1073897512
 235 00d8 40600240 		.word	1073897536
 236 00dc 58600240 		.word	1073897560
 237 00e0 70600240 		.word	1073897584
 238 00e4 88600240 		.word	1073897608
 239 00e8 A0600240 		.word	1073897632
 240 00ec B8600240 		.word	1073897656
 241 00f0 10640240 		.word	1073898512
 242 00f4 28640240 		.word	1073898536
 243 00f8 40640240 		.word	1073898560
 244 00fc 58640240 		.word	1073898584
 245 0100 70640240 		.word	1073898608
 246 0104 3D000020 		.word	536870973
 247 0108 88640240 		.word	1073898632
 248 010c 400F0020 		.word	536874816
 249 0110 A0640240 		.word	1073898656
 250 0114 00003D20 		.word	540868608
 251 0118 B8640240 		.word	1073898680
 252              		.cfi_endproc
 253              	.LFE110:
 254              		.size	DMA_DeInit, .-DMA_DeInit
 255              		.align	1
 256              		.global	DMA_Init
 257              		.thumb
 258              		.thumb_func
 259              		.type	DMA_Init, %function
 260              	DMA_Init:
 261              	.LFB111:
 302:.\stm32f4periph\src/stm32f4xx_dma.c ****     }
 303:.\stm32f4periph\src/stm32f4xx_dma.c ****   }
 304:.\stm32f4periph\src/stm32f4xx_dma.c **** }
 305:.\stm32f4periph\src/stm32f4xx_dma.c **** 
 306:.\stm32f4periph\src/stm32f4xx_dma.c **** /**
 307:.\stm32f4periph\src/stm32f4xx_dma.c ****   * @brief  Initializes the DMAy Streamx according to the specified parameters in 
 308:.\stm32f4periph\src/stm32f4xx_dma.c ****   *         the DMA_InitStruct structure.
 309:.\stm32f4periph\src/stm32f4xx_dma.c ****   * @note   Before calling this function, it is recommended to check that the Stream 
ARM GAS  C:\Users\Kevin\AppData\Local\Temp\ccAyYxRs.s 			page 11


 310:.\stm32f4periph\src/stm32f4xx_dma.c ****   *         is actually disabled using the function DMA_GetCmdStatus().  
 311:.\stm32f4periph\src/stm32f4xx_dma.c ****   * @param  DMAy_Streamx: where y can be 1 or 2 to select the DMA and x can be 0
 312:.\stm32f4periph\src/stm32f4xx_dma.c ****   *         to 7 to select the DMA Stream.
 313:.\stm32f4periph\src/stm32f4xx_dma.c ****   * @param  DMA_InitStruct: pointer to a DMA_InitTypeDef structure that contains
 314:.\stm32f4periph\src/stm32f4xx_dma.c ****   *         the configuration information for the specified DMA Stream.  
 315:.\stm32f4periph\src/stm32f4xx_dma.c ****   * @retval None
 316:.\stm32f4periph\src/stm32f4xx_dma.c ****   */
 317:.\stm32f4periph\src/stm32f4xx_dma.c **** void DMA_Init(DMA_Stream_TypeDef* DMAy_Streamx, DMA_InitTypeDef* DMA_InitStruct)
 318:.\stm32f4periph\src/stm32f4xx_dma.c **** {
 262              		.loc 1 318 0
 263              		.cfi_startproc
 264              		@ args = 0, pretend = 0, frame = 0
 265              		@ frame_needed = 0, uses_anonymous_args = 0
 266              	.LVL1:
 319:.\stm32f4periph\src/stm32f4xx_dma.c ****   uint32_t tmpreg = 0;
 320:.\stm32f4periph\src/stm32f4xx_dma.c **** 
 321:.\stm32f4periph\src/stm32f4xx_dma.c ****   /* Check the parameters */
 322:.\stm32f4periph\src/stm32f4xx_dma.c ****   assert_param(IS_DMA_ALL_PERIPH(DMAy_Streamx));
 323:.\stm32f4periph\src/stm32f4xx_dma.c ****   assert_param(IS_DMA_CHANNEL(DMA_InitStruct->DMA_Channel));
 324:.\stm32f4periph\src/stm32f4xx_dma.c ****   assert_param(IS_DMA_DIRECTION(DMA_InitStruct->DMA_DIR));
 325:.\stm32f4periph\src/stm32f4xx_dma.c ****   assert_param(IS_DMA_BUFFER_SIZE(DMA_InitStruct->DMA_BufferSize));
 326:.\stm32f4periph\src/stm32f4xx_dma.c ****   assert_param(IS_DMA_PERIPHERAL_INC_STATE(DMA_InitStruct->DMA_PeripheralInc));
 327:.\stm32f4periph\src/stm32f4xx_dma.c ****   assert_param(IS_DMA_MEMORY_INC_STATE(DMA_InitStruct->DMA_MemoryInc));
 328:.\stm32f4periph\src/stm32f4xx_dma.c ****   assert_param(IS_DMA_PERIPHERAL_DATA_SIZE(DMA_InitStruct->DMA_PeripheralDataSize));
 329:.\stm32f4periph\src/stm32f4xx_dma.c ****   assert_param(IS_DMA_MEMORY_DATA_SIZE(DMA_InitStruct->DMA_MemoryDataSize));
 330:.\stm32f4periph\src/stm32f4xx_dma.c ****   assert_param(IS_DMA_MODE(DMA_InitStruct->DMA_Mode));
 331:.\stm32f4periph\src/stm32f4xx_dma.c ****   assert_param(IS_DMA_PRIORITY(DMA_InitStruct->DMA_Priority));
 332:.\stm32f4periph\src/stm32f4xx_dma.c ****   assert_param(IS_DMA_FIFO_MODE_STATE(DMA_InitStruct->DMA_FIFOMode));
 333:.\stm32f4periph\src/stm32f4xx_dma.c ****   assert_param(IS_DMA_FIFO_THRESHOLD(DMA_InitStruct->DMA_FIFOThreshold));
 334:.\stm32f4periph\src/stm32f4xx_dma.c ****   assert_param(IS_DMA_MEMORY_BURST(DMA_InitStruct->DMA_MemoryBurst));
 335:.\stm32f4periph\src/stm32f4xx_dma.c ****   assert_param(IS_DMA_PERIPHERAL_BURST(DMA_InitStruct->DMA_PeripheralBurst));
 336:.\stm32f4periph\src/stm32f4xx_dma.c **** 
 337:.\stm32f4periph\src/stm32f4xx_dma.c ****   /*------------------------- DMAy Streamx CR Configuration ------------------*/
 338:.\stm32f4periph\src/stm32f4xx_dma.c ****   /* Get the DMAy_Streamx CR value */
 339:.\stm32f4periph\src/stm32f4xx_dma.c ****   tmpreg = DMAy_Streamx->CR;
 267              		.loc 1 339 0
 268 011c 0268     		ldr	r2, [r0, #0]	@ tmpreg, DMAy_Streamx_2(D)->CR
 269              	.LVL2:
 340:.\stm32f4periph\src/stm32f4xx_dma.c **** 
 341:.\stm32f4periph\src/stm32f4xx_dma.c ****   /* Clear CHSEL, MBURST, PBURST, PL, MSIZE, PSIZE, MINC, PINC, CIRC and DIR bits */
 342:.\stm32f4periph\src/stm32f4xx_dma.c ****   tmpreg &= ((uint32_t)~(DMA_SxCR_CHSEL | DMA_SxCR_MBURST | DMA_SxCR_PBURST | \
 270              		.loc 1 342 0
 271 011e 134B     		ldr	r3, .L29	@ tmpreg,
 318:.\stm32f4periph\src/stm32f4xx_dma.c **** {
 272              		.loc 1 318 0
 273 0120 10B5     		push	{r4, lr}	@
 274              	.LCFI0:
 275              		.cfi_def_cfa_offset 8
 276              		.cfi_offset 4, -8
 277              		.cfi_offset 14, -4
 278              		.loc 1 342 0
 279 0122 1340     		ands	r3, r3, r2	@, tmpreg, tmpreg, tmpreg
 280              	.LVL3:
 343:.\stm32f4periph\src/stm32f4xx_dma.c ****                          DMA_SxCR_PL | DMA_SxCR_MSIZE | DMA_SxCR_PSIZE | \
 344:.\stm32f4periph\src/stm32f4xx_dma.c ****                          DMA_SxCR_MINC | DMA_SxCR_PINC | DMA_SxCR_CIRC | \
 345:.\stm32f4periph\src/stm32f4xx_dma.c ****                          DMA_SxCR_DIR));
 346:.\stm32f4periph\src/stm32f4xx_dma.c **** 
ARM GAS  C:\Users\Kevin\AppData\Local\Temp\ccAyYxRs.s 			page 12


 347:.\stm32f4periph\src/stm32f4xx_dma.c ****   /* Configure DMAy Streamx: */
 348:.\stm32f4periph\src/stm32f4xx_dma.c ****   /* Set CHSEL bits according to DMA_CHSEL value */
 349:.\stm32f4periph\src/stm32f4xx_dma.c ****   /* Set DIR bits according to DMA_DIR value */
 350:.\stm32f4periph\src/stm32f4xx_dma.c ****   /* Set PINC bit according to DMA_PeripheralInc value */
 351:.\stm32f4periph\src/stm32f4xx_dma.c ****   /* Set MINC bit according to DMA_MemoryInc value */
 352:.\stm32f4periph\src/stm32f4xx_dma.c ****   /* Set PSIZE bits according to DMA_PeripheralDataSize value */
 353:.\stm32f4periph\src/stm32f4xx_dma.c ****   /* Set MSIZE bits according to DMA_MemoryDataSize value */
 354:.\stm32f4periph\src/stm32f4xx_dma.c ****   /* Set CIRC bit according to DMA_Mode value */
 355:.\stm32f4periph\src/stm32f4xx_dma.c ****   /* Set PL bits according to DMA_Priority value */
 356:.\stm32f4periph\src/stm32f4xx_dma.c ****   /* Set MBURST bits according to DMA_MemoryBurst value */
 357:.\stm32f4periph\src/stm32f4xx_dma.c ****   /* Set PBURST bits according to DMA_PeripheralBurst value */
 358:.\stm32f4periph\src/stm32f4xx_dma.c ****   tmpreg |= DMA_InitStruct->DMA_Channel | DMA_InitStruct->DMA_DIR |
 281              		.loc 1 358 0
 282 0124 CC68     		ldr	r4, [r1, #12]	@ DMA_InitStruct_5(D)->DMA_DIR, DMA_InitStruct_5(D)->DMA_DIR
 283 0126 0A68     		ldr	r2, [r1, #0]	@ DMA_InitStruct_5(D)->DMA_Channel, DMA_InitStruct_5(D)->DMA_Channel
 284 0128 1443     		orrs	r4, r4, r2	@, tmp168, DMA_InitStruct_5(D)->DMA_DIR, DMA_InitStruct_5(D)->DMA_Channel
 285 012a 4A69     		ldr	r2, [r1, #20]	@ DMA_InitStruct_5(D)->DMA_PeripheralInc, DMA_InitStruct_5(D)->DMA_PeripheralInc
 286 012c 1443     		orrs	r4, r4, r2	@, tmp171, tmp168, DMA_InitStruct_5(D)->DMA_PeripheralInc
 359:.\stm32f4periph\src/stm32f4xx_dma.c ****             DMA_InitStruct->DMA_PeripheralInc | DMA_InitStruct->DMA_MemoryInc |
 287              		.loc 1 359 0
 288 012e 8A69     		ldr	r2, [r1, #24]	@ DMA_InitStruct_5(D)->DMA_MemoryInc, DMA_InitStruct_5(D)->DMA_MemoryInc
 289 0130 1443     		orrs	r4, r4, r2	@, tmp173, tmp171, DMA_InitStruct_5(D)->DMA_MemoryInc
 290 0132 CA69     		ldr	r2, [r1, #28]	@ DMA_InitStruct_5(D)->DMA_PeripheralDataSize, DMA_InitStruct_5(D)->DMA_Peripher
 291 0134 1443     		orrs	r4, r4, r2	@, tmp175, tmp173, DMA_InitStruct_5(D)->DMA_PeripheralDataSize
 360:.\stm32f4periph\src/stm32f4xx_dma.c ****             DMA_InitStruct->DMA_PeripheralDataSize | DMA_InitStruct->DMA_MemoryDataSize |
 292              		.loc 1 360 0
 293 0136 0A6A     		ldr	r2, [r1, #32]	@ DMA_InitStruct_5(D)->DMA_MemoryDataSize, DMA_InitStruct_5(D)->DMA_MemoryDataSi
 294 0138 1443     		orrs	r4, r4, r2	@, tmp177, tmp175, DMA_InitStruct_5(D)->DMA_MemoryDataSize
 295 013a 4A6A     		ldr	r2, [r1, #36]	@ DMA_InitStruct_5(D)->DMA_Mode, DMA_InitStruct_5(D)->DMA_Mode
 296 013c 1443     		orrs	r4, r4, r2	@, tmp179, tmp177, DMA_InitStruct_5(D)->DMA_Mode
 361:.\stm32f4periph\src/stm32f4xx_dma.c ****             DMA_InitStruct->DMA_Mode | DMA_InitStruct->DMA_Priority |
 297              		.loc 1 361 0
 298 013e 8A6A     		ldr	r2, [r1, #40]	@ DMA_InitStruct_5(D)->DMA_Priority, DMA_InitStruct_5(D)->DMA_Priority
 299 0140 1443     		orrs	r4, r4, r2	@, tmp181, tmp179, DMA_InitStruct_5(D)->DMA_Priority
 300 0142 4A6B     		ldr	r2, [r1, #52]	@ DMA_InitStruct_5(D)->DMA_MemoryBurst, DMA_InitStruct_5(D)->DMA_MemoryBurst
 301 0144 1443     		orrs	r4, r4, r2	@, tmp183, tmp181, DMA_InitStruct_5(D)->DMA_MemoryBurst
 362:.\stm32f4periph\src/stm32f4xx_dma.c ****             DMA_InitStruct->DMA_MemoryBurst | DMA_InitStruct->DMA_PeripheralBurst;
 302              		.loc 1 362 0
 303 0146 8A6B     		ldr	r2, [r1, #56]	@ DMA_InitStruct_5(D)->DMA_PeripheralBurst, DMA_InitStruct_5(D)->DMA_PeripheralB
 304 0148 2243     		orrs	r2, r2, r4	@, tmp185, DMA_InitStruct_5(D)->DMA_PeripheralBurst, tmp183
 358:.\stm32f4periph\src/stm32f4xx_dma.c ****   tmpreg |= DMA_InitStruct->DMA_Channel | DMA_InitStruct->DMA_DIR |
 305              		.loc 1 358 0
 306 014a 1343     		orrs	r3, r3, r2	@, tmpreg, tmpreg, tmp185
 307              	.LVL4:
 363:.\stm32f4periph\src/stm32f4xx_dma.c **** 
 364:.\stm32f4periph\src/stm32f4xx_dma.c ****   /* Write to DMAy Streamx CR register */
 365:.\stm32f4periph\src/stm32f4xx_dma.c ****   DMAy_Streamx->CR = tmpreg;
 308              		.loc 1 365 0
 309 014c 0360     		str	r3, [r0, #0]	@ tmpreg, DMAy_Streamx_2(D)->CR
 366:.\stm32f4periph\src/stm32f4xx_dma.c **** 
 367:.\stm32f4periph\src/stm32f4xx_dma.c ****   /*------------------------- DMAy Streamx FCR Configuration -----------------*/
 368:.\stm32f4periph\src/stm32f4xx_dma.c ****   /* Get the DMAy_Streamx FCR value */
 369:.\stm32f4periph\src/stm32f4xx_dma.c ****   tmpreg = DMAy_Streamx->FCR;
 310              		.loc 1 369 0
 311 014e 4469     		ldr	r4, [r0, #20]	@ tmpreg, DMAy_Streamx_2(D)->FCR
 312              	.LVL5:
 370:.\stm32f4periph\src/stm32f4xx_dma.c **** 
ARM GAS  C:\Users\Kevin\AppData\Local\Temp\ccAyYxRs.s 			page 13


 371:.\stm32f4periph\src/stm32f4xx_dma.c ****   /* Clear DMDIS and FTH bits */
 372:.\stm32f4periph\src/stm32f4xx_dma.c ****   tmpreg &= (uint32_t)~(DMA_SxFCR_DMDIS | DMA_SxFCR_FTH);
 373:.\stm32f4periph\src/stm32f4xx_dma.c **** 
 374:.\stm32f4periph\src/stm32f4xx_dma.c ****   /* Configure DMAy Streamx FIFO: 
 375:.\stm32f4periph\src/stm32f4xx_dma.c ****     Set DMDIS bits according to DMA_FIFOMode value 
 376:.\stm32f4periph\src/stm32f4xx_dma.c ****     Set FTH bits according to DMA_FIFOThreshold value */
 377:.\stm32f4periph\src/stm32f4xx_dma.c ****   tmpreg |= DMA_InitStruct->DMA_FIFOMode | DMA_InitStruct->DMA_FIFOThreshold;
 313              		.loc 1 377 0
 314 0150 0A6B     		ldr	r2, [r1, #48]	@ DMA_InitStruct_5(D)->DMA_FIFOThreshold, DMA_InitStruct_5(D)->DMA_FIFOThreshold
 315 0152 CB6A     		ldr	r3, [r1, #44]	@ DMA_InitStruct_5(D)->DMA_FIFOMode, DMA_InitStruct_5(D)->DMA_FIFOMode
 372:.\stm32f4periph\src/stm32f4xx_dma.c ****   tmpreg &= (uint32_t)~(DMA_SxFCR_DMDIS | DMA_SxFCR_FTH);
 316              		.loc 1 372 0
 317 0154 24F00704 		bic	r4, r4, #7	@ tmpreg, tmpreg,
 318              	.LVL6:
 319              		.loc 1 377 0
 320 0158 1343     		orrs	r3, r3, r2	@, tmp187, DMA_InitStruct_5(D)->DMA_FIFOMode, DMA_InitStruct_5(D)->DMA_FIFOThresho
 321 015a 2343     		orrs	r3, r3, r4	@, tmpreg, tmp187, tmpreg
 322              	.LVL7:
 378:.\stm32f4periph\src/stm32f4xx_dma.c **** 
 379:.\stm32f4periph\src/stm32f4xx_dma.c ****   /* Write to DMAy Streamx CR */
 380:.\stm32f4periph\src/stm32f4xx_dma.c ****   DMAy_Streamx->FCR = tmpreg;
 323              		.loc 1 380 0
 324 015c 4361     		str	r3, [r0, #20]	@ tmpreg, DMAy_Streamx_2(D)->FCR
 381:.\stm32f4periph\src/stm32f4xx_dma.c **** 
 382:.\stm32f4periph\src/stm32f4xx_dma.c ****   /*------------------------- DMAy Streamx NDTR Configuration ----------------*/
 383:.\stm32f4periph\src/stm32f4xx_dma.c ****   /* Write to DMAy Streamx NDTR register */
 384:.\stm32f4periph\src/stm32f4xx_dma.c ****   DMAy_Streamx->NDTR = DMA_InitStruct->DMA_BufferSize;
 325              		.loc 1 384 0
 326 015e 0B69     		ldr	r3, [r1, #16]	@ D.7537, DMA_InitStruct_5(D)->DMA_BufferSize
 327              	.LVL8:
 328 0160 4360     		str	r3, [r0, #4]	@ D.7537, DMAy_Streamx_2(D)->NDTR
 385:.\stm32f4periph\src/stm32f4xx_dma.c **** 
 386:.\stm32f4periph\src/stm32f4xx_dma.c ****   /*------------------------- DMAy Streamx PAR Configuration -----------------*/
 387:.\stm32f4periph\src/stm32f4xx_dma.c ****   /* Write to DMAy Streamx PAR */
 388:.\stm32f4periph\src/stm32f4xx_dma.c ****   DMAy_Streamx->PAR = DMA_InitStruct->DMA_PeripheralBaseAddr;
 329              		.loc 1 388 0
 330 0162 4B68     		ldr	r3, [r1, #4]	@ D.7538, DMA_InitStruct_5(D)->DMA_PeripheralBaseAddr
 331 0164 8360     		str	r3, [r0, #8]	@ D.7538, DMAy_Streamx_2(D)->PAR
 389:.\stm32f4periph\src/stm32f4xx_dma.c **** 
 390:.\stm32f4periph\src/stm32f4xx_dma.c ****   /*------------------------- DMAy Streamx M0AR Configuration ----------------*/
 391:.\stm32f4periph\src/stm32f4xx_dma.c ****   /* Write to DMAy Streamx M0AR */
 392:.\stm32f4periph\src/stm32f4xx_dma.c ****   DMAy_Streamx->M0AR = DMA_InitStruct->DMA_Memory0BaseAddr;
 332              		.loc 1 392 0
 333 0166 8B68     		ldr	r3, [r1, #8]	@ D.7539, DMA_InitStruct_5(D)->DMA_Memory0BaseAddr
 334 0168 C360     		str	r3, [r0, #12]	@ D.7539, DMAy_Streamx_2(D)->M0AR
 335 016a 10BD     		pop	{r4, pc}	@
 336              	.L30:
 337              		.align	2
 338              	.L29:
 339 016c 3F801CF0 		.word	-266567617
 340              		.cfi_endproc
 341              	.LFE111:
 342              		.size	DMA_Init, .-DMA_Init
 343              		.align	1
 344              		.global	DMA_StructInit
 345              		.thumb
 346              		.thumb_func
ARM GAS  C:\Users\Kevin\AppData\Local\Temp\ccAyYxRs.s 			page 14


 347              		.type	DMA_StructInit, %function
 348              	DMA_StructInit:
 349              	.LFB112:
 393:.\stm32f4periph\src/stm32f4xx_dma.c **** }
 394:.\stm32f4periph\src/stm32f4xx_dma.c **** 
 395:.\stm32f4periph\src/stm32f4xx_dma.c **** /**
 396:.\stm32f4periph\src/stm32f4xx_dma.c ****   * @brief  Fills each DMA_InitStruct member with its default value.
 397:.\stm32f4periph\src/stm32f4xx_dma.c ****   * @param  DMA_InitStruct : pointer to a DMA_InitTypeDef structure which will 
 398:.\stm32f4periph\src/stm32f4xx_dma.c ****   *         be initialized.
 399:.\stm32f4periph\src/stm32f4xx_dma.c ****   * @retval None
 400:.\stm32f4periph\src/stm32f4xx_dma.c ****   */
 401:.\stm32f4periph\src/stm32f4xx_dma.c **** void DMA_StructInit(DMA_InitTypeDef* DMA_InitStruct)
 402:.\stm32f4periph\src/stm32f4xx_dma.c **** {
 350              		.loc 1 402 0
 351              		.cfi_startproc
 352              		@ args = 0, pretend = 0, frame = 0
 353              		@ frame_needed = 0, uses_anonymous_args = 0
 354              		@ link register save eliminated.
 355              	.LVL9:
 403:.\stm32f4periph\src/stm32f4xx_dma.c ****   /*-------------- Reset DMA init structure parameters values ----------------*/
 404:.\stm32f4periph\src/stm32f4xx_dma.c ****   /* Initialize the DMA_Channel member */
 405:.\stm32f4periph\src/stm32f4xx_dma.c ****   DMA_InitStruct->DMA_Channel = 0;
 356              		.loc 1 405 0
 357 0170 0023     		movs	r3, #0	@ tmp135,
 358 0172 0360     		str	r3, [r0, #0]	@ tmp135, DMA_InitStruct_1(D)->DMA_Channel
 406:.\stm32f4periph\src/stm32f4xx_dma.c **** 
 407:.\stm32f4periph\src/stm32f4xx_dma.c ****   /* Initialize the DMA_PeripheralBaseAddr member */
 408:.\stm32f4periph\src/stm32f4xx_dma.c ****   DMA_InitStruct->DMA_PeripheralBaseAddr = 0;
 359              		.loc 1 408 0
 360 0174 4360     		str	r3, [r0, #4]	@ tmp135, DMA_InitStruct_1(D)->DMA_PeripheralBaseAddr
 409:.\stm32f4periph\src/stm32f4xx_dma.c **** 
 410:.\stm32f4periph\src/stm32f4xx_dma.c ****   /* Initialize the DMA_Memory0BaseAddr member */
 411:.\stm32f4periph\src/stm32f4xx_dma.c ****   DMA_InitStruct->DMA_Memory0BaseAddr = 0;
 361              		.loc 1 411 0
 362 0176 8360     		str	r3, [r0, #8]	@ tmp135, DMA_InitStruct_1(D)->DMA_Memory0BaseAddr
 412:.\stm32f4periph\src/stm32f4xx_dma.c **** 
 413:.\stm32f4periph\src/stm32f4xx_dma.c ****   /* Initialize the DMA_DIR member */
 414:.\stm32f4periph\src/stm32f4xx_dma.c ****   DMA_InitStruct->DMA_DIR = DMA_DIR_PeripheralToMemory;
 363              		.loc 1 414 0
 364 0178 C360     		str	r3, [r0, #12]	@ tmp135, DMA_InitStruct_1(D)->DMA_DIR
 415:.\stm32f4periph\src/stm32f4xx_dma.c **** 
 416:.\stm32f4periph\src/stm32f4xx_dma.c ****   /* Initialize the DMA_BufferSize member */
 417:.\stm32f4periph\src/stm32f4xx_dma.c ****   DMA_InitStruct->DMA_BufferSize = 0;
 365              		.loc 1 417 0
 366 017a 0361     		str	r3, [r0, #16]	@ tmp135, DMA_InitStruct_1(D)->DMA_BufferSize
 418:.\stm32f4periph\src/stm32f4xx_dma.c **** 
 419:.\stm32f4periph\src/stm32f4xx_dma.c ****   /* Initialize the DMA_PeripheralInc member */
 420:.\stm32f4periph\src/stm32f4xx_dma.c ****   DMA_InitStruct->DMA_PeripheralInc = DMA_PeripheralInc_Disable;
 367              		.loc 1 420 0
 368 017c 4361     		str	r3, [r0, #20]	@ tmp135, DMA_InitStruct_1(D)->DMA_PeripheralInc
 421:.\stm32f4periph\src/stm32f4xx_dma.c **** 
 422:.\stm32f4periph\src/stm32f4xx_dma.c ****   /* Initialize the DMA_MemoryInc member */
 423:.\stm32f4periph\src/stm32f4xx_dma.c ****   DMA_InitStruct->DMA_MemoryInc = DMA_MemoryInc_Disable;
 369              		.loc 1 423 0
 370 017e 8361     		str	r3, [r0, #24]	@ tmp135, DMA_InitStruct_1(D)->DMA_MemoryInc
 424:.\stm32f4periph\src/stm32f4xx_dma.c **** 
 425:.\stm32f4periph\src/stm32f4xx_dma.c ****   /* Initialize the DMA_PeripheralDataSize member */
ARM GAS  C:\Users\Kevin\AppData\Local\Temp\ccAyYxRs.s 			page 15


 426:.\stm32f4periph\src/stm32f4xx_dma.c ****   DMA_InitStruct->DMA_PeripheralDataSize = DMA_PeripheralDataSize_Byte;
 371              		.loc 1 426 0
 372 0180 C361     		str	r3, [r0, #28]	@ tmp135, DMA_InitStruct_1(D)->DMA_PeripheralDataSize
 427:.\stm32f4periph\src/stm32f4xx_dma.c **** 
 428:.\stm32f4periph\src/stm32f4xx_dma.c ****   /* Initialize the DMA_MemoryDataSize member */
 429:.\stm32f4periph\src/stm32f4xx_dma.c ****   DMA_InitStruct->DMA_MemoryDataSize = DMA_MemoryDataSize_Byte;
 373              		.loc 1 429 0
 374 0182 0362     		str	r3, [r0, #32]	@ tmp135, DMA_InitStruct_1(D)->DMA_MemoryDataSize
 430:.\stm32f4periph\src/stm32f4xx_dma.c **** 
 431:.\stm32f4periph\src/stm32f4xx_dma.c ****   /* Initialize the DMA_Mode member */
 432:.\stm32f4periph\src/stm32f4xx_dma.c ****   DMA_InitStruct->DMA_Mode = DMA_Mode_Normal;
 375              		.loc 1 432 0
 376 0184 4362     		str	r3, [r0, #36]	@ tmp135, DMA_InitStruct_1(D)->DMA_Mode
 433:.\stm32f4periph\src/stm32f4xx_dma.c **** 
 434:.\stm32f4periph\src/stm32f4xx_dma.c ****   /* Initialize the DMA_Priority member */
 435:.\stm32f4periph\src/stm32f4xx_dma.c ****   DMA_InitStruct->DMA_Priority = DMA_Priority_Low;
 377              		.loc 1 435 0
 378 0186 8362     		str	r3, [r0, #40]	@ tmp135, DMA_InitStruct_1(D)->DMA_Priority
 436:.\stm32f4periph\src/stm32f4xx_dma.c **** 
 437:.\stm32f4periph\src/stm32f4xx_dma.c ****   /* Initialize the DMA_FIFOMode member */
 438:.\stm32f4periph\src/stm32f4xx_dma.c ****   DMA_InitStruct->DMA_FIFOMode = DMA_FIFOMode_Disable;
 379              		.loc 1 438 0
 380 0188 C362     		str	r3, [r0, #44]	@ tmp135, DMA_InitStruct_1(D)->DMA_FIFOMode
 439:.\stm32f4periph\src/stm32f4xx_dma.c **** 
 440:.\stm32f4periph\src/stm32f4xx_dma.c ****   /* Initialize the DMA_FIFOThreshold member */
 441:.\stm32f4periph\src/stm32f4xx_dma.c ****   DMA_InitStruct->DMA_FIFOThreshold = DMA_FIFOThreshold_1QuarterFull;
 381              		.loc 1 441 0
 382 018a 0363     		str	r3, [r0, #48]	@ tmp135, DMA_InitStruct_1(D)->DMA_FIFOThreshold
 442:.\stm32f4periph\src/stm32f4xx_dma.c **** 
 443:.\stm32f4periph\src/stm32f4xx_dma.c ****   /* Initialize the DMA_MemoryBurst member */
 444:.\stm32f4periph\src/stm32f4xx_dma.c ****   DMA_InitStruct->DMA_MemoryBurst = DMA_MemoryBurst_Single;
 383              		.loc 1 444 0
 384 018c 4363     		str	r3, [r0, #52]	@ tmp135, DMA_InitStruct_1(D)->DMA_MemoryBurst
 445:.\stm32f4periph\src/stm32f4xx_dma.c **** 
 446:.\stm32f4periph\src/stm32f4xx_dma.c ****   /* Initialize the DMA_PeripheralBurst member */
 447:.\stm32f4periph\src/stm32f4xx_dma.c ****   DMA_InitStruct->DMA_PeripheralBurst = DMA_PeripheralBurst_Single;
 385              		.loc 1 447 0
 386 018e 8363     		str	r3, [r0, #56]	@ tmp135, DMA_InitStruct_1(D)->DMA_PeripheralBurst
 387 0190 7047     		bx	lr	@
 388              		.cfi_endproc
 389              	.LFE112:
 390              		.size	DMA_StructInit, .-DMA_StructInit
 391              		.align	1
 392              		.global	DMA_Cmd
 393              		.thumb
 394              		.thumb_func
 395              		.type	DMA_Cmd, %function
 396              	DMA_Cmd:
 397              	.LFB113:
 448:.\stm32f4periph\src/stm32f4xx_dma.c **** }
 449:.\stm32f4periph\src/stm32f4xx_dma.c **** 
 450:.\stm32f4periph\src/stm32f4xx_dma.c **** /**
 451:.\stm32f4periph\src/stm32f4xx_dma.c ****   * @brief  Enables or disables the specified DMAy Streamx.
 452:.\stm32f4periph\src/stm32f4xx_dma.c ****   * @param  DMAy_Streamx: where y can be 1 or 2 to select the DMA and x can be 0
 453:.\stm32f4periph\src/stm32f4xx_dma.c ****   *         to 7 to select the DMA Stream.
 454:.\stm32f4periph\src/stm32f4xx_dma.c ****   * @param  NewState: new state of the DMAy Streamx. 
 455:.\stm32f4periph\src/stm32f4xx_dma.c ****   *          This parameter can be: ENABLE or DISABLE.
ARM GAS  C:\Users\Kevin\AppData\Local\Temp\ccAyYxRs.s 			page 16


 456:.\stm32f4periph\src/stm32f4xx_dma.c ****   *
 457:.\stm32f4periph\src/stm32f4xx_dma.c ****   * @note  This function may be used to perform Pause-Resume operation. When a
 458:.\stm32f4periph\src/stm32f4xx_dma.c ****   *        transfer is ongoing, calling this function to disable the Stream will
 459:.\stm32f4periph\src/stm32f4xx_dma.c ****   *        cause the transfer to be paused. All configuration registers and the
 460:.\stm32f4periph\src/stm32f4xx_dma.c ****   *        number of remaining data will be preserved. When calling again this
 461:.\stm32f4periph\src/stm32f4xx_dma.c ****   *        function to re-enable the Stream, the transfer will be resumed from
 462:.\stm32f4periph\src/stm32f4xx_dma.c ****   *        the point where it was paused.          
 463:.\stm32f4periph\src/stm32f4xx_dma.c ****   *    
 464:.\stm32f4periph\src/stm32f4xx_dma.c ****   * @note  After configuring the DMA Stream (DMA_Init() function) and enabling the
 465:.\stm32f4periph\src/stm32f4xx_dma.c ****   *        stream, it is recommended to check (or wait until) the DMA Stream is
 466:.\stm32f4periph\src/stm32f4xx_dma.c ****   *        effectively enabled. A Stream may remain disabled if a configuration 
 467:.\stm32f4periph\src/stm32f4xx_dma.c ****   *        parameter is wrong.
 468:.\stm32f4periph\src/stm32f4xx_dma.c ****   *        After disabling a DMA Stream, it is also recommended to check (or wait
 469:.\stm32f4periph\src/stm32f4xx_dma.c ****   *        until) the DMA Stream is effectively disabled. If a Stream is disabled 
 470:.\stm32f4periph\src/stm32f4xx_dma.c ****   *        while a data transfer is ongoing, the current data will be transferred
 471:.\stm32f4periph\src/stm32f4xx_dma.c ****   *        and the Stream will be effectively disabled only after the transfer of
 472:.\stm32f4periph\src/stm32f4xx_dma.c ****   *        this single data is finished.            
 473:.\stm32f4periph\src/stm32f4xx_dma.c ****   *    
 474:.\stm32f4periph\src/stm32f4xx_dma.c ****   * @retval None
 475:.\stm32f4periph\src/stm32f4xx_dma.c ****   */
 476:.\stm32f4periph\src/stm32f4xx_dma.c **** void DMA_Cmd(DMA_Stream_TypeDef* DMAy_Streamx, FunctionalState NewState)
 477:.\stm32f4periph\src/stm32f4xx_dma.c **** {
 398              		.loc 1 477 0
 399              		.cfi_startproc
 400              		@ args = 0, pretend = 0, frame = 0
 401              		@ frame_needed = 0, uses_anonymous_args = 0
 402              		@ link register save eliminated.
 403              	.LVL10:
 478:.\stm32f4periph\src/stm32f4xx_dma.c ****   /* Check the parameters */
 479:.\stm32f4periph\src/stm32f4xx_dma.c ****   assert_param(IS_DMA_ALL_PERIPH(DMAy_Streamx));
 480:.\stm32f4periph\src/stm32f4xx_dma.c ****   assert_param(IS_FUNCTIONAL_STATE(NewState));
 481:.\stm32f4periph\src/stm32f4xx_dma.c **** 
 482:.\stm32f4periph\src/stm32f4xx_dma.c ****   if (NewState != DISABLE)
 483:.\stm32f4periph\src/stm32f4xx_dma.c ****   {
 484:.\stm32f4periph\src/stm32f4xx_dma.c ****     /* Enable the selected DMAy Streamx by setting EN bit */
 485:.\stm32f4periph\src/stm32f4xx_dma.c ****     DMAy_Streamx->CR |= (uint32_t)DMA_SxCR_EN;
 404              		.loc 1 485 0
 405 0192 0368     		ldr	r3, [r0, #0]	@ D.7510,* DMAy_Streamx
 482:.\stm32f4periph\src/stm32f4xx_dma.c ****   if (NewState != DISABLE)
 406              		.loc 1 482 0
 407 0194 11B1     		cbz	r1, .L33	@ NewState,
 408              		.loc 1 485 0
 409 0196 43F00103 		orr	r3, r3, #1	@ D.7511, D.7510,
 410 019a 01E0     		b	.L35	@
 411              	.L33:
 486:.\stm32f4periph\src/stm32f4xx_dma.c ****   }
 487:.\stm32f4periph\src/stm32f4xx_dma.c ****   else
 488:.\stm32f4periph\src/stm32f4xx_dma.c ****   {
 489:.\stm32f4periph\src/stm32f4xx_dma.c ****     /* Disable the selected DMAy Streamx by clearing EN bit */
 490:.\stm32f4periph\src/stm32f4xx_dma.c ****     DMAy_Streamx->CR &= ~(uint32_t)DMA_SxCR_EN;
 412              		.loc 1 490 0
 413 019c 23F00103 		bic	r3, r3, #1	@ D.7514, D.7513,
 414              	.L35:
 415 01a0 0360     		str	r3, [r0, #0]	@ D.7514,* DMAy_Streamx
 416 01a2 7047     		bx	lr	@
 417              		.cfi_endproc
 418              	.LFE113:
ARM GAS  C:\Users\Kevin\AppData\Local\Temp\ccAyYxRs.s 			page 17


 419              		.size	DMA_Cmd, .-DMA_Cmd
 420              		.align	1
 421              		.global	DMA_PeriphIncOffsetSizeConfig
 422              		.thumb
 423              		.thumb_func
 424              		.type	DMA_PeriphIncOffsetSizeConfig, %function
 425              	DMA_PeriphIncOffsetSizeConfig:
 426              	.LFB114:
 491:.\stm32f4periph\src/stm32f4xx_dma.c ****   }
 492:.\stm32f4periph\src/stm32f4xx_dma.c **** }
 493:.\stm32f4periph\src/stm32f4xx_dma.c **** 
 494:.\stm32f4periph\src/stm32f4xx_dma.c **** /**
 495:.\stm32f4periph\src/stm32f4xx_dma.c ****   * @brief  Configures, when the PINC (Peripheral Increment address mode) bit is
 496:.\stm32f4periph\src/stm32f4xx_dma.c ****   *         set, if the peripheral address should be incremented with the data 
 497:.\stm32f4periph\src/stm32f4xx_dma.c ****   *         size (configured with PSIZE bits) or by a fixed offset equal to 4
 498:.\stm32f4periph\src/stm32f4xx_dma.c ****   *         (32-bit aligned addresses).
 499:.\stm32f4periph\src/stm32f4xx_dma.c ****   *   
 500:.\stm32f4periph\src/stm32f4xx_dma.c ****   * @note   This function has no effect if the Peripheral Increment mode is disabled.
 501:.\stm32f4periph\src/stm32f4xx_dma.c ****   *     
 502:.\stm32f4periph\src/stm32f4xx_dma.c ****   * @param  DMAy_Streamx: where y can be 1 or 2 to select the DMA and x can be 0
 503:.\stm32f4periph\src/stm32f4xx_dma.c ****   *          to 7 to select the DMA Stream.
 504:.\stm32f4periph\src/stm32f4xx_dma.c ****   * @param  DMA_Pincos: specifies the Peripheral increment offset size.
 505:.\stm32f4periph\src/stm32f4xx_dma.c ****   *          This parameter can be one of the following values:
 506:.\stm32f4periph\src/stm32f4xx_dma.c ****   *            @arg DMA_PINCOS_Psize: Peripheral address increment is done  
 507:.\stm32f4periph\src/stm32f4xx_dma.c ****   *                                   accordingly to PSIZE parameter.
 508:.\stm32f4periph\src/stm32f4xx_dma.c ****   *            @arg DMA_PINCOS_WordAligned: Peripheral address increment offset is 
 509:.\stm32f4periph\src/stm32f4xx_dma.c ****   *                                         fixed to 4 (32-bit aligned addresses). 
 510:.\stm32f4periph\src/stm32f4xx_dma.c ****   * @retval None
 511:.\stm32f4periph\src/stm32f4xx_dma.c ****   */
 512:.\stm32f4periph\src/stm32f4xx_dma.c **** void DMA_PeriphIncOffsetSizeConfig(DMA_Stream_TypeDef* DMAy_Streamx, uint32_t DMA_Pincos)
 513:.\stm32f4periph\src/stm32f4xx_dma.c **** {
 427              		.loc 1 513 0
 428              		.cfi_startproc
 429              		@ args = 0, pretend = 0, frame = 0
 430              		@ frame_needed = 0, uses_anonymous_args = 0
 431              		@ link register save eliminated.
 432              	.LVL11:
 514:.\stm32f4periph\src/stm32f4xx_dma.c ****   /* Check the parameters */
 515:.\stm32f4periph\src/stm32f4xx_dma.c ****   assert_param(IS_DMA_ALL_PERIPH(DMAy_Streamx));
 516:.\stm32f4periph\src/stm32f4xx_dma.c ****   assert_param(IS_DMA_PINCOS_SIZE(DMA_Pincos));
 517:.\stm32f4periph\src/stm32f4xx_dma.c **** 
 518:.\stm32f4periph\src/stm32f4xx_dma.c ****   /* Check the needed Peripheral increment offset */
 519:.\stm32f4periph\src/stm32f4xx_dma.c ****   if(DMA_Pincos != DMA_PINCOS_Psize)
 520:.\stm32f4periph\src/stm32f4xx_dma.c ****   {
 521:.\stm32f4periph\src/stm32f4xx_dma.c ****     /* Configure DMA_SxCR_PINCOS bit with the input parameter */
 522:.\stm32f4periph\src/stm32f4xx_dma.c ****     DMAy_Streamx->CR |= (uint32_t)DMA_SxCR_PINCOS;     
 433              		.loc 1 522 0
 434 01a4 0368     		ldr	r3, [r0, #0]	@ D.7503,* DMAy_Streamx
 519:.\stm32f4periph\src/stm32f4xx_dma.c ****   if(DMA_Pincos != DMA_PINCOS_Psize)
 435              		.loc 1 519 0
 436 01a6 11B1     		cbz	r1, .L37	@ DMA_Pincos,
 437              		.loc 1 522 0
 438 01a8 43F40043 		orr	r3, r3, #32768	@ D.7504, D.7503,
 439 01ac 01E0     		b	.L39	@
 440              	.L37:
 523:.\stm32f4periph\src/stm32f4xx_dma.c ****   }
 524:.\stm32f4periph\src/stm32f4xx_dma.c ****   else
ARM GAS  C:\Users\Kevin\AppData\Local\Temp\ccAyYxRs.s 			page 18


 525:.\stm32f4periph\src/stm32f4xx_dma.c ****   {
 526:.\stm32f4periph\src/stm32f4xx_dma.c ****     /* Clear the PINCOS bit: Peripheral address incremented according to PSIZE */
 527:.\stm32f4periph\src/stm32f4xx_dma.c ****     DMAy_Streamx->CR &= ~(uint32_t)DMA_SxCR_PINCOS;    
 441              		.loc 1 527 0
 442 01ae 23F40043 		bic	r3, r3, #32768	@ D.7507, D.7506,
 443              	.L39:
 444 01b2 0360     		str	r3, [r0, #0]	@ D.7507,* DMAy_Streamx
 445 01b4 7047     		bx	lr	@
 446              		.cfi_endproc
 447              	.LFE114:
 448              		.size	DMA_PeriphIncOffsetSizeConfig, .-DMA_PeriphIncOffsetSizeConfig
 449              		.align	1
 450              		.global	DMA_FlowControllerConfig
 451              		.thumb
 452              		.thumb_func
 453              		.type	DMA_FlowControllerConfig, %function
 454              	DMA_FlowControllerConfig:
 455              	.LFB115:
 528:.\stm32f4periph\src/stm32f4xx_dma.c ****   }
 529:.\stm32f4periph\src/stm32f4xx_dma.c **** }
 530:.\stm32f4periph\src/stm32f4xx_dma.c **** 
 531:.\stm32f4periph\src/stm32f4xx_dma.c **** /**
 532:.\stm32f4periph\src/stm32f4xx_dma.c ****   * @brief  Configures, when the DMAy Streamx is disabled, the flow controller for
 533:.\stm32f4periph\src/stm32f4xx_dma.c ****   *         the next transactions (Peripheral or Memory).
 534:.\stm32f4periph\src/stm32f4xx_dma.c ****   *       
 535:.\stm32f4periph\src/stm32f4xx_dma.c ****   * @note   Before enabling this feature, check if the used peripheral supports 
 536:.\stm32f4periph\src/stm32f4xx_dma.c ****   *         the Flow Controller mode or not.    
 537:.\stm32f4periph\src/stm32f4xx_dma.c ****   *  
 538:.\stm32f4periph\src/stm32f4xx_dma.c ****   * @param  DMAy_Streamx: where y can be 1 or 2 to select the DMA and x can be 0
 539:.\stm32f4periph\src/stm32f4xx_dma.c ****   *          to 7 to select the DMA Stream.
 540:.\stm32f4periph\src/stm32f4xx_dma.c ****   * @param  DMA_FlowCtrl: specifies the DMA flow controller.
 541:.\stm32f4periph\src/stm32f4xx_dma.c ****   *          This parameter can be one of the following values:
 542:.\stm32f4periph\src/stm32f4xx_dma.c ****   *            @arg DMA_FlowCtrl_Memory: DMAy_Streamx transactions flow controller is 
 543:.\stm32f4periph\src/stm32f4xx_dma.c ****   *                                      the DMA controller.
 544:.\stm32f4periph\src/stm32f4xx_dma.c ****   *            @arg DMA_FlowCtrl_Peripheral: DMAy_Streamx transactions flow controller 
 545:.\stm32f4periph\src/stm32f4xx_dma.c ****   *                                          is the peripheral.    
 546:.\stm32f4periph\src/stm32f4xx_dma.c ****   * @retval None
 547:.\stm32f4periph\src/stm32f4xx_dma.c ****   */
 548:.\stm32f4periph\src/stm32f4xx_dma.c **** void DMA_FlowControllerConfig(DMA_Stream_TypeDef* DMAy_Streamx, uint32_t DMA_FlowCtrl)
 549:.\stm32f4periph\src/stm32f4xx_dma.c **** {
 456              		.loc 1 549 0
 457              		.cfi_startproc
 458              		@ args = 0, pretend = 0, frame = 0
 459              		@ frame_needed = 0, uses_anonymous_args = 0
 460              		@ link register save eliminated.
 461              	.LVL12:
 550:.\stm32f4periph\src/stm32f4xx_dma.c ****   /* Check the parameters */
 551:.\stm32f4periph\src/stm32f4xx_dma.c ****   assert_param(IS_DMA_ALL_PERIPH(DMAy_Streamx));
 552:.\stm32f4periph\src/stm32f4xx_dma.c ****   assert_param(IS_DMA_FLOW_CTRL(DMA_FlowCtrl));
 553:.\stm32f4periph\src/stm32f4xx_dma.c **** 
 554:.\stm32f4periph\src/stm32f4xx_dma.c ****   /* Check the needed flow controller  */
 555:.\stm32f4periph\src/stm32f4xx_dma.c ****   if(DMA_FlowCtrl != DMA_FlowCtrl_Memory)
 556:.\stm32f4periph\src/stm32f4xx_dma.c ****   {
 557:.\stm32f4periph\src/stm32f4xx_dma.c ****     /* Configure DMA_SxCR_PFCTRL bit with the input parameter */
 558:.\stm32f4periph\src/stm32f4xx_dma.c ****     DMAy_Streamx->CR |= (uint32_t)DMA_SxCR_PFCTRL;   
 462              		.loc 1 558 0
 463 01b6 0368     		ldr	r3, [r0, #0]	@ D.7496,* DMAy_Streamx
ARM GAS  C:\Users\Kevin\AppData\Local\Temp\ccAyYxRs.s 			page 19


 555:.\stm32f4periph\src/stm32f4xx_dma.c ****   if(DMA_FlowCtrl != DMA_FlowCtrl_Memory)
 464              		.loc 1 555 0
 465 01b8 11B1     		cbz	r1, .L41	@ DMA_FlowCtrl,
 466              		.loc 1 558 0
 467 01ba 43F02003 		orr	r3, r3, #32	@ D.7497, D.7496,
 468 01be 01E0     		b	.L43	@
 469              	.L41:
 559:.\stm32f4periph\src/stm32f4xx_dma.c ****   }
 560:.\stm32f4periph\src/stm32f4xx_dma.c ****   else
 561:.\stm32f4periph\src/stm32f4xx_dma.c ****   {
 562:.\stm32f4periph\src/stm32f4xx_dma.c ****     /* Clear the PFCTRL bit: Memory is the flow controller */
 563:.\stm32f4periph\src/stm32f4xx_dma.c ****     DMAy_Streamx->CR &= ~(uint32_t)DMA_SxCR_PFCTRL;    
 470              		.loc 1 563 0
 471 01c0 23F02003 		bic	r3, r3, #32	@ D.7500, D.7499,
 472              	.L43:
 473 01c4 0360     		str	r3, [r0, #0]	@ D.7500,* DMAy_Streamx
 474 01c6 7047     		bx	lr	@
 475              		.cfi_endproc
 476              	.LFE115:
 477              		.size	DMA_FlowControllerConfig, .-DMA_FlowControllerConfig
 478              		.align	1
 479              		.global	DMA_SetCurrDataCounter
 480              		.thumb
 481              		.thumb_func
 482              		.type	DMA_SetCurrDataCounter, %function
 483              	DMA_SetCurrDataCounter:
 484              	.LFB116:
 564:.\stm32f4periph\src/stm32f4xx_dma.c ****   }
 565:.\stm32f4periph\src/stm32f4xx_dma.c **** }
 566:.\stm32f4periph\src/stm32f4xx_dma.c **** /**
 567:.\stm32f4periph\src/stm32f4xx_dma.c ****   * @}
 568:.\stm32f4periph\src/stm32f4xx_dma.c ****   */
 569:.\stm32f4periph\src/stm32f4xx_dma.c **** 
 570:.\stm32f4periph\src/stm32f4xx_dma.c **** /** @defgroup DMA_Group2 Data Counter functions
 571:.\stm32f4periph\src/stm32f4xx_dma.c ****  *  @brief   Data Counter functions 
 572:.\stm32f4periph\src/stm32f4xx_dma.c ****  *
 573:.\stm32f4periph\src/stm32f4xx_dma.c **** @verbatim   
 574:.\stm32f4periph\src/stm32f4xx_dma.c ****  ===============================================================================
 575:.\stm32f4periph\src/stm32f4xx_dma.c ****                            Data Counter functions
 576:.\stm32f4periph\src/stm32f4xx_dma.c ****  ===============================================================================  
 577:.\stm32f4periph\src/stm32f4xx_dma.c **** 
 578:.\stm32f4periph\src/stm32f4xx_dma.c ****   This subsection provides function allowing to configure and read the buffer size
 579:.\stm32f4periph\src/stm32f4xx_dma.c ****   (number of data to be transferred). 
 580:.\stm32f4periph\src/stm32f4xx_dma.c **** 
 581:.\stm32f4periph\src/stm32f4xx_dma.c ****   The DMA data counter can be written only when the DMA Stream is disabled 
 582:.\stm32f4periph\src/stm32f4xx_dma.c ****   (ie. after transfer complete event).
 583:.\stm32f4periph\src/stm32f4xx_dma.c **** 
 584:.\stm32f4periph\src/stm32f4xx_dma.c ****   The following function can be used to write the Stream data counter value:
 585:.\stm32f4periph\src/stm32f4xx_dma.c ****     - void DMA_SetCurrDataCounter(DMA_Stream_TypeDef* DMAy_Streamx, uint16_t Counter);
 586:.\stm32f4periph\src/stm32f4xx_dma.c **** 
 587:.\stm32f4periph\src/stm32f4xx_dma.c **** @note It is advised to use this function rather than DMA_Init() in situations where
 588:.\stm32f4periph\src/stm32f4xx_dma.c ****       only the Data buffer needs to be reloaded.
 589:.\stm32f4periph\src/stm32f4xx_dma.c **** 
 590:.\stm32f4periph\src/stm32f4xx_dma.c **** @note If the Source and Destination Data Sizes are different, then the value written in
 591:.\stm32f4periph\src/stm32f4xx_dma.c ****       data counter, expressing the number of transfers, is relative to the number of 
 592:.\stm32f4periph\src/stm32f4xx_dma.c ****       transfers from the Peripheral point of view.
 593:.\stm32f4periph\src/stm32f4xx_dma.c ****       ie. If Memory data size is Word, Peripheral data size is Half-Words, then the value
ARM GAS  C:\Users\Kevin\AppData\Local\Temp\ccAyYxRs.s 			page 20


 594:.\stm32f4periph\src/stm32f4xx_dma.c ****       to be configured in the data counter is the number of Half-Words to be transferred
 595:.\stm32f4periph\src/stm32f4xx_dma.c ****       from/to the peripheral.
 596:.\stm32f4periph\src/stm32f4xx_dma.c **** 
 597:.\stm32f4periph\src/stm32f4xx_dma.c ****   The DMA data counter can be read to indicate the number of remaining transfers for
 598:.\stm32f4periph\src/stm32f4xx_dma.c ****   the relative DMA Stream. This counter is decremented at the end of each data 
 599:.\stm32f4periph\src/stm32f4xx_dma.c ****   transfer and when the transfer is complete: 
 600:.\stm32f4periph\src/stm32f4xx_dma.c ****    - If Normal mode is selected: the counter is set to 0.
 601:.\stm32f4periph\src/stm32f4xx_dma.c ****    - If Circular mode is selected: the counter is reloaded with the initial value
 602:.\stm32f4periph\src/stm32f4xx_dma.c ****      (configured before enabling the DMA Stream)
 603:.\stm32f4periph\src/stm32f4xx_dma.c ****    
 604:.\stm32f4periph\src/stm32f4xx_dma.c ****   The following function can be used to read the Stream data counter value:
 605:.\stm32f4periph\src/stm32f4xx_dma.c ****      - uint16_t DMA_GetCurrDataCounter(DMA_Stream_TypeDef* DMAy_Streamx);
 606:.\stm32f4periph\src/stm32f4xx_dma.c **** 
 607:.\stm32f4periph\src/stm32f4xx_dma.c **** @endverbatim
 608:.\stm32f4periph\src/stm32f4xx_dma.c ****   * @{
 609:.\stm32f4periph\src/stm32f4xx_dma.c ****   */
 610:.\stm32f4periph\src/stm32f4xx_dma.c **** 
 611:.\stm32f4periph\src/stm32f4xx_dma.c **** /**
 612:.\stm32f4periph\src/stm32f4xx_dma.c ****   * @brief  Writes the number of data units to be transferred on the DMAy Streamx.
 613:.\stm32f4periph\src/stm32f4xx_dma.c ****   * @param  DMAy_Streamx: where y can be 1 or 2 to select the DMA and x can be 0
 614:.\stm32f4periph\src/stm32f4xx_dma.c ****   *          to 7 to select the DMA Stream.
 615:.\stm32f4periph\src/stm32f4xx_dma.c ****   * @param  Counter: Number of data units to be transferred (from 0 to 65535) 
 616:.\stm32f4periph\src/stm32f4xx_dma.c ****   *          Number of data items depends only on the Peripheral data format.
 617:.\stm32f4periph\src/stm32f4xx_dma.c ****   *            
 618:.\stm32f4periph\src/stm32f4xx_dma.c ****   * @note   If Peripheral data format is Bytes: number of data units is equal 
 619:.\stm32f4periph\src/stm32f4xx_dma.c ****   *         to total number of bytes to be transferred.
 620:.\stm32f4periph\src/stm32f4xx_dma.c ****   *           
 621:.\stm32f4periph\src/stm32f4xx_dma.c ****   * @note   If Peripheral data format is Half-Word: number of data units is  
 622:.\stm32f4periph\src/stm32f4xx_dma.c ****   *         equal to total number of bytes to be transferred / 2.
 623:.\stm32f4periph\src/stm32f4xx_dma.c ****   *           
 624:.\stm32f4periph\src/stm32f4xx_dma.c ****   * @note   If Peripheral data format is Word: number of data units is equal 
 625:.\stm32f4periph\src/stm32f4xx_dma.c ****   *         to total  number of bytes to be transferred / 4.
 626:.\stm32f4periph\src/stm32f4xx_dma.c ****   *      
 627:.\stm32f4periph\src/stm32f4xx_dma.c ****   * @note   In Memory-to-Memory transfer mode, the memory buffer pointed by 
 628:.\stm32f4periph\src/stm32f4xx_dma.c ****   *         DMAy_SxPAR register is considered as Peripheral.
 629:.\stm32f4periph\src/stm32f4xx_dma.c ****   *      
 630:.\stm32f4periph\src/stm32f4xx_dma.c ****   * @retval The number of remaining data units in the current DMAy Streamx transfer.
 631:.\stm32f4periph\src/stm32f4xx_dma.c ****   */
 632:.\stm32f4periph\src/stm32f4xx_dma.c **** void DMA_SetCurrDataCounter(DMA_Stream_TypeDef* DMAy_Streamx, uint16_t Counter)
 633:.\stm32f4periph\src/stm32f4xx_dma.c **** {
 485              		.loc 1 633 0
 486              		.cfi_startproc
 487              		@ args = 0, pretend = 0, frame = 0
 488              		@ frame_needed = 0, uses_anonymous_args = 0
 489              		@ link register save eliminated.
 490              	.LVL13:
 634:.\stm32f4periph\src/stm32f4xx_dma.c ****   /* Check the parameters */
 635:.\stm32f4periph\src/stm32f4xx_dma.c ****   assert_param(IS_DMA_ALL_PERIPH(DMAy_Streamx));
 636:.\stm32f4periph\src/stm32f4xx_dma.c **** 
 637:.\stm32f4periph\src/stm32f4xx_dma.c ****   /* Write the number of data units to be transferred */
 638:.\stm32f4periph\src/stm32f4xx_dma.c ****   DMAy_Streamx->NDTR = (uint16_t)Counter;
 491              		.loc 1 638 0
 492 01c8 4160     		str	r1, [r0, #4]	@ Counter, DMAy_Streamx_3(D)->NDTR
 493 01ca 7047     		bx	lr	@
 494              		.cfi_endproc
 495              	.LFE116:
 496              		.size	DMA_SetCurrDataCounter, .-DMA_SetCurrDataCounter
ARM GAS  C:\Users\Kevin\AppData\Local\Temp\ccAyYxRs.s 			page 21


 497              		.align	1
 498              		.global	DMA_GetCurrDataCounter
 499              		.thumb
 500              		.thumb_func
 501              		.type	DMA_GetCurrDataCounter, %function
 502              	DMA_GetCurrDataCounter:
 503              	.LFB117:
 639:.\stm32f4periph\src/stm32f4xx_dma.c **** }
 640:.\stm32f4periph\src/stm32f4xx_dma.c **** 
 641:.\stm32f4periph\src/stm32f4xx_dma.c **** /**
 642:.\stm32f4periph\src/stm32f4xx_dma.c ****   * @brief  Returns the number of remaining data units in the current DMAy Streamx transfer.
 643:.\stm32f4periph\src/stm32f4xx_dma.c ****   * @param  DMAy_Streamx: where y can be 1 or 2 to select the DMA and x can be 0
 644:.\stm32f4periph\src/stm32f4xx_dma.c ****   *          to 7 to select the DMA Stream.
 645:.\stm32f4periph\src/stm32f4xx_dma.c ****   * @retval The number of remaining data units in the current DMAy Streamx transfer.
 646:.\stm32f4periph\src/stm32f4xx_dma.c ****   */
 647:.\stm32f4periph\src/stm32f4xx_dma.c **** uint16_t DMA_GetCurrDataCounter(DMA_Stream_TypeDef* DMAy_Streamx)
 648:.\stm32f4periph\src/stm32f4xx_dma.c **** {
 504              		.loc 1 648 0
 505              		.cfi_startproc
 506              		@ args = 0, pretend = 0, frame = 0
 507              		@ frame_needed = 0, uses_anonymous_args = 0
 508              		@ link register save eliminated.
 509              	.LVL14:
 649:.\stm32f4periph\src/stm32f4xx_dma.c ****   /* Check the parameters */
 650:.\stm32f4periph\src/stm32f4xx_dma.c ****   assert_param(IS_DMA_ALL_PERIPH(DMAy_Streamx));
 651:.\stm32f4periph\src/stm32f4xx_dma.c **** 
 652:.\stm32f4periph\src/stm32f4xx_dma.c ****   /* Return the number of remaining data units for DMAy Streamx */
 653:.\stm32f4periph\src/stm32f4xx_dma.c ****   return ((uint16_t)(DMAy_Streamx->NDTR));
 510              		.loc 1 653 0
 511 01cc 4068     		ldr	r0, [r0, #4]	@ D.7491, DMAy_Streamx_1(D)->NDTR
 512              	.LVL15:
 654:.\stm32f4periph\src/stm32f4xx_dma.c **** }
 513              		.loc 1 654 0
 514 01ce 80B2     		uxth	r0, r0	@, D.7491
 515 01d0 7047     		bx	lr	@
 516              		.cfi_endproc
 517              	.LFE117:
 518              		.size	DMA_GetCurrDataCounter, .-DMA_GetCurrDataCounter
 519              		.align	1
 520              		.global	DMA_DoubleBufferModeConfig
 521              		.thumb
 522              		.thumb_func
 523              		.type	DMA_DoubleBufferModeConfig, %function
 524              	DMA_DoubleBufferModeConfig:
 525              	.LFB118:
 655:.\stm32f4periph\src/stm32f4xx_dma.c **** /**
 656:.\stm32f4periph\src/stm32f4xx_dma.c ****   * @}
 657:.\stm32f4periph\src/stm32f4xx_dma.c ****   */
 658:.\stm32f4periph\src/stm32f4xx_dma.c **** 
 659:.\stm32f4periph\src/stm32f4xx_dma.c **** /** @defgroup DMA_Group3 Double Buffer mode functions
 660:.\stm32f4periph\src/stm32f4xx_dma.c ****  *  @brief   Double Buffer mode functions 
 661:.\stm32f4periph\src/stm32f4xx_dma.c ****  *
 662:.\stm32f4periph\src/stm32f4xx_dma.c **** @verbatim   
 663:.\stm32f4periph\src/stm32f4xx_dma.c ****  ===============================================================================
 664:.\stm32f4periph\src/stm32f4xx_dma.c ****                          Double Buffer mode functions
 665:.\stm32f4periph\src/stm32f4xx_dma.c ****  ===============================================================================  
 666:.\stm32f4periph\src/stm32f4xx_dma.c **** 
ARM GAS  C:\Users\Kevin\AppData\Local\Temp\ccAyYxRs.s 			page 22


 667:.\stm32f4periph\src/stm32f4xx_dma.c ****   This subsection provides function allowing to configure and control the double 
 668:.\stm32f4periph\src/stm32f4xx_dma.c ****   buffer mode parameters.
 669:.\stm32f4periph\src/stm32f4xx_dma.c ****   
 670:.\stm32f4periph\src/stm32f4xx_dma.c ****   The Double Buffer mode can be used only when Circular mode is enabled.
 671:.\stm32f4periph\src/stm32f4xx_dma.c ****   The Double Buffer mode cannot be used when transferring data from Memory to Memory.
 672:.\stm32f4periph\src/stm32f4xx_dma.c ****   
 673:.\stm32f4periph\src/stm32f4xx_dma.c ****   The Double Buffer mode allows to set two different Memory addresses from/to which
 674:.\stm32f4periph\src/stm32f4xx_dma.c ****   the DMA controller will access alternatively (after completing transfer to/from target
 675:.\stm32f4periph\src/stm32f4xx_dma.c ****   memory 0, it will start transfer to/from target memory 1).
 676:.\stm32f4periph\src/stm32f4xx_dma.c ****   This allows to reduce software overhead for double buffering and reduce the CPU
 677:.\stm32f4periph\src/stm32f4xx_dma.c ****   access time.
 678:.\stm32f4periph\src/stm32f4xx_dma.c **** 
 679:.\stm32f4periph\src/stm32f4xx_dma.c ****   Two functions must be called before calling the DMA_Init() function:
 680:.\stm32f4periph\src/stm32f4xx_dma.c ****    - void DMA_DoubleBufferModeConfig(DMA_Stream_TypeDef* DMAy_Streamx, uint32_t Memory1BaseAddr,
 681:.\stm32f4periph\src/stm32f4xx_dma.c ****                                 uint32_t DMA_CurrentMemory);
 682:.\stm32f4periph\src/stm32f4xx_dma.c ****    - void DMA_DoubleBufferModeCmd(DMA_Stream_TypeDef* DMAy_Streamx, FunctionalState NewState);
 683:.\stm32f4periph\src/stm32f4xx_dma.c ****    
 684:.\stm32f4periph\src/stm32f4xx_dma.c ****   DMA_DoubleBufferModeConfig() is called to configure the Memory 1 base address and the first
 685:.\stm32f4periph\src/stm32f4xx_dma.c ****   Memory target from/to which the transfer will start after enabling the DMA Stream.
 686:.\stm32f4periph\src/stm32f4xx_dma.c ****   Then DMA_DoubleBufferModeCmd() must be called to enable the Double Buffer mode (or disable 
 687:.\stm32f4periph\src/stm32f4xx_dma.c ****   it when it should not be used).
 688:.\stm32f4periph\src/stm32f4xx_dma.c ****   
 689:.\stm32f4periph\src/stm32f4xx_dma.c ****    
 690:.\stm32f4periph\src/stm32f4xx_dma.c ****   Two functions can be called dynamically when the transfer is ongoing (or when the DMA Stream is 
 691:.\stm32f4periph\src/stm32f4xx_dma.c ****   stopped) to modify on of the target Memories addresses or to check wich Memory target is currentl
 692:.\stm32f4periph\src/stm32f4xx_dma.c ****    used:
 693:.\stm32f4periph\src/stm32f4xx_dma.c ****     - void DMA_MemoryTargetConfig(DMA_Stream_TypeDef* DMAy_Streamx, uint32_t MemoryBaseAddr,
 694:.\stm32f4periph\src/stm32f4xx_dma.c ****                             uint32_t DMA_MemoryTarget);
 695:.\stm32f4periph\src/stm32f4xx_dma.c ****     - uint32_t DMA_GetCurrentMemoryTarget(DMA_Stream_TypeDef* DMAy_Streamx);
 696:.\stm32f4periph\src/stm32f4xx_dma.c **** 
 697:.\stm32f4periph\src/stm32f4xx_dma.c ****   DMA_MemoryTargetConfig() can be called to modify the base address of one of the two target Memori
 698:.\stm32f4periph\src/stm32f4xx_dma.c ****   The Memory of which the base address will be modified must not be currently be used by the DMA St
 699:.\stm32f4periph\src/stm32f4xx_dma.c ****   (ie. if the DMA Stream is currently transferring from Memory 1 then you can only modify base addr
 700:.\stm32f4periph\src/stm32f4xx_dma.c ****   of target Memory 0 and vice versa).
 701:.\stm32f4periph\src/stm32f4xx_dma.c ****   To check this condition, it is recommended to use the function DMA_GetCurrentMemoryTarget() which
 702:.\stm32f4periph\src/stm32f4xx_dma.c ****   returns the index of the Memory target currently in use by the DMA Stream.
 703:.\stm32f4periph\src/stm32f4xx_dma.c **** 
 704:.\stm32f4periph\src/stm32f4xx_dma.c **** @endverbatim
 705:.\stm32f4periph\src/stm32f4xx_dma.c ****   * @{
 706:.\stm32f4periph\src/stm32f4xx_dma.c ****   */
 707:.\stm32f4periph\src/stm32f4xx_dma.c ****   
 708:.\stm32f4periph\src/stm32f4xx_dma.c **** /**
 709:.\stm32f4periph\src/stm32f4xx_dma.c ****   * @brief  Configures, when the DMAy Streamx is disabled, the double buffer mode 
 710:.\stm32f4periph\src/stm32f4xx_dma.c ****   *         and the current memory target.
 711:.\stm32f4periph\src/stm32f4xx_dma.c ****   * @param  DMAy_Streamx: where y can be 1 or 2 to select the DMA and x can be 0
 712:.\stm32f4periph\src/stm32f4xx_dma.c ****   *          to 7 to select the DMA Stream.
 713:.\stm32f4periph\src/stm32f4xx_dma.c ****   * @param  Memory1BaseAddr: the base address of the second buffer (Memory 1)  
 714:.\stm32f4periph\src/stm32f4xx_dma.c ****   * @param  DMA_CurrentMemory: specifies which memory will be first buffer for
 715:.\stm32f4periph\src/stm32f4xx_dma.c ****   *         the transactions when the Stream will be enabled. 
 716:.\stm32f4periph\src/stm32f4xx_dma.c ****   *          This parameter can be one of the following values:
 717:.\stm32f4periph\src/stm32f4xx_dma.c ****   *            @arg DMA_Memory_0: Memory 0 is the current buffer.
 718:.\stm32f4periph\src/stm32f4xx_dma.c ****   *            @arg DMA_Memory_1: Memory 1 is the current buffer.  
 719:.\stm32f4periph\src/stm32f4xx_dma.c ****   *       
 720:.\stm32f4periph\src/stm32f4xx_dma.c ****   * @note   Memory0BaseAddr is set by the DMA structure configuration in DMA_Init().
 721:.\stm32f4periph\src/stm32f4xx_dma.c ****   *   
 722:.\stm32f4periph\src/stm32f4xx_dma.c ****   * @retval None
 723:.\stm32f4periph\src/stm32f4xx_dma.c ****   */
ARM GAS  C:\Users\Kevin\AppData\Local\Temp\ccAyYxRs.s 			page 23


 724:.\stm32f4periph\src/stm32f4xx_dma.c **** void DMA_DoubleBufferModeConfig(DMA_Stream_TypeDef* DMAy_Streamx, uint32_t Memory1BaseAddr,
 725:.\stm32f4periph\src/stm32f4xx_dma.c ****                                 uint32_t DMA_CurrentMemory)
 726:.\stm32f4periph\src/stm32f4xx_dma.c **** {  
 526              		.loc 1 726 0
 527              		.cfi_startproc
 528              		@ args = 0, pretend = 0, frame = 0
 529              		@ frame_needed = 0, uses_anonymous_args = 0
 530              		@ link register save eliminated.
 531              	.LVL16:
 727:.\stm32f4periph\src/stm32f4xx_dma.c ****   /* Check the parameters */
 728:.\stm32f4periph\src/stm32f4xx_dma.c ****   assert_param(IS_DMA_ALL_PERIPH(DMAy_Streamx));
 729:.\stm32f4periph\src/stm32f4xx_dma.c ****   assert_param(IS_DMA_CURRENT_MEM(DMA_CurrentMemory));
 730:.\stm32f4periph\src/stm32f4xx_dma.c **** 
 731:.\stm32f4periph\src/stm32f4xx_dma.c ****   if (DMA_CurrentMemory != DMA_Memory_0)
 732:.\stm32f4periph\src/stm32f4xx_dma.c ****   {
 733:.\stm32f4periph\src/stm32f4xx_dma.c ****     /* Set Memory 1 as current memory address */
 734:.\stm32f4periph\src/stm32f4xx_dma.c ****     DMAy_Streamx->CR |= (uint32_t)(DMA_SxCR_CT);    
 532              		.loc 1 734 0
 533 01d2 0368     		ldr	r3, [r0, #0]	@ D.7485,* DMAy_Streamx
 731:.\stm32f4periph\src/stm32f4xx_dma.c ****   if (DMA_CurrentMemory != DMA_Memory_0)
 534              		.loc 1 731 0
 535 01d4 12B1     		cbz	r2, .L47	@ DMA_CurrentMemory,
 536              		.loc 1 734 0
 537 01d6 43F40023 		orr	r3, r3, #524288	@ D.7486, D.7485,
 538 01da 01E0     		b	.L49	@
 539              	.L47:
 735:.\stm32f4periph\src/stm32f4xx_dma.c ****   }
 736:.\stm32f4periph\src/stm32f4xx_dma.c ****   else
 737:.\stm32f4periph\src/stm32f4xx_dma.c ****   {
 738:.\stm32f4periph\src/stm32f4xx_dma.c ****     /* Set Memory 0 as current memory address */
 739:.\stm32f4periph\src/stm32f4xx_dma.c ****     DMAy_Streamx->CR &= ~(uint32_t)(DMA_SxCR_CT);    
 540              		.loc 1 739 0
 541 01dc 23F40023 		bic	r3, r3, #524288	@ D.7489, D.7488,
 542              	.L49:
 543 01e0 0360     		str	r3, [r0, #0]	@ D.7489,* DMAy_Streamx
 740:.\stm32f4periph\src/stm32f4xx_dma.c ****   }
 741:.\stm32f4periph\src/stm32f4xx_dma.c **** 
 742:.\stm32f4periph\src/stm32f4xx_dma.c ****   /* Write to DMAy Streamx M1AR */
 743:.\stm32f4periph\src/stm32f4xx_dma.c ****   DMAy_Streamx->M1AR = Memory1BaseAddr;
 544              		.loc 1 743 0
 545 01e2 0161     		str	r1, [r0, #16]	@ Memory1BaseAddr, DMAy_Streamx_2(D)->M1AR
 546 01e4 7047     		bx	lr	@
 547              		.cfi_endproc
 548              	.LFE118:
 549              		.size	DMA_DoubleBufferModeConfig, .-DMA_DoubleBufferModeConfig
 550              		.align	1
 551              		.global	DMA_DoubleBufferModeCmd
 552              		.thumb
 553              		.thumb_func
 554              		.type	DMA_DoubleBufferModeCmd, %function
 555              	DMA_DoubleBufferModeCmd:
 556              	.LFB119:
 744:.\stm32f4periph\src/stm32f4xx_dma.c **** }
 745:.\stm32f4periph\src/stm32f4xx_dma.c **** 
 746:.\stm32f4periph\src/stm32f4xx_dma.c **** /**
 747:.\stm32f4periph\src/stm32f4xx_dma.c ****   * @brief  Enables or disables the double buffer mode for the selected DMA stream.
 748:.\stm32f4periph\src/stm32f4xx_dma.c ****   * @note   This function can be called only when the DMA Stream is disabled.  
ARM GAS  C:\Users\Kevin\AppData\Local\Temp\ccAyYxRs.s 			page 24


 749:.\stm32f4periph\src/stm32f4xx_dma.c ****   * @param  DMAy_Streamx: where y can be 1 or 2 to select the DMA and x can be 0
 750:.\stm32f4periph\src/stm32f4xx_dma.c ****   *          to 7 to select the DMA Stream.
 751:.\stm32f4periph\src/stm32f4xx_dma.c ****   * @param  NewState: new state of the DMAy Streamx double buffer mode. 
 752:.\stm32f4periph\src/stm32f4xx_dma.c ****   *          This parameter can be: ENABLE or DISABLE.
 753:.\stm32f4periph\src/stm32f4xx_dma.c ****   * @retval None
 754:.\stm32f4periph\src/stm32f4xx_dma.c ****   */
 755:.\stm32f4periph\src/stm32f4xx_dma.c **** void DMA_DoubleBufferModeCmd(DMA_Stream_TypeDef* DMAy_Streamx, FunctionalState NewState)
 756:.\stm32f4periph\src/stm32f4xx_dma.c **** {  
 557              		.loc 1 756 0
 558              		.cfi_startproc
 559              		@ args = 0, pretend = 0, frame = 0
 560              		@ frame_needed = 0, uses_anonymous_args = 0
 561              		@ link register save eliminated.
 562              	.LVL17:
 757:.\stm32f4periph\src/stm32f4xx_dma.c ****   /* Check the parameters */
 758:.\stm32f4periph\src/stm32f4xx_dma.c ****   assert_param(IS_DMA_ALL_PERIPH(DMAy_Streamx));
 759:.\stm32f4periph\src/stm32f4xx_dma.c ****   assert_param(IS_FUNCTIONAL_STATE(NewState));
 760:.\stm32f4periph\src/stm32f4xx_dma.c **** 
 761:.\stm32f4periph\src/stm32f4xx_dma.c ****   /* Configure the Double Buffer mode */
 762:.\stm32f4periph\src/stm32f4xx_dma.c ****   if (NewState != DISABLE)
 763:.\stm32f4periph\src/stm32f4xx_dma.c ****   {
 764:.\stm32f4periph\src/stm32f4xx_dma.c ****     /* Enable the Double buffer mode */
 765:.\stm32f4periph\src/stm32f4xx_dma.c ****     DMAy_Streamx->CR |= (uint32_t)DMA_SxCR_DBM;
 563              		.loc 1 765 0
 564 01e6 0368     		ldr	r3, [r0, #0]	@ D.7478,* DMAy_Streamx
 762:.\stm32f4periph\src/stm32f4xx_dma.c ****   if (NewState != DISABLE)
 565              		.loc 1 762 0
 566 01e8 11B1     		cbz	r1, .L51	@ NewState,
 567              		.loc 1 765 0
 568 01ea 43F48023 		orr	r3, r3, #262144	@ D.7479, D.7478,
 569 01ee 01E0     		b	.L53	@
 570              	.L51:
 766:.\stm32f4periph\src/stm32f4xx_dma.c ****   }
 767:.\stm32f4periph\src/stm32f4xx_dma.c ****   else
 768:.\stm32f4periph\src/stm32f4xx_dma.c ****   {
 769:.\stm32f4periph\src/stm32f4xx_dma.c ****     /* Disable the Double buffer mode */
 770:.\stm32f4periph\src/stm32f4xx_dma.c ****     DMAy_Streamx->CR &= ~(uint32_t)DMA_SxCR_DBM;
 571              		.loc 1 770 0
 572 01f0 23F48023 		bic	r3, r3, #262144	@ D.7482, D.7481,
 573              	.L53:
 574 01f4 0360     		str	r3, [r0, #0]	@ D.7482,* DMAy_Streamx
 575 01f6 7047     		bx	lr	@
 576              		.cfi_endproc
 577              	.LFE119:
 578              		.size	DMA_DoubleBufferModeCmd, .-DMA_DoubleBufferModeCmd
 579              		.align	1
 580              		.global	DMA_MemoryTargetConfig
 581              		.thumb
 582              		.thumb_func
 583              		.type	DMA_MemoryTargetConfig, %function
 584              	DMA_MemoryTargetConfig:
 585              	.LFB120:
 771:.\stm32f4periph\src/stm32f4xx_dma.c ****   }
 772:.\stm32f4periph\src/stm32f4xx_dma.c **** }
 773:.\stm32f4periph\src/stm32f4xx_dma.c **** 
 774:.\stm32f4periph\src/stm32f4xx_dma.c **** /**
 775:.\stm32f4periph\src/stm32f4xx_dma.c ****   * @brief  Configures the Memory address for the next buffer transfer in double
ARM GAS  C:\Users\Kevin\AppData\Local\Temp\ccAyYxRs.s 			page 25


 776:.\stm32f4periph\src/stm32f4xx_dma.c ****   *         buffer mode (for dynamic use). This function can be called when the
 777:.\stm32f4periph\src/stm32f4xx_dma.c ****   *         DMA Stream is enabled and when the transfer is ongoing.  
 778:.\stm32f4periph\src/stm32f4xx_dma.c ****   * @param  DMAy_Streamx: where y can be 1 or 2 to select the DMA and x can be 0
 779:.\stm32f4periph\src/stm32f4xx_dma.c ****   *          to 7 to select the DMA Stream.
 780:.\stm32f4periph\src/stm32f4xx_dma.c ****   * @param  MemoryBaseAddr: The base address of the target memory buffer
 781:.\stm32f4periph\src/stm32f4xx_dma.c ****   * @param  DMA_MemoryTarget: Next memory target to be used. 
 782:.\stm32f4periph\src/stm32f4xx_dma.c ****   *         This parameter can be one of the following values:
 783:.\stm32f4periph\src/stm32f4xx_dma.c ****   *            @arg DMA_Memory_0: To use the memory address 0
 784:.\stm32f4periph\src/stm32f4xx_dma.c ****   *            @arg DMA_Memory_1: To use the memory address 1
 785:.\stm32f4periph\src/stm32f4xx_dma.c ****   * 
 786:.\stm32f4periph\src/stm32f4xx_dma.c ****   * @note    It is not allowed to modify the Base Address of a target Memory when
 787:.\stm32f4periph\src/stm32f4xx_dma.c ****   *          this target is involved in the current transfer. ie. If the DMA Stream
 788:.\stm32f4periph\src/stm32f4xx_dma.c ****   *          is currently transferring to/from Memory 1, then it not possible to
 789:.\stm32f4periph\src/stm32f4xx_dma.c ****   *          modify Base address of Memory 1, but it is possible to modify Base
 790:.\stm32f4periph\src/stm32f4xx_dma.c ****   *          address of Memory 0.
 791:.\stm32f4periph\src/stm32f4xx_dma.c ****   *          To know which Memory is currently used, you can use the function
 792:.\stm32f4periph\src/stm32f4xx_dma.c ****   *          DMA_GetCurrentMemoryTarget().             
 793:.\stm32f4periph\src/stm32f4xx_dma.c ****   *  
 794:.\stm32f4periph\src/stm32f4xx_dma.c ****   * @retval None
 795:.\stm32f4periph\src/stm32f4xx_dma.c ****   */
 796:.\stm32f4periph\src/stm32f4xx_dma.c **** void DMA_MemoryTargetConfig(DMA_Stream_TypeDef* DMAy_Streamx, uint32_t MemoryBaseAddr,
 797:.\stm32f4periph\src/stm32f4xx_dma.c ****                            uint32_t DMA_MemoryTarget)
 798:.\stm32f4periph\src/stm32f4xx_dma.c **** {
 586              		.loc 1 798 0
 587              		.cfi_startproc
 588              		@ args = 0, pretend = 0, frame = 0
 589              		@ frame_needed = 0, uses_anonymous_args = 0
 590              		@ link register save eliminated.
 591              	.LVL18:
 799:.\stm32f4periph\src/stm32f4xx_dma.c ****   /* Check the parameters */
 800:.\stm32f4periph\src/stm32f4xx_dma.c ****   assert_param(IS_DMA_ALL_PERIPH(DMAy_Streamx));
 801:.\stm32f4periph\src/stm32f4xx_dma.c ****   assert_param(IS_DMA_CURRENT_MEM(DMA_MemoryTarget));
 802:.\stm32f4periph\src/stm32f4xx_dma.c ****     
 803:.\stm32f4periph\src/stm32f4xx_dma.c ****   /* Check the Memory target to be configured */
 804:.\stm32f4periph\src/stm32f4xx_dma.c ****   if (DMA_MemoryTarget != DMA_Memory_0)
 592              		.loc 1 804 0
 593 01f8 0AB1     		cbz	r2, .L55	@ DMA_MemoryTarget,
 805:.\stm32f4periph\src/stm32f4xx_dma.c ****   {
 806:.\stm32f4periph\src/stm32f4xx_dma.c ****     /* Write to DMAy Streamx M1AR */
 807:.\stm32f4periph\src/stm32f4xx_dma.c ****     DMAy_Streamx->M1AR = MemoryBaseAddr;    
 594              		.loc 1 807 0
 595 01fa 0161     		str	r1, [r0, #16]	@ MemoryBaseAddr, DMAy_Streamx_2(D)->M1AR
 596 01fc 7047     		bx	lr	@
 597              	.L55:
 808:.\stm32f4periph\src/stm32f4xx_dma.c ****   }  
 809:.\stm32f4periph\src/stm32f4xx_dma.c ****   else
 810:.\stm32f4periph\src/stm32f4xx_dma.c ****   {
 811:.\stm32f4periph\src/stm32f4xx_dma.c ****     /* Write to DMAy Streamx M0AR */
 812:.\stm32f4periph\src/stm32f4xx_dma.c ****     DMAy_Streamx->M0AR = MemoryBaseAddr;  
 598              		.loc 1 812 0
 599 01fe C160     		str	r1, [r0, #12]	@ MemoryBaseAddr, DMAy_Streamx_2(D)->M0AR
 600 0200 7047     		bx	lr	@
 601              		.cfi_endproc
 602              	.LFE120:
 603              		.size	DMA_MemoryTargetConfig, .-DMA_MemoryTargetConfig
 604              		.align	1
 605              		.global	DMA_GetCurrentMemoryTarget
ARM GAS  C:\Users\Kevin\AppData\Local\Temp\ccAyYxRs.s 			page 26


 606              		.thumb
 607              		.thumb_func
 608              		.type	DMA_GetCurrentMemoryTarget, %function
 609              	DMA_GetCurrentMemoryTarget:
 610              	.LFB121:
 813:.\stm32f4periph\src/stm32f4xx_dma.c ****   }
 814:.\stm32f4periph\src/stm32f4xx_dma.c **** }
 815:.\stm32f4periph\src/stm32f4xx_dma.c **** 
 816:.\stm32f4periph\src/stm32f4xx_dma.c **** /**
 817:.\stm32f4periph\src/stm32f4xx_dma.c ****   * @brief  Returns the current memory target used by double buffer transfer.
 818:.\stm32f4periph\src/stm32f4xx_dma.c ****   * @param  DMAy_Streamx: where y can be 1 or 2 to select the DMA and x can be 0
 819:.\stm32f4periph\src/stm32f4xx_dma.c ****   *          to 7 to select the DMA Stream.
 820:.\stm32f4periph\src/stm32f4xx_dma.c ****   * @retval The memory target number: 0 for Memory0 or 1 for Memory1. 
 821:.\stm32f4periph\src/stm32f4xx_dma.c ****   */
 822:.\stm32f4periph\src/stm32f4xx_dma.c **** uint32_t DMA_GetCurrentMemoryTarget(DMA_Stream_TypeDef* DMAy_Streamx)
 823:.\stm32f4periph\src/stm32f4xx_dma.c **** {
 611              		.loc 1 823 0
 612              		.cfi_startproc
 613              		@ args = 0, pretend = 0, frame = 0
 614              		@ frame_needed = 0, uses_anonymous_args = 0
 615              		@ link register save eliminated.
 616              	.LVL19:
 824:.\stm32f4periph\src/stm32f4xx_dma.c ****   uint32_t tmp = 0;
 825:.\stm32f4periph\src/stm32f4xx_dma.c ****   
 826:.\stm32f4periph\src/stm32f4xx_dma.c ****   /* Check the parameters */
 827:.\stm32f4periph\src/stm32f4xx_dma.c ****   assert_param(IS_DMA_ALL_PERIPH(DMAy_Streamx));
 828:.\stm32f4periph\src/stm32f4xx_dma.c **** 
 829:.\stm32f4periph\src/stm32f4xx_dma.c ****   /* Get the current memory target */
 830:.\stm32f4periph\src/stm32f4xx_dma.c ****   if ((DMAy_Streamx->CR & DMA_SxCR_CT) != 0)
 617              		.loc 1 830 0
 618 0202 0068     		ldr	r0, [r0, #0]	@ D.7466, DMAy_Streamx_3(D)->CR
 619              	.LVL20:
 831:.\stm32f4periph\src/stm32f4xx_dma.c ****   {
 832:.\stm32f4periph\src/stm32f4xx_dma.c ****     /* Current memory buffer used is Memory 1 */
 833:.\stm32f4periph\src/stm32f4xx_dma.c ****     tmp = 1;
 834:.\stm32f4periph\src/stm32f4xx_dma.c ****   }  
 835:.\stm32f4periph\src/stm32f4xx_dma.c ****   else
 836:.\stm32f4periph\src/stm32f4xx_dma.c ****   {
 837:.\stm32f4periph\src/stm32f4xx_dma.c ****     /* Current memory buffer used is Memory 0 */
 838:.\stm32f4periph\src/stm32f4xx_dma.c ****     tmp = 0;    
 839:.\stm32f4periph\src/stm32f4xx_dma.c ****   }
 840:.\stm32f4periph\src/stm32f4xx_dma.c ****   return tmp;
 841:.\stm32f4periph\src/stm32f4xx_dma.c **** }
 620              		.loc 1 841 0
 621 0204 C0F3C040 		ubfx	r0, r0, #19, #1	@, D.7466,,
 622              	.LVL21:
 623 0208 7047     		bx	lr	@
 624              		.cfi_endproc
 625              	.LFE121:
 626              		.size	DMA_GetCurrentMemoryTarget, .-DMA_GetCurrentMemoryTarget
 627              		.align	1
 628              		.global	DMA_GetCmdStatus
 629              		.thumb
 630              		.thumb_func
 631              		.type	DMA_GetCmdStatus, %function
 632              	DMA_GetCmdStatus:
 633              	.LFB122:
ARM GAS  C:\Users\Kevin\AppData\Local\Temp\ccAyYxRs.s 			page 27


 842:.\stm32f4periph\src/stm32f4xx_dma.c **** /**
 843:.\stm32f4periph\src/stm32f4xx_dma.c ****   * @}
 844:.\stm32f4periph\src/stm32f4xx_dma.c ****   */
 845:.\stm32f4periph\src/stm32f4xx_dma.c **** 
 846:.\stm32f4periph\src/stm32f4xx_dma.c **** /** @defgroup DMA_Group4 Interrupts and flags management functions
 847:.\stm32f4periph\src/stm32f4xx_dma.c ****  *  @brief   Interrupts and flags management functions 
 848:.\stm32f4periph\src/stm32f4xx_dma.c ****  *
 849:.\stm32f4periph\src/stm32f4xx_dma.c **** @verbatim   
 850:.\stm32f4periph\src/stm32f4xx_dma.c ****  ===============================================================================
 851:.\stm32f4periph\src/stm32f4xx_dma.c ****                   Interrupts and flags management functions
 852:.\stm32f4periph\src/stm32f4xx_dma.c ****  ===============================================================================  
 853:.\stm32f4periph\src/stm32f4xx_dma.c **** 
 854:.\stm32f4periph\src/stm32f4xx_dma.c ****   This subsection provides functions allowing to
 855:.\stm32f4periph\src/stm32f4xx_dma.c ****    - Check the DMA enable status
 856:.\stm32f4periph\src/stm32f4xx_dma.c ****    - Check the FIFO status 
 857:.\stm32f4periph\src/stm32f4xx_dma.c ****    - Configure the DMA Interrupts sources and check or clear the flags or pending bits status.   
 858:.\stm32f4periph\src/stm32f4xx_dma.c ****    
 859:.\stm32f4periph\src/stm32f4xx_dma.c ****  1. DMA Enable status:
 860:.\stm32f4periph\src/stm32f4xx_dma.c ****    After configuring the DMA Stream (DMA_Init() function) and enabling the stream,
 861:.\stm32f4periph\src/stm32f4xx_dma.c ****    it is recommended to check (or wait until) the DMA Stream is effectively enabled.
 862:.\stm32f4periph\src/stm32f4xx_dma.c ****    A Stream may remain disabled if a configuration parameter is wrong.
 863:.\stm32f4periph\src/stm32f4xx_dma.c ****    After disabling a DMA Stream, it is also recommended to check (or wait until) the DMA
 864:.\stm32f4periph\src/stm32f4xx_dma.c ****    Stream is effectively disabled. If a Stream is disabled while a data transfer is ongoing, 
 865:.\stm32f4periph\src/stm32f4xx_dma.c ****    the current data will be transferred and the Stream will be effectively disabled only after
 866:.\stm32f4periph\src/stm32f4xx_dma.c ****    this data transfer completion.
 867:.\stm32f4periph\src/stm32f4xx_dma.c ****    To monitor this state it is possible to use the following function:
 868:.\stm32f4periph\src/stm32f4xx_dma.c ****      - FunctionalState DMA_GetCmdStatus(DMA_Stream_TypeDef* DMAy_Streamx); 
 869:.\stm32f4periph\src/stm32f4xx_dma.c ****  
 870:.\stm32f4periph\src/stm32f4xx_dma.c ****  2. FIFO Status:
 871:.\stm32f4periph\src/stm32f4xx_dma.c ****    It is possible to monitor the FIFO status when a transfer is ongoing using the following 
 872:.\stm32f4periph\src/stm32f4xx_dma.c ****    function:
 873:.\stm32f4periph\src/stm32f4xx_dma.c ****      - uint32_t DMA_GetFIFOStatus(DMA_Stream_TypeDef* DMAy_Streamx); 
 874:.\stm32f4periph\src/stm32f4xx_dma.c ****  
 875:.\stm32f4periph\src/stm32f4xx_dma.c ****  3. DMA Interrupts and Flags:
 876:.\stm32f4periph\src/stm32f4xx_dma.c ****   The user should identify which mode will be used in his application to manage the
 877:.\stm32f4periph\src/stm32f4xx_dma.c ****   DMA controller events: Polling mode or Interrupt mode. 
 878:.\stm32f4periph\src/stm32f4xx_dma.c ****     
 879:.\stm32f4periph\src/stm32f4xx_dma.c ****   Polling Mode
 880:.\stm32f4periph\src/stm32f4xx_dma.c ****   =============
 881:.\stm32f4periph\src/stm32f4xx_dma.c ****     Each DMA stream can be managed through 4 event Flags:
 882:.\stm32f4periph\src/stm32f4xx_dma.c ****     (x : DMA Stream number )
 883:.\stm32f4periph\src/stm32f4xx_dma.c ****        1. DMA_FLAG_FEIFx  : to indicate that a FIFO Mode Transfer Error event occurred.
 884:.\stm32f4periph\src/stm32f4xx_dma.c ****        2. DMA_FLAG_DMEIFx : to indicate that a Direct Mode Transfer Error event occurred.
 885:.\stm32f4periph\src/stm32f4xx_dma.c ****        3. DMA_FLAG_TEIFx  : to indicate that a Transfer Error event occurred.
 886:.\stm32f4periph\src/stm32f4xx_dma.c ****        4. DMA_FLAG_HTIFx  : to indicate that a Half-Transfer Complete event occurred.
 887:.\stm32f4periph\src/stm32f4xx_dma.c ****        5. DMA_FLAG_TCIFx  : to indicate that a Transfer Complete event occurred .       
 888:.\stm32f4periph\src/stm32f4xx_dma.c **** 
 889:.\stm32f4periph\src/stm32f4xx_dma.c ****    In this Mode it is advised to use the following functions:
 890:.\stm32f4periph\src/stm32f4xx_dma.c ****       - FlagStatus DMA_GetFlagStatus(DMA_Stream_TypeDef* DMAy_Streamx, uint32_t DMA_FLAG);
 891:.\stm32f4periph\src/stm32f4xx_dma.c ****       - void DMA_ClearFlag(DMA_Stream_TypeDef* DMAy_Streamx, uint32_t DMA_FLAG);
 892:.\stm32f4periph\src/stm32f4xx_dma.c **** 
 893:.\stm32f4periph\src/stm32f4xx_dma.c ****   Interrupt Mode
 894:.\stm32f4periph\src/stm32f4xx_dma.c ****   ===============
 895:.\stm32f4periph\src/stm32f4xx_dma.c ****     Each DMA Stream can be managed through 4 Interrupts:
 896:.\stm32f4periph\src/stm32f4xx_dma.c **** 
 897:.\stm32f4periph\src/stm32f4xx_dma.c ****     Interrupt Source
 898:.\stm32f4periph\src/stm32f4xx_dma.c ****     ----------------
ARM GAS  C:\Users\Kevin\AppData\Local\Temp\ccAyYxRs.s 			page 28


 899:.\stm32f4periph\src/stm32f4xx_dma.c ****        1. DMA_IT_FEIFx  : specifies the interrupt source for the  FIFO Mode Transfer Error event.
 900:.\stm32f4periph\src/stm32f4xx_dma.c ****        2. DMA_IT_DMEIFx : specifies the interrupt source for the Direct Mode Transfer Error event.
 901:.\stm32f4periph\src/stm32f4xx_dma.c ****        3. DMA_IT_TEIFx  : specifies the interrupt source for the Transfer Error event.
 902:.\stm32f4periph\src/stm32f4xx_dma.c ****        4. DMA_IT_HTIFx  : specifies the interrupt source for the Half-Transfer Complete event.
 903:.\stm32f4periph\src/stm32f4xx_dma.c ****        5. DMA_IT_TCIFx  : specifies the interrupt source for the a Transfer Complete event. 
 904:.\stm32f4periph\src/stm32f4xx_dma.c ****      
 905:.\stm32f4periph\src/stm32f4xx_dma.c ****   In this Mode it is advised to use the following functions:
 906:.\stm32f4periph\src/stm32f4xx_dma.c ****      - void DMA_ITConfig(DMA_Stream_TypeDef* DMAy_Streamx, uint32_t DMA_IT, FunctionalState NewStat
 907:.\stm32f4periph\src/stm32f4xx_dma.c ****      - ITStatus DMA_GetITStatus(DMA_Stream_TypeDef* DMAy_Streamx, uint32_t DMA_IT);
 908:.\stm32f4periph\src/stm32f4xx_dma.c ****      - void DMA_ClearITPendingBit(DMA_Stream_TypeDef* DMAy_Streamx, uint32_t DMA_IT);
 909:.\stm32f4periph\src/stm32f4xx_dma.c **** 
 910:.\stm32f4periph\src/stm32f4xx_dma.c **** @endverbatim
 911:.\stm32f4periph\src/stm32f4xx_dma.c ****   * @{
 912:.\stm32f4periph\src/stm32f4xx_dma.c ****   */
 913:.\stm32f4periph\src/stm32f4xx_dma.c **** 
 914:.\stm32f4periph\src/stm32f4xx_dma.c **** /**
 915:.\stm32f4periph\src/stm32f4xx_dma.c ****   * @brief  Returns the status of EN bit for the specified DMAy Streamx.
 916:.\stm32f4periph\src/stm32f4xx_dma.c ****   * @param  DMAy_Streamx: where y can be 1 or 2 to select the DMA and x can be 0
 917:.\stm32f4periph\src/stm32f4xx_dma.c ****   *          to 7 to select the DMA Stream.
 918:.\stm32f4periph\src/stm32f4xx_dma.c ****   *   
 919:.\stm32f4periph\src/stm32f4xx_dma.c ****   * @note    After configuring the DMA Stream (DMA_Init() function) and enabling
 920:.\stm32f4periph\src/stm32f4xx_dma.c ****   *          the stream, it is recommended to check (or wait until) the DMA Stream
 921:.\stm32f4periph\src/stm32f4xx_dma.c ****   *          is effectively enabled. A Stream may remain disabled if a configuration
 922:.\stm32f4periph\src/stm32f4xx_dma.c ****   *          parameter is wrong.
 923:.\stm32f4periph\src/stm32f4xx_dma.c ****   *          After disabling a DMA Stream, it is also recommended to check (or wait 
 924:.\stm32f4periph\src/stm32f4xx_dma.c ****   *          until) the DMA Stream is effectively disabled. If a Stream is disabled
 925:.\stm32f4periph\src/stm32f4xx_dma.c ****   *          while a data transfer is ongoing, the current data will be transferred
 926:.\stm32f4periph\src/stm32f4xx_dma.c ****   *          and the Stream will be effectively disabled only after the transfer
 927:.\stm32f4periph\src/stm32f4xx_dma.c ****   *          of this single data is finished.  
 928:.\stm32f4periph\src/stm32f4xx_dma.c ****   *      
 929:.\stm32f4periph\src/stm32f4xx_dma.c ****   * @retval Current state of the DMAy Streamx (ENABLE or DISABLE).
 930:.\stm32f4periph\src/stm32f4xx_dma.c ****   */
 931:.\stm32f4periph\src/stm32f4xx_dma.c **** FunctionalState DMA_GetCmdStatus(DMA_Stream_TypeDef* DMAy_Streamx)
 932:.\stm32f4periph\src/stm32f4xx_dma.c **** {
 634              		.loc 1 932 0
 635              		.cfi_startproc
 636              		@ args = 0, pretend = 0, frame = 0
 637              		@ frame_needed = 0, uses_anonymous_args = 0
 638              		@ link register save eliminated.
 639              	.LVL22:
 933:.\stm32f4periph\src/stm32f4xx_dma.c ****   FunctionalState state = DISABLE;
 934:.\stm32f4periph\src/stm32f4xx_dma.c **** 
 935:.\stm32f4periph\src/stm32f4xx_dma.c ****   /* Check the parameters */
 936:.\stm32f4periph\src/stm32f4xx_dma.c ****   assert_param(IS_DMA_ALL_PERIPH(DMAy_Streamx));
 937:.\stm32f4periph\src/stm32f4xx_dma.c **** 
 938:.\stm32f4periph\src/stm32f4xx_dma.c ****   if ((DMAy_Streamx->CR & (uint32_t)DMA_SxCR_EN) != 0)
 640              		.loc 1 938 0
 641 020a 0068     		ldr	r0, [r0, #0]	@ D.7459, DMAy_Streamx_3(D)->CR
 642              	.LVL23:
 939:.\stm32f4periph\src/stm32f4xx_dma.c ****   {
 940:.\stm32f4periph\src/stm32f4xx_dma.c ****     /* The selected DMAy Streamx EN bit is set (DMA is still transferring) */
 941:.\stm32f4periph\src/stm32f4xx_dma.c ****     state = ENABLE;
 942:.\stm32f4periph\src/stm32f4xx_dma.c ****   }
 943:.\stm32f4periph\src/stm32f4xx_dma.c ****   else
 944:.\stm32f4periph\src/stm32f4xx_dma.c ****   {
 945:.\stm32f4periph\src/stm32f4xx_dma.c ****     /* The selected DMAy Streamx EN bit is cleared (DMA is disabled and 
 946:.\stm32f4periph\src/stm32f4xx_dma.c ****         all transfers are complete) */
ARM GAS  C:\Users\Kevin\AppData\Local\Temp\ccAyYxRs.s 			page 29


 947:.\stm32f4periph\src/stm32f4xx_dma.c ****     state = DISABLE;
 948:.\stm32f4periph\src/stm32f4xx_dma.c ****   }
 949:.\stm32f4periph\src/stm32f4xx_dma.c ****   return state;
 950:.\stm32f4periph\src/stm32f4xx_dma.c **** }
 643              		.loc 1 950 0
 644 020c 00F00100 		and	r0, r0, #1	@, D.7459,
 645              	.LVL24:
 646 0210 7047     		bx	lr	@
 647              		.cfi_endproc
 648              	.LFE122:
 649              		.size	DMA_GetCmdStatus, .-DMA_GetCmdStatus
 650              		.align	1
 651              		.global	DMA_GetFIFOStatus
 652              		.thumb
 653              		.thumb_func
 654              		.type	DMA_GetFIFOStatus, %function
 655              	DMA_GetFIFOStatus:
 656              	.LFB123:
 951:.\stm32f4periph\src/stm32f4xx_dma.c **** 
 952:.\stm32f4periph\src/stm32f4xx_dma.c **** /**
 953:.\stm32f4periph\src/stm32f4xx_dma.c ****   * @brief  Returns the current DMAy Streamx FIFO filled level.
 954:.\stm32f4periph\src/stm32f4xx_dma.c ****   * @param  DMAy_Streamx: where y can be 1 or 2 to select the DMA and x can be 0 
 955:.\stm32f4periph\src/stm32f4xx_dma.c ****   *         to 7 to select the DMA Stream.
 956:.\stm32f4periph\src/stm32f4xx_dma.c ****   * @retval The FIFO filling state.
 957:.\stm32f4periph\src/stm32f4xx_dma.c ****   *           - DMA_FIFOStatus_Less1QuarterFull: when FIFO is less than 1 quarter-full 
 958:.\stm32f4periph\src/stm32f4xx_dma.c ****   *                                               and not empty.
 959:.\stm32f4periph\src/stm32f4xx_dma.c ****   *           - DMA_FIFOStatus_1QuarterFull: if more than 1 quarter-full.
 960:.\stm32f4periph\src/stm32f4xx_dma.c ****   *           - DMA_FIFOStatus_HalfFull: if more than 1 half-full.
 961:.\stm32f4periph\src/stm32f4xx_dma.c ****   *           - DMA_FIFOStatus_3QuartersFull: if more than 3 quarters-full.
 962:.\stm32f4periph\src/stm32f4xx_dma.c ****   *           - DMA_FIFOStatus_Empty: when FIFO is empty
 963:.\stm32f4periph\src/stm32f4xx_dma.c ****   *           - DMA_FIFOStatus_Full: when FIFO is full
 964:.\stm32f4periph\src/stm32f4xx_dma.c ****   */
 965:.\stm32f4periph\src/stm32f4xx_dma.c **** uint32_t DMA_GetFIFOStatus(DMA_Stream_TypeDef* DMAy_Streamx)
 966:.\stm32f4periph\src/stm32f4xx_dma.c **** {
 657              		.loc 1 966 0
 658              		.cfi_startproc
 659              		@ args = 0, pretend = 0, frame = 0
 660              		@ frame_needed = 0, uses_anonymous_args = 0
 661              		@ link register save eliminated.
 662              	.LVL25:
 967:.\stm32f4periph\src/stm32f4xx_dma.c ****   uint32_t tmpreg = 0;
 968:.\stm32f4periph\src/stm32f4xx_dma.c ****  
 969:.\stm32f4periph\src/stm32f4xx_dma.c ****   /* Check the parameters */
 970:.\stm32f4periph\src/stm32f4xx_dma.c ****   assert_param(IS_DMA_ALL_PERIPH(DMAy_Streamx));
 971:.\stm32f4periph\src/stm32f4xx_dma.c ****   
 972:.\stm32f4periph\src/stm32f4xx_dma.c ****   /* Get the FIFO level bits */
 973:.\stm32f4periph\src/stm32f4xx_dma.c ****   tmpreg = (uint32_t)((DMAy_Streamx->FCR & DMA_SxFCR_FS));
 663              		.loc 1 973 0
 664 0212 4069     		ldr	r0, [r0, #20]	@ D.7456, DMAy_Streamx_2(D)->FCR
 665              	.LVL26:
 974:.\stm32f4periph\src/stm32f4xx_dma.c ****   
 975:.\stm32f4periph\src/stm32f4xx_dma.c ****   return tmpreg;
 976:.\stm32f4periph\src/stm32f4xx_dma.c **** }
 666              		.loc 1 976 0
 667 0214 00F03800 		and	r0, r0, #56	@, D.7456,
 668              	.LVL27:
 669 0218 7047     		bx	lr	@
ARM GAS  C:\Users\Kevin\AppData\Local\Temp\ccAyYxRs.s 			page 30


 670              		.cfi_endproc
 671              	.LFE123:
 672              		.size	DMA_GetFIFOStatus, .-DMA_GetFIFOStatus
 673              		.align	1
 674              		.global	DMA_GetFlagStatus
 675              		.thumb
 676              		.thumb_func
 677              		.type	DMA_GetFlagStatus, %function
 678              	DMA_GetFlagStatus:
 679              	.LFB124:
 977:.\stm32f4periph\src/stm32f4xx_dma.c **** 
 978:.\stm32f4periph\src/stm32f4xx_dma.c **** /**
 979:.\stm32f4periph\src/stm32f4xx_dma.c ****   * @brief  Checks whether the specified DMAy Streamx flag is set or not.
 980:.\stm32f4periph\src/stm32f4xx_dma.c ****   * @param  DMAy_Streamx: where y can be 1 or 2 to select the DMA and x can be 0
 981:.\stm32f4periph\src/stm32f4xx_dma.c ****   *          to 7 to select the DMA Stream.
 982:.\stm32f4periph\src/stm32f4xx_dma.c ****   * @param  DMA_FLAG: specifies the flag to check.
 983:.\stm32f4periph\src/stm32f4xx_dma.c ****   *          This parameter can be one of the following values:
 984:.\stm32f4periph\src/stm32f4xx_dma.c ****   *            @arg DMA_FLAG_TCIFx:  Streamx transfer complete flag
 985:.\stm32f4periph\src/stm32f4xx_dma.c ****   *            @arg DMA_FLAG_HTIFx:  Streamx half transfer complete flag
 986:.\stm32f4periph\src/stm32f4xx_dma.c ****   *            @arg DMA_FLAG_TEIFx:  Streamx transfer error flag
 987:.\stm32f4periph\src/stm32f4xx_dma.c ****   *            @arg DMA_FLAG_DMEIFx: Streamx direct mode error flag
 988:.\stm32f4periph\src/stm32f4xx_dma.c ****   *            @arg DMA_FLAG_FEIFx:  Streamx FIFO error flag
 989:.\stm32f4periph\src/stm32f4xx_dma.c ****   *         Where x can be 0 to 7 to select the DMA Stream.
 990:.\stm32f4periph\src/stm32f4xx_dma.c ****   * @retval The new state of DMA_FLAG (SET or RESET).
 991:.\stm32f4periph\src/stm32f4xx_dma.c ****   */
 992:.\stm32f4periph\src/stm32f4xx_dma.c **** FlagStatus DMA_GetFlagStatus(DMA_Stream_TypeDef* DMAy_Streamx, uint32_t DMA_FLAG)
 993:.\stm32f4periph\src/stm32f4xx_dma.c **** {
 680              		.loc 1 993 0
 681              		.cfi_startproc
 682              		@ args = 0, pretend = 0, frame = 0
 683              		@ frame_needed = 0, uses_anonymous_args = 0
 684              	.LVL28:
 994:.\stm32f4periph\src/stm32f4xx_dma.c ****   FlagStatus bitstatus = RESET;
 995:.\stm32f4periph\src/stm32f4xx_dma.c ****   DMA_TypeDef* DMAy;
 996:.\stm32f4periph\src/stm32f4xx_dma.c ****   uint32_t tmpreg = 0;
 997:.\stm32f4periph\src/stm32f4xx_dma.c **** 
 998:.\stm32f4periph\src/stm32f4xx_dma.c ****   /* Check the parameters */
 999:.\stm32f4periph\src/stm32f4xx_dma.c ****   assert_param(IS_DMA_ALL_PERIPH(DMAy_Streamx));
1000:.\stm32f4periph\src/stm32f4xx_dma.c ****   assert_param(IS_DMA_GET_FLAG(DMA_FLAG));
1001:.\stm32f4periph\src/stm32f4xx_dma.c **** 
1002:.\stm32f4periph\src/stm32f4xx_dma.c ****   /* Determine the DMA to which belongs the stream */
1003:.\stm32f4periph\src/stm32f4xx_dma.c ****   if (DMAy_Streamx < DMA2_Stream0)
1004:.\stm32f4periph\src/stm32f4xx_dma.c ****   {
1005:.\stm32f4periph\src/stm32f4xx_dma.c ****     /* DMAy_Streamx belongs to DMA1 */
1006:.\stm32f4periph\src/stm32f4xx_dma.c ****     DMAy = DMA1; 
 685              		.loc 1 1006 0
 686 021a 0A4B     		ldr	r3, .L65	@ tmp157,
 687 021c 0A4A     		ldr	r2, .L65+4	@ tmp156,
 993:.\stm32f4periph\src/stm32f4xx_dma.c **** {
 688              		.loc 1 993 0
 689 021e 10B5     		push	{r4, lr}	@
 690              	.LCFI1:
 691              		.cfi_def_cfa_offset 8
 692              		.cfi_offset 4, -8
 693              		.cfi_offset 14, -4
 694              		.loc 1 1006 0
 695 0220 0A4C     		ldr	r4, .L65+8	@ tmp148,
ARM GAS  C:\Users\Kevin\AppData\Local\Temp\ccAyYxRs.s 			page 31


 696 0222 A042     		cmp	r0, r4	@ DMAy_Streamx, tmp148
 697 0224 8CBF     		ite	hi	@
 698 0226 1046     		movhi	r0, r2	@, DMAy, tmp156
 699 0228 1846     		movls	r0, r3	@, DMAy, tmp157
 700              	.LVL29:
1007:.\stm32f4periph\src/stm32f4xx_dma.c ****   } 
1008:.\stm32f4periph\src/stm32f4xx_dma.c ****   else 
1009:.\stm32f4periph\src/stm32f4xx_dma.c ****   {
1010:.\stm32f4periph\src/stm32f4xx_dma.c ****     /* DMAy_Streamx belongs to DMA2 */
1011:.\stm32f4periph\src/stm32f4xx_dma.c ****     DMAy = DMA2; 
1012:.\stm32f4periph\src/stm32f4xx_dma.c ****   }
1013:.\stm32f4periph\src/stm32f4xx_dma.c **** 
1014:.\stm32f4periph\src/stm32f4xx_dma.c ****   /* Check if the flag is in HISR or LISR */
1015:.\stm32f4periph\src/stm32f4xx_dma.c ****   if ((DMA_FLAG & HIGH_ISR_MASK) != (uint32_t)RESET)
 701              		.loc 1 1015 0
 702 022a 8B00     		lsls	r3, r1, #2	@, DMA_FLAG,
1016:.\stm32f4periph\src/stm32f4xx_dma.c ****   {
1017:.\stm32f4periph\src/stm32f4xx_dma.c ****     /* Get DMAy HISR register value */
1018:.\stm32f4periph\src/stm32f4xx_dma.c ****     tmpreg = DMAy->HISR;
 703              		.loc 1 1018 0
 704 022c 4CBF     		ite	mi
 705 022e 4368     		ldrmi	r3, [r0, #4]	@ tmpreg, DMAy_2->HISR
 706              	.LVL30:
1019:.\stm32f4periph\src/stm32f4xx_dma.c ****   }
1020:.\stm32f4periph\src/stm32f4xx_dma.c ****   else
1021:.\stm32f4periph\src/stm32f4xx_dma.c ****   {
1022:.\stm32f4periph\src/stm32f4xx_dma.c ****     /* Get DMAy LISR register value */
1023:.\stm32f4periph\src/stm32f4xx_dma.c ****     tmpreg = DMAy->LISR;
 707              		.loc 1 1023 0
 708 0230 0368     		ldrpl	r3, [r0, #0]	@ tmpreg, DMAy_2->LISR
 709              	.LVL31:
1024:.\stm32f4periph\src/stm32f4xx_dma.c ****   }   
1025:.\stm32f4periph\src/stm32f4xx_dma.c ****  
1026:.\stm32f4periph\src/stm32f4xx_dma.c ****   /* Mask the reserved bits */
1027:.\stm32f4periph\src/stm32f4xx_dma.c ****   tmpreg &= (uint32_t)RESERVED_MASK;
 710              		.loc 1 1027 0
 711 0232 21F0F021 		bic	r1, r1, #-268374016	@ tmp152, DMA_FLAG,
 712              	.LVL32:
 713 0236 21F08211 		bic	r1, r1, #8519810	@ tmp151, tmp152,
1028:.\stm32f4periph\src/stm32f4xx_dma.c **** 
1029:.\stm32f4periph\src/stm32f4xx_dma.c ****   /* Check the status of the specified DMA flag */
1030:.\stm32f4periph\src/stm32f4xx_dma.c ****   if ((tmpreg & DMA_FLAG) != (uint32_t)RESET)
 714              		.loc 1 1030 0
 715 023a 1942     		tst	r1, r3	@ tmp151, tmpreg
1031:.\stm32f4periph\src/stm32f4xx_dma.c ****   {
1032:.\stm32f4periph\src/stm32f4xx_dma.c ****     /* DMA_FLAG is set */
1033:.\stm32f4periph\src/stm32f4xx_dma.c ****     bitstatus = SET;
1034:.\stm32f4periph\src/stm32f4xx_dma.c ****   }
1035:.\stm32f4periph\src/stm32f4xx_dma.c ****   else
1036:.\stm32f4periph\src/stm32f4xx_dma.c ****   {
1037:.\stm32f4periph\src/stm32f4xx_dma.c ****     /* DMA_FLAG is reset */
1038:.\stm32f4periph\src/stm32f4xx_dma.c ****     bitstatus = RESET;
1039:.\stm32f4periph\src/stm32f4xx_dma.c ****   }
1040:.\stm32f4periph\src/stm32f4xx_dma.c **** 
1041:.\stm32f4periph\src/stm32f4xx_dma.c ****   /* Return the DMA_FLAG status */
1042:.\stm32f4periph\src/stm32f4xx_dma.c ****   return  bitstatus;
1043:.\stm32f4periph\src/stm32f4xx_dma.c **** }
ARM GAS  C:\Users\Kevin\AppData\Local\Temp\ccAyYxRs.s 			page 32


 716              		.loc 1 1043 0
 717 023c 0CBF     		ite	eq	@
 718 023e 0020     		moveq	r0, #0	@,
 719 0240 0120     		movne	r0, #1	@,
 720              	.LVL33:
 721 0242 10BD     		pop	{r4, pc}	@
 722              	.L66:
 723              		.align	2
 724              	.L65:
 725 0244 00600240 		.word	1073897472
 726 0248 00640240 		.word	1073898496
 727 024c 0F640240 		.word	1073898511
 728              		.cfi_endproc
 729              	.LFE124:
 730              		.size	DMA_GetFlagStatus, .-DMA_GetFlagStatus
 731              		.align	1
 732              		.global	DMA_ClearFlag
 733              		.thumb
 734              		.thumb_func
 735              		.type	DMA_ClearFlag, %function
 736              	DMA_ClearFlag:
 737              	.LFB125:
1044:.\stm32f4periph\src/stm32f4xx_dma.c **** 
1045:.\stm32f4periph\src/stm32f4xx_dma.c **** /**
1046:.\stm32f4periph\src/stm32f4xx_dma.c ****   * @brief  Clears the DMAy Streamx's pending flags.
1047:.\stm32f4periph\src/stm32f4xx_dma.c ****   * @param  DMAy_Streamx: where y can be 1 or 2 to select the DMA and x can be 0
1048:.\stm32f4periph\src/stm32f4xx_dma.c ****   *          to 7 to select the DMA Stream.
1049:.\stm32f4periph\src/stm32f4xx_dma.c ****   * @param  DMA_FLAG: specifies the flag to clear.
1050:.\stm32f4periph\src/stm32f4xx_dma.c ****   *          This parameter can be any combination of the following values:
1051:.\stm32f4periph\src/stm32f4xx_dma.c ****   *            @arg DMA_FLAG_TCIFx:  Streamx transfer complete flag
1052:.\stm32f4periph\src/stm32f4xx_dma.c ****   *            @arg DMA_FLAG_HTIFx:  Streamx half transfer complete flag
1053:.\stm32f4periph\src/stm32f4xx_dma.c ****   *            @arg DMA_FLAG_TEIFx:  Streamx transfer error flag
1054:.\stm32f4periph\src/stm32f4xx_dma.c ****   *            @arg DMA_FLAG_DMEIFx: Streamx direct mode error flag
1055:.\stm32f4periph\src/stm32f4xx_dma.c ****   *            @arg DMA_FLAG_FEIFx:  Streamx FIFO error flag
1056:.\stm32f4periph\src/stm32f4xx_dma.c ****   *         Where x can be 0 to 7 to select the DMA Stream.   
1057:.\stm32f4periph\src/stm32f4xx_dma.c ****   * @retval None
1058:.\stm32f4periph\src/stm32f4xx_dma.c ****   */
1059:.\stm32f4periph\src/stm32f4xx_dma.c **** void DMA_ClearFlag(DMA_Stream_TypeDef* DMAy_Streamx, uint32_t DMA_FLAG)
1060:.\stm32f4periph\src/stm32f4xx_dma.c **** {
 738              		.loc 1 1060 0
 739              		.cfi_startproc
 740              		@ args = 0, pretend = 0, frame = 0
 741              		@ frame_needed = 0, uses_anonymous_args = 0
 742              	.LVL34:
 743 0250 10B5     		push	{r4, lr}	@
 744              	.LCFI2:
 745              		.cfi_def_cfa_offset 8
 746              		.cfi_offset 4, -8
 747              		.cfi_offset 14, -4
1061:.\stm32f4periph\src/stm32f4xx_dma.c ****   DMA_TypeDef* DMAy;
1062:.\stm32f4periph\src/stm32f4xx_dma.c **** 
1063:.\stm32f4periph\src/stm32f4xx_dma.c ****   /* Check the parameters */
1064:.\stm32f4periph\src/stm32f4xx_dma.c ****   assert_param(IS_DMA_ALL_PERIPH(DMAy_Streamx));
1065:.\stm32f4periph\src/stm32f4xx_dma.c ****   assert_param(IS_DMA_CLEAR_FLAG(DMA_FLAG));
1066:.\stm32f4periph\src/stm32f4xx_dma.c **** 
1067:.\stm32f4periph\src/stm32f4xx_dma.c ****   /* Determine the DMA to which belongs the stream */
1068:.\stm32f4periph\src/stm32f4xx_dma.c ****   if (DMAy_Streamx < DMA2_Stream0)
ARM GAS  C:\Users\Kevin\AppData\Local\Temp\ccAyYxRs.s 			page 33


1069:.\stm32f4periph\src/stm32f4xx_dma.c ****   {
1070:.\stm32f4periph\src/stm32f4xx_dma.c ****     /* DMAy_Streamx belongs to DMA1 */
1071:.\stm32f4periph\src/stm32f4xx_dma.c ****     DMAy = DMA1; 
 748              		.loc 1 1071 0
 749 0252 084B     		ldr	r3, .L72	@ tmp146,
 750 0254 084A     		ldr	r2, .L72+4	@ tmp145,
 751 0256 094C     		ldr	r4, .L72+8	@ tmp140,
 752 0258 A042     		cmp	r0, r4	@ DMAy_Streamx, tmp140
 753 025a 8CBF     		ite	hi	@
 754 025c 1046     		movhi	r0, r2	@, DMAy, tmp145
 755 025e 1846     		movls	r0, r3	@, DMAy, tmp146
 756              	.LVL35:
1072:.\stm32f4periph\src/stm32f4xx_dma.c ****   } 
1073:.\stm32f4periph\src/stm32f4xx_dma.c ****   else 
1074:.\stm32f4periph\src/stm32f4xx_dma.c ****   {
1075:.\stm32f4periph\src/stm32f4xx_dma.c ****     /* DMAy_Streamx belongs to DMA2 */
1076:.\stm32f4periph\src/stm32f4xx_dma.c ****     DMAy = DMA2; 
1077:.\stm32f4periph\src/stm32f4xx_dma.c ****   }
1078:.\stm32f4periph\src/stm32f4xx_dma.c **** 
1079:.\stm32f4periph\src/stm32f4xx_dma.c ****   /* Check if LIFCR or HIFCR register is targeted */
1080:.\stm32f4periph\src/stm32f4xx_dma.c ****   if ((DMA_FLAG & HIGH_ISR_MASK) != (uint32_t)RESET)
 757              		.loc 1 1080 0
 758 0260 11F0005F 		tst	r1, #536870912	@ DMA_FLAG,
 759 0264 21F0F021 		bic	r1, r1, #-268374016	@ tmp144, DMA_FLAG,
 760              	.LVL36:
1081:.\stm32f4periph\src/stm32f4xx_dma.c ****   {
1082:.\stm32f4periph\src/stm32f4xx_dma.c ****     /* Set DMAy HIFCR register clear flag bits */
1083:.\stm32f4periph\src/stm32f4xx_dma.c ****     DMAy->HIFCR = (uint32_t)(DMA_FLAG & RESERVED_MASK);
 761              		.loc 1 1083 0
 762 0268 21F08211 		bic	r1, r1, #8519810	@ D.7441, tmp144,
 763 026c 14BF     		ite	ne
 764 026e C160     		strne	r1, [r0, #12]	@ D.7441, DMAy_1->HIFCR
1084:.\stm32f4periph\src/stm32f4xx_dma.c ****   }
1085:.\stm32f4periph\src/stm32f4xx_dma.c ****   else 
1086:.\stm32f4periph\src/stm32f4xx_dma.c ****   {
1087:.\stm32f4periph\src/stm32f4xx_dma.c ****     /* Set DMAy LIFCR register clear flag bits */
1088:.\stm32f4periph\src/stm32f4xx_dma.c ****     DMAy->LIFCR = (uint32_t)(DMA_FLAG & RESERVED_MASK);
 765              		.loc 1 1088 0
 766 0270 8160     		streq	r1, [r0, #8]	@ D.7441, DMAy_1->LIFCR
 767 0272 10BD     		pop	{r4, pc}	@
 768              	.L73:
 769              		.align	2
 770              	.L72:
 771 0274 00600240 		.word	1073897472
 772 0278 00640240 		.word	1073898496
 773 027c 0F640240 		.word	1073898511
 774              		.cfi_endproc
 775              	.LFE125:
 776              		.size	DMA_ClearFlag, .-DMA_ClearFlag
 777              		.align	1
 778              		.global	DMA_ITConfig
 779              		.thumb
 780              		.thumb_func
 781              		.type	DMA_ITConfig, %function
 782              	DMA_ITConfig:
 783              	.LFB126:
1089:.\stm32f4periph\src/stm32f4xx_dma.c ****   }    
ARM GAS  C:\Users\Kevin\AppData\Local\Temp\ccAyYxRs.s 			page 34


1090:.\stm32f4periph\src/stm32f4xx_dma.c **** }
1091:.\stm32f4periph\src/stm32f4xx_dma.c **** 
1092:.\stm32f4periph\src/stm32f4xx_dma.c **** /**
1093:.\stm32f4periph\src/stm32f4xx_dma.c ****   * @brief  Enables or disables the specified DMAy Streamx interrupts.
1094:.\stm32f4periph\src/stm32f4xx_dma.c ****   * @param  DMAy_Streamx: where y can be 1 or 2 to select the DMA and x can be 0
1095:.\stm32f4periph\src/stm32f4xx_dma.c ****   *          to 7 to select the DMA Stream.
1096:.\stm32f4periph\src/stm32f4xx_dma.c ****   * @param DMA_IT: specifies the DMA interrupt sources to be enabled or disabled. 
1097:.\stm32f4periph\src/stm32f4xx_dma.c ****   *          This parameter can be any combination of the following values:
1098:.\stm32f4periph\src/stm32f4xx_dma.c ****   *            @arg DMA_IT_TC:  Transfer complete interrupt mask
1099:.\stm32f4periph\src/stm32f4xx_dma.c ****   *            @arg DMA_IT_HT:  Half transfer complete interrupt mask
1100:.\stm32f4periph\src/stm32f4xx_dma.c ****   *            @arg DMA_IT_TE:  Transfer error interrupt mask
1101:.\stm32f4periph\src/stm32f4xx_dma.c ****   *            @arg DMA_IT_FE:  FIFO error interrupt mask
1102:.\stm32f4periph\src/stm32f4xx_dma.c ****   * @param  NewState: new state of the specified DMA interrupts.
1103:.\stm32f4periph\src/stm32f4xx_dma.c ****   *          This parameter can be: ENABLE or DISABLE.
1104:.\stm32f4periph\src/stm32f4xx_dma.c ****   * @retval None
1105:.\stm32f4periph\src/stm32f4xx_dma.c ****   */
1106:.\stm32f4periph\src/stm32f4xx_dma.c **** void DMA_ITConfig(DMA_Stream_TypeDef* DMAy_Streamx, uint32_t DMA_IT, FunctionalState NewState)
1107:.\stm32f4periph\src/stm32f4xx_dma.c **** {
 784              		.loc 1 1107 0
 785              		.cfi_startproc
 786              		@ args = 0, pretend = 0, frame = 0
 787              		@ frame_needed = 0, uses_anonymous_args = 0
 788              		@ link register save eliminated.
 789              	.LVL37:
1108:.\stm32f4periph\src/stm32f4xx_dma.c ****   /* Check the parameters */
1109:.\stm32f4periph\src/stm32f4xx_dma.c ****   assert_param(IS_DMA_ALL_PERIPH(DMAy_Streamx));
1110:.\stm32f4periph\src/stm32f4xx_dma.c ****   assert_param(IS_DMA_CONFIG_IT(DMA_IT));
1111:.\stm32f4periph\src/stm32f4xx_dma.c ****   assert_param(IS_FUNCTIONAL_STATE(NewState));
1112:.\stm32f4periph\src/stm32f4xx_dma.c **** 
1113:.\stm32f4periph\src/stm32f4xx_dma.c ****   /* Check if the DMA_IT parameter contains a FIFO interrupt */
1114:.\stm32f4periph\src/stm32f4xx_dma.c ****   if ((DMA_IT & DMA_IT_FE) != 0)
 790              		.loc 1 1114 0
 791 0280 0B06     		lsls	r3, r1, #24	@, DMA_IT,
 792 0282 11D5     		bpl	.L75	@,
1115:.\stm32f4periph\src/stm32f4xx_dma.c ****   {
1116:.\stm32f4periph\src/stm32f4xx_dma.c ****     if (NewState != DISABLE)
1117:.\stm32f4periph\src/stm32f4xx_dma.c ****     {
1118:.\stm32f4periph\src/stm32f4xx_dma.c ****       /* Enable the selected DMA FIFO interrupts */
1119:.\stm32f4periph\src/stm32f4xx_dma.c ****       DMAy_Streamx->FCR |= (uint32_t)DMA_IT_FE;
 793              		.loc 1 1119 0
 794 0284 4369     		ldr	r3, [r0, #20]	@ D.7419,
1116:.\stm32f4periph\src/stm32f4xx_dma.c ****     if (NewState != DISABLE)
 795              		.loc 1 1116 0
 796 0286 4AB1     		cbz	r2, .L76	@ NewState,
 797              		.loc 1 1119 0
 798 0288 43F08003 		orr	r3, r3, #128	@ D.7420, D.7419,
1120:.\stm32f4periph\src/stm32f4xx_dma.c ****     }    
1121:.\stm32f4periph\src/stm32f4xx_dma.c ****     else 
1122:.\stm32f4periph\src/stm32f4xx_dma.c ****     {
1123:.\stm32f4periph\src/stm32f4xx_dma.c ****       /* Disable the selected DMA FIFO interrupts */
1124:.\stm32f4periph\src/stm32f4xx_dma.c ****       DMAy_Streamx->FCR &= ~(uint32_t)DMA_IT_FE;  
1125:.\stm32f4periph\src/stm32f4xx_dma.c ****     }
1126:.\stm32f4periph\src/stm32f4xx_dma.c ****   }
1127:.\stm32f4periph\src/stm32f4xx_dma.c **** 
1128:.\stm32f4periph\src/stm32f4xx_dma.c ****   /* Check if the DMA_IT parameter contains a Transfer interrupt */
1129:.\stm32f4periph\src/stm32f4xx_dma.c ****   if (DMA_IT != DMA_IT_FE)
 799              		.loc 1 1129 0
ARM GAS  C:\Users\Kevin\AppData\Local\Temp\ccAyYxRs.s 			page 35


 800 028c 8029     		cmp	r1, #128	@ DMA_IT,
1119:.\stm32f4periph\src/stm32f4xx_dma.c ****       DMAy_Streamx->FCR |= (uint32_t)DMA_IT_FE;
 801              		.loc 1 1119 0
 802 028e 4361     		str	r3, [r0, #20]	@ D.7420, DMAy_Streamx_4(D)->FCR
 803              		.loc 1 1129 0
 804 0290 14D0     		beq	.L74	@,
 805              	.L77:
1130:.\stm32f4periph\src/stm32f4xx_dma.c ****   {
1131:.\stm32f4periph\src/stm32f4xx_dma.c ****     if (NewState != DISABLE)
1132:.\stm32f4periph\src/stm32f4xx_dma.c ****     {
1133:.\stm32f4periph\src/stm32f4xx_dma.c ****       /* Enable the selected DMA transfer interrupts */
1134:.\stm32f4periph\src/stm32f4xx_dma.c ****       DMAy_Streamx->CR |= (uint32_t)(DMA_IT  & TRANSFER_IT_ENABLE_MASK);
 806              		.loc 1 1134 0
 807 0292 0368     		ldr	r3, [r0, #0]	@ D.7428, DMAy_Streamx_4(D)->CR
 808 0294 01F01E01 		and	r1, r1, #30	@ tmp150, DMA_IT,
 809              	.LVL38:
 810 0298 1943     		orrs	r1, r1, r3	@, D.7430, tmp150, D.7428
 811 029a 0EE0     		b	.L84	@
 812              	.LVL39:
 813              	.L76:
1124:.\stm32f4periph\src/stm32f4xx_dma.c ****       DMAy_Streamx->FCR &= ~(uint32_t)DMA_IT_FE;  
 814              		.loc 1 1124 0
 815 029c 23F08003 		bic	r3, r3, #128	@ D.7423, D.7422,
1129:.\stm32f4periph\src/stm32f4xx_dma.c ****   if (DMA_IT != DMA_IT_FE)
 816              		.loc 1 1129 0
 817 02a0 8029     		cmp	r1, #128	@ DMA_IT,
1124:.\stm32f4periph\src/stm32f4xx_dma.c ****       DMAy_Streamx->FCR &= ~(uint32_t)DMA_IT_FE;  
 818              		.loc 1 1124 0
 819 02a2 4361     		str	r3, [r0, #20]	@ D.7423, DMAy_Streamx_4(D)->FCR
1129:.\stm32f4periph\src/stm32f4xx_dma.c ****   if (DMA_IT != DMA_IT_FE)
 820              		.loc 1 1129 0
 821 02a4 04D1     		bne	.L79	@,
 822 02a6 7047     		bx	lr	@
 823              	.L75:
 824 02a8 8029     		cmp	r1, #128	@ DMA_IT,
 825 02aa 07D0     		beq	.L74	@,
1131:.\stm32f4periph\src/stm32f4xx_dma.c ****     if (NewState != DISABLE)
 826              		.loc 1 1131 0
 827 02ac 002A     		cmp	r2, #0	@ NewState
 828 02ae F0D1     		bne	.L77	@
 829              	.L79:
1135:.\stm32f4periph\src/stm32f4xx_dma.c ****     }
1136:.\stm32f4periph\src/stm32f4xx_dma.c ****     else
1137:.\stm32f4periph\src/stm32f4xx_dma.c ****     {
1138:.\stm32f4periph\src/stm32f4xx_dma.c ****       /* Disable the selected DMA transfer interrupts */
1139:.\stm32f4periph\src/stm32f4xx_dma.c ****       DMAy_Streamx->CR &= ~(uint32_t)(DMA_IT & TRANSFER_IT_ENABLE_MASK);
 830              		.loc 1 1139 0
 831 02b0 0368     		ldr	r3, [r0, #0]	@ D.7432, DMAy_Streamx_4(D)->CR
 832 02b2 01F01E01 		and	r1, r1, #30	@ tmp151, DMA_IT,
 833              	.LVL40:
 834 02b6 23EA0101 		bic	r1, r3, r1	@ D.7434, D.7432, tmp151
 835              	.L84:
 836 02ba 0160     		str	r1, [r0, #0]	@ D.7434,* DMAy_Streamx
 837              	.L74:
 838 02bc 7047     		bx	lr	@
 839              		.cfi_endproc
 840              	.LFE126:
ARM GAS  C:\Users\Kevin\AppData\Local\Temp\ccAyYxRs.s 			page 36


 841              		.size	DMA_ITConfig, .-DMA_ITConfig
 842              		.align	1
 843              		.global	DMA_GetITStatus
 844              		.thumb
 845              		.thumb_func
 846              		.type	DMA_GetITStatus, %function
 847              	DMA_GetITStatus:
 848              	.LFB127:
1140:.\stm32f4periph\src/stm32f4xx_dma.c ****     }    
1141:.\stm32f4periph\src/stm32f4xx_dma.c ****   }
1142:.\stm32f4periph\src/stm32f4xx_dma.c **** }
1143:.\stm32f4periph\src/stm32f4xx_dma.c **** 
1144:.\stm32f4periph\src/stm32f4xx_dma.c **** /**
1145:.\stm32f4periph\src/stm32f4xx_dma.c ****   * @brief  Checks whether the specified DMAy Streamx interrupt has occurred or not.
1146:.\stm32f4periph\src/stm32f4xx_dma.c ****   * @param  DMAy_Streamx: where y can be 1 or 2 to select the DMA and x can be 0
1147:.\stm32f4periph\src/stm32f4xx_dma.c ****   *          to 7 to select the DMA Stream.
1148:.\stm32f4periph\src/stm32f4xx_dma.c ****   * @param  DMA_IT: specifies the DMA interrupt source to check.
1149:.\stm32f4periph\src/stm32f4xx_dma.c ****   *          This parameter can be one of the following values:
1150:.\stm32f4periph\src/stm32f4xx_dma.c ****   *            @arg DMA_IT_TCIFx:  Streamx transfer complete interrupt
1151:.\stm32f4periph\src/stm32f4xx_dma.c ****   *            @arg DMA_IT_HTIFx:  Streamx half transfer complete interrupt
1152:.\stm32f4periph\src/stm32f4xx_dma.c ****   *            @arg DMA_IT_TEIFx:  Streamx transfer error interrupt
1153:.\stm32f4periph\src/stm32f4xx_dma.c ****   *            @arg DMA_IT_DMEIFx: Streamx direct mode error interrupt
1154:.\stm32f4periph\src/stm32f4xx_dma.c ****   *            @arg DMA_IT_FEIFx:  Streamx FIFO error interrupt
1155:.\stm32f4periph\src/stm32f4xx_dma.c ****   *         Where x can be 0 to 7 to select the DMA Stream.
1156:.\stm32f4periph\src/stm32f4xx_dma.c ****   * @retval The new state of DMA_IT (SET or RESET).
1157:.\stm32f4periph\src/stm32f4xx_dma.c ****   */
1158:.\stm32f4periph\src/stm32f4xx_dma.c **** ITStatus DMA_GetITStatus(DMA_Stream_TypeDef* DMAy_Streamx, uint32_t DMA_IT)
1159:.\stm32f4periph\src/stm32f4xx_dma.c **** {
 849              		.loc 1 1159 0
 850              		.cfi_startproc
 851              		@ args = 0, pretend = 0, frame = 0
 852              		@ frame_needed = 0, uses_anonymous_args = 0
 853              	.LVL41:
1160:.\stm32f4periph\src/stm32f4xx_dma.c ****   ITStatus bitstatus = RESET;
1161:.\stm32f4periph\src/stm32f4xx_dma.c ****   DMA_TypeDef* DMAy;
1162:.\stm32f4periph\src/stm32f4xx_dma.c ****   uint32_t tmpreg = 0, enablestatus = 0;
1163:.\stm32f4periph\src/stm32f4xx_dma.c **** 
1164:.\stm32f4periph\src/stm32f4xx_dma.c ****   /* Check the parameters */
1165:.\stm32f4periph\src/stm32f4xx_dma.c ****   assert_param(IS_DMA_ALL_PERIPH(DMAy_Streamx));
1166:.\stm32f4periph\src/stm32f4xx_dma.c ****   assert_param(IS_DMA_GET_IT(DMA_IT));
1167:.\stm32f4periph\src/stm32f4xx_dma.c ****  
1168:.\stm32f4periph\src/stm32f4xx_dma.c ****   /* Determine the DMA to which belongs the stream */
1169:.\stm32f4periph\src/stm32f4xx_dma.c ****   if (DMAy_Streamx < DMA2_Stream0)
1170:.\stm32f4periph\src/stm32f4xx_dma.c ****   {
1171:.\stm32f4periph\src/stm32f4xx_dma.c ****     /* DMAy_Streamx belongs to DMA1 */
1172:.\stm32f4periph\src/stm32f4xx_dma.c ****     DMAy = DMA1; 
 854              		.loc 1 1172 0
 855 02be 124B     		ldr	r3, .L94	@ tmp163,
 856 02c0 124A     		ldr	r2, .L94+4	@ tmp162,
1159:.\stm32f4periph\src/stm32f4xx_dma.c **** {
 857              		.loc 1 1159 0
 858 02c2 10B5     		push	{r4, lr}	@
 859              	.LCFI3:
 860              		.cfi_def_cfa_offset 8
 861              		.cfi_offset 4, -8
 862              		.cfi_offset 14, -4
 863              		.loc 1 1172 0
ARM GAS  C:\Users\Kevin\AppData\Local\Temp\ccAyYxRs.s 			page 37


 864 02c4 124C     		ldr	r4, .L94+8	@ tmp150,
 865 02c6 A042     		cmp	r0, r4	@ DMAy_Streamx, tmp150
 866 02c8 8CBF     		ite	hi	@
 867 02ca 1446     		movhi	r4, r2	@, DMAy, tmp162
 868 02cc 1C46     		movls	r4, r3	@, DMAy, tmp163
 869              	.LVL42:
1173:.\stm32f4periph\src/stm32f4xx_dma.c ****   } 
1174:.\stm32f4periph\src/stm32f4xx_dma.c ****   else 
1175:.\stm32f4periph\src/stm32f4xx_dma.c ****   {
1176:.\stm32f4periph\src/stm32f4xx_dma.c ****     /* DMAy_Streamx belongs to DMA2 */
1177:.\stm32f4periph\src/stm32f4xx_dma.c ****     DMAy = DMA2; 
1178:.\stm32f4periph\src/stm32f4xx_dma.c ****   }
1179:.\stm32f4periph\src/stm32f4xx_dma.c **** 
1180:.\stm32f4periph\src/stm32f4xx_dma.c ****   /* Check if the interrupt enable bit is in the CR or FCR register */
1181:.\stm32f4periph\src/stm32f4xx_dma.c ****   if ((DMA_IT & TRANSFER_IT_MASK) != (uint32_t)RESET)
 870              		.loc 1 1181 0
 871 02ce 21F0F023 		bic	r3, r1, #-268374016	@ tmp152, DMA_IT,
 872 02d2 23F0C313 		bic	r3, r3, #12779715	@ tmp151, tmp152,
 873 02d6 2BB1     		cbz	r3, .L87	@ tmp151,
 874              	.LVL43:
1182:.\stm32f4periph\src/stm32f4xx_dma.c ****   {
1183:.\stm32f4periph\src/stm32f4xx_dma.c ****     /* Get the interrupt enable position mask in CR register */
1184:.\stm32f4periph\src/stm32f4xx_dma.c ****     tmpreg = (uint32_t)((DMA_IT >> 11) & TRANSFER_IT_ENABLE_MASK);   
1185:.\stm32f4periph\src/stm32f4xx_dma.c ****     
1186:.\stm32f4periph\src/stm32f4xx_dma.c ****     /* Check the enable bit in CR register */
1187:.\stm32f4periph\src/stm32f4xx_dma.c ****     enablestatus = (uint32_t)(DMAy_Streamx->CR & tmpreg);
 875              		.loc 1 1187 0
 876 02d8 0268     		ldr	r2, [r0, #0]	@ D.7400, DMAy_Streamx_8(D)->CR
1184:.\stm32f4periph\src/stm32f4xx_dma.c ****     tmpreg = (uint32_t)((DMA_IT >> 11) & TRANSFER_IT_ENABLE_MASK);   
 877              		.loc 1 1184 0
 878 02da 02F01E02 		and	r2, r2, #30	@ tmp153, D.7400,
 879              		.loc 1 1187 0
 880 02de 02EAD122 		and	r2, r2, r1, lsr #11	@, enablestatus, tmp153, DMA_IT,
 881              	.LVL44:
 882 02e2 02E0     		b	.L88	@
 883              	.LVL45:
 884              	.L87:
1188:.\stm32f4periph\src/stm32f4xx_dma.c ****   }
1189:.\stm32f4periph\src/stm32f4xx_dma.c ****   else 
1190:.\stm32f4periph\src/stm32f4xx_dma.c ****   {
1191:.\stm32f4periph\src/stm32f4xx_dma.c ****     /* Check the enable bit in FCR register */
1192:.\stm32f4periph\src/stm32f4xx_dma.c ****     enablestatus = (uint32_t)(DMAy_Streamx->FCR & DMA_IT_FE); 
 885              		.loc 1 1192 0
 886 02e4 4269     		ldr	r2, [r0, #20]	@ D.7402, DMAy_Streamx_8(D)->FCR
 887 02e6 02F08002 		and	r2, r2, #128	@ enablestatus, D.7402,
 888              	.LVL46:
 889              	.L88:
1193:.\stm32f4periph\src/stm32f4xx_dma.c ****   }
1194:.\stm32f4periph\src/stm32f4xx_dma.c ****  
1195:.\stm32f4periph\src/stm32f4xx_dma.c ****   /* Check if the interrupt pending flag is in LISR or HISR */
1196:.\stm32f4periph\src/stm32f4xx_dma.c ****   if ((DMA_IT & HIGH_ISR_MASK) != (uint32_t)RESET)
 890              		.loc 1 1196 0
 891 02ea 8800     		lsls	r0, r1, #2	@, DMA_IT,
 892              	.LVL47:
1197:.\stm32f4periph\src/stm32f4xx_dma.c ****   {
1198:.\stm32f4periph\src/stm32f4xx_dma.c ****     /* Get DMAy HISR register value */
1199:.\stm32f4periph\src/stm32f4xx_dma.c ****     tmpreg = DMAy->HISR ;
ARM GAS  C:\Users\Kevin\AppData\Local\Temp\ccAyYxRs.s 			page 38


 893              		.loc 1 1199 0
 894 02ec 4CBF     		ite	mi
 895 02ee 6368     		ldrmi	r3, [r4, #4]	@ tmpreg, DMAy_2->HISR
 896              	.LVL48:
1200:.\stm32f4periph\src/stm32f4xx_dma.c ****   }
1201:.\stm32f4periph\src/stm32f4xx_dma.c ****   else
1202:.\stm32f4periph\src/stm32f4xx_dma.c ****   {
1203:.\stm32f4periph\src/stm32f4xx_dma.c ****     /* Get DMAy LISR register value */
1204:.\stm32f4periph\src/stm32f4xx_dma.c ****     tmpreg = DMAy->LISR ;
 897              		.loc 1 1204 0
 898 02f0 2368     		ldrpl	r3, [r4, #0]	@ tmpreg, DMAy_2->LISR
 899              	.LVL49:
1205:.\stm32f4periph\src/stm32f4xx_dma.c ****   } 
1206:.\stm32f4periph\src/stm32f4xx_dma.c **** 
1207:.\stm32f4periph\src/stm32f4xx_dma.c ****   /* mask all reserved bits */
1208:.\stm32f4periph\src/stm32f4xx_dma.c ****   tmpreg &= (uint32_t)RESERVED_MASK;
 900              		.loc 1 1208 0
 901 02f2 21F0F021 		bic	r1, r1, #-268374016	@ tmp157, DMA_IT,
 902              	.LVL50:
 903 02f6 21F08210 		bic	r0, r1, #8519810	@ tmp156, tmp157,
1209:.\stm32f4periph\src/stm32f4xx_dma.c **** 
1210:.\stm32f4periph\src/stm32f4xx_dma.c ****   /* Check the status of the specified DMA interrupt */
1211:.\stm32f4periph\src/stm32f4xx_dma.c ****   if (((tmpreg & DMA_IT) != (uint32_t)RESET) && (enablestatus != (uint32_t)RESET))
 904              		.loc 1 1211 0
 905 02fa 1840     		ands	r0, r0, r3	@ tmp158, tmp156, tmpreg
 906 02fc 02D0     		beq	.L91	@,
1212:.\stm32f4periph\src/stm32f4xx_dma.c ****   {
1213:.\stm32f4periph\src/stm32f4xx_dma.c ****     /* DMA_IT is set */
1214:.\stm32f4periph\src/stm32f4xx_dma.c ****     bitstatus = SET;
 907              		.loc 1 1214 0 discriminator 1
 908 02fe 101C     		adds	r0, r2, #0	@ bitstatus, enablestatus,
 909 0300 18BF     		it	ne
 910 0302 0120     		movne	r0, #1	@ bitstatus,
 911              	.L91:
 912              	.LVL51:
1215:.\stm32f4periph\src/stm32f4xx_dma.c ****   }
1216:.\stm32f4periph\src/stm32f4xx_dma.c ****   else
1217:.\stm32f4periph\src/stm32f4xx_dma.c ****   {
1218:.\stm32f4periph\src/stm32f4xx_dma.c ****     /* DMA_IT is reset */
1219:.\stm32f4periph\src/stm32f4xx_dma.c ****     bitstatus = RESET;
1220:.\stm32f4periph\src/stm32f4xx_dma.c ****   }
1221:.\stm32f4periph\src/stm32f4xx_dma.c **** 
1222:.\stm32f4periph\src/stm32f4xx_dma.c ****   /* Return the DMA_IT status */
1223:.\stm32f4periph\src/stm32f4xx_dma.c ****   return  bitstatus;
1224:.\stm32f4periph\src/stm32f4xx_dma.c **** }
 913              		.loc 1 1224 0
 914 0304 10BD     		pop	{r4, pc}	@
 915              	.L95:
 916 0306 00BF     		.align	2
 917              	.L94:
 918 0308 00600240 		.word	1073897472
 919 030c 00640240 		.word	1073898496
 920 0310 0F640240 		.word	1073898511
 921              		.cfi_endproc
 922              	.LFE127:
 923              		.size	DMA_GetITStatus, .-DMA_GetITStatus
 924              		.align	1
ARM GAS  C:\Users\Kevin\AppData\Local\Temp\ccAyYxRs.s 			page 39


 925              		.global	DMA_ClearITPendingBit
 926              		.thumb
 927              		.thumb_func
 928              		.type	DMA_ClearITPendingBit, %function
 929              	DMA_ClearITPendingBit:
 930              	.LFB128:
1225:.\stm32f4periph\src/stm32f4xx_dma.c **** 
1226:.\stm32f4periph\src/stm32f4xx_dma.c **** /**
1227:.\stm32f4periph\src/stm32f4xx_dma.c ****   * @brief  Clears the DMAy Streamx's interrupt pending bits.
1228:.\stm32f4periph\src/stm32f4xx_dma.c ****   * @param  DMAy_Streamx: where y can be 1 or 2 to select the DMA and x can be 0
1229:.\stm32f4periph\src/stm32f4xx_dma.c ****   *          to 7 to select the DMA Stream.
1230:.\stm32f4periph\src/stm32f4xx_dma.c ****   * @param  DMA_IT: specifies the DMA interrupt pending bit to clear.
1231:.\stm32f4periph\src/stm32f4xx_dma.c ****   *          This parameter can be any combination of the following values:
1232:.\stm32f4periph\src/stm32f4xx_dma.c ****   *            @arg DMA_IT_TCIFx:  Streamx transfer complete interrupt
1233:.\stm32f4periph\src/stm32f4xx_dma.c ****   *            @arg DMA_IT_HTIFx:  Streamx half transfer complete interrupt
1234:.\stm32f4periph\src/stm32f4xx_dma.c ****   *            @arg DMA_IT_TEIFx:  Streamx transfer error interrupt
1235:.\stm32f4periph\src/stm32f4xx_dma.c ****   *            @arg DMA_IT_DMEIFx: Streamx direct mode error interrupt
1236:.\stm32f4periph\src/stm32f4xx_dma.c ****   *            @arg DMA_IT_FEIFx:  Streamx FIFO error interrupt
1237:.\stm32f4periph\src/stm32f4xx_dma.c ****   *         Where x can be 0 to 7 to select the DMA Stream.
1238:.\stm32f4periph\src/stm32f4xx_dma.c ****   * @retval None
1239:.\stm32f4periph\src/stm32f4xx_dma.c ****   */
1240:.\stm32f4periph\src/stm32f4xx_dma.c **** void DMA_ClearITPendingBit(DMA_Stream_TypeDef* DMAy_Streamx, uint32_t DMA_IT)
1241:.\stm32f4periph\src/stm32f4xx_dma.c **** {
 931              		.loc 1 1241 0
 932              		.cfi_startproc
 933              		@ args = 0, pretend = 0, frame = 0
 934              		@ frame_needed = 0, uses_anonymous_args = 0
 935              	.LVL52:
 936 0314 10B5     		push	{r4, lr}	@
 937              	.LCFI4:
 938              		.cfi_def_cfa_offset 8
 939              		.cfi_offset 4, -8
 940              		.cfi_offset 14, -4
1242:.\stm32f4periph\src/stm32f4xx_dma.c ****   DMA_TypeDef* DMAy;
1243:.\stm32f4periph\src/stm32f4xx_dma.c **** 
1244:.\stm32f4periph\src/stm32f4xx_dma.c ****   /* Check the parameters */
1245:.\stm32f4periph\src/stm32f4xx_dma.c ****   assert_param(IS_DMA_ALL_PERIPH(DMAy_Streamx));
1246:.\stm32f4periph\src/stm32f4xx_dma.c ****   assert_param(IS_DMA_CLEAR_IT(DMA_IT));
1247:.\stm32f4periph\src/stm32f4xx_dma.c **** 
1248:.\stm32f4periph\src/stm32f4xx_dma.c ****   /* Determine the DMA to which belongs the stream */
1249:.\stm32f4periph\src/stm32f4xx_dma.c ****   if (DMAy_Streamx < DMA2_Stream0)
1250:.\stm32f4periph\src/stm32f4xx_dma.c ****   {
1251:.\stm32f4periph\src/stm32f4xx_dma.c ****     /* DMAy_Streamx belongs to DMA1 */
1252:.\stm32f4periph\src/stm32f4xx_dma.c ****     DMAy = DMA1; 
 941              		.loc 1 1252 0
 942 0316 084B     		ldr	r3, .L101	@ tmp146,
 943 0318 084A     		ldr	r2, .L101+4	@ tmp145,
 944 031a 094C     		ldr	r4, .L101+8	@ tmp140,
 945 031c A042     		cmp	r0, r4	@ DMAy_Streamx, tmp140
 946 031e 8CBF     		ite	hi	@
 947 0320 1046     		movhi	r0, r2	@, DMAy, tmp145
 948 0322 1846     		movls	r0, r3	@, DMAy, tmp146
 949              	.LVL53:
1253:.\stm32f4periph\src/stm32f4xx_dma.c ****   } 
1254:.\stm32f4periph\src/stm32f4xx_dma.c ****   else 
1255:.\stm32f4periph\src/stm32f4xx_dma.c ****   {
1256:.\stm32f4periph\src/stm32f4xx_dma.c ****     /* DMAy_Streamx belongs to DMA2 */
ARM GAS  C:\Users\Kevin\AppData\Local\Temp\ccAyYxRs.s 			page 40


1257:.\stm32f4periph\src/stm32f4xx_dma.c ****     DMAy = DMA2; 
1258:.\stm32f4periph\src/stm32f4xx_dma.c ****   }
1259:.\stm32f4periph\src/stm32f4xx_dma.c **** 
1260:.\stm32f4periph\src/stm32f4xx_dma.c ****   /* Check if LIFCR or HIFCR register is targeted */
1261:.\stm32f4periph\src/stm32f4xx_dma.c ****   if ((DMA_IT & HIGH_ISR_MASK) != (uint32_t)RESET)
 950              		.loc 1 1261 0
 951 0324 11F0005F 		tst	r1, #536870912	@ DMA_IT,
 952 0328 21F0F021 		bic	r1, r1, #-268374016	@ tmp144, DMA_IT,
 953              	.LVL54:
1262:.\stm32f4periph\src/stm32f4xx_dma.c ****   {
1263:.\stm32f4periph\src/stm32f4xx_dma.c ****     /* Set DMAy HIFCR register clear interrupt bits */
1264:.\stm32f4periph\src/stm32f4xx_dma.c ****     DMAy->HIFCR = (uint32_t)(DMA_IT & RESERVED_MASK);
 954              		.loc 1 1264 0
 955 032c 21F08211 		bic	r1, r1, #8519810	@ D.7391, tmp144,
 956 0330 14BF     		ite	ne
 957 0332 C160     		strne	r1, [r0, #12]	@ D.7391, DMAy_1->HIFCR
1265:.\stm32f4periph\src/stm32f4xx_dma.c ****   }
1266:.\stm32f4periph\src/stm32f4xx_dma.c ****   else 
1267:.\stm32f4periph\src/stm32f4xx_dma.c ****   {
1268:.\stm32f4periph\src/stm32f4xx_dma.c ****     /* Set DMAy LIFCR register clear interrupt bits */
1269:.\stm32f4periph\src/stm32f4xx_dma.c ****     DMAy->LIFCR = (uint32_t)(DMA_IT & RESERVED_MASK);
 958              		.loc 1 1269 0
 959 0334 8160     		streq	r1, [r0, #8]	@ D.7391, DMAy_1->LIFCR
 960 0336 10BD     		pop	{r4, pc}	@
 961              	.L102:
 962              		.align	2
 963              	.L101:
 964 0338 00600240 		.word	1073897472
 965 033c 00640240 		.word	1073898496
 966 0340 0F640240 		.word	1073898511
 967              		.cfi_endproc
 968              	.LFE128:
 969              		.size	DMA_ClearITPendingBit, .-DMA_ClearITPendingBit
 970              	.Letext0:
 971              		.file 2 "k:\\electronics\\gcc\\bin\\../lib/gcc/arm-none-eabi/4.7.2/../../../../arm-none-eabi/inclu
 972              		.file 3 ".\\inc/stm32f4xx.h"
 973              		.file 4 ".\\stm32f4periph\\inc/stm32f4xx_dma.h"
 974              		.file 5 ".\\inc/core_cm4.h"