ARM GAS  C:\Users\Kevin\AppData\Local\Temp\cc2AQj48.s 			page 1


   1              		.syntax unified
   2              		.cpu cortex-m4
   3              		.eabi_attribute 27, 3	@ Tag_ABI_HardFP_use
   4              		.eabi_attribute 28, 1	@ Tag_ABI_VFP_args
   5              		.fpu fpv4-sp-d16
   6              		.eabi_attribute 20, 1	@ Tag_ABI_FP_denormal
   7              		.eabi_attribute 21, 1	@ Tag_ABI_FP_exceptions
   8              		.eabi_attribute 23, 3	@ Tag_ABI_FP_number_model
   9              		.eabi_attribute 24, 1	@ Tag_ABI_align8_needed
  10              		.eabi_attribute 25, 1	@ Tag_ABI_align8_preserved
  11              		.eabi_attribute 26, 1	@ Tag_ABI_enum_size
  12              		.eabi_attribute 30, 4	@ Tag_ABI_optimization_goals
  13              		.eabi_attribute 34, 1	@ Tag_CPU_unaligned_access
  14              		.eabi_attribute 18, 4	@ Tag_ABI_PCS_wchar_t
  15              		.file	"stm32f4xx_i2c.c"
  16              	@ GNU C (Sourcery CodeBench Lite 2012.09-63) version 4.7.2 (arm-none-eabi)
  17              	@	compiled by GNU C version 4.3.2, GMP version 5.0.5, MPFR version 3.1.1-p2, MPC version 1.0.1
  18              	@ GGC heuristics: --param ggc-min-expand=100 --param ggc-min-heapsize=131072
  19              	@ options passed:  -I . -I \STMSPINCDDIR -I .\stm32f4periph\inc
  20              	@ -I .\CMSIS\Include -I .\inc\commo\usb -I .\inc\commo -I .\inc\common
  21              	@ -I .\inc -imultilib thumb2
  22              	@ -iprefix k:\electronics\gcc\bin\../lib/gcc/arm-none-eabi/4.7.2/
  23              	@ -isysroot k:\electronics\gcc\bin\../arm-none-eabi
  24              	@ -MD .\stm32f4periph\src\stm32f4xx_i2c.d -MF .dep\stm32f4xx_i2c.o.d -MP
  25              	@ -MQ .\stm32f4periph\src\stm32f4xx_i2c.o -D__USES_INITFINI__ -D STM32F0XX
  26              	@ -D USE_STDPERIPH_DRIVER -D RUN_FROM_FLASH=1
  27              	@ -D __CS_SOURCERYGXX_MAJ__=2012 -D __CS_SOURCERYGXX_MIN__=9
  28              	@ -D __CS_SOURCERYGXX_REV__=63 .\stm32f4periph\src\stm32f4xx_i2c.c
  29              	@ -mcpu=cortex-m4 -mfpu=fpv4-sp-d16 -mfloat-abi=hard -mthumb
  30              	@ -auxbase-strip .\stm32f4periph\src\stm32f4xx_i2c.o -gdwarf-2 -Os -Wall
  31              	@ -Wstrict-prototypes -std=gnu99 -fomit-frame-pointer -fverbose-asm
  32              	@ options enabled:  -fauto-inc-dec -fbranch-count-reg -fcaller-saves
  33              	@ -fcombine-stack-adjustments -fcommon -fcompare-elim -fcprop-registers
  34              	@ -fcrossjumping -fcse-follow-jumps -fdebug-types-section -fdefer-pop
  35              	@ -fdelete-null-pointer-checks -fdevirtualize -fdwarf2-cfi-asm
  36              	@ -fearly-inlining -feliminate-unused-debug-types -fexpensive-optimizations
  37              	@ -fextension-elimination -fforward-propagate -ffunction-cse -fgcse
  38              	@ -fgcse-lm -fgnu-runtime -fguess-branch-probability -fident
  39              	@ -fif-conversion -fif-conversion2 -findirect-inlining -finline
  40              	@ -finline-atomics -finline-functions -finline-functions-called-once
  41              	@ -finline-small-functions -fipa-cp -fipa-profile -fipa-pure-const
  42              	@ -fipa-reference -fipa-sra -fira-share-save-slots -fira-share-spill-slots
  43              	@ -fivopts -fkeep-static-consts -fleading-underscore -fmath-errno
  44              	@ -fmerge-constants -fmerge-debug-strings -fmove-loop-invariants
  45              	@ -fomit-frame-pointer -foptimize-register-move -foptimize-sibling-calls
  46              	@ -fpartial-inlining -fpeephole -fpeephole2 -fprefetch-loop-arrays
  47              	@ -freg-struct-return -fregmove -freorder-blocks -freorder-functions
  48              	@ -frerun-cse-after-loop -fsched-critical-path-heuristic
  49              	@ -fsched-dep-count-heuristic -fsched-group-heuristic -fsched-interblock
  50              	@ -fsched-last-insn-heuristic -fsched-rank-heuristic -fsched-spec
  51              	@ -fsched-spec-insn-heuristic -fsched-stalled-insns-dep -fschedule-insns2
  52              	@ -fsection-anchors -fshow-column -fshrink-wrap -fsigned-zeros
  53              	@ -fsplit-ivs-in-unroller -fsplit-wide-types -fstrict-aliasing
  54              	@ -fstrict-overflow -fstrict-volatile-bitfields -fthread-jumps
  55              	@ -ftoplevel-reorder -ftrapping-math -ftree-bit-ccp -ftree-builtin-call-dce
  56              	@ -ftree-ccp -ftree-ch -ftree-copy-prop -ftree-copyrename -ftree-cselim
  57              	@ -ftree-dce -ftree-dominator-opts -ftree-dse -ftree-forwprop -ftree-fre
ARM GAS  C:\Users\Kevin\AppData\Local\Temp\cc2AQj48.s 			page 2


  58              	@ -ftree-if-to-switch-conversion -ftree-loop-if-convert -ftree-loop-im
  59              	@ -ftree-loop-ivcanon -ftree-loop-optimize -ftree-parallelize-loops=
  60              	@ -ftree-phiprop -ftree-pre -ftree-pta -ftree-reassoc -ftree-scev-cprop
  61              	@ -ftree-sink -ftree-slp-vectorize -ftree-sra -ftree-switch-conversion
  62              	@ -ftree-tail-merge -ftree-ter -ftree-vect-loop-version -ftree-vrp
  63              	@ -funit-at-a-time -fvar-tracking -fvar-tracking-assignments -fverbose-asm
  64              	@ -fzero-initialized-in-bss -mlittle-endian -msched-prolog -mthumb
  65              	@ -munaligned-access -mvectorize-with-neon-quad
  66              	
  67              		.text
  68              	.Ltext0:
  69              		.cfi_sections	.debug_frame
  70              		.align	1
  71              		.global	I2C_DeInit
  72              		.thumb
  73              		.thumb_func
  74              		.type	I2C_DeInit, %function
  75              	I2C_DeInit:
  76              	.LFB110:
  77              		.file 1 ".\\stm32f4periph\\src\\stm32f4xx_i2c.c"
   1:.\stm32f4periph\src/stm32f4xx_i2c.c **** /**
   2:.\stm32f4periph\src/stm32f4xx_i2c.c ****   ******************************************************************************
   3:.\stm32f4periph\src/stm32f4xx_i2c.c ****   * @file    stm32f4xx_i2c.c
   4:.\stm32f4periph\src/stm32f4xx_i2c.c ****   * @author  MCD Application Team
   5:.\stm32f4periph\src/stm32f4xx_i2c.c ****   * @version V1.0.2
   6:.\stm32f4periph\src/stm32f4xx_i2c.c ****   * @date    05-March-2012
   7:.\stm32f4periph\src/stm32f4xx_i2c.c ****   * @brief   This file provides firmware functions to manage the following 
   8:.\stm32f4periph\src/stm32f4xx_i2c.c ****   *          functionalities of the Inter-integrated circuit (I2C)
   9:.\stm32f4periph\src/stm32f4xx_i2c.c ****   *           - Initialization and Configuration
  10:.\stm32f4periph\src/stm32f4xx_i2c.c ****   *           - Data transfers
  11:.\stm32f4periph\src/stm32f4xx_i2c.c ****   *           - PEC management
  12:.\stm32f4periph\src/stm32f4xx_i2c.c ****   *           - DMA transfers management
  13:.\stm32f4periph\src/stm32f4xx_i2c.c ****   *           - Interrupts, events and flags management 
  14:.\stm32f4periph\src/stm32f4xx_i2c.c ****   *           
  15:.\stm32f4periph\src/stm32f4xx_i2c.c ****   *  @verbatim
  16:.\stm32f4periph\src/stm32f4xx_i2c.c ****   *    
  17:.\stm32f4periph\src/stm32f4xx_i2c.c ****   *          ===================================================================
  18:.\stm32f4periph\src/stm32f4xx_i2c.c ****   *                                 How to use this driver
  19:.\stm32f4periph\src/stm32f4xx_i2c.c ****   *          ===================================================================
  20:.\stm32f4periph\src/stm32f4xx_i2c.c ****   *          1. Enable peripheral clock using RCC_APB1PeriphClockCmd(RCC_APB1Periph_I2Cx, ENABLE)
  21:.\stm32f4periph\src/stm32f4xx_i2c.c ****   *             function for I2C1, I2C2 or I2C3.
  22:.\stm32f4periph\src/stm32f4xx_i2c.c ****   *
  23:.\stm32f4periph\src/stm32f4xx_i2c.c ****   *          2. Enable SDA, SCL  and SMBA (when used) GPIO clocks using 
  24:.\stm32f4periph\src/stm32f4xx_i2c.c ****   *             RCC_AHBPeriphClockCmd() function. 
  25:.\stm32f4periph\src/stm32f4xx_i2c.c ****   *
  26:.\stm32f4periph\src/stm32f4xx_i2c.c ****   *          3. Peripherals alternate function: 
  27:.\stm32f4periph\src/stm32f4xx_i2c.c ****   *                 - Connect the pin to the desired peripherals' Alternate 
  28:.\stm32f4periph\src/stm32f4xx_i2c.c ****   *                   Function (AF) using GPIO_PinAFConfig() function
  29:.\stm32f4periph\src/stm32f4xx_i2c.c ****   *                 - Configure the desired pin in alternate function by:
  30:.\stm32f4periph\src/stm32f4xx_i2c.c ****   *                   GPIO_InitStruct->GPIO_Mode = GPIO_Mode_AF
  31:.\stm32f4periph\src/stm32f4xx_i2c.c ****   *                 - Select the type, pull-up/pull-down and output speed via 
  32:.\stm32f4periph\src/stm32f4xx_i2c.c ****   *                   GPIO_PuPd, GPIO_OType and GPIO_Speed members
  33:.\stm32f4periph\src/stm32f4xx_i2c.c ****   *                 - Call GPIO_Init() function
  34:.\stm32f4periph\src/stm32f4xx_i2c.c ****   *                 Recommended configuration is Push-Pull, Pull-up, Open-Drain.
  35:.\stm32f4periph\src/stm32f4xx_i2c.c ****   *                 Add an external pull up if necessary (typically 4.7 KOhm).      
  36:.\stm32f4periph\src/stm32f4xx_i2c.c ****   *        
  37:.\stm32f4periph\src/stm32f4xx_i2c.c ****   *          4. Program the Mode, duty cycle , Own address, Ack, Speed and Acknowledged
ARM GAS  C:\Users\Kevin\AppData\Local\Temp\cc2AQj48.s 			page 3


  38:.\stm32f4periph\src/stm32f4xx_i2c.c ****   *             Address using the I2C_Init() function.
  39:.\stm32f4periph\src/stm32f4xx_i2c.c ****   *
  40:.\stm32f4periph\src/stm32f4xx_i2c.c ****   *          5. Optionally you can enable/configure the following parameters without
  41:.\stm32f4periph\src/stm32f4xx_i2c.c ****   *             re-initialization (i.e there is no need to call again I2C_Init() function):
  42:.\stm32f4periph\src/stm32f4xx_i2c.c ****   *              - Enable the acknowledge feature using I2C_AcknowledgeConfig() function
  43:.\stm32f4periph\src/stm32f4xx_i2c.c ****   *              - Enable the dual addressing mode using I2C_DualAddressCmd() function
  44:.\stm32f4periph\src/stm32f4xx_i2c.c ****   *              - Enable the general call using the I2C_GeneralCallCmd() function
  45:.\stm32f4periph\src/stm32f4xx_i2c.c ****   *              - Enable the clock stretching using I2C_StretchClockCmd() function
  46:.\stm32f4periph\src/stm32f4xx_i2c.c ****   *              - Enable the fast mode duty cycle using the I2C_FastModeDutyCycleConfig()
  47:.\stm32f4periph\src/stm32f4xx_i2c.c ****   *                function.
  48:.\stm32f4periph\src/stm32f4xx_i2c.c ****   *              - Configure the NACK position for Master Receiver mode in case of 
  49:.\stm32f4periph\src/stm32f4xx_i2c.c ****   *                2 bytes reception using the function I2C_NACKPositionConfig().  
  50:.\stm32f4periph\src/stm32f4xx_i2c.c ****   *              - Enable the PEC Calculation using I2C_CalculatePEC() function
  51:.\stm32f4periph\src/stm32f4xx_i2c.c ****   *              - For SMBus Mode: 
  52:.\stm32f4periph\src/stm32f4xx_i2c.c ****   *                   - Enable the Address Resolution Protocol (ARP) using I2C_ARPCmd() function
  53:.\stm32f4periph\src/stm32f4xx_i2c.c ****   *                   - Configure the SMBusAlert pin using I2C_SMBusAlertConfig() function
  54:.\stm32f4periph\src/stm32f4xx_i2c.c ****   *
  55:.\stm32f4periph\src/stm32f4xx_i2c.c ****   *          6. Enable the NVIC and the corresponding interrupt using the function 
  56:.\stm32f4periph\src/stm32f4xx_i2c.c ****   *             I2C_ITConfig() if you need to use interrupt mode. 
  57:.\stm32f4periph\src/stm32f4xx_i2c.c ****   *
  58:.\stm32f4periph\src/stm32f4xx_i2c.c ****   *          7. When using the DMA mode 
  59:.\stm32f4periph\src/stm32f4xx_i2c.c ****   *                   - Configure the DMA using DMA_Init() function
  60:.\stm32f4periph\src/stm32f4xx_i2c.c ****   *                   - Active the needed channel Request using I2C_DMACmd() or
  61:.\stm32f4periph\src/stm32f4xx_i2c.c ****   *                     I2C_DMALastTransferCmd() function.
  62:.\stm32f4periph\src/stm32f4xx_i2c.c ****   *              @note When using DMA mode, I2C interrupts may be used at the same time to
  63:.\stm32f4periph\src/stm32f4xx_i2c.c ****   *                    control the communication flow (Start/Stop/Ack... events and errors).
  64:.\stm32f4periph\src/stm32f4xx_i2c.c ****   * 
  65:.\stm32f4periph\src/stm32f4xx_i2c.c ****   *          8. Enable the I2C using the I2C_Cmd() function.
  66:.\stm32f4periph\src/stm32f4xx_i2c.c ****   * 
  67:.\stm32f4periph\src/stm32f4xx_i2c.c ****   *          9. Enable the DMA using the DMA_Cmd() function when using DMA mode in the 
  68:.\stm32f4periph\src/stm32f4xx_i2c.c ****   *             transfers. 
  69:.\stm32f4periph\src/stm32f4xx_i2c.c ****   *
  70:.\stm32f4periph\src/stm32f4xx_i2c.c ****   *  @endverbatim
  71:.\stm32f4periph\src/stm32f4xx_i2c.c ****   *  
  72:.\stm32f4periph\src/stm32f4xx_i2c.c ****   ******************************************************************************
  73:.\stm32f4periph\src/stm32f4xx_i2c.c ****   * @attention
  74:.\stm32f4periph\src/stm32f4xx_i2c.c ****   *
  75:.\stm32f4periph\src/stm32f4xx_i2c.c ****   * <h2><center>&copy; COPYRIGHT 2012 STMicroelectronics</center></h2>
  76:.\stm32f4periph\src/stm32f4xx_i2c.c ****   *
  77:.\stm32f4periph\src/stm32f4xx_i2c.c ****   * Licensed under MCD-ST Liberty SW License Agreement V2, (the "License");
  78:.\stm32f4periph\src/stm32f4xx_i2c.c ****   * You may not use this file except in compliance with the License.
  79:.\stm32f4periph\src/stm32f4xx_i2c.c ****   * You may obtain a copy of the License at:
  80:.\stm32f4periph\src/stm32f4xx_i2c.c ****   *
  81:.\stm32f4periph\src/stm32f4xx_i2c.c ****   *        http://www.st.com/software_license_agreement_liberty_v2
  82:.\stm32f4periph\src/stm32f4xx_i2c.c ****   *
  83:.\stm32f4periph\src/stm32f4xx_i2c.c ****   * Unless required by applicable law or agreed to in writing, software 
  84:.\stm32f4periph\src/stm32f4xx_i2c.c ****   * distributed under the License is distributed on an "AS IS" BASIS, 
  85:.\stm32f4periph\src/stm32f4xx_i2c.c ****   * WITHOUT WARRANTIES OR CONDITIONS OF ANY KIND, either express or implied.
  86:.\stm32f4periph\src/stm32f4xx_i2c.c ****   * See the License for the specific language governing permissions and
  87:.\stm32f4periph\src/stm32f4xx_i2c.c ****   * limitations under the License.
  88:.\stm32f4periph\src/stm32f4xx_i2c.c ****   *
  89:.\stm32f4periph\src/stm32f4xx_i2c.c ****   ******************************************************************************
  90:.\stm32f4periph\src/stm32f4xx_i2c.c ****   */ 
  91:.\stm32f4periph\src/stm32f4xx_i2c.c **** 
  92:.\stm32f4periph\src/stm32f4xx_i2c.c **** /* Includes ------------------------------------------------------------------*/
  93:.\stm32f4periph\src/stm32f4xx_i2c.c **** #include "stm32f4xx_i2c.h"
  94:.\stm32f4periph\src/stm32f4xx_i2c.c **** #include "stm32f4xx_rcc.h"
ARM GAS  C:\Users\Kevin\AppData\Local\Temp\cc2AQj48.s 			page 4


  95:.\stm32f4periph\src/stm32f4xx_i2c.c **** 
  96:.\stm32f4periph\src/stm32f4xx_i2c.c **** #define assert_param(expr) ((void)0)
  97:.\stm32f4periph\src/stm32f4xx_i2c.c **** 
  98:.\stm32f4periph\src/stm32f4xx_i2c.c **** /** @addtogroup STM32F4xx_StdPeriph_Driver
  99:.\stm32f4periph\src/stm32f4xx_i2c.c ****   * @{
 100:.\stm32f4periph\src/stm32f4xx_i2c.c ****   */
 101:.\stm32f4periph\src/stm32f4xx_i2c.c **** 
 102:.\stm32f4periph\src/stm32f4xx_i2c.c **** /** @defgroup I2C 
 103:.\stm32f4periph\src/stm32f4xx_i2c.c ****   * @brief I2C driver modules
 104:.\stm32f4periph\src/stm32f4xx_i2c.c ****   * @{
 105:.\stm32f4periph\src/stm32f4xx_i2c.c ****   */ 
 106:.\stm32f4periph\src/stm32f4xx_i2c.c **** 
 107:.\stm32f4periph\src/stm32f4xx_i2c.c **** /* Private typedef -----------------------------------------------------------*/
 108:.\stm32f4periph\src/stm32f4xx_i2c.c **** /* Private define ------------------------------------------------------------*/
 109:.\stm32f4periph\src/stm32f4xx_i2c.c **** 
 110:.\stm32f4periph\src/stm32f4xx_i2c.c **** #define CR1_CLEAR_MASK    ((uint16_t)0xFBF5)      /*<! I2C registers Masks */
 111:.\stm32f4periph\src/stm32f4xx_i2c.c **** #define FLAG_MASK         ((uint32_t)0x00FFFFFF)  /*<! I2C FLAG mask */
 112:.\stm32f4periph\src/stm32f4xx_i2c.c **** #define ITEN_MASK         ((uint32_t)0x07000000)  /*<! I2C Interrupt Enable mask */
 113:.\stm32f4periph\src/stm32f4xx_i2c.c **** 
 114:.\stm32f4periph\src/stm32f4xx_i2c.c **** /* Private macro -------------------------------------------------------------*/
 115:.\stm32f4periph\src/stm32f4xx_i2c.c **** /* Private variables ---------------------------------------------------------*/
 116:.\stm32f4periph\src/stm32f4xx_i2c.c **** /* Private function prototypes -----------------------------------------------*/
 117:.\stm32f4periph\src/stm32f4xx_i2c.c **** /* Private functions ---------------------------------------------------------*/
 118:.\stm32f4periph\src/stm32f4xx_i2c.c **** 
 119:.\stm32f4periph\src/stm32f4xx_i2c.c **** /** @defgroup I2C_Private_Functions
 120:.\stm32f4periph\src/stm32f4xx_i2c.c ****   * @{
 121:.\stm32f4periph\src/stm32f4xx_i2c.c ****   */
 122:.\stm32f4periph\src/stm32f4xx_i2c.c **** 
 123:.\stm32f4periph\src/stm32f4xx_i2c.c **** /** @defgroup I2C_Group1 Initialization and Configuration functions
 124:.\stm32f4periph\src/stm32f4xx_i2c.c ****  *  @brief   Initialization and Configuration functions 
 125:.\stm32f4periph\src/stm32f4xx_i2c.c ****  *
 126:.\stm32f4periph\src/stm32f4xx_i2c.c **** @verbatim   
 127:.\stm32f4periph\src/stm32f4xx_i2c.c ****  ===============================================================================
 128:.\stm32f4periph\src/stm32f4xx_i2c.c ****                    Initialization and Configuration functions
 129:.\stm32f4periph\src/stm32f4xx_i2c.c ****  ===============================================================================  
 130:.\stm32f4periph\src/stm32f4xx_i2c.c **** 
 131:.\stm32f4periph\src/stm32f4xx_i2c.c **** @endverbatim
 132:.\stm32f4periph\src/stm32f4xx_i2c.c ****   * @{
 133:.\stm32f4periph\src/stm32f4xx_i2c.c ****   */
 134:.\stm32f4periph\src/stm32f4xx_i2c.c **** 
 135:.\stm32f4periph\src/stm32f4xx_i2c.c **** /**
 136:.\stm32f4periph\src/stm32f4xx_i2c.c ****   * @brief  Deinitialize the I2Cx peripheral registers to their default reset values.
 137:.\stm32f4periph\src/stm32f4xx_i2c.c ****   * @param  I2Cx: where x can be 1, 2 or 3 to select the I2C peripheral.
 138:.\stm32f4periph\src/stm32f4xx_i2c.c ****   * @retval None
 139:.\stm32f4periph\src/stm32f4xx_i2c.c ****   */
 140:.\stm32f4periph\src/stm32f4xx_i2c.c **** void I2C_DeInit(I2C_TypeDef* I2Cx)
 141:.\stm32f4periph\src/stm32f4xx_i2c.c **** {
  78              		.loc 1 141 0
  79              		.cfi_startproc
  80              		@ args = 0, pretend = 0, frame = 0
  81              		@ frame_needed = 0, uses_anonymous_args = 0
  82              	.LVL0:
  83 0000 08B5     		push	{r3, lr}	@
  84              	.LCFI0:
  85              		.cfi_def_cfa_offset 8
  86              		.cfi_offset 3, -8
  87              		.cfi_offset 14, -4
ARM GAS  C:\Users\Kevin\AppData\Local\Temp\cc2AQj48.s 			page 5


 142:.\stm32f4periph\src/stm32f4xx_i2c.c ****   /* Check the parameters */
 143:.\stm32f4periph\src/stm32f4xx_i2c.c ****   assert_param(IS_I2C_ALL_PERIPH(I2Cx));
 144:.\stm32f4periph\src/stm32f4xx_i2c.c **** 
 145:.\stm32f4periph\src/stm32f4xx_i2c.c ****   if (I2Cx == I2C1)
  88              		.loc 1 145 0
  89 0002 134B     		ldr	r3, .L6	@ tmp135,
  90 0004 9842     		cmp	r0, r3	@ I2Cx, tmp135
  91 0006 07D1     		bne	.L2	@,
 146:.\stm32f4periph\src/stm32f4xx_i2c.c ****   {
 147:.\stm32f4periph\src/stm32f4xx_i2c.c ****     /* Enable I2C1 reset state */
 148:.\stm32f4periph\src/stm32f4xx_i2c.c ****     RCC_APB1PeriphResetCmd(RCC_APB1Periph_I2C1, ENABLE);
  92              		.loc 1 148 0
  93 0008 4FF40010 		mov	r0, #2097152	@,
  94              	.LVL1:
  95 000c 0121     		movs	r1, #1	@,
  96 000e FFF7FEFF 		bl	RCC_APB1PeriphResetCmd	@
  97              	.LVL2:
 149:.\stm32f4periph\src/stm32f4xx_i2c.c ****     /* Release I2C1 from reset state */
 150:.\stm32f4periph\src/stm32f4xx_i2c.c ****     RCC_APB1PeriphResetCmd(RCC_APB1Periph_I2C1, DISABLE);    
  98              		.loc 1 150 0
  99 0012 4FF40010 		mov	r0, #2097152	@,
 100 0016 14E0     		b	.L5	@
 101              	.LVL3:
 102              	.L2:
 151:.\stm32f4periph\src/stm32f4xx_i2c.c ****   }
 152:.\stm32f4periph\src/stm32f4xx_i2c.c ****   else if (I2Cx == I2C2)
 103              		.loc 1 152 0
 104 0018 0E4B     		ldr	r3, .L6+4	@ tmp136,
 105 001a 9842     		cmp	r0, r3	@ I2Cx, tmp136
 106 001c 07D1     		bne	.L3	@,
 153:.\stm32f4periph\src/stm32f4xx_i2c.c ****   {
 154:.\stm32f4periph\src/stm32f4xx_i2c.c ****     /* Enable I2C2 reset state */
 155:.\stm32f4periph\src/stm32f4xx_i2c.c ****     RCC_APB1PeriphResetCmd(RCC_APB1Periph_I2C2, ENABLE);
 107              		.loc 1 155 0
 108 001e 4FF48000 		mov	r0, #4194304	@,
 109              	.LVL4:
 110 0022 0121     		movs	r1, #1	@,
 111 0024 FFF7FEFF 		bl	RCC_APB1PeriphResetCmd	@
 112              	.LVL5:
 156:.\stm32f4periph\src/stm32f4xx_i2c.c ****     /* Release I2C2 from reset state */
 157:.\stm32f4periph\src/stm32f4xx_i2c.c ****     RCC_APB1PeriphResetCmd(RCC_APB1Periph_I2C2, DISABLE);      
 113              		.loc 1 157 0
 114 0028 4FF48000 		mov	r0, #4194304	@,
 115 002c 09E0     		b	.L5	@
 116              	.LVL6:
 117              	.L3:
 158:.\stm32f4periph\src/stm32f4xx_i2c.c ****   }
 159:.\stm32f4periph\src/stm32f4xx_i2c.c ****   else 
 160:.\stm32f4periph\src/stm32f4xx_i2c.c ****   {
 161:.\stm32f4periph\src/stm32f4xx_i2c.c ****     if (I2Cx == I2C3)
 118              		.loc 1 161 0
 119 002e 0A4B     		ldr	r3, .L6+8	@ tmp137,
 120 0030 9842     		cmp	r0, r3	@ I2Cx, tmp137
 121 0032 0BD1     		bne	.L1	@,
 162:.\stm32f4periph\src/stm32f4xx_i2c.c ****     {
 163:.\stm32f4periph\src/stm32f4xx_i2c.c ****       /* Enable I2C3 reset state */
 164:.\stm32f4periph\src/stm32f4xx_i2c.c ****       RCC_APB1PeriphResetCmd(RCC_APB1Periph_I2C3, ENABLE);
ARM GAS  C:\Users\Kevin\AppData\Local\Temp\cc2AQj48.s 			page 6


 122              		.loc 1 164 0
 123 0034 4FF40000 		mov	r0, #8388608	@,
 124              	.LVL7:
 125 0038 0121     		movs	r1, #1	@,
 126 003a FFF7FEFF 		bl	RCC_APB1PeriphResetCmd	@
 127              	.LVL8:
 165:.\stm32f4periph\src/stm32f4xx_i2c.c ****       /* Release I2C3 from reset state */
 166:.\stm32f4periph\src/stm32f4xx_i2c.c ****       RCC_APB1PeriphResetCmd(RCC_APB1Periph_I2C3, DISABLE);     
 128              		.loc 1 166 0
 129 003e 4FF40000 		mov	r0, #8388608	@,
 130              	.L5:
 131 0042 0021     		movs	r1, #0	@,
 167:.\stm32f4periph\src/stm32f4xx_i2c.c ****     }
 168:.\stm32f4periph\src/stm32f4xx_i2c.c ****   }
 169:.\stm32f4periph\src/stm32f4xx_i2c.c **** }
 132              		.loc 1 169 0
 133 0044 BDE80840 		pop	{r3, lr}	@
 166:.\stm32f4periph\src/stm32f4xx_i2c.c ****       RCC_APB1PeriphResetCmd(RCC_APB1Periph_I2C3, DISABLE);     
 134              		.loc 1 166 0
 135 0048 FFF7FEBF 		b	RCC_APB1PeriphResetCmd	@
 136              	.LVL9:
 137              	.L1:
 138 004c 08BD     		pop	{r3, pc}	@
 139              	.L7:
 140 004e 00BF     		.align	2
 141              	.L6:
 142 0050 00540040 		.word	1073763328
 143 0054 00580040 		.word	1073764352
 144 0058 005C0040 		.word	1073765376
 145              		.cfi_endproc
 146              	.LFE110:
 147              		.size	I2C_DeInit, .-I2C_DeInit
 148              		.align	1
 149              		.global	I2C_Init
 150              		.thumb
 151              		.thumb_func
 152              		.type	I2C_Init, %function
 153              	I2C_Init:
 154              	.LFB111:
 170:.\stm32f4periph\src/stm32f4xx_i2c.c **** 
 171:.\stm32f4periph\src/stm32f4xx_i2c.c **** /**
 172:.\stm32f4periph\src/stm32f4xx_i2c.c ****   * @brief  Initializes the I2Cx peripheral according to the specified 
 173:.\stm32f4periph\src/stm32f4xx_i2c.c ****   *         parameters in the I2C_InitStruct.
 174:.\stm32f4periph\src/stm32f4xx_i2c.c ****   *           
 175:.\stm32f4periph\src/stm32f4xx_i2c.c ****   * @note   To use the I2C at 400 KHz (in fast mode), the PCLK1 frequency 
 176:.\stm32f4periph\src/stm32f4xx_i2c.c ****   *         (I2C peripheral input clock) must be a multiple of 10 MHz.  
 177:.\stm32f4periph\src/stm32f4xx_i2c.c ****   *           
 178:.\stm32f4periph\src/stm32f4xx_i2c.c ****   * @param  I2Cx: where x can be 1, 2 or 3 to select the I2C peripheral.
 179:.\stm32f4periph\src/stm32f4xx_i2c.c ****   * @param  I2C_InitStruct: pointer to a I2C_InitTypeDef structure that contains 
 180:.\stm32f4periph\src/stm32f4xx_i2c.c ****   *         the configuration information for the specified I2C peripheral.
 181:.\stm32f4periph\src/stm32f4xx_i2c.c ****   * @retval None
 182:.\stm32f4periph\src/stm32f4xx_i2c.c ****   */
 183:.\stm32f4periph\src/stm32f4xx_i2c.c **** void I2C_Init(I2C_TypeDef* I2Cx, I2C_InitTypeDef* I2C_InitStruct)
 184:.\stm32f4periph\src/stm32f4xx_i2c.c **** {
 155              		.loc 1 184 0
 156              		.cfi_startproc
 157              		@ args = 0, pretend = 0, frame = 16
ARM GAS  C:\Users\Kevin\AppData\Local\Temp\cc2AQj48.s 			page 7


 158              		@ frame_needed = 0, uses_anonymous_args = 0
 159              	.LVL10:
 160 005c F0B5     		push	{r4, r5, r6, r7, lr}	@
 161              	.LCFI1:
 162              		.cfi_def_cfa_offset 20
 163              		.cfi_offset 4, -20
 164              		.cfi_offset 5, -16
 165              		.cfi_offset 6, -12
 166              		.cfi_offset 7, -8
 167              		.cfi_offset 14, -4
 168 005e 85B0     		sub	sp, sp, #20	@,,
 169              	.LCFI2:
 170              		.cfi_def_cfa_offset 40
 171              		.loc 1 184 0
 172 0060 0446     		mov	r4, r0	@ I2Cx, I2Cx
 185:.\stm32f4periph\src/stm32f4xx_i2c.c ****   uint16_t tmpreg = 0, freqrange = 0;
 186:.\stm32f4periph\src/stm32f4xx_i2c.c ****   uint16_t result = 0x04;
 187:.\stm32f4periph\src/stm32f4xx_i2c.c ****   uint32_t pclk1 = 8000000;
 188:.\stm32f4periph\src/stm32f4xx_i2c.c ****   RCC_ClocksTypeDef  rcc_clocks;
 189:.\stm32f4periph\src/stm32f4xx_i2c.c ****   /* Check the parameters */
 190:.\stm32f4periph\src/stm32f4xx_i2c.c ****   assert_param(IS_I2C_ALL_PERIPH(I2Cx));
 191:.\stm32f4periph\src/stm32f4xx_i2c.c ****   assert_param(IS_I2C_CLOCK_SPEED(I2C_InitStruct->I2C_ClockSpeed));
 192:.\stm32f4periph\src/stm32f4xx_i2c.c ****   assert_param(IS_I2C_MODE(I2C_InitStruct->I2C_Mode));
 193:.\stm32f4periph\src/stm32f4xx_i2c.c ****   assert_param(IS_I2C_DUTY_CYCLE(I2C_InitStruct->I2C_DutyCycle));
 194:.\stm32f4periph\src/stm32f4xx_i2c.c ****   assert_param(IS_I2C_OWN_ADDRESS1(I2C_InitStruct->I2C_OwnAddress1));
 195:.\stm32f4periph\src/stm32f4xx_i2c.c ****   assert_param(IS_I2C_ACK_STATE(I2C_InitStruct->I2C_Ack));
 196:.\stm32f4periph\src/stm32f4xx_i2c.c ****   assert_param(IS_I2C_ACKNOWLEDGE_ADDRESS(I2C_InitStruct->I2C_AcknowledgedAddress));
 197:.\stm32f4periph\src/stm32f4xx_i2c.c **** 
 198:.\stm32f4periph\src/stm32f4xx_i2c.c **** /*---------------------------- I2Cx CR2 Configuration ------------------------*/
 199:.\stm32f4periph\src/stm32f4xx_i2c.c ****   /* Get the I2Cx CR2 value */
 200:.\stm32f4periph\src/stm32f4xx_i2c.c ****   tmpreg = I2Cx->CR2;
 173              		.loc 1 200 0
 174 0062 8688     		ldrh	r6, [r0, #4]	@, I2Cx_9(D)->CR2
 175              	.LVL11:
 201:.\stm32f4periph\src/stm32f4xx_i2c.c ****   /* Clear frequency FREQ[5:0] bits */
 202:.\stm32f4periph\src/stm32f4xx_i2c.c ****   tmpreg &= (uint16_t)~((uint16_t)I2C_CR2_FREQ);
 203:.\stm32f4periph\src/stm32f4xx_i2c.c ****   /* Get pclk1 frequency value */
 204:.\stm32f4periph\src/stm32f4xx_i2c.c ****   RCC_GetClocksFreq(&rcc_clocks);
 176              		.loc 1 204 0
 177 0064 6846     		mov	r0, sp	@,
 178              	.LVL12:
 184:.\stm32f4periph\src/stm32f4xx_i2c.c **** {
 179              		.loc 1 184 0
 180 0066 0D46     		mov	r5, r1	@ I2C_InitStruct, I2C_InitStruct
 181              		.loc 1 204 0
 182 0068 FFF7FEFF 		bl	RCC_GetClocksFreq	@
 183              	.LVL13:
 205:.\stm32f4periph\src/stm32f4xx_i2c.c ****   pclk1 = rcc_clocks.PCLK1_Frequency;
 184              		.loc 1 205 0
 185 006c 0299     		ldr	r1, [sp, #8]	@ pclk1, rcc_clocks.PCLK1_Frequency
 206:.\stm32f4periph\src/stm32f4xx_i2c.c ****   /* Set frequency bits depending on pclk1 value */
 207:.\stm32f4periph\src/stm32f4xx_i2c.c ****   freqrange = (uint16_t)(pclk1 / 1000000);
 186              		.loc 1 207 0
 187 006e 2B48     		ldr	r0, .L17	@ tmp178,
 208:.\stm32f4periph\src/stm32f4xx_i2c.c ****   tmpreg |= freqrange;
 209:.\stm32f4periph\src/stm32f4xx_i2c.c ****   /* Write to I2Cx CR2 */
 210:.\stm32f4periph\src/stm32f4xx_i2c.c ****   I2Cx->CR2 = tmpreg;
ARM GAS  C:\Users\Kevin\AppData\Local\Temp\cc2AQj48.s 			page 8


 211:.\stm32f4periph\src/stm32f4xx_i2c.c **** 
 212:.\stm32f4periph\src/stm32f4xx_i2c.c **** /*---------------------------- I2Cx CCR Configuration ------------------------*/
 213:.\stm32f4periph\src/stm32f4xx_i2c.c ****   /* Disable the selected I2C peripheral to configure TRISE */
 214:.\stm32f4periph\src/stm32f4xx_i2c.c ****   I2Cx->CR1 &= (uint16_t)~((uint16_t)I2C_CR1_PE);
 215:.\stm32f4periph\src/stm32f4xx_i2c.c ****   /* Reset tmpreg value */
 216:.\stm32f4periph\src/stm32f4xx_i2c.c ****   /* Clear F/S, DUTY and CCR[11:0] bits */
 217:.\stm32f4periph\src/stm32f4xx_i2c.c ****   tmpreg = 0;
 218:.\stm32f4periph\src/stm32f4xx_i2c.c **** 
 219:.\stm32f4periph\src/stm32f4xx_i2c.c ****   /* Configure speed in standard mode */
 220:.\stm32f4periph\src/stm32f4xx_i2c.c ****   if (I2C_InitStruct->I2C_ClockSpeed <= 100000)
 188              		.loc 1 220 0
 189 0070 2B68     		ldr	r3, [r5, #0]	@ D.7653, I2C_InitStruct_19(D)->I2C_ClockSpeed
 202:.\stm32f4periph\src/stm32f4xx_i2c.c ****   tmpreg &= (uint16_t)~((uint16_t)I2C_CR2_FREQ);
 190              		.loc 1 202 0
 191 0072 26F03F06 		bic	r6, r6, #63	@ tmpreg, I2Cx_9(D)->CR2,
 192              	.LVL14:
 193 0076 3604     		lsls	r6, r6, #16	@ tmpreg, tmpreg,
 207:.\stm32f4periph\src/stm32f4xx_i2c.c ****   freqrange = (uint16_t)(pclk1 / 1000000);
 194              		.loc 1 207 0
 195 0078 B1FBF0F0 		udiv	r0, r1, r0	@ D.7701, pclk1, tmp178
 202:.\stm32f4periph\src/stm32f4xx_i2c.c ****   tmpreg &= (uint16_t)~((uint16_t)I2C_CR2_FREQ);
 196              		.loc 1 202 0
 197 007c 360C     		lsrs	r6, r6, #16	@ tmpreg, tmpreg,
 198              	.LVL15:
 207:.\stm32f4periph\src/stm32f4xx_i2c.c ****   freqrange = (uint16_t)(pclk1 / 1000000);
 199              		.loc 1 207 0
 200 007e 87B2     		uxth	r7, r0	@ freqrange, D.7701
 201              	.LVL16:
 208:.\stm32f4periph\src/stm32f4xx_i2c.c ****   tmpreg |= freqrange;
 202              		.loc 1 208 0
 203 0080 3E43     		orrs	r6, r6, r7	@, tmpreg, tmpreg, freqrange
 204              	.LVL17:
 210:.\stm32f4periph\src/stm32f4xx_i2c.c ****   I2Cx->CR2 = tmpreg;
 205              		.loc 1 210 0
 206 0082 A680     		strh	r6, [r4, #4]	@ movhi	@ tmpreg, I2Cx_9(D)->CR2
 214:.\stm32f4periph\src/stm32f4xx_i2c.c ****   I2Cx->CR1 &= (uint16_t)~((uint16_t)I2C_CR1_PE);
 207              		.loc 1 214 0
 208 0084 2288     		ldrh	r2, [r4, #0]	@, I2Cx_9(D)->CR1
 209 0086 22F00102 		bic	r2, r2, #1	@ D.7652, I2Cx_9(D)->CR1,
 210 008a 1204     		lsls	r2, r2, #16	@ D.7652, D.7652,
 211 008c 120C     		lsrs	r2, r2, #16	@ D.7652, D.7652,
 212 008e 2280     		strh	r2, [r4, #0]	@ movhi	@ D.7652, I2Cx_9(D)->CR1
 213              	.LVL18:
 214              		.loc 1 220 0
 215 0090 234A     		ldr	r2, .L17+4	@ tmp184,
 216 0092 9342     		cmp	r3, r2	@ D.7653, tmp184
 217 0094 09D8     		bhi	.L9	@,
 221:.\stm32f4periph\src/stm32f4xx_i2c.c ****   {
 222:.\stm32f4periph\src/stm32f4xx_i2c.c ****     /* Standard mode speed calculate */
 223:.\stm32f4periph\src/stm32f4xx_i2c.c ****     result = (uint16_t)(pclk1 / (I2C_InitStruct->I2C_ClockSpeed << 1));
 218              		.loc 1 223 0
 219 0096 5B00     		lsls	r3, r3, #1	@ tmp185, D.7653,
 220 0098 B1FBF3F3 		udiv	r3, r1, r3	@ tmp187, pclk1, tmp185
 221 009c 9BB2     		uxth	r3, r3	@ result, tmp187
 222              	.LVL19:
 224:.\stm32f4periph\src/stm32f4xx_i2c.c ****     /* Test if CCR value is under 0x4*/
 225:.\stm32f4periph\src/stm32f4xx_i2c.c ****     if (result < 0x04)
ARM GAS  C:\Users\Kevin\AppData\Local\Temp\cc2AQj48.s 			page 9


 226:.\stm32f4periph\src/stm32f4xx_i2c.c ****     {
 227:.\stm32f4periph\src/stm32f4xx_i2c.c ****       /* Set minimum allowed value */
 228:.\stm32f4periph\src/stm32f4xx_i2c.c ****       result = 0x04;  
 229:.\stm32f4periph\src/stm32f4xx_i2c.c ****     }
 230:.\stm32f4periph\src/stm32f4xx_i2c.c ****     /* Set speed value for standard mode */
 231:.\stm32f4periph\src/stm32f4xx_i2c.c ****     tmpreg |= result;	  
 232:.\stm32f4periph\src/stm32f4xx_i2c.c ****     /* Set Maximum Rise Time for standard mode */
 233:.\stm32f4periph\src/stm32f4xx_i2c.c ****     I2Cx->TRISE = freqrange + 1; 
 223              		.loc 1 233 0
 224 009e 0137     		adds	r7, r7, #1	@ tmp188, freqrange,
 225 00a0 2784     		strh	r7, [r4, #32]	@ movhi	@ D.7660, I2Cx_9(D)->TRISE
 231:.\stm32f4periph\src/stm32f4xx_i2c.c ****     tmpreg |= result;	  
 226              		.loc 1 231 0
 227 00a2 032B     		cmp	r3, #3	@ result,
 228 00a4 98BF     		it	ls	@
 229 00a6 0423     		movls	r3, #4	@, tmpreg,
 230              	.LVL20:
 231 00a8 1FE0     		b	.L11	@
 232              	.LVL21:
 233              	.L9:
 234:.\stm32f4periph\src/stm32f4xx_i2c.c ****   }
 235:.\stm32f4periph\src/stm32f4xx_i2c.c ****   /* Configure speed in fast mode */
 236:.\stm32f4periph\src/stm32f4xx_i2c.c ****   /* To use the I2C at 400 KHz (in fast mode), the PCLK1 frequency (I2C peripheral
 237:.\stm32f4periph\src/stm32f4xx_i2c.c ****      input clock) must be a multiple of 10 MHz */
 238:.\stm32f4periph\src/stm32f4xx_i2c.c ****   else /*(I2C_InitStruct->I2C_ClockSpeed <= 400000)*/
 239:.\stm32f4periph\src/stm32f4xx_i2c.c ****   {
 240:.\stm32f4periph\src/stm32f4xx_i2c.c ****     if (I2C_InitStruct->I2C_DutyCycle == I2C_DutyCycle_2)
 234              		.loc 1 240 0
 235 00aa EE88     		ldrh	r6, [r5, #6]	@ I2C_InitStruct_19(D)->I2C_DutyCycle, I2C_InitStruct_19(D)->I2C_DutyCycle
 236 00ac 4BF6FF72 		movw	r2, #49151	@ tmp191,
 237 00b0 9642     		cmp	r6, r2	@ I2C_InitStruct_19(D)->I2C_DutyCycle, tmp191
 238 00b2 04D1     		bne	.L12	@,
 241:.\stm32f4periph\src/stm32f4xx_i2c.c ****     {
 242:.\stm32f4periph\src/stm32f4xx_i2c.c ****       /* Fast mode speed calculate: Tlow/Thigh = 2 */
 243:.\stm32f4periph\src/stm32f4xx_i2c.c ****       result = (uint16_t)(pclk1 / (I2C_InitStruct->I2C_ClockSpeed * 3));
 239              		.loc 1 243 0
 240 00b4 0322     		movs	r2, #3	@ tmp193,
 241 00b6 5343     		muls	r3, r2, r3	@ tmp192, tmp193
 242 00b8 B1FBF3F3 		udiv	r3, r1, r3	@ tmp195, pclk1, tmp192
 243 00bc 05E0     		b	.L16	@
 244              	.L12:
 245              	.LVL22:
 244:.\stm32f4periph\src/stm32f4xx_i2c.c ****     }
 245:.\stm32f4periph\src/stm32f4xx_i2c.c ****     else /*I2C_InitStruct->I2C_DutyCycle == I2C_DutyCycle_16_9*/
 246:.\stm32f4periph\src/stm32f4xx_i2c.c ****     {
 247:.\stm32f4periph\src/stm32f4xx_i2c.c ****       /* Fast mode speed calculate: Tlow/Thigh = 16/9 */
 248:.\stm32f4periph\src/stm32f4xx_i2c.c ****       result = (uint16_t)(pclk1 / (I2C_InitStruct->I2C_ClockSpeed * 25));
 246              		.loc 1 248 0
 247 00be 1922     		movs	r2, #25	@ tmp197,
 248 00c0 5343     		muls	r3, r2, r3	@ tmp196, tmp197
 249              	.LVL23:
 250 00c2 B1FBF3F3 		udiv	r3, r1, r3	@ tmp199, pclk1, tmp196
 249:.\stm32f4periph\src/stm32f4xx_i2c.c ****       /* Set DUTY bit */
 250:.\stm32f4periph\src/stm32f4xx_i2c.c ****       result |= I2C_DutyCycle_16_9;
 251              		.loc 1 250 0
 252 00c6 43F48043 		orr	r3, r3, #16384	@ tmp200, tmp199,
 253              	.LVL24:
ARM GAS  C:\Users\Kevin\AppData\Local\Temp\cc2AQj48.s 			page 10


 254              	.L16:
 255 00ca 9BB2     		uxth	r3, r3	@ result, tmp200
 256              	.LVL25:
 251:.\stm32f4periph\src/stm32f4xx_i2c.c ****     }
 252:.\stm32f4periph\src/stm32f4xx_i2c.c **** 
 253:.\stm32f4periph\src/stm32f4xx_i2c.c ****     /* Test if CCR value is under 0x1*/
 254:.\stm32f4periph\src/stm32f4xx_i2c.c ****     if ((result & I2C_CCR_CCR) == 0)
 257              		.loc 1 254 0
 258 00cc 1A05     		lsls	r2, r3, #20	@, result,
 255:.\stm32f4periph\src/stm32f4xx_i2c.c ****     {
 256:.\stm32f4periph\src/stm32f4xx_i2c.c ****       /* Set minimum allowed value */
 257:.\stm32f4periph\src/stm32f4xx_i2c.c ****       result |= (uint16_t)0x0001;  
 258:.\stm32f4periph\src/stm32f4xx_i2c.c ****     }
 259:.\stm32f4periph\src/stm32f4xx_i2c.c ****     /* Set speed value and set F/S bit for fast mode */
 260:.\stm32f4periph\src/stm32f4xx_i2c.c ****     tmpreg |= (uint16_t)(result | I2C_CCR_FS);
 261:.\stm32f4periph\src/stm32f4xx_i2c.c ****     /* Set Maximum Rise Time for fast mode */
 262:.\stm32f4periph\src/stm32f4xx_i2c.c ****     I2Cx->TRISE = (uint16_t)(((freqrange * (uint16_t)300) / (uint16_t)1000) + (uint16_t)1);  
 259              		.loc 1 262 0
 260 00ce 4FF49672 		mov	r2, #300	@ tmp209,
 257:.\stm32f4periph\src/stm32f4xx_i2c.c ****       result |= (uint16_t)0x0001;  
 261              		.loc 1 257 0
 262 00d2 08BF     		it	eq
 263 00d4 43F00103 		orreq	r3, r3, #1	@ result, result,
 264              	.LVL26:
 265              		.loc 1 262 0
 266 00d8 5043     		muls	r0, r2, r0	@ tmp208, tmp209
 267              	.LVL27:
 268 00da 4FF47A72 		mov	r2, #1000	@ tmp212,
 269 00de 90FBF2F0 		sdiv	r0, r0, r2	@ tmp211, tmp208, tmp212
 270 00e2 0130     		adds	r0, r0, #1	@ tmp214, tmp211,
 260:.\stm32f4periph\src/stm32f4xx_i2c.c ****     tmpreg |= (uint16_t)(result | I2C_CCR_FS);
 271              		.loc 1 260 0
 272 00e4 43F40043 		orr	r3, r3, #32768	@ tmpreg, result,
 273              	.LVL28:
 274              		.loc 1 262 0
 275 00e8 2084     		strh	r0, [r4, #32]	@ movhi	@ D.7679, I2Cx_9(D)->TRISE
 276              	.LVL29:
 277              	.L11:
 263:.\stm32f4periph\src/stm32f4xx_i2c.c ****   }
 264:.\stm32f4periph\src/stm32f4xx_i2c.c **** 
 265:.\stm32f4periph\src/stm32f4xx_i2c.c ****   /* Write to I2Cx CCR */
 266:.\stm32f4periph\src/stm32f4xx_i2c.c ****   I2Cx->CCR = tmpreg;
 278              		.loc 1 266 0
 279 00ea A383     		strh	r3, [r4, #28]	@ movhi	@ tmpreg, I2Cx_9(D)->CCR
 267:.\stm32f4periph\src/stm32f4xx_i2c.c ****   /* Enable the selected I2C peripheral */
 268:.\stm32f4periph\src/stm32f4xx_i2c.c ****   I2Cx->CR1 |= I2C_CR1_PE;
 280              		.loc 1 268 0
 281 00ec 2388     		ldrh	r3, [r4, #0]	@, I2Cx_9(D)->CR1
 282              	.LVL30:
 269:.\stm32f4periph\src/stm32f4xx_i2c.c **** 
 270:.\stm32f4periph\src/stm32f4xx_i2c.c **** /*---------------------------- I2Cx CR1 Configuration ------------------------*/
 271:.\stm32f4periph\src/stm32f4xx_i2c.c ****   /* Get the I2Cx CR1 value */
 272:.\stm32f4periph\src/stm32f4xx_i2c.c ****   tmpreg = I2Cx->CR1;
 273:.\stm32f4periph\src/stm32f4xx_i2c.c ****   /* Clear ACK, SMBTYPE and  SMBUS bits */
 274:.\stm32f4periph\src/stm32f4xx_i2c.c ****   tmpreg &= CR1_CLEAR_MASK;
 275:.\stm32f4periph\src/stm32f4xx_i2c.c ****   /* Configure I2Cx: mode and acknowledgement */
 276:.\stm32f4periph\src/stm32f4xx_i2c.c ****   /* Set SMBTYPE and SMBUS bits according to I2C_Mode value */
ARM GAS  C:\Users\Kevin\AppData\Local\Temp\cc2AQj48.s 			page 11


 277:.\stm32f4periph\src/stm32f4xx_i2c.c ****   /* Set ACK bit according to I2C_Ack value */
 278:.\stm32f4periph\src/stm32f4xx_i2c.c ****   tmpreg |= (uint16_t)((uint32_t)I2C_InitStruct->I2C_Mode | I2C_InitStruct->I2C_Ack);
 283              		.loc 1 278 0
 284 00ee 6989     		ldrh	r1, [r5, #10]	@, I2C_InitStruct_19(D)->I2C_Ack
 285              	.LVL31:
 286 00f0 AA88     		ldrh	r2, [r5, #4]	@, I2C_InitStruct_19(D)->I2C_Mode
 268:.\stm32f4periph\src/stm32f4xx_i2c.c ****   I2Cx->CR1 |= I2C_CR1_PE;
 287              		.loc 1 268 0
 288 00f2 9BB2     		uxth	r3, r3	@ D.7680, I2Cx_9(D)->CR1
 289 00f4 43F00103 		orr	r3, r3, #1	@ D.7681, D.7680,
 290 00f8 2380     		strh	r3, [r4, #0]	@ movhi	@ D.7681, I2Cx_9(D)->CR1
 272:.\stm32f4periph\src/stm32f4xx_i2c.c ****   tmpreg = I2Cx->CR1;
 291              		.loc 1 272 0
 292 00fa 2388     		ldrh	r3, [r4, #0]	@, I2Cx_9(D)->CR1
 293              	.LVL32:
 274:.\stm32f4periph\src/stm32f4xx_i2c.c ****   tmpreg &= CR1_CLEAR_MASK;
 294              		.loc 1 274 0
 295 00fc 23F48163 		bic	r3, r3, #1032	@ tmpreg, I2Cx_9(D)->CR1,
 296              	.LVL33:
 297 0100 23F00203 		bic	r3, r3, #2	@ tmpreg, tmpreg,
 298 0104 1B04     		lsls	r3, r3, #16	@ tmpreg, tmpreg,
 299              		.loc 1 278 0
 300 0106 0A43     		orrs	r2, r2, r1	@, tmp225, I2C_InitStruct_19(D)->I2C_Mode, I2C_InitStruct_19(D)->I2C_Ack
 274:.\stm32f4periph\src/stm32f4xx_i2c.c ****   tmpreg &= CR1_CLEAR_MASK;
 301              		.loc 1 274 0
 302 0108 1B0C     		lsrs	r3, r3, #16	@ tmpreg, tmpreg,
 303              	.LVL34:
 304              		.loc 1 278 0
 305 010a 1343     		orrs	r3, r3, r2	@, tmp227, tmpreg, tmp225
 306              	.LVL35:
 279:.\stm32f4periph\src/stm32f4xx_i2c.c ****   /* Write to I2Cx CR1 */
 280:.\stm32f4periph\src/stm32f4xx_i2c.c ****   I2Cx->CR1 = tmpreg;
 307              		.loc 1 280 0
 308 010c 2380     		strh	r3, [r4, #0]	@ movhi	@ tmpreg, I2Cx_9(D)->CR1
 281:.\stm32f4periph\src/stm32f4xx_i2c.c **** 
 282:.\stm32f4periph\src/stm32f4xx_i2c.c **** /*---------------------------- I2Cx OAR1 Configuration -----------------------*/
 283:.\stm32f4periph\src/stm32f4xx_i2c.c ****   /* Set I2Cx Own Address1 and acknowledged address */
 284:.\stm32f4periph\src/stm32f4xx_i2c.c ****   I2Cx->OAR1 = (I2C_InitStruct->I2C_AcknowledgedAddress | I2C_InitStruct->I2C_OwnAddress1);
 309              		.loc 1 284 0
 310 010e 2A89     		ldrh	r2, [r5, #8]	@, I2C_InitStruct_19(D)->I2C_OwnAddress1
 311 0110 AB89     		ldrh	r3, [r5, #12]	@, I2C_InitStruct_19(D)->I2C_AcknowledgedAddress
 312              	.LVL36:
 313 0112 1343     		orrs	r3, r3, r2	@, tmp231, I2C_InitStruct_19(D)->I2C_AcknowledgedAddress, I2C_InitStruct_19(D)->I2
 314 0114 2381     		strh	r3, [r4, #8]	@ movhi	@ D.7687, I2Cx_9(D)->OAR1
 285:.\stm32f4periph\src/stm32f4xx_i2c.c **** }
 315              		.loc 1 285 0
 316 0116 05B0     		add	sp, sp, #20	@,,
 317 0118 F0BD     		pop	{r4, r5, r6, r7, pc}
 318              	.L18:
 319 011a 00BF     		.align	2
 320              	.L17:
 321 011c 40420F00 		.word	1000000
 322 0120 A0860100 		.word	100000
 323              		.cfi_endproc
 324              	.LFE111:
 325              		.size	I2C_Init, .-I2C_Init
 326              		.align	1
ARM GAS  C:\Users\Kevin\AppData\Local\Temp\cc2AQj48.s 			page 12


 327              		.global	I2C_StructInit
 328              		.thumb
 329              		.thumb_func
 330              		.type	I2C_StructInit, %function
 331              	I2C_StructInit:
 332              	.LFB112:
 286:.\stm32f4periph\src/stm32f4xx_i2c.c **** 
 287:.\stm32f4periph\src/stm32f4xx_i2c.c **** /**
 288:.\stm32f4periph\src/stm32f4xx_i2c.c ****   * @brief  Fills each I2C_InitStruct member with its default value.
 289:.\stm32f4periph\src/stm32f4xx_i2c.c ****   * @param  I2C_InitStruct: pointer to an I2C_InitTypeDef structure which will be initialized.
 290:.\stm32f4periph\src/stm32f4xx_i2c.c ****   * @retval None
 291:.\stm32f4periph\src/stm32f4xx_i2c.c ****   */
 292:.\stm32f4periph\src/stm32f4xx_i2c.c **** void I2C_StructInit(I2C_InitTypeDef* I2C_InitStruct)
 293:.\stm32f4periph\src/stm32f4xx_i2c.c **** {
 333              		.loc 1 293 0
 334              		.cfi_startproc
 335              		@ args = 0, pretend = 0, frame = 0
 336              		@ frame_needed = 0, uses_anonymous_args = 0
 337              		@ link register save eliminated.
 338              	.LVL37:
 294:.\stm32f4periph\src/stm32f4xx_i2c.c **** /*---------------- Reset I2C init structure parameters values ----------------*/
 295:.\stm32f4periph\src/stm32f4xx_i2c.c ****   /* initialize the I2C_ClockSpeed member */
 296:.\stm32f4periph\src/stm32f4xx_i2c.c ****   I2C_InitStruct->I2C_ClockSpeed = 5000;
 339              		.loc 1 296 0
 340 0124 41F28833 		movw	r3, #5000	@ tmp135,
 341 0128 0360     		str	r3, [r0, #0]	@ tmp135, I2C_InitStruct_1(D)->I2C_ClockSpeed
 297:.\stm32f4periph\src/stm32f4xx_i2c.c ****   /* Initialize the I2C_Mode member */
 298:.\stm32f4periph\src/stm32f4xx_i2c.c ****   I2C_InitStruct->I2C_Mode = I2C_Mode_I2C;
 342              		.loc 1 298 0
 343 012a 0023     		movs	r3, #0	@ tmp137,
 344 012c 8380     		strh	r3, [r0, #4]	@ movhi	@ tmp137, I2C_InitStruct_1(D)->I2C_Mode
 299:.\stm32f4periph\src/stm32f4xx_i2c.c ****   /* Initialize the I2C_DutyCycle member */
 300:.\stm32f4periph\src/stm32f4xx_i2c.c ****   I2C_InitStruct->I2C_DutyCycle = I2C_DutyCycle_2;
 345              		.loc 1 300 0
 346 012e 4BF6FF72 		movw	r2, #49151	@ tmp139,
 301:.\stm32f4periph\src/stm32f4xx_i2c.c ****   /* Initialize the I2C_OwnAddress1 member */
 302:.\stm32f4periph\src/stm32f4xx_i2c.c ****   I2C_InitStruct->I2C_OwnAddress1 = 0;
 347              		.loc 1 302 0
 348 0132 0381     		strh	r3, [r0, #8]	@ movhi	@ tmp137, I2C_InitStruct_1(D)->I2C_OwnAddress1
 303:.\stm32f4periph\src/stm32f4xx_i2c.c ****   /* Initialize the I2C_Ack member */
 304:.\stm32f4periph\src/stm32f4xx_i2c.c ****   I2C_InitStruct->I2C_Ack = I2C_Ack_Disable;
 349              		.loc 1 304 0
 350 0134 4381     		strh	r3, [r0, #10]	@ movhi	@ tmp137, I2C_InitStruct_1(D)->I2C_Ack
 305:.\stm32f4periph\src/stm32f4xx_i2c.c ****   /* Initialize the I2C_AcknowledgedAddress member */
 306:.\stm32f4periph\src/stm32f4xx_i2c.c ****   I2C_InitStruct->I2C_AcknowledgedAddress = I2C_AcknowledgedAddress_7bit;
 351              		.loc 1 306 0
 352 0136 4FF48043 		mov	r3, #16384	@ tmp145,
 300:.\stm32f4periph\src/stm32f4xx_i2c.c ****   I2C_InitStruct->I2C_DutyCycle = I2C_DutyCycle_2;
 353              		.loc 1 300 0
 354 013a C280     		strh	r2, [r0, #6]	@ movhi	@ tmp139, I2C_InitStruct_1(D)->I2C_DutyCycle
 355              		.loc 1 306 0
 356 013c 8381     		strh	r3, [r0, #12]	@ movhi	@ tmp145, I2C_InitStruct_1(D)->I2C_AcknowledgedAddress
 357 013e 7047     		bx	lr	@
 358              		.cfi_endproc
 359              	.LFE112:
 360              		.size	I2C_StructInit, .-I2C_StructInit
 361              		.align	1
ARM GAS  C:\Users\Kevin\AppData\Local\Temp\cc2AQj48.s 			page 13


 362              		.global	I2C_Cmd
 363              		.thumb
 364              		.thumb_func
 365              		.type	I2C_Cmd, %function
 366              	I2C_Cmd:
 367              	.LFB113:
 307:.\stm32f4periph\src/stm32f4xx_i2c.c **** }
 308:.\stm32f4periph\src/stm32f4xx_i2c.c **** 
 309:.\stm32f4periph\src/stm32f4xx_i2c.c **** /**
 310:.\stm32f4periph\src/stm32f4xx_i2c.c ****   * @brief  Enables or disables the specified I2C peripheral.
 311:.\stm32f4periph\src/stm32f4xx_i2c.c ****   * @param  I2Cx: where x can be 1, 2 or 3 to select the I2C peripheral.
 312:.\stm32f4periph\src/stm32f4xx_i2c.c ****   * @param  NewState: new state of the I2Cx peripheral. 
 313:.\stm32f4periph\src/stm32f4xx_i2c.c ****   *          This parameter can be: ENABLE or DISABLE.
 314:.\stm32f4periph\src/stm32f4xx_i2c.c ****   * @retval None
 315:.\stm32f4periph\src/stm32f4xx_i2c.c ****   */
 316:.\stm32f4periph\src/stm32f4xx_i2c.c **** void I2C_Cmd(I2C_TypeDef* I2Cx, FunctionalState NewState)
 317:.\stm32f4periph\src/stm32f4xx_i2c.c **** {
 368              		.loc 1 317 0
 369              		.cfi_startproc
 370              		@ args = 0, pretend = 0, frame = 0
 371              		@ frame_needed = 0, uses_anonymous_args = 0
 372              		@ link register save eliminated.
 373              	.LVL38:
 318:.\stm32f4periph\src/stm32f4xx_i2c.c ****   /* Check the parameters */
 319:.\stm32f4periph\src/stm32f4xx_i2c.c ****   assert_param(IS_I2C_ALL_PERIPH(I2Cx));
 320:.\stm32f4periph\src/stm32f4xx_i2c.c ****   assert_param(IS_FUNCTIONAL_STATE(NewState));
 321:.\stm32f4periph\src/stm32f4xx_i2c.c ****   if (NewState != DISABLE)
 322:.\stm32f4periph\src/stm32f4xx_i2c.c ****   {
 323:.\stm32f4periph\src/stm32f4xx_i2c.c ****     /* Enable the selected I2C peripheral */
 324:.\stm32f4periph\src/stm32f4xx_i2c.c ****     I2Cx->CR1 |= I2C_CR1_PE;
 374              		.loc 1 324 0
 375 0140 0388     		ldrh	r3, [r0, #0]	@,* I2Cx
 321:.\stm32f4periph\src/stm32f4xx_i2c.c ****   if (NewState != DISABLE)
 376              		.loc 1 321 0
 377 0142 19B1     		cbz	r1, .L21	@ NewState,
 378              		.loc 1 324 0
 379 0144 9BB2     		uxth	r3, r3	@ D.7645, I2Cx_2(D)->CR1
 380 0146 43F00103 		orr	r3, r3, #1	@ D.7646, D.7645,
 381 014a 03E0     		b	.L23	@
 382              	.L21:
 325:.\stm32f4periph\src/stm32f4xx_i2c.c ****   }
 326:.\stm32f4periph\src/stm32f4xx_i2c.c ****   else
 327:.\stm32f4periph\src/stm32f4xx_i2c.c ****   {
 328:.\stm32f4periph\src/stm32f4xx_i2c.c ****     /* Disable the selected I2C peripheral */
 329:.\stm32f4periph\src/stm32f4xx_i2c.c ****     I2Cx->CR1 &= (uint16_t)~((uint16_t)I2C_CR1_PE);
 383              		.loc 1 329 0
 384 014c 23F00103 		bic	r3, r3, #1	@ D.7649, I2Cx_2(D)->CR1,
 385 0150 1B04     		lsls	r3, r3, #16	@ D.7649, D.7649,
 386 0152 1B0C     		lsrs	r3, r3, #16	@ D.7649, D.7649,
 387              	.L23:
 388 0154 0380     		strh	r3, [r0, #0]	@ movhi	@ D.7649,* I2Cx
 389 0156 7047     		bx	lr	@
 390              		.cfi_endproc
 391              	.LFE113:
 392              		.size	I2C_Cmd, .-I2C_Cmd
 393              		.align	1
 394              		.global	I2C_GenerateSTART
ARM GAS  C:\Users\Kevin\AppData\Local\Temp\cc2AQj48.s 			page 14


 395              		.thumb
 396              		.thumb_func
 397              		.type	I2C_GenerateSTART, %function
 398              	I2C_GenerateSTART:
 399              	.LFB114:
 330:.\stm32f4periph\src/stm32f4xx_i2c.c ****   }
 331:.\stm32f4periph\src/stm32f4xx_i2c.c **** }
 332:.\stm32f4periph\src/stm32f4xx_i2c.c **** 
 333:.\stm32f4periph\src/stm32f4xx_i2c.c **** /**
 334:.\stm32f4periph\src/stm32f4xx_i2c.c ****   * @brief  Generates I2Cx communication START condition.
 335:.\stm32f4periph\src/stm32f4xx_i2c.c ****   * @param  I2Cx: where x can be 1, 2 or 3 to select the I2C peripheral.
 336:.\stm32f4periph\src/stm32f4xx_i2c.c ****   * @param  NewState: new state of the I2C START condition generation.
 337:.\stm32f4periph\src/stm32f4xx_i2c.c ****   *          This parameter can be: ENABLE or DISABLE.
 338:.\stm32f4periph\src/stm32f4xx_i2c.c ****   * @retval None.
 339:.\stm32f4periph\src/stm32f4xx_i2c.c ****   */
 340:.\stm32f4periph\src/stm32f4xx_i2c.c **** void I2C_GenerateSTART(I2C_TypeDef* I2Cx, FunctionalState NewState)
 341:.\stm32f4periph\src/stm32f4xx_i2c.c **** {
 400              		.loc 1 341 0
 401              		.cfi_startproc
 402              		@ args = 0, pretend = 0, frame = 0
 403              		@ frame_needed = 0, uses_anonymous_args = 0
 404              		@ link register save eliminated.
 405              	.LVL39:
 342:.\stm32f4periph\src/stm32f4xx_i2c.c ****   /* Check the parameters */
 343:.\stm32f4periph\src/stm32f4xx_i2c.c ****   assert_param(IS_I2C_ALL_PERIPH(I2Cx));
 344:.\stm32f4periph\src/stm32f4xx_i2c.c ****   assert_param(IS_FUNCTIONAL_STATE(NewState));
 345:.\stm32f4periph\src/stm32f4xx_i2c.c ****   if (NewState != DISABLE)
 346:.\stm32f4periph\src/stm32f4xx_i2c.c ****   {
 347:.\stm32f4periph\src/stm32f4xx_i2c.c ****     /* Generate a START condition */
 348:.\stm32f4periph\src/stm32f4xx_i2c.c ****     I2Cx->CR1 |= I2C_CR1_START;
 406              		.loc 1 348 0
 407 0158 0388     		ldrh	r3, [r0, #0]	@,* I2Cx
 345:.\stm32f4periph\src/stm32f4xx_i2c.c ****   if (NewState != DISABLE)
 408              		.loc 1 345 0
 409 015a 19B1     		cbz	r1, .L25	@ NewState,
 410              		.loc 1 348 0
 411 015c 9BB2     		uxth	r3, r3	@ D.7638, I2Cx_2(D)->CR1
 412 015e 43F48073 		orr	r3, r3, #256	@ D.7639, D.7638,
 413 0162 03E0     		b	.L27	@
 414              	.L25:
 349:.\stm32f4periph\src/stm32f4xx_i2c.c ****   }
 350:.\stm32f4periph\src/stm32f4xx_i2c.c ****   else
 351:.\stm32f4periph\src/stm32f4xx_i2c.c ****   {
 352:.\stm32f4periph\src/stm32f4xx_i2c.c ****     /* Disable the START condition generation */
 353:.\stm32f4periph\src/stm32f4xx_i2c.c ****     I2Cx->CR1 &= (uint16_t)~((uint16_t)I2C_CR1_START);
 415              		.loc 1 353 0
 416 0164 23F48073 		bic	r3, r3, #256	@ D.7642, I2Cx_2(D)->CR1,
 417 0168 1B04     		lsls	r3, r3, #16	@ D.7642, D.7642,
 418 016a 1B0C     		lsrs	r3, r3, #16	@ D.7642, D.7642,
 419              	.L27:
 420 016c 0380     		strh	r3, [r0, #0]	@ movhi	@ D.7642,* I2Cx
 421 016e 7047     		bx	lr	@
 422              		.cfi_endproc
 423              	.LFE114:
 424              		.size	I2C_GenerateSTART, .-I2C_GenerateSTART
 425              		.align	1
 426              		.global	I2C_GenerateSTOP
ARM GAS  C:\Users\Kevin\AppData\Local\Temp\cc2AQj48.s 			page 15


 427              		.thumb
 428              		.thumb_func
 429              		.type	I2C_GenerateSTOP, %function
 430              	I2C_GenerateSTOP:
 431              	.LFB115:
 354:.\stm32f4periph\src/stm32f4xx_i2c.c ****   }
 355:.\stm32f4periph\src/stm32f4xx_i2c.c **** }
 356:.\stm32f4periph\src/stm32f4xx_i2c.c **** 
 357:.\stm32f4periph\src/stm32f4xx_i2c.c **** /**
 358:.\stm32f4periph\src/stm32f4xx_i2c.c ****   * @brief  Generates I2Cx communication STOP condition.
 359:.\stm32f4periph\src/stm32f4xx_i2c.c ****   * @param  I2Cx: where x can be 1, 2 or 3 to select the I2C peripheral.
 360:.\stm32f4periph\src/stm32f4xx_i2c.c ****   * @param  NewState: new state of the I2C STOP condition generation.
 361:.\stm32f4periph\src/stm32f4xx_i2c.c ****   *          This parameter can be: ENABLE or DISABLE.
 362:.\stm32f4periph\src/stm32f4xx_i2c.c ****   * @retval None.
 363:.\stm32f4periph\src/stm32f4xx_i2c.c ****   */
 364:.\stm32f4periph\src/stm32f4xx_i2c.c **** void I2C_GenerateSTOP(I2C_TypeDef* I2Cx, FunctionalState NewState)
 365:.\stm32f4periph\src/stm32f4xx_i2c.c **** {
 432              		.loc 1 365 0
 433              		.cfi_startproc
 434              		@ args = 0, pretend = 0, frame = 0
 435              		@ frame_needed = 0, uses_anonymous_args = 0
 436              		@ link register save eliminated.
 437              	.LVL40:
 366:.\stm32f4periph\src/stm32f4xx_i2c.c ****   /* Check the parameters */
 367:.\stm32f4periph\src/stm32f4xx_i2c.c ****   assert_param(IS_I2C_ALL_PERIPH(I2Cx));
 368:.\stm32f4periph\src/stm32f4xx_i2c.c ****   assert_param(IS_FUNCTIONAL_STATE(NewState));
 369:.\stm32f4periph\src/stm32f4xx_i2c.c ****   if (NewState != DISABLE)
 370:.\stm32f4periph\src/stm32f4xx_i2c.c ****   {
 371:.\stm32f4periph\src/stm32f4xx_i2c.c ****     /* Generate a STOP condition */
 372:.\stm32f4periph\src/stm32f4xx_i2c.c ****     I2Cx->CR1 |= I2C_CR1_STOP;
 438              		.loc 1 372 0
 439 0170 0388     		ldrh	r3, [r0, #0]	@,* I2Cx
 369:.\stm32f4periph\src/stm32f4xx_i2c.c ****   if (NewState != DISABLE)
 440              		.loc 1 369 0
 441 0172 19B1     		cbz	r1, .L29	@ NewState,
 442              		.loc 1 372 0
 443 0174 9BB2     		uxth	r3, r3	@ D.7631, I2Cx_2(D)->CR1
 444 0176 43F40073 		orr	r3, r3, #512	@ D.7632, D.7631,
 445 017a 03E0     		b	.L31	@
 446              	.L29:
 373:.\stm32f4periph\src/stm32f4xx_i2c.c ****   }
 374:.\stm32f4periph\src/stm32f4xx_i2c.c ****   else
 375:.\stm32f4periph\src/stm32f4xx_i2c.c ****   {
 376:.\stm32f4periph\src/stm32f4xx_i2c.c ****     /* Disable the STOP condition generation */
 377:.\stm32f4periph\src/stm32f4xx_i2c.c ****     I2Cx->CR1 &= (uint16_t)~((uint16_t)I2C_CR1_STOP);
 447              		.loc 1 377 0
 448 017c 23F40073 		bic	r3, r3, #512	@ D.7635, I2Cx_2(D)->CR1,
 449 0180 1B04     		lsls	r3, r3, #16	@ D.7635, D.7635,
 450 0182 1B0C     		lsrs	r3, r3, #16	@ D.7635, D.7635,
 451              	.L31:
 452 0184 0380     		strh	r3, [r0, #0]	@ movhi	@ D.7635,* I2Cx
 453 0186 7047     		bx	lr	@
 454              		.cfi_endproc
 455              	.LFE115:
 456              		.size	I2C_GenerateSTOP, .-I2C_GenerateSTOP
 457              		.align	1
 458              		.global	I2C_Send7bitAddress
ARM GAS  C:\Users\Kevin\AppData\Local\Temp\cc2AQj48.s 			page 16


 459              		.thumb
 460              		.thumb_func
 461              		.type	I2C_Send7bitAddress, %function
 462              	I2C_Send7bitAddress:
 463              	.LFB116:
 378:.\stm32f4periph\src/stm32f4xx_i2c.c ****   }
 379:.\stm32f4periph\src/stm32f4xx_i2c.c **** }
 380:.\stm32f4periph\src/stm32f4xx_i2c.c **** 
 381:.\stm32f4periph\src/stm32f4xx_i2c.c **** /**
 382:.\stm32f4periph\src/stm32f4xx_i2c.c ****   * @brief  Transmits the address byte to select the slave device.
 383:.\stm32f4periph\src/stm32f4xx_i2c.c ****   * @param  I2Cx: where x can be 1, 2 or 3 to select the I2C peripheral.
 384:.\stm32f4periph\src/stm32f4xx_i2c.c ****   * @param  Address: specifies the slave address which will be transmitted
 385:.\stm32f4periph\src/stm32f4xx_i2c.c ****   * @param  I2C_Direction: specifies whether the I2C device will be a Transmitter
 386:.\stm32f4periph\src/stm32f4xx_i2c.c ****   *         or a Receiver. 
 387:.\stm32f4periph\src/stm32f4xx_i2c.c ****   *          This parameter can be one of the following values
 388:.\stm32f4periph\src/stm32f4xx_i2c.c ****   *            @arg I2C_Direction_Transmitter: Transmitter mode
 389:.\stm32f4periph\src/stm32f4xx_i2c.c ****   *            @arg I2C_Direction_Receiver: Receiver mode
 390:.\stm32f4periph\src/stm32f4xx_i2c.c ****   * @retval None.
 391:.\stm32f4periph\src/stm32f4xx_i2c.c ****   */
 392:.\stm32f4periph\src/stm32f4xx_i2c.c **** void I2C_Send7bitAddress(I2C_TypeDef* I2Cx, uint8_t Address, uint8_t I2C_Direction)
 393:.\stm32f4periph\src/stm32f4xx_i2c.c **** {
 464              		.loc 1 393 0
 465              		.cfi_startproc
 466              		@ args = 0, pretend = 0, frame = 0
 467              		@ frame_needed = 0, uses_anonymous_args = 0
 468              		@ link register save eliminated.
 469              	.LVL41:
 394:.\stm32f4periph\src/stm32f4xx_i2c.c ****   /* Check the parameters */
 395:.\stm32f4periph\src/stm32f4xx_i2c.c ****   assert_param(IS_I2C_ALL_PERIPH(I2Cx));
 396:.\stm32f4periph\src/stm32f4xx_i2c.c ****   assert_param(IS_I2C_DIRECTION(I2C_Direction));
 397:.\stm32f4periph\src/stm32f4xx_i2c.c ****   /* Test on the direction to set/reset the read/write bit */
 398:.\stm32f4periph\src/stm32f4xx_i2c.c ****   if (I2C_Direction != I2C_Direction_Transmitter)
 470              		.loc 1 398 0
 471 0188 12B1     		cbz	r2, .L33	@ I2C_Direction,
 399:.\stm32f4periph\src/stm32f4xx_i2c.c ****   {
 400:.\stm32f4periph\src/stm32f4xx_i2c.c ****     /* Set the address bit0 for read */
 401:.\stm32f4periph\src/stm32f4xx_i2c.c ****     Address |= I2C_OAR1_ADD0;
 472              		.loc 1 401 0
 473 018a 41F00101 		orr	r1, r1, #1	@ Address, Address,
 474              	.LVL42:
 475 018e 01E0     		b	.L34	@
 476              	.L33:
 402:.\stm32f4periph\src/stm32f4xx_i2c.c ****   }
 403:.\stm32f4periph\src/stm32f4xx_i2c.c ****   else
 404:.\stm32f4periph\src/stm32f4xx_i2c.c ****   {
 405:.\stm32f4periph\src/stm32f4xx_i2c.c ****     /* Reset the address bit0 for write */
 406:.\stm32f4periph\src/stm32f4xx_i2c.c ****     Address &= (uint8_t)~((uint8_t)I2C_OAR1_ADD0);
 477              		.loc 1 406 0
 478 0190 01F0FE01 		and	r1, r1, #254	@ Address, Address,
 479              	.LVL43:
 480              	.L34:
 407:.\stm32f4periph\src/stm32f4xx_i2c.c ****   }
 408:.\stm32f4periph\src/stm32f4xx_i2c.c ****   /* Send the address */
 409:.\stm32f4periph\src/stm32f4xx_i2c.c ****   I2Cx->DR = Address;
 481              		.loc 1 409 0
 482 0194 0182     		strh	r1, [r0, #16]	@ movhi	@ Address, I2Cx_7(D)->DR
 483 0196 7047     		bx	lr	@
ARM GAS  C:\Users\Kevin\AppData\Local\Temp\cc2AQj48.s 			page 17


 484              		.cfi_endproc
 485              	.LFE116:
 486              		.size	I2C_Send7bitAddress, .-I2C_Send7bitAddress
 487              		.align	1
 488              		.global	I2C_AcknowledgeConfig
 489              		.thumb
 490              		.thumb_func
 491              		.type	I2C_AcknowledgeConfig, %function
 492              	I2C_AcknowledgeConfig:
 493              	.LFB117:
 410:.\stm32f4periph\src/stm32f4xx_i2c.c **** }
 411:.\stm32f4periph\src/stm32f4xx_i2c.c **** 
 412:.\stm32f4periph\src/stm32f4xx_i2c.c **** /**
 413:.\stm32f4periph\src/stm32f4xx_i2c.c ****   * @brief  Enables or disables the specified I2C acknowledge feature.
 414:.\stm32f4periph\src/stm32f4xx_i2c.c ****   * @param  I2Cx: where x can be 1, 2 or 3 to select the I2C peripheral.
 415:.\stm32f4periph\src/stm32f4xx_i2c.c ****   * @param  NewState: new state of the I2C Acknowledgement.
 416:.\stm32f4periph\src/stm32f4xx_i2c.c ****   *          This parameter can be: ENABLE or DISABLE.
 417:.\stm32f4periph\src/stm32f4xx_i2c.c ****   * @retval None.
 418:.\stm32f4periph\src/stm32f4xx_i2c.c ****   */
 419:.\stm32f4periph\src/stm32f4xx_i2c.c **** void I2C_AcknowledgeConfig(I2C_TypeDef* I2Cx, FunctionalState NewState)
 420:.\stm32f4periph\src/stm32f4xx_i2c.c **** {
 494              		.loc 1 420 0
 495              		.cfi_startproc
 496              		@ args = 0, pretend = 0, frame = 0
 497              		@ frame_needed = 0, uses_anonymous_args = 0
 498              		@ link register save eliminated.
 499              	.LVL44:
 421:.\stm32f4periph\src/stm32f4xx_i2c.c ****   /* Check the parameters */
 422:.\stm32f4periph\src/stm32f4xx_i2c.c ****   assert_param(IS_I2C_ALL_PERIPH(I2Cx));
 423:.\stm32f4periph\src/stm32f4xx_i2c.c ****   assert_param(IS_FUNCTIONAL_STATE(NewState));
 424:.\stm32f4periph\src/stm32f4xx_i2c.c ****   if (NewState != DISABLE)
 425:.\stm32f4periph\src/stm32f4xx_i2c.c ****   {
 426:.\stm32f4periph\src/stm32f4xx_i2c.c ****     /* Enable the acknowledgement */
 427:.\stm32f4periph\src/stm32f4xx_i2c.c ****     I2Cx->CR1 |= I2C_CR1_ACK;
 500              		.loc 1 427 0
 501 0198 0388     		ldrh	r3, [r0, #0]	@,* I2Cx
 424:.\stm32f4periph\src/stm32f4xx_i2c.c ****   if (NewState != DISABLE)
 502              		.loc 1 424 0
 503 019a 19B1     		cbz	r1, .L36	@ NewState,
 504              		.loc 1 427 0
 505 019c 9BB2     		uxth	r3, r3	@ D.7620, I2Cx_2(D)->CR1
 506 019e 43F48063 		orr	r3, r3, #1024	@ D.7621, D.7620,
 507 01a2 03E0     		b	.L38	@
 508              	.L36:
 428:.\stm32f4periph\src/stm32f4xx_i2c.c ****   }
 429:.\stm32f4periph\src/stm32f4xx_i2c.c ****   else
 430:.\stm32f4periph\src/stm32f4xx_i2c.c ****   {
 431:.\stm32f4periph\src/stm32f4xx_i2c.c ****     /* Disable the acknowledgement */
 432:.\stm32f4periph\src/stm32f4xx_i2c.c ****     I2Cx->CR1 &= (uint16_t)~((uint16_t)I2C_CR1_ACK);
 509              		.loc 1 432 0
 510 01a4 23F48063 		bic	r3, r3, #1024	@ D.7624, I2Cx_2(D)->CR1,
 511 01a8 1B04     		lsls	r3, r3, #16	@ D.7624, D.7624,
 512 01aa 1B0C     		lsrs	r3, r3, #16	@ D.7624, D.7624,
 513              	.L38:
 514 01ac 0380     		strh	r3, [r0, #0]	@ movhi	@ D.7624,* I2Cx
 515 01ae 7047     		bx	lr	@
 516              		.cfi_endproc
ARM GAS  C:\Users\Kevin\AppData\Local\Temp\cc2AQj48.s 			page 18


 517              	.LFE117:
 518              		.size	I2C_AcknowledgeConfig, .-I2C_AcknowledgeConfig
 519              		.align	1
 520              		.global	I2C_OwnAddress2Config
 521              		.thumb
 522              		.thumb_func
 523              		.type	I2C_OwnAddress2Config, %function
 524              	I2C_OwnAddress2Config:
 525              	.LFB118:
 433:.\stm32f4periph\src/stm32f4xx_i2c.c ****   }
 434:.\stm32f4periph\src/stm32f4xx_i2c.c **** }
 435:.\stm32f4periph\src/stm32f4xx_i2c.c **** 
 436:.\stm32f4periph\src/stm32f4xx_i2c.c **** /**
 437:.\stm32f4periph\src/stm32f4xx_i2c.c ****   * @brief  Configures the specified I2C own address2.
 438:.\stm32f4periph\src/stm32f4xx_i2c.c ****   * @param  I2Cx: where x can be 1, 2 or 3 to select the I2C peripheral.
 439:.\stm32f4periph\src/stm32f4xx_i2c.c ****   * @param  Address: specifies the 7bit I2C own address2.
 440:.\stm32f4periph\src/stm32f4xx_i2c.c ****   * @retval None.
 441:.\stm32f4periph\src/stm32f4xx_i2c.c ****   */
 442:.\stm32f4periph\src/stm32f4xx_i2c.c **** void I2C_OwnAddress2Config(I2C_TypeDef* I2Cx, uint8_t Address)
 443:.\stm32f4periph\src/stm32f4xx_i2c.c **** {
 526              		.loc 1 443 0
 527              		.cfi_startproc
 528              		@ args = 0, pretend = 0, frame = 0
 529              		@ frame_needed = 0, uses_anonymous_args = 0
 530              		@ link register save eliminated.
 531              	.LVL45:
 444:.\stm32f4periph\src/stm32f4xx_i2c.c ****   uint16_t tmpreg = 0;
 445:.\stm32f4periph\src/stm32f4xx_i2c.c **** 
 446:.\stm32f4periph\src/stm32f4xx_i2c.c ****   /* Check the parameters */
 447:.\stm32f4periph\src/stm32f4xx_i2c.c ****   assert_param(IS_I2C_ALL_PERIPH(I2Cx));
 448:.\stm32f4periph\src/stm32f4xx_i2c.c **** 
 449:.\stm32f4periph\src/stm32f4xx_i2c.c ****   /* Get the old register value */
 450:.\stm32f4periph\src/stm32f4xx_i2c.c ****   tmpreg = I2Cx->OAR2;
 532              		.loc 1 450 0
 533 01b0 8389     		ldrh	r3, [r0, #12]	@, I2Cx_2(D)->OAR2
 534 01b2 9BB2     		uxth	r3, r3	@ tmpreg, I2Cx_2(D)->OAR2
 535              	.LVL46:
 451:.\stm32f4periph\src/stm32f4xx_i2c.c **** 
 452:.\stm32f4periph\src/stm32f4xx_i2c.c ****   /* Reset I2Cx Own address2 bit [7:1] */
 453:.\stm32f4periph\src/stm32f4xx_i2c.c ****   tmpreg &= (uint16_t)~((uint16_t)I2C_OAR2_ADD2);
 454:.\stm32f4periph\src/stm32f4xx_i2c.c **** 
 455:.\stm32f4periph\src/stm32f4xx_i2c.c ****   /* Set I2Cx Own address2 */
 456:.\stm32f4periph\src/stm32f4xx_i2c.c ****   tmpreg |= (uint16_t)((uint16_t)Address & (uint16_t)0x00FE);
 536              		.loc 1 456 0
 537 01b4 01F0FE01 		and	r1, r1, #254	@ tmp147, Address,
 538              	.LVL47:
 453:.\stm32f4periph\src/stm32f4xx_i2c.c ****   tmpreg &= (uint16_t)~((uint16_t)I2C_OAR2_ADD2);
 539              		.loc 1 453 0
 540 01b8 23F0FE03 		bic	r3, r3, #254	@ tmp148, tmpreg,
 541              	.LVL48:
 542              		.loc 1 456 0
 543 01bc 0B43     		orrs	r3, r3, r1	@, tmpreg, tmp148, tmp147
 544              	.LVL49:
 457:.\stm32f4periph\src/stm32f4xx_i2c.c **** 
 458:.\stm32f4periph\src/stm32f4xx_i2c.c ****   /* Store the new register value */
 459:.\stm32f4periph\src/stm32f4xx_i2c.c ****   I2Cx->OAR2 = tmpreg;
 545              		.loc 1 459 0
ARM GAS  C:\Users\Kevin\AppData\Local\Temp\cc2AQj48.s 			page 19


 546 01be 8381     		strh	r3, [r0, #12]	@ movhi	@ tmpreg, I2Cx_2(D)->OAR2
 547 01c0 7047     		bx	lr	@
 548              		.cfi_endproc
 549              	.LFE118:
 550              		.size	I2C_OwnAddress2Config, .-I2C_OwnAddress2Config
 551              		.align	1
 552              		.global	I2C_DualAddressCmd
 553              		.thumb
 554              		.thumb_func
 555              		.type	I2C_DualAddressCmd, %function
 556              	I2C_DualAddressCmd:
 557              	.LFB119:
 460:.\stm32f4periph\src/stm32f4xx_i2c.c **** }
 461:.\stm32f4periph\src/stm32f4xx_i2c.c **** 
 462:.\stm32f4periph\src/stm32f4xx_i2c.c **** /**
 463:.\stm32f4periph\src/stm32f4xx_i2c.c ****   * @brief  Enables or disables the specified I2C dual addressing mode.
 464:.\stm32f4periph\src/stm32f4xx_i2c.c ****   * @param  I2Cx: where x can be 1, 2 or 3 to select the I2C peripheral.
 465:.\stm32f4periph\src/stm32f4xx_i2c.c ****   * @param  NewState: new state of the I2C dual addressing mode.
 466:.\stm32f4periph\src/stm32f4xx_i2c.c ****   *          This parameter can be: ENABLE or DISABLE.
 467:.\stm32f4periph\src/stm32f4xx_i2c.c ****   * @retval None
 468:.\stm32f4periph\src/stm32f4xx_i2c.c ****   */
 469:.\stm32f4periph\src/stm32f4xx_i2c.c **** void I2C_DualAddressCmd(I2C_TypeDef* I2Cx, FunctionalState NewState)
 470:.\stm32f4periph\src/stm32f4xx_i2c.c **** {
 558              		.loc 1 470 0
 559              		.cfi_startproc
 560              		@ args = 0, pretend = 0, frame = 0
 561              		@ frame_needed = 0, uses_anonymous_args = 0
 562              		@ link register save eliminated.
 563              	.LVL50:
 471:.\stm32f4periph\src/stm32f4xx_i2c.c ****   /* Check the parameters */
 472:.\stm32f4periph\src/stm32f4xx_i2c.c ****   assert_param(IS_I2C_ALL_PERIPH(I2Cx));
 473:.\stm32f4periph\src/stm32f4xx_i2c.c ****   assert_param(IS_FUNCTIONAL_STATE(NewState));
 474:.\stm32f4periph\src/stm32f4xx_i2c.c ****   if (NewState != DISABLE)
 475:.\stm32f4periph\src/stm32f4xx_i2c.c ****   {
 476:.\stm32f4periph\src/stm32f4xx_i2c.c ****     /* Enable dual addressing mode */
 477:.\stm32f4periph\src/stm32f4xx_i2c.c ****     I2Cx->OAR2 |= I2C_OAR2_ENDUAL;
 564              		.loc 1 477 0
 565 01c2 8389     		ldrh	r3, [r0, #12]	@,
 474:.\stm32f4periph\src/stm32f4xx_i2c.c ****   if (NewState != DISABLE)
 566              		.loc 1 474 0
 567 01c4 19B1     		cbz	r1, .L41	@ NewState,
 568              		.loc 1 477 0
 569 01c6 9BB2     		uxth	r3, r3	@ D.7609, I2Cx_2(D)->OAR2
 570 01c8 43F00103 		orr	r3, r3, #1	@ D.7610, D.7609,
 571 01cc 03E0     		b	.L43	@
 572              	.L41:
 478:.\stm32f4periph\src/stm32f4xx_i2c.c ****   }
 479:.\stm32f4periph\src/stm32f4xx_i2c.c ****   else
 480:.\stm32f4periph\src/stm32f4xx_i2c.c ****   {
 481:.\stm32f4periph\src/stm32f4xx_i2c.c ****     /* Disable dual addressing mode */
 482:.\stm32f4periph\src/stm32f4xx_i2c.c ****     I2Cx->OAR2 &= (uint16_t)~((uint16_t)I2C_OAR2_ENDUAL);
 573              		.loc 1 482 0
 574 01ce 23F00103 		bic	r3, r3, #1	@ D.7613, I2Cx_2(D)->OAR2,
 575 01d2 1B04     		lsls	r3, r3, #16	@ D.7613, D.7613,
 576 01d4 1B0C     		lsrs	r3, r3, #16	@ D.7613, D.7613,
 577              	.L43:
 578 01d6 8381     		strh	r3, [r0, #12]	@ movhi	@ D.7613,
ARM GAS  C:\Users\Kevin\AppData\Local\Temp\cc2AQj48.s 			page 20


 579 01d8 7047     		bx	lr	@
 580              		.cfi_endproc
 581              	.LFE119:
 582              		.size	I2C_DualAddressCmd, .-I2C_DualAddressCmd
 583              		.align	1
 584              		.global	I2C_GeneralCallCmd
 585              		.thumb
 586              		.thumb_func
 587              		.type	I2C_GeneralCallCmd, %function
 588              	I2C_GeneralCallCmd:
 589              	.LFB120:
 483:.\stm32f4periph\src/stm32f4xx_i2c.c ****   }
 484:.\stm32f4periph\src/stm32f4xx_i2c.c **** }
 485:.\stm32f4periph\src/stm32f4xx_i2c.c **** 
 486:.\stm32f4periph\src/stm32f4xx_i2c.c **** /**
 487:.\stm32f4periph\src/stm32f4xx_i2c.c ****   * @brief  Enables or disables the specified I2C general call feature.
 488:.\stm32f4periph\src/stm32f4xx_i2c.c ****   * @param  I2Cx: where x can be 1, 2 or 3 to select the I2C peripheral.
 489:.\stm32f4periph\src/stm32f4xx_i2c.c ****   * @param  NewState: new state of the I2C General call.
 490:.\stm32f4periph\src/stm32f4xx_i2c.c ****   *          This parameter can be: ENABLE or DISABLE.
 491:.\stm32f4periph\src/stm32f4xx_i2c.c ****   * @retval None
 492:.\stm32f4periph\src/stm32f4xx_i2c.c ****   */
 493:.\stm32f4periph\src/stm32f4xx_i2c.c **** void I2C_GeneralCallCmd(I2C_TypeDef* I2Cx, FunctionalState NewState)
 494:.\stm32f4periph\src/stm32f4xx_i2c.c **** {
 590              		.loc 1 494 0
 591              		.cfi_startproc
 592              		@ args = 0, pretend = 0, frame = 0
 593              		@ frame_needed = 0, uses_anonymous_args = 0
 594              		@ link register save eliminated.
 595              	.LVL51:
 495:.\stm32f4periph\src/stm32f4xx_i2c.c ****   /* Check the parameters */
 496:.\stm32f4periph\src/stm32f4xx_i2c.c ****   assert_param(IS_I2C_ALL_PERIPH(I2Cx));
 497:.\stm32f4periph\src/stm32f4xx_i2c.c ****   assert_param(IS_FUNCTIONAL_STATE(NewState));
 498:.\stm32f4periph\src/stm32f4xx_i2c.c ****   if (NewState != DISABLE)
 499:.\stm32f4periph\src/stm32f4xx_i2c.c ****   {
 500:.\stm32f4periph\src/stm32f4xx_i2c.c ****     /* Enable generall call */
 501:.\stm32f4periph\src/stm32f4xx_i2c.c ****     I2Cx->CR1 |= I2C_CR1_ENGC;
 596              		.loc 1 501 0
 597 01da 0388     		ldrh	r3, [r0, #0]	@,* I2Cx
 498:.\stm32f4periph\src/stm32f4xx_i2c.c ****   if (NewState != DISABLE)
 598              		.loc 1 498 0
 599 01dc 19B1     		cbz	r1, .L45	@ NewState,
 600              		.loc 1 501 0
 601 01de 9BB2     		uxth	r3, r3	@ D.7602, I2Cx_2(D)->CR1
 602 01e0 43F04003 		orr	r3, r3, #64	@ D.7603, D.7602,
 603 01e4 03E0     		b	.L47	@
 604              	.L45:
 502:.\stm32f4periph\src/stm32f4xx_i2c.c ****   }
 503:.\stm32f4periph\src/stm32f4xx_i2c.c ****   else
 504:.\stm32f4periph\src/stm32f4xx_i2c.c ****   {
 505:.\stm32f4periph\src/stm32f4xx_i2c.c ****     /* Disable generall call */
 506:.\stm32f4periph\src/stm32f4xx_i2c.c ****     I2Cx->CR1 &= (uint16_t)~((uint16_t)I2C_CR1_ENGC);
 605              		.loc 1 506 0
 606 01e6 23F04003 		bic	r3, r3, #64	@ D.7606, I2Cx_2(D)->CR1,
 607 01ea 1B04     		lsls	r3, r3, #16	@ D.7606, D.7606,
 608 01ec 1B0C     		lsrs	r3, r3, #16	@ D.7606, D.7606,
 609              	.L47:
 610 01ee 0380     		strh	r3, [r0, #0]	@ movhi	@ D.7606,* I2Cx
ARM GAS  C:\Users\Kevin\AppData\Local\Temp\cc2AQj48.s 			page 21


 611 01f0 7047     		bx	lr	@
 612              		.cfi_endproc
 613              	.LFE120:
 614              		.size	I2C_GeneralCallCmd, .-I2C_GeneralCallCmd
 615              		.align	1
 616              		.global	I2C_SoftwareResetCmd
 617              		.thumb
 618              		.thumb_func
 619              		.type	I2C_SoftwareResetCmd, %function
 620              	I2C_SoftwareResetCmd:
 621              	.LFB121:
 507:.\stm32f4periph\src/stm32f4xx_i2c.c ****   }
 508:.\stm32f4periph\src/stm32f4xx_i2c.c **** }
 509:.\stm32f4periph\src/stm32f4xx_i2c.c **** 
 510:.\stm32f4periph\src/stm32f4xx_i2c.c **** /**
 511:.\stm32f4periph\src/stm32f4xx_i2c.c ****   * @brief  Enables or disables the specified I2C software reset.
 512:.\stm32f4periph\src/stm32f4xx_i2c.c ****   * @note   When software reset is enabled, the I2C IOs are released (this can
 513:.\stm32f4periph\src/stm32f4xx_i2c.c ****   *         be useful to recover from bus errors).  
 514:.\stm32f4periph\src/stm32f4xx_i2c.c ****   * @param  I2Cx: where x can be 1, 2 or 3 to select the I2C peripheral.
 515:.\stm32f4periph\src/stm32f4xx_i2c.c ****   * @param  NewState: new state of the I2C software reset.
 516:.\stm32f4periph\src/stm32f4xx_i2c.c ****   *          This parameter can be: ENABLE or DISABLE.
 517:.\stm32f4periph\src/stm32f4xx_i2c.c ****   * @retval None
 518:.\stm32f4periph\src/stm32f4xx_i2c.c ****   */
 519:.\stm32f4periph\src/stm32f4xx_i2c.c **** void I2C_SoftwareResetCmd(I2C_TypeDef* I2Cx, FunctionalState NewState)
 520:.\stm32f4periph\src/stm32f4xx_i2c.c **** {
 622              		.loc 1 520 0
 623              		.cfi_startproc
 624              		@ args = 0, pretend = 0, frame = 0
 625              		@ frame_needed = 0, uses_anonymous_args = 0
 626              		@ link register save eliminated.
 627              	.LVL52:
 521:.\stm32f4periph\src/stm32f4xx_i2c.c ****   /* Check the parameters */
 522:.\stm32f4periph\src/stm32f4xx_i2c.c ****   assert_param(IS_I2C_ALL_PERIPH(I2Cx));
 523:.\stm32f4periph\src/stm32f4xx_i2c.c ****   assert_param(IS_FUNCTIONAL_STATE(NewState));
 524:.\stm32f4periph\src/stm32f4xx_i2c.c ****   if (NewState != DISABLE)
 525:.\stm32f4periph\src/stm32f4xx_i2c.c ****   {
 526:.\stm32f4periph\src/stm32f4xx_i2c.c ****     /* Peripheral under reset */
 527:.\stm32f4periph\src/stm32f4xx_i2c.c ****     I2Cx->CR1 |= I2C_CR1_SWRST;
 628              		.loc 1 527 0
 629 01f2 0388     		ldrh	r3, [r0, #0]	@,* I2Cx
 524:.\stm32f4periph\src/stm32f4xx_i2c.c ****   if (NewState != DISABLE)
 630              		.loc 1 524 0
 631 01f4 21B1     		cbz	r1, .L49	@ NewState,
 632              		.loc 1 527 0
 633 01f6 6FEA4343 		mvn	r3, r3, lsl #17	@ tmp141, I2Cx_2(D)->CR1,
 634 01fa 6FEA5343 		mvn	r3, r3, lsr #17	@ tmp141, tmp141,
 635 01fe 01E0     		b	.L51	@
 636              	.L49:
 528:.\stm32f4periph\src/stm32f4xx_i2c.c ****   }
 529:.\stm32f4periph\src/stm32f4xx_i2c.c ****   else
 530:.\stm32f4periph\src/stm32f4xx_i2c.c ****   {
 531:.\stm32f4periph\src/stm32f4xx_i2c.c ****     /* Peripheral not under reset */
 532:.\stm32f4periph\src/stm32f4xx_i2c.c ****     I2Cx->CR1 &= (uint16_t)~((uint16_t)I2C_CR1_SWRST);
 637              		.loc 1 532 0
 638 0200 5B04     		lsls	r3, r3, #17	@ tmp146, I2Cx_2(D)->CR1,
 639 0202 5B0C     		lsrs	r3, r3, #17	@ D.7599, tmp146,
 640              	.L51:
ARM GAS  C:\Users\Kevin\AppData\Local\Temp\cc2AQj48.s 			page 22


 641 0204 0380     		strh	r3, [r0, #0]	@ movhi	@ D.7599,* I2Cx
 642 0206 7047     		bx	lr	@
 643              		.cfi_endproc
 644              	.LFE121:
 645              		.size	I2C_SoftwareResetCmd, .-I2C_SoftwareResetCmd
 646              		.align	1
 647              		.global	I2C_StretchClockCmd
 648              		.thumb
 649              		.thumb_func
 650              		.type	I2C_StretchClockCmd, %function
 651              	I2C_StretchClockCmd:
 652              	.LFB122:
 533:.\stm32f4periph\src/stm32f4xx_i2c.c ****   }
 534:.\stm32f4periph\src/stm32f4xx_i2c.c **** }
 535:.\stm32f4periph\src/stm32f4xx_i2c.c **** 
 536:.\stm32f4periph\src/stm32f4xx_i2c.c **** /**
 537:.\stm32f4periph\src/stm32f4xx_i2c.c ****   * @brief  Enables or disables the specified I2C Clock stretching.
 538:.\stm32f4periph\src/stm32f4xx_i2c.c ****   * @param  I2Cx: where x can be 1, 2 or 3 to select the I2C peripheral.
 539:.\stm32f4periph\src/stm32f4xx_i2c.c ****   * @param  NewState: new state of the I2Cx Clock stretching.
 540:.\stm32f4periph\src/stm32f4xx_i2c.c ****   *          This parameter can be: ENABLE or DISABLE.
 541:.\stm32f4periph\src/stm32f4xx_i2c.c ****   * @retval None
 542:.\stm32f4periph\src/stm32f4xx_i2c.c ****   */
 543:.\stm32f4periph\src/stm32f4xx_i2c.c **** void I2C_StretchClockCmd(I2C_TypeDef* I2Cx, FunctionalState NewState)
 544:.\stm32f4periph\src/stm32f4xx_i2c.c **** {
 653              		.loc 1 544 0
 654              		.cfi_startproc
 655              		@ args = 0, pretend = 0, frame = 0
 656              		@ frame_needed = 0, uses_anonymous_args = 0
 657              		@ link register save eliminated.
 658              	.LVL53:
 545:.\stm32f4periph\src/stm32f4xx_i2c.c ****   /* Check the parameters */
 546:.\stm32f4periph\src/stm32f4xx_i2c.c ****   assert_param(IS_I2C_ALL_PERIPH(I2Cx));
 547:.\stm32f4periph\src/stm32f4xx_i2c.c ****   assert_param(IS_FUNCTIONAL_STATE(NewState));
 548:.\stm32f4periph\src/stm32f4xx_i2c.c ****   if (NewState == DISABLE)
 549:.\stm32f4periph\src/stm32f4xx_i2c.c ****   {
 550:.\stm32f4periph\src/stm32f4xx_i2c.c ****     /* Enable the selected I2C Clock stretching */
 551:.\stm32f4periph\src/stm32f4xx_i2c.c ****     I2Cx->CR1 |= I2C_CR1_NOSTRETCH;
 659              		.loc 1 551 0
 660 0208 0388     		ldrh	r3, [r0, #0]	@,* I2Cx
 548:.\stm32f4periph\src/stm32f4xx_i2c.c ****   if (NewState == DISABLE)
 661              		.loc 1 548 0
 662 020a 19B9     		cbnz	r1, .L53	@ NewState,
 663              		.loc 1 551 0
 664 020c 9BB2     		uxth	r3, r3	@ D.7588, I2Cx_2(D)->CR1
 665 020e 43F08003 		orr	r3, r3, #128	@ D.7589, D.7588,
 666 0212 03E0     		b	.L55	@
 667              	.L53:
 552:.\stm32f4periph\src/stm32f4xx_i2c.c ****   }
 553:.\stm32f4periph\src/stm32f4xx_i2c.c ****   else
 554:.\stm32f4periph\src/stm32f4xx_i2c.c ****   {
 555:.\stm32f4periph\src/stm32f4xx_i2c.c ****     /* Disable the selected I2C Clock stretching */
 556:.\stm32f4periph\src/stm32f4xx_i2c.c ****     I2Cx->CR1 &= (uint16_t)~((uint16_t)I2C_CR1_NOSTRETCH);
 668              		.loc 1 556 0
 669 0214 23F08003 		bic	r3, r3, #128	@ D.7592, I2Cx_2(D)->CR1,
 670 0218 1B04     		lsls	r3, r3, #16	@ D.7592, D.7592,
 671 021a 1B0C     		lsrs	r3, r3, #16	@ D.7592, D.7592,
 672              	.L55:
ARM GAS  C:\Users\Kevin\AppData\Local\Temp\cc2AQj48.s 			page 23


 673 021c 0380     		strh	r3, [r0, #0]	@ movhi	@ D.7592,* I2Cx
 674 021e 7047     		bx	lr	@
 675              		.cfi_endproc
 676              	.LFE122:
 677              		.size	I2C_StretchClockCmd, .-I2C_StretchClockCmd
 678              		.align	1
 679              		.global	I2C_FastModeDutyCycleConfig
 680              		.thumb
 681              		.thumb_func
 682              		.type	I2C_FastModeDutyCycleConfig, %function
 683              	I2C_FastModeDutyCycleConfig:
 684              	.LFB123:
 557:.\stm32f4periph\src/stm32f4xx_i2c.c ****   }
 558:.\stm32f4periph\src/stm32f4xx_i2c.c **** }
 559:.\stm32f4periph\src/stm32f4xx_i2c.c **** 
 560:.\stm32f4periph\src/stm32f4xx_i2c.c **** /**
 561:.\stm32f4periph\src/stm32f4xx_i2c.c ****   * @brief  Selects the specified I2C fast mode duty cycle.
 562:.\stm32f4periph\src/stm32f4xx_i2c.c ****   * @param  I2Cx: where x can be 1, 2 or 3 to select the I2C peripheral.
 563:.\stm32f4periph\src/stm32f4xx_i2c.c ****   * @param  I2C_DutyCycle: specifies the fast mode duty cycle.
 564:.\stm32f4periph\src/stm32f4xx_i2c.c ****   *          This parameter can be one of the following values:
 565:.\stm32f4periph\src/stm32f4xx_i2c.c ****   *            @arg I2C_DutyCycle_2: I2C fast mode Tlow/Thigh = 2
 566:.\stm32f4periph\src/stm32f4xx_i2c.c ****   *            @arg I2C_DutyCycle_16_9: I2C fast mode Tlow/Thigh = 16/9
 567:.\stm32f4periph\src/stm32f4xx_i2c.c ****   * @retval None
 568:.\stm32f4periph\src/stm32f4xx_i2c.c ****   */
 569:.\stm32f4periph\src/stm32f4xx_i2c.c **** void I2C_FastModeDutyCycleConfig(I2C_TypeDef* I2Cx, uint16_t I2C_DutyCycle)
 570:.\stm32f4periph\src/stm32f4xx_i2c.c **** {
 685              		.loc 1 570 0
 686              		.cfi_startproc
 687              		@ args = 0, pretend = 0, frame = 0
 688              		@ frame_needed = 0, uses_anonymous_args = 0
 689              		@ link register save eliminated.
 690              	.LVL54:
 571:.\stm32f4periph\src/stm32f4xx_i2c.c ****   /* Check the parameters */
 572:.\stm32f4periph\src/stm32f4xx_i2c.c ****   assert_param(IS_I2C_ALL_PERIPH(I2Cx));
 573:.\stm32f4periph\src/stm32f4xx_i2c.c ****   assert_param(IS_I2C_DUTY_CYCLE(I2C_DutyCycle));
 574:.\stm32f4periph\src/stm32f4xx_i2c.c ****   if (I2C_DutyCycle != I2C_DutyCycle_16_9)
 691              		.loc 1 574 0
 692 0220 B1F5804F 		cmp	r1, #16384	@ I2C_DutyCycle,
 575:.\stm32f4periph\src/stm32f4xx_i2c.c ****   {
 576:.\stm32f4periph\src/stm32f4xx_i2c.c ****     /* I2C fast mode Tlow/Thigh=2 */
 577:.\stm32f4periph\src/stm32f4xx_i2c.c ****     I2Cx->CCR &= I2C_DutyCycle_2;
 693              		.loc 1 577 0
 694 0224 838B     		ldrh	r3, [r0, #28]	@,
 574:.\stm32f4periph\src/stm32f4xx_i2c.c ****   if (I2C_DutyCycle != I2C_DutyCycle_16_9)
 695              		.loc 1 574 0
 696 0226 04D0     		beq	.L57	@,
 697              		.loc 1 577 0
 698 0228 23F48043 		bic	r3, r3, #16384	@ D.7582, I2Cx_2(D)->CCR,
 699 022c 1B04     		lsls	r3, r3, #16	@ D.7582, D.7582,
 700 022e 1B0C     		lsrs	r3, r3, #16	@ D.7582, D.7582,
 701 0230 02E0     		b	.L59	@
 702              	.L57:
 578:.\stm32f4periph\src/stm32f4xx_i2c.c ****   }
 579:.\stm32f4periph\src/stm32f4xx_i2c.c ****   else
 580:.\stm32f4periph\src/stm32f4xx_i2c.c ****   {
 581:.\stm32f4periph\src/stm32f4xx_i2c.c ****     /* I2C fast mode Tlow/Thigh=16/9 */
 582:.\stm32f4periph\src/stm32f4xx_i2c.c ****     I2Cx->CCR |= I2C_DutyCycle_16_9;
ARM GAS  C:\Users\Kevin\AppData\Local\Temp\cc2AQj48.s 			page 24


 703              		.loc 1 582 0
 704 0232 9BB2     		uxth	r3, r3	@ D.7584, I2Cx_2(D)->CCR
 705 0234 43F48043 		orr	r3, r3, #16384	@ D.7585, D.7584,
 706              	.L59:
 707 0238 8383     		strh	r3, [r0, #28]	@ movhi	@ D.7585,
 708 023a 7047     		bx	lr	@
 709              		.cfi_endproc
 710              	.LFE123:
 711              		.size	I2C_FastModeDutyCycleConfig, .-I2C_FastModeDutyCycleConfig
 712              		.align	1
 713              		.global	I2C_NACKPositionConfig
 714              		.thumb
 715              		.thumb_func
 716              		.type	I2C_NACKPositionConfig, %function
 717              	I2C_NACKPositionConfig:
 718              	.LFB124:
 583:.\stm32f4periph\src/stm32f4xx_i2c.c ****   }
 584:.\stm32f4periph\src/stm32f4xx_i2c.c **** }
 585:.\stm32f4periph\src/stm32f4xx_i2c.c **** 
 586:.\stm32f4periph\src/stm32f4xx_i2c.c **** /**
 587:.\stm32f4periph\src/stm32f4xx_i2c.c ****   * @brief  Selects the specified I2C NACK position in master receiver mode.
 588:.\stm32f4periph\src/stm32f4xx_i2c.c ****   * @note   This function is useful in I2C Master Receiver mode when the number
 589:.\stm32f4periph\src/stm32f4xx_i2c.c ****   *         of data to be received is equal to 2. In this case, this function 
 590:.\stm32f4periph\src/stm32f4xx_i2c.c ****   *         should be called (with parameter I2C_NACKPosition_Next) before data 
 591:.\stm32f4periph\src/stm32f4xx_i2c.c ****   *         reception starts,as described in the 2-byte reception procedure 
 592:.\stm32f4periph\src/stm32f4xx_i2c.c ****   *         recommended in Reference Manual in Section: Master receiver.                
 593:.\stm32f4periph\src/stm32f4xx_i2c.c ****   * @param  I2Cx: where x can be 1, 2 or 3 to select the I2C peripheral.
 594:.\stm32f4periph\src/stm32f4xx_i2c.c ****   * @param  I2C_NACKPosition: specifies the NACK position. 
 595:.\stm32f4periph\src/stm32f4xx_i2c.c ****   *          This parameter can be one of the following values:
 596:.\stm32f4periph\src/stm32f4xx_i2c.c ****   *            @arg I2C_NACKPosition_Next: indicates that the next byte will be the last
 597:.\stm32f4periph\src/stm32f4xx_i2c.c ****   *                                        received byte.  
 598:.\stm32f4periph\src/stm32f4xx_i2c.c ****   *            @arg I2C_NACKPosition_Current: indicates that current byte is the last 
 599:.\stm32f4periph\src/stm32f4xx_i2c.c ****   *                                           received byte.
 600:.\stm32f4periph\src/stm32f4xx_i2c.c ****   *            
 601:.\stm32f4periph\src/stm32f4xx_i2c.c ****   * @note    This function configures the same bit (POS) as I2C_PECPositionConfig() 
 602:.\stm32f4periph\src/stm32f4xx_i2c.c ****   *          but is intended to be used in I2C mode while I2C_PECPositionConfig() 
 603:.\stm32f4periph\src/stm32f4xx_i2c.c ****   *          is intended to used in SMBUS mode. 
 604:.\stm32f4periph\src/stm32f4xx_i2c.c ****   *            
 605:.\stm32f4periph\src/stm32f4xx_i2c.c ****   * @retval None
 606:.\stm32f4periph\src/stm32f4xx_i2c.c ****   */
 607:.\stm32f4periph\src/stm32f4xx_i2c.c **** void I2C_NACKPositionConfig(I2C_TypeDef* I2Cx, uint16_t I2C_NACKPosition)
 608:.\stm32f4periph\src/stm32f4xx_i2c.c **** {
 719              		.loc 1 608 0
 720              		.cfi_startproc
 721              		@ args = 0, pretend = 0, frame = 0
 722              		@ frame_needed = 0, uses_anonymous_args = 0
 723              		@ link register save eliminated.
 724              	.LVL55:
 609:.\stm32f4periph\src/stm32f4xx_i2c.c ****   /* Check the parameters */
 610:.\stm32f4periph\src/stm32f4xx_i2c.c ****   assert_param(IS_I2C_ALL_PERIPH(I2Cx));
 611:.\stm32f4periph\src/stm32f4xx_i2c.c ****   assert_param(IS_I2C_NACK_POSITION(I2C_NACKPosition));
 612:.\stm32f4periph\src/stm32f4xx_i2c.c ****   
 613:.\stm32f4periph\src/stm32f4xx_i2c.c ****   /* Check the input parameter */
 614:.\stm32f4periph\src/stm32f4xx_i2c.c ****   if (I2C_NACKPosition == I2C_NACKPosition_Next)
 725              		.loc 1 614 0
 726 023c B1F5006F 		cmp	r1, #2048	@ I2C_NACKPosition,
 615:.\stm32f4periph\src/stm32f4xx_i2c.c ****   {
ARM GAS  C:\Users\Kevin\AppData\Local\Temp\cc2AQj48.s 			page 25


 616:.\stm32f4periph\src/stm32f4xx_i2c.c ****     /* Next byte in shift register is the last received byte */
 617:.\stm32f4periph\src/stm32f4xx_i2c.c ****     I2Cx->CR1 |= I2C_NACKPosition_Next;
 727              		.loc 1 617 0
 728 0240 0388     		ldrh	r3, [r0, #0]	@,* I2Cx
 614:.\stm32f4periph\src/stm32f4xx_i2c.c ****   if (I2C_NACKPosition == I2C_NACKPosition_Next)
 729              		.loc 1 614 0
 730 0242 03D1     		bne	.L61	@,
 731              		.loc 1 617 0
 732 0244 9BB2     		uxth	r3, r3	@ D.7574, I2Cx_2(D)->CR1
 733 0246 43F40063 		orr	r3, r3, #2048	@ D.7575, D.7574,
 734 024a 03E0     		b	.L63	@
 735              	.L61:
 618:.\stm32f4periph\src/stm32f4xx_i2c.c ****   }
 619:.\stm32f4periph\src/stm32f4xx_i2c.c ****   else
 620:.\stm32f4periph\src/stm32f4xx_i2c.c ****   {
 621:.\stm32f4periph\src/stm32f4xx_i2c.c ****     /* Current byte in shift register is the last received byte */
 622:.\stm32f4periph\src/stm32f4xx_i2c.c ****     I2Cx->CR1 &= I2C_NACKPosition_Current;
 736              		.loc 1 622 0
 737 024c 23F40063 		bic	r3, r3, #2048	@ D.7578, I2Cx_2(D)->CR1,
 738 0250 1B04     		lsls	r3, r3, #16	@ D.7578, D.7578,
 739 0252 1B0C     		lsrs	r3, r3, #16	@ D.7578, D.7578,
 740              	.L63:
 741 0254 0380     		strh	r3, [r0, #0]	@ movhi	@ D.7578,* I2Cx
 742 0256 7047     		bx	lr	@
 743              		.cfi_endproc
 744              	.LFE124:
 745              		.size	I2C_NACKPositionConfig, .-I2C_NACKPositionConfig
 746              		.align	1
 747              		.global	I2C_SMBusAlertConfig
 748              		.thumb
 749              		.thumb_func
 750              		.type	I2C_SMBusAlertConfig, %function
 751              	I2C_SMBusAlertConfig:
 752              	.LFB125:
 623:.\stm32f4periph\src/stm32f4xx_i2c.c ****   }
 624:.\stm32f4periph\src/stm32f4xx_i2c.c **** }
 625:.\stm32f4periph\src/stm32f4xx_i2c.c **** 
 626:.\stm32f4periph\src/stm32f4xx_i2c.c **** /**
 627:.\stm32f4periph\src/stm32f4xx_i2c.c ****   * @brief  Drives the SMBusAlert pin high or low for the specified I2C.
 628:.\stm32f4periph\src/stm32f4xx_i2c.c ****   * @param  I2Cx: where x can be 1, 2 or 3 to select the I2C peripheral.
 629:.\stm32f4periph\src/stm32f4xx_i2c.c ****   * @param  I2C_SMBusAlert: specifies SMBAlert pin level. 
 630:.\stm32f4periph\src/stm32f4xx_i2c.c ****   *          This parameter can be one of the following values:
 631:.\stm32f4periph\src/stm32f4xx_i2c.c ****   *            @arg I2C_SMBusAlert_Low: SMBAlert pin driven low
 632:.\stm32f4periph\src/stm32f4xx_i2c.c ****   *            @arg I2C_SMBusAlert_High: SMBAlert pin driven high
 633:.\stm32f4periph\src/stm32f4xx_i2c.c ****   * @retval None
 634:.\stm32f4periph\src/stm32f4xx_i2c.c ****   */
 635:.\stm32f4periph\src/stm32f4xx_i2c.c **** void I2C_SMBusAlertConfig(I2C_TypeDef* I2Cx, uint16_t I2C_SMBusAlert)
 636:.\stm32f4periph\src/stm32f4xx_i2c.c **** {
 753              		.loc 1 636 0
 754              		.cfi_startproc
 755              		@ args = 0, pretend = 0, frame = 0
 756              		@ frame_needed = 0, uses_anonymous_args = 0
 757              		@ link register save eliminated.
 758              	.LVL56:
 637:.\stm32f4periph\src/stm32f4xx_i2c.c ****   /* Check the parameters */
 638:.\stm32f4periph\src/stm32f4xx_i2c.c ****   assert_param(IS_I2C_ALL_PERIPH(I2Cx));
 639:.\stm32f4periph\src/stm32f4xx_i2c.c ****   assert_param(IS_I2C_SMBUS_ALERT(I2C_SMBusAlert));
ARM GAS  C:\Users\Kevin\AppData\Local\Temp\cc2AQj48.s 			page 26


 640:.\stm32f4periph\src/stm32f4xx_i2c.c ****   if (I2C_SMBusAlert == I2C_SMBusAlert_Low)
 759              		.loc 1 640 0
 760 0258 B1F5005F 		cmp	r1, #8192	@ I2C_SMBusAlert,
 641:.\stm32f4periph\src/stm32f4xx_i2c.c ****   {
 642:.\stm32f4periph\src/stm32f4xx_i2c.c ****     /* Drive the SMBusAlert pin Low */
 643:.\stm32f4periph\src/stm32f4xx_i2c.c ****     I2Cx->CR1 |= I2C_SMBusAlert_Low;
 761              		.loc 1 643 0
 762 025c 0388     		ldrh	r3, [r0, #0]	@,* I2Cx
 640:.\stm32f4periph\src/stm32f4xx_i2c.c ****   if (I2C_SMBusAlert == I2C_SMBusAlert_Low)
 763              		.loc 1 640 0
 764 025e 03D1     		bne	.L65	@,
 765              		.loc 1 643 0
 766 0260 9BB2     		uxth	r3, r3	@ D.7567, I2Cx_2(D)->CR1
 767 0262 43F40053 		orr	r3, r3, #8192	@ D.7568, D.7567,
 768 0266 03E0     		b	.L67	@
 769              	.L65:
 644:.\stm32f4periph\src/stm32f4xx_i2c.c ****   }
 645:.\stm32f4periph\src/stm32f4xx_i2c.c ****   else
 646:.\stm32f4periph\src/stm32f4xx_i2c.c ****   {
 647:.\stm32f4periph\src/stm32f4xx_i2c.c ****     /* Drive the SMBusAlert pin High  */
 648:.\stm32f4periph\src/stm32f4xx_i2c.c ****     I2Cx->CR1 &= I2C_SMBusAlert_High;
 770              		.loc 1 648 0
 771 0268 23F40053 		bic	r3, r3, #8192	@ D.7571, I2Cx_2(D)->CR1,
 772 026c 1B04     		lsls	r3, r3, #16	@ D.7571, D.7571,
 773 026e 1B0C     		lsrs	r3, r3, #16	@ D.7571, D.7571,
 774              	.L67:
 775 0270 0380     		strh	r3, [r0, #0]	@ movhi	@ D.7571,* I2Cx
 776 0272 7047     		bx	lr	@
 777              		.cfi_endproc
 778              	.LFE125:
 779              		.size	I2C_SMBusAlertConfig, .-I2C_SMBusAlertConfig
 780              		.align	1
 781              		.global	I2C_ARPCmd
 782              		.thumb
 783              		.thumb_func
 784              		.type	I2C_ARPCmd, %function
 785              	I2C_ARPCmd:
 786              	.LFB126:
 649:.\stm32f4periph\src/stm32f4xx_i2c.c ****   }
 650:.\stm32f4periph\src/stm32f4xx_i2c.c **** }
 651:.\stm32f4periph\src/stm32f4xx_i2c.c **** 
 652:.\stm32f4periph\src/stm32f4xx_i2c.c **** /**
 653:.\stm32f4periph\src/stm32f4xx_i2c.c ****   * @brief  Enables or disables the specified I2C ARP.
 654:.\stm32f4periph\src/stm32f4xx_i2c.c ****   * @param  I2Cx: where x can be 1, 2 or 3 to select the I2C peripheral.
 655:.\stm32f4periph\src/stm32f4xx_i2c.c ****   * @param  NewState: new state of the I2Cx ARP. 
 656:.\stm32f4periph\src/stm32f4xx_i2c.c ****   *          This parameter can be: ENABLE or DISABLE.
 657:.\stm32f4periph\src/stm32f4xx_i2c.c ****   * @retval None
 658:.\stm32f4periph\src/stm32f4xx_i2c.c ****   */
 659:.\stm32f4periph\src/stm32f4xx_i2c.c **** void I2C_ARPCmd(I2C_TypeDef* I2Cx, FunctionalState NewState)
 660:.\stm32f4periph\src/stm32f4xx_i2c.c **** {
 787              		.loc 1 660 0
 788              		.cfi_startproc
 789              		@ args = 0, pretend = 0, frame = 0
 790              		@ frame_needed = 0, uses_anonymous_args = 0
 791              		@ link register save eliminated.
 792              	.LVL57:
 661:.\stm32f4periph\src/stm32f4xx_i2c.c ****   /* Check the parameters */
ARM GAS  C:\Users\Kevin\AppData\Local\Temp\cc2AQj48.s 			page 27


 662:.\stm32f4periph\src/stm32f4xx_i2c.c ****   assert_param(IS_I2C_ALL_PERIPH(I2Cx));
 663:.\stm32f4periph\src/stm32f4xx_i2c.c ****   assert_param(IS_FUNCTIONAL_STATE(NewState));
 664:.\stm32f4periph\src/stm32f4xx_i2c.c ****   if (NewState != DISABLE)
 665:.\stm32f4periph\src/stm32f4xx_i2c.c ****   {
 666:.\stm32f4periph\src/stm32f4xx_i2c.c ****     /* Enable the selected I2C ARP */
 667:.\stm32f4periph\src/stm32f4xx_i2c.c ****     I2Cx->CR1 |= I2C_CR1_ENARP;
 793              		.loc 1 667 0
 794 0274 0388     		ldrh	r3, [r0, #0]	@,* I2Cx
 664:.\stm32f4periph\src/stm32f4xx_i2c.c ****   if (NewState != DISABLE)
 795              		.loc 1 664 0
 796 0276 19B1     		cbz	r1, .L69	@ NewState,
 797              		.loc 1 667 0
 798 0278 9BB2     		uxth	r3, r3	@ D.7560, I2Cx_2(D)->CR1
 799 027a 43F01003 		orr	r3, r3, #16	@ D.7561, D.7560,
 800 027e 03E0     		b	.L71	@
 801              	.L69:
 668:.\stm32f4periph\src/stm32f4xx_i2c.c ****   }
 669:.\stm32f4periph\src/stm32f4xx_i2c.c ****   else
 670:.\stm32f4periph\src/stm32f4xx_i2c.c ****   {
 671:.\stm32f4periph\src/stm32f4xx_i2c.c ****     /* Disable the selected I2C ARP */
 672:.\stm32f4periph\src/stm32f4xx_i2c.c ****     I2Cx->CR1 &= (uint16_t)~((uint16_t)I2C_CR1_ENARP);
 802              		.loc 1 672 0
 803 0280 23F01003 		bic	r3, r3, #16	@ D.7564, I2Cx_2(D)->CR1,
 804 0284 1B04     		lsls	r3, r3, #16	@ D.7564, D.7564,
 805 0286 1B0C     		lsrs	r3, r3, #16	@ D.7564, D.7564,
 806              	.L71:
 807 0288 0380     		strh	r3, [r0, #0]	@ movhi	@ D.7564,* I2Cx
 808 028a 7047     		bx	lr	@
 809              		.cfi_endproc
 810              	.LFE126:
 811              		.size	I2C_ARPCmd, .-I2C_ARPCmd
 812              		.align	1
 813              		.global	I2C_SendData
 814              		.thumb
 815              		.thumb_func
 816              		.type	I2C_SendData, %function
 817              	I2C_SendData:
 818              	.LFB127:
 673:.\stm32f4periph\src/stm32f4xx_i2c.c ****   }
 674:.\stm32f4periph\src/stm32f4xx_i2c.c **** }
 675:.\stm32f4periph\src/stm32f4xx_i2c.c **** /**
 676:.\stm32f4periph\src/stm32f4xx_i2c.c ****   * @}
 677:.\stm32f4periph\src/stm32f4xx_i2c.c ****   */
 678:.\stm32f4periph\src/stm32f4xx_i2c.c **** 
 679:.\stm32f4periph\src/stm32f4xx_i2c.c **** /** @defgroup I2C_Group2 Data transfers functions
 680:.\stm32f4periph\src/stm32f4xx_i2c.c ****  *  @brief   Data transfers functions 
 681:.\stm32f4periph\src/stm32f4xx_i2c.c ****  *
 682:.\stm32f4periph\src/stm32f4xx_i2c.c **** @verbatim   
 683:.\stm32f4periph\src/stm32f4xx_i2c.c ****  ===============================================================================
 684:.\stm32f4periph\src/stm32f4xx_i2c.c ****                         Data transfers functions
 685:.\stm32f4periph\src/stm32f4xx_i2c.c ****  ===============================================================================  
 686:.\stm32f4periph\src/stm32f4xx_i2c.c **** 
 687:.\stm32f4periph\src/stm32f4xx_i2c.c **** @endverbatim
 688:.\stm32f4periph\src/stm32f4xx_i2c.c ****   * @{
 689:.\stm32f4periph\src/stm32f4xx_i2c.c ****   */
 690:.\stm32f4periph\src/stm32f4xx_i2c.c **** 
 691:.\stm32f4periph\src/stm32f4xx_i2c.c **** /**
ARM GAS  C:\Users\Kevin\AppData\Local\Temp\cc2AQj48.s 			page 28


 692:.\stm32f4periph\src/stm32f4xx_i2c.c ****   * @brief  Sends a data byte through the I2Cx peripheral.
 693:.\stm32f4periph\src/stm32f4xx_i2c.c ****   * @param  I2Cx: where x can be 1, 2 or 3 to select the I2C peripheral.
 694:.\stm32f4periph\src/stm32f4xx_i2c.c ****   * @param  Data: Byte to be transmitted..
 695:.\stm32f4periph\src/stm32f4xx_i2c.c ****   * @retval None
 696:.\stm32f4periph\src/stm32f4xx_i2c.c ****   */
 697:.\stm32f4periph\src/stm32f4xx_i2c.c **** void I2C_SendData(I2C_TypeDef* I2Cx, uint8_t Data)
 698:.\stm32f4periph\src/stm32f4xx_i2c.c **** {
 819              		.loc 1 698 0
 820              		.cfi_startproc
 821              		@ args = 0, pretend = 0, frame = 0
 822              		@ frame_needed = 0, uses_anonymous_args = 0
 823              		@ link register save eliminated.
 824              	.LVL58:
 699:.\stm32f4periph\src/stm32f4xx_i2c.c ****   /* Check the parameters */
 700:.\stm32f4periph\src/stm32f4xx_i2c.c ****   assert_param(IS_I2C_ALL_PERIPH(I2Cx));
 701:.\stm32f4periph\src/stm32f4xx_i2c.c ****   /* Write in the DR register the data to be sent */
 702:.\stm32f4periph\src/stm32f4xx_i2c.c ****   I2Cx->DR = Data;
 825              		.loc 1 702 0
 826 028c 0182     		strh	r1, [r0, #16]	@ movhi	@ Data, I2Cx_3(D)->DR
 827 028e 7047     		bx	lr	@
 828              		.cfi_endproc
 829              	.LFE127:
 830              		.size	I2C_SendData, .-I2C_SendData
 831              		.align	1
 832              		.global	I2C_ReceiveData
 833              		.thumb
 834              		.thumb_func
 835              		.type	I2C_ReceiveData, %function
 836              	I2C_ReceiveData:
 837              	.LFB128:
 703:.\stm32f4periph\src/stm32f4xx_i2c.c **** }
 704:.\stm32f4periph\src/stm32f4xx_i2c.c **** 
 705:.\stm32f4periph\src/stm32f4xx_i2c.c **** /**
 706:.\stm32f4periph\src/stm32f4xx_i2c.c ****   * @brief  Returns the most recent received data by the I2Cx peripheral.
 707:.\stm32f4periph\src/stm32f4xx_i2c.c ****   * @param  I2Cx: where x can be 1, 2 or 3 to select the I2C peripheral.
 708:.\stm32f4periph\src/stm32f4xx_i2c.c ****   * @retval The value of the received data.
 709:.\stm32f4periph\src/stm32f4xx_i2c.c ****   */
 710:.\stm32f4periph\src/stm32f4xx_i2c.c **** uint8_t I2C_ReceiveData(I2C_TypeDef* I2Cx)
 711:.\stm32f4periph\src/stm32f4xx_i2c.c **** {
 838              		.loc 1 711 0
 839              		.cfi_startproc
 840              		@ args = 0, pretend = 0, frame = 0
 841              		@ frame_needed = 0, uses_anonymous_args = 0
 842              		@ link register save eliminated.
 843              	.LVL59:
 712:.\stm32f4periph\src/stm32f4xx_i2c.c ****   /* Check the parameters */
 713:.\stm32f4periph\src/stm32f4xx_i2c.c ****   assert_param(IS_I2C_ALL_PERIPH(I2Cx));
 714:.\stm32f4periph\src/stm32f4xx_i2c.c ****   /* Return the data in the DR register */
 715:.\stm32f4periph\src/stm32f4xx_i2c.c ****   return (uint8_t)I2Cx->DR;
 844              		.loc 1 715 0
 845 0290 008A     		ldrh	r0, [r0, #16]	@, I2Cx_1(D)->DR
 846              	.LVL60:
 716:.\stm32f4periph\src/stm32f4xx_i2c.c **** }
 847              		.loc 1 716 0
 848 0292 C0B2     		uxtb	r0, r0	@, I2Cx_1(D)->DR
 849 0294 7047     		bx	lr	@
 850              		.cfi_endproc
ARM GAS  C:\Users\Kevin\AppData\Local\Temp\cc2AQj48.s 			page 29


 851              	.LFE128:
 852              		.size	I2C_ReceiveData, .-I2C_ReceiveData
 853              		.align	1
 854              		.global	I2C_TransmitPEC
 855              		.thumb
 856              		.thumb_func
 857              		.type	I2C_TransmitPEC, %function
 858              	I2C_TransmitPEC:
 859              	.LFB129:
 717:.\stm32f4periph\src/stm32f4xx_i2c.c **** 
 718:.\stm32f4periph\src/stm32f4xx_i2c.c **** /**
 719:.\stm32f4periph\src/stm32f4xx_i2c.c ****   * @}
 720:.\stm32f4periph\src/stm32f4xx_i2c.c ****   */
 721:.\stm32f4periph\src/stm32f4xx_i2c.c **** 
 722:.\stm32f4periph\src/stm32f4xx_i2c.c **** /** @defgroup I2C_Group3 PEC management functions
 723:.\stm32f4periph\src/stm32f4xx_i2c.c ****  *  @brief   PEC management functions 
 724:.\stm32f4periph\src/stm32f4xx_i2c.c ****  *
 725:.\stm32f4periph\src/stm32f4xx_i2c.c **** @verbatim   
 726:.\stm32f4periph\src/stm32f4xx_i2c.c ****  ===============================================================================
 727:.\stm32f4periph\src/stm32f4xx_i2c.c ****                          PEC management functions
 728:.\stm32f4periph\src/stm32f4xx_i2c.c ****  ===============================================================================  
 729:.\stm32f4periph\src/stm32f4xx_i2c.c **** 
 730:.\stm32f4periph\src/stm32f4xx_i2c.c **** @endverbatim
 731:.\stm32f4periph\src/stm32f4xx_i2c.c ****   * @{
 732:.\stm32f4periph\src/stm32f4xx_i2c.c ****   */
 733:.\stm32f4periph\src/stm32f4xx_i2c.c **** 
 734:.\stm32f4periph\src/stm32f4xx_i2c.c **** /**
 735:.\stm32f4periph\src/stm32f4xx_i2c.c ****   * @brief  Enables or disables the specified I2C PEC transfer.
 736:.\stm32f4periph\src/stm32f4xx_i2c.c ****   * @param  I2Cx: where x can be 1, 2 or 3 to select the I2C peripheral.
 737:.\stm32f4periph\src/stm32f4xx_i2c.c ****   * @param  NewState: new state of the I2C PEC transmission.
 738:.\stm32f4periph\src/stm32f4xx_i2c.c ****   *          This parameter can be: ENABLE or DISABLE.
 739:.\stm32f4periph\src/stm32f4xx_i2c.c ****   * @retval None
 740:.\stm32f4periph\src/stm32f4xx_i2c.c ****   */
 741:.\stm32f4periph\src/stm32f4xx_i2c.c **** void I2C_TransmitPEC(I2C_TypeDef* I2Cx, FunctionalState NewState)
 742:.\stm32f4periph\src/stm32f4xx_i2c.c **** {
 860              		.loc 1 742 0
 861              		.cfi_startproc
 862              		@ args = 0, pretend = 0, frame = 0
 863              		@ frame_needed = 0, uses_anonymous_args = 0
 864              		@ link register save eliminated.
 865              	.LVL61:
 743:.\stm32f4periph\src/stm32f4xx_i2c.c ****   /* Check the parameters */
 744:.\stm32f4periph\src/stm32f4xx_i2c.c ****   assert_param(IS_I2C_ALL_PERIPH(I2Cx));
 745:.\stm32f4periph\src/stm32f4xx_i2c.c ****   assert_param(IS_FUNCTIONAL_STATE(NewState));
 746:.\stm32f4periph\src/stm32f4xx_i2c.c ****   if (NewState != DISABLE)
 747:.\stm32f4periph\src/stm32f4xx_i2c.c ****   {
 748:.\stm32f4periph\src/stm32f4xx_i2c.c ****     /* Enable the selected I2C PEC transmission */
 749:.\stm32f4periph\src/stm32f4xx_i2c.c ****     I2Cx->CR1 |= I2C_CR1_PEC;
 866              		.loc 1 749 0
 867 0296 0388     		ldrh	r3, [r0, #0]	@,* I2Cx
 746:.\stm32f4periph\src/stm32f4xx_i2c.c ****   if (NewState != DISABLE)
 868              		.loc 1 746 0
 869 0298 19B1     		cbz	r1, .L75	@ NewState,
 870              		.loc 1 749 0
 871 029a 9BB2     		uxth	r3, r3	@ D.7549, I2Cx_2(D)->CR1
 872 029c 43F48053 		orr	r3, r3, #4096	@ D.7550, D.7549,
 873 02a0 03E0     		b	.L77	@
ARM GAS  C:\Users\Kevin\AppData\Local\Temp\cc2AQj48.s 			page 30


 874              	.L75:
 750:.\stm32f4periph\src/stm32f4xx_i2c.c ****   }
 751:.\stm32f4periph\src/stm32f4xx_i2c.c ****   else
 752:.\stm32f4periph\src/stm32f4xx_i2c.c ****   {
 753:.\stm32f4periph\src/stm32f4xx_i2c.c ****     /* Disable the selected I2C PEC transmission */
 754:.\stm32f4periph\src/stm32f4xx_i2c.c ****     I2Cx->CR1 &= (uint16_t)~((uint16_t)I2C_CR1_PEC);
 875              		.loc 1 754 0
 876 02a2 23F48053 		bic	r3, r3, #4096	@ D.7553, I2Cx_2(D)->CR1,
 877 02a6 1B04     		lsls	r3, r3, #16	@ D.7553, D.7553,
 878 02a8 1B0C     		lsrs	r3, r3, #16	@ D.7553, D.7553,
 879              	.L77:
 880 02aa 0380     		strh	r3, [r0, #0]	@ movhi	@ D.7553,* I2Cx
 881 02ac 7047     		bx	lr	@
 882              		.cfi_endproc
 883              	.LFE129:
 884              		.size	I2C_TransmitPEC, .-I2C_TransmitPEC
 885              		.align	1
 886              		.global	I2C_PECPositionConfig
 887              		.thumb
 888              		.thumb_func
 889              		.type	I2C_PECPositionConfig, %function
 890              	I2C_PECPositionConfig:
 891              	.LFB130:
 755:.\stm32f4periph\src/stm32f4xx_i2c.c ****   }
 756:.\stm32f4periph\src/stm32f4xx_i2c.c **** }
 757:.\stm32f4periph\src/stm32f4xx_i2c.c **** 
 758:.\stm32f4periph\src/stm32f4xx_i2c.c **** /**
 759:.\stm32f4periph\src/stm32f4xx_i2c.c ****   * @brief  Selects the specified I2C PEC position.
 760:.\stm32f4periph\src/stm32f4xx_i2c.c ****   * @param  I2Cx: where x can be 1, 2 or 3 to select the I2C peripheral.
 761:.\stm32f4periph\src/stm32f4xx_i2c.c ****   * @param  I2C_PECPosition: specifies the PEC position. 
 762:.\stm32f4periph\src/stm32f4xx_i2c.c ****   *          This parameter can be one of the following values:
 763:.\stm32f4periph\src/stm32f4xx_i2c.c ****   *            @arg I2C_PECPosition_Next: indicates that the next byte is PEC
 764:.\stm32f4periph\src/stm32f4xx_i2c.c ****   *            @arg I2C_PECPosition_Current: indicates that current byte is PEC
 765:.\stm32f4periph\src/stm32f4xx_i2c.c ****   *       
 766:.\stm32f4periph\src/stm32f4xx_i2c.c ****   * @note    This function configures the same bit (POS) as I2C_NACKPositionConfig()
 767:.\stm32f4periph\src/stm32f4xx_i2c.c ****   *          but is intended to be used in SMBUS mode while I2C_NACKPositionConfig() 
 768:.\stm32f4periph\src/stm32f4xx_i2c.c ****   *          is intended to used in I2C mode.
 769:.\stm32f4periph\src/stm32f4xx_i2c.c ****   *                
 770:.\stm32f4periph\src/stm32f4xx_i2c.c ****   * @retval None
 771:.\stm32f4periph\src/stm32f4xx_i2c.c ****   */
 772:.\stm32f4periph\src/stm32f4xx_i2c.c **** void I2C_PECPositionConfig(I2C_TypeDef* I2Cx, uint16_t I2C_PECPosition)
 773:.\stm32f4periph\src/stm32f4xx_i2c.c **** {
 892              		.loc 1 773 0
 893              		.cfi_startproc
 894              		@ args = 0, pretend = 0, frame = 0
 895              		@ frame_needed = 0, uses_anonymous_args = 0
 896              		@ link register save eliminated.
 897              	.LVL62:
 774:.\stm32f4periph\src/stm32f4xx_i2c.c ****   /* Check the parameters */
 775:.\stm32f4periph\src/stm32f4xx_i2c.c ****   assert_param(IS_I2C_ALL_PERIPH(I2Cx));
 776:.\stm32f4periph\src/stm32f4xx_i2c.c ****   assert_param(IS_I2C_PEC_POSITION(I2C_PECPosition));
 777:.\stm32f4periph\src/stm32f4xx_i2c.c ****   if (I2C_PECPosition == I2C_PECPosition_Next)
 898              		.loc 1 777 0
 899 02ae B1F5006F 		cmp	r1, #2048	@ I2C_PECPosition,
 778:.\stm32f4periph\src/stm32f4xx_i2c.c ****   {
 779:.\stm32f4periph\src/stm32f4xx_i2c.c ****     /* Next byte in shift register is PEC */
 780:.\stm32f4periph\src/stm32f4xx_i2c.c ****     I2Cx->CR1 |= I2C_PECPosition_Next;
ARM GAS  C:\Users\Kevin\AppData\Local\Temp\cc2AQj48.s 			page 31


 900              		.loc 1 780 0
 901 02b2 0388     		ldrh	r3, [r0, #0]	@,* I2Cx
 777:.\stm32f4periph\src/stm32f4xx_i2c.c ****   if (I2C_PECPosition == I2C_PECPosition_Next)
 902              		.loc 1 777 0
 903 02b4 03D1     		bne	.L79	@,
 904              		.loc 1 780 0
 905 02b6 9BB2     		uxth	r3, r3	@ D.7542, I2Cx_2(D)->CR1
 906 02b8 43F40063 		orr	r3, r3, #2048	@ D.7543, D.7542,
 907 02bc 03E0     		b	.L81	@
 908              	.L79:
 781:.\stm32f4periph\src/stm32f4xx_i2c.c ****   }
 782:.\stm32f4periph\src/stm32f4xx_i2c.c ****   else
 783:.\stm32f4periph\src/stm32f4xx_i2c.c ****   {
 784:.\stm32f4periph\src/stm32f4xx_i2c.c ****     /* Current byte in shift register is PEC */
 785:.\stm32f4periph\src/stm32f4xx_i2c.c ****     I2Cx->CR1 &= I2C_PECPosition_Current;
 909              		.loc 1 785 0
 910 02be 23F40063 		bic	r3, r3, #2048	@ D.7546, I2Cx_2(D)->CR1,
 911 02c2 1B04     		lsls	r3, r3, #16	@ D.7546, D.7546,
 912 02c4 1B0C     		lsrs	r3, r3, #16	@ D.7546, D.7546,
 913              	.L81:
 914 02c6 0380     		strh	r3, [r0, #0]	@ movhi	@ D.7546,* I2Cx
 915 02c8 7047     		bx	lr	@
 916              		.cfi_endproc
 917              	.LFE130:
 918              		.size	I2C_PECPositionConfig, .-I2C_PECPositionConfig
 919              		.align	1
 920              		.global	I2C_CalculatePEC
 921              		.thumb
 922              		.thumb_func
 923              		.type	I2C_CalculatePEC, %function
 924              	I2C_CalculatePEC:
 925              	.LFB131:
 786:.\stm32f4periph\src/stm32f4xx_i2c.c ****   }
 787:.\stm32f4periph\src/stm32f4xx_i2c.c **** }
 788:.\stm32f4periph\src/stm32f4xx_i2c.c **** 
 789:.\stm32f4periph\src/stm32f4xx_i2c.c **** /**
 790:.\stm32f4periph\src/stm32f4xx_i2c.c ****   * @brief  Enables or disables the PEC value calculation of the transferred bytes.
 791:.\stm32f4periph\src/stm32f4xx_i2c.c ****   * @param  I2Cx: where x can be 1, 2 or 3 to select the I2C peripheral.
 792:.\stm32f4periph\src/stm32f4xx_i2c.c ****   * @param  NewState: new state of the I2Cx PEC value calculation.
 793:.\stm32f4periph\src/stm32f4xx_i2c.c ****   *          This parameter can be: ENABLE or DISABLE.
 794:.\stm32f4periph\src/stm32f4xx_i2c.c ****   * @retval None
 795:.\stm32f4periph\src/stm32f4xx_i2c.c ****   */
 796:.\stm32f4periph\src/stm32f4xx_i2c.c **** void I2C_CalculatePEC(I2C_TypeDef* I2Cx, FunctionalState NewState)
 797:.\stm32f4periph\src/stm32f4xx_i2c.c **** {
 926              		.loc 1 797 0
 927              		.cfi_startproc
 928              		@ args = 0, pretend = 0, frame = 0
 929              		@ frame_needed = 0, uses_anonymous_args = 0
 930              		@ link register save eliminated.
 931              	.LVL63:
 798:.\stm32f4periph\src/stm32f4xx_i2c.c ****   /* Check the parameters */
 799:.\stm32f4periph\src/stm32f4xx_i2c.c ****   assert_param(IS_I2C_ALL_PERIPH(I2Cx));
 800:.\stm32f4periph\src/stm32f4xx_i2c.c ****   assert_param(IS_FUNCTIONAL_STATE(NewState));
 801:.\stm32f4periph\src/stm32f4xx_i2c.c ****   if (NewState != DISABLE)
 802:.\stm32f4periph\src/stm32f4xx_i2c.c ****   {
 803:.\stm32f4periph\src/stm32f4xx_i2c.c ****     /* Enable the selected I2C PEC calculation */
 804:.\stm32f4periph\src/stm32f4xx_i2c.c ****     I2Cx->CR1 |= I2C_CR1_ENPEC;
ARM GAS  C:\Users\Kevin\AppData\Local\Temp\cc2AQj48.s 			page 32


 932              		.loc 1 804 0
 933 02ca 0388     		ldrh	r3, [r0, #0]	@,* I2Cx
 801:.\stm32f4periph\src/stm32f4xx_i2c.c ****   if (NewState != DISABLE)
 934              		.loc 1 801 0
 935 02cc 19B1     		cbz	r1, .L83	@ NewState,
 936              		.loc 1 804 0
 937 02ce 9BB2     		uxth	r3, r3	@ D.7535, I2Cx_2(D)->CR1
 938 02d0 43F02003 		orr	r3, r3, #32	@ D.7536, D.7535,
 939 02d4 03E0     		b	.L85	@
 940              	.L83:
 805:.\stm32f4periph\src/stm32f4xx_i2c.c ****   }
 806:.\stm32f4periph\src/stm32f4xx_i2c.c ****   else
 807:.\stm32f4periph\src/stm32f4xx_i2c.c ****   {
 808:.\stm32f4periph\src/stm32f4xx_i2c.c ****     /* Disable the selected I2C PEC calculation */
 809:.\stm32f4periph\src/stm32f4xx_i2c.c ****     I2Cx->CR1 &= (uint16_t)~((uint16_t)I2C_CR1_ENPEC);
 941              		.loc 1 809 0
 942 02d6 23F02003 		bic	r3, r3, #32	@ D.7539, I2Cx_2(D)->CR1,
 943 02da 1B04     		lsls	r3, r3, #16	@ D.7539, D.7539,
 944 02dc 1B0C     		lsrs	r3, r3, #16	@ D.7539, D.7539,
 945              	.L85:
 946 02de 0380     		strh	r3, [r0, #0]	@ movhi	@ D.7539,* I2Cx
 947 02e0 7047     		bx	lr	@
 948              		.cfi_endproc
 949              	.LFE131:
 950              		.size	I2C_CalculatePEC, .-I2C_CalculatePEC
 951              		.align	1
 952              		.global	I2C_GetPEC
 953              		.thumb
 954              		.thumb_func
 955              		.type	I2C_GetPEC, %function
 956              	I2C_GetPEC:
 957              	.LFB132:
 810:.\stm32f4periph\src/stm32f4xx_i2c.c ****   }
 811:.\stm32f4periph\src/stm32f4xx_i2c.c **** }
 812:.\stm32f4periph\src/stm32f4xx_i2c.c **** 
 813:.\stm32f4periph\src/stm32f4xx_i2c.c **** /**
 814:.\stm32f4periph\src/stm32f4xx_i2c.c ****   * @brief  Returns the PEC value for the specified I2C.
 815:.\stm32f4periph\src/stm32f4xx_i2c.c ****   * @param  I2Cx: where x can be 1, 2 or 3 to select the I2C peripheral.
 816:.\stm32f4periph\src/stm32f4xx_i2c.c ****   * @retval The PEC value.
 817:.\stm32f4periph\src/stm32f4xx_i2c.c ****   */
 818:.\stm32f4periph\src/stm32f4xx_i2c.c **** uint8_t I2C_GetPEC(I2C_TypeDef* I2Cx)
 819:.\stm32f4periph\src/stm32f4xx_i2c.c **** {
 958              		.loc 1 819 0
 959              		.cfi_startproc
 960              		@ args = 0, pretend = 0, frame = 0
 961              		@ frame_needed = 0, uses_anonymous_args = 0
 962              		@ link register save eliminated.
 963              	.LVL64:
 820:.\stm32f4periph\src/stm32f4xx_i2c.c ****   /* Check the parameters */
 821:.\stm32f4periph\src/stm32f4xx_i2c.c ****   assert_param(IS_I2C_ALL_PERIPH(I2Cx));
 822:.\stm32f4periph\src/stm32f4xx_i2c.c ****   /* Return the selected I2C PEC value */
 823:.\stm32f4periph\src/stm32f4xx_i2c.c ****   return ((I2Cx->SR2) >> 8);
 964              		.loc 1 823 0
 965 02e2 008B     		ldrh	r0, [r0, #24]	@, I2Cx_1(D)->SR2
 966              	.LVL65:
 824:.\stm32f4periph\src/stm32f4xx_i2c.c **** }
 967              		.loc 1 824 0
ARM GAS  C:\Users\Kevin\AppData\Local\Temp\cc2AQj48.s 			page 33


 968 02e4 C0F30720 		ubfx	r0, r0, #8, #8	@, I2Cx_1(D)->SR2,,
 969 02e8 7047     		bx	lr	@
 970              		.cfi_endproc
 971              	.LFE132:
 972              		.size	I2C_GetPEC, .-I2C_GetPEC
 973              		.align	1
 974              		.global	I2C_DMACmd
 975              		.thumb
 976              		.thumb_func
 977              		.type	I2C_DMACmd, %function
 978              	I2C_DMACmd:
 979              	.LFB133:
 825:.\stm32f4periph\src/stm32f4xx_i2c.c **** 
 826:.\stm32f4periph\src/stm32f4xx_i2c.c **** /**
 827:.\stm32f4periph\src/stm32f4xx_i2c.c ****   * @}
 828:.\stm32f4periph\src/stm32f4xx_i2c.c ****   */
 829:.\stm32f4periph\src/stm32f4xx_i2c.c **** 
 830:.\stm32f4periph\src/stm32f4xx_i2c.c **** /** @defgroup I2C_Group4 DMA transfers management functions
 831:.\stm32f4periph\src/stm32f4xx_i2c.c ****  *  @brief   DMA transfers management functions 
 832:.\stm32f4periph\src/stm32f4xx_i2c.c ****  *
 833:.\stm32f4periph\src/stm32f4xx_i2c.c **** @verbatim   
 834:.\stm32f4periph\src/stm32f4xx_i2c.c ****  ===============================================================================
 835:.\stm32f4periph\src/stm32f4xx_i2c.c ****                          DMA transfers management functions
 836:.\stm32f4periph\src/stm32f4xx_i2c.c ****  ===============================================================================  
 837:.\stm32f4periph\src/stm32f4xx_i2c.c ****   This section provides functions allowing to configure the I2C DMA channels 
 838:.\stm32f4periph\src/stm32f4xx_i2c.c ****   requests.
 839:.\stm32f4periph\src/stm32f4xx_i2c.c ****   
 840:.\stm32f4periph\src/stm32f4xx_i2c.c **** @endverbatim
 841:.\stm32f4periph\src/stm32f4xx_i2c.c ****   * @{
 842:.\stm32f4periph\src/stm32f4xx_i2c.c ****   */
 843:.\stm32f4periph\src/stm32f4xx_i2c.c **** 
 844:.\stm32f4periph\src/stm32f4xx_i2c.c **** /**
 845:.\stm32f4periph\src/stm32f4xx_i2c.c ****   * @brief  Enables or disables the specified I2C DMA requests.
 846:.\stm32f4periph\src/stm32f4xx_i2c.c ****   * @param  I2Cx: where x can be 1, 2 or 3 to select the I2C peripheral.
 847:.\stm32f4periph\src/stm32f4xx_i2c.c ****   * @param  NewState: new state of the I2C DMA transfer.
 848:.\stm32f4periph\src/stm32f4xx_i2c.c ****   *          This parameter can be: ENABLE or DISABLE.
 849:.\stm32f4periph\src/stm32f4xx_i2c.c ****   * @retval None
 850:.\stm32f4periph\src/stm32f4xx_i2c.c ****   */
 851:.\stm32f4periph\src/stm32f4xx_i2c.c **** void I2C_DMACmd(I2C_TypeDef* I2Cx, FunctionalState NewState)
 852:.\stm32f4periph\src/stm32f4xx_i2c.c **** {
 980              		.loc 1 852 0
 981              		.cfi_startproc
 982              		@ args = 0, pretend = 0, frame = 0
 983              		@ frame_needed = 0, uses_anonymous_args = 0
 984              		@ link register save eliminated.
 985              	.LVL66:
 853:.\stm32f4periph\src/stm32f4xx_i2c.c ****   /* Check the parameters */
 854:.\stm32f4periph\src/stm32f4xx_i2c.c ****   assert_param(IS_I2C_ALL_PERIPH(I2Cx));
 855:.\stm32f4periph\src/stm32f4xx_i2c.c ****   assert_param(IS_FUNCTIONAL_STATE(NewState));
 856:.\stm32f4periph\src/stm32f4xx_i2c.c ****   if (NewState != DISABLE)
 857:.\stm32f4periph\src/stm32f4xx_i2c.c ****   {
 858:.\stm32f4periph\src/stm32f4xx_i2c.c ****     /* Enable the selected I2C DMA requests */
 859:.\stm32f4periph\src/stm32f4xx_i2c.c ****     I2Cx->CR2 |= I2C_CR2_DMAEN;
 986              		.loc 1 859 0
 987 02ea 8388     		ldrh	r3, [r0, #4]	@,
 856:.\stm32f4periph\src/stm32f4xx_i2c.c ****   if (NewState != DISABLE)
 988              		.loc 1 856 0
ARM GAS  C:\Users\Kevin\AppData\Local\Temp\cc2AQj48.s 			page 34


 989 02ec 19B1     		cbz	r1, .L88	@ NewState,
 990              		.loc 1 859 0
 991 02ee 9BB2     		uxth	r3, r3	@ D.7524, I2Cx_2(D)->CR2
 992 02f0 43F40063 		orr	r3, r3, #2048	@ D.7525, D.7524,
 993 02f4 03E0     		b	.L90	@
 994              	.L88:
 860:.\stm32f4periph\src/stm32f4xx_i2c.c ****   }
 861:.\stm32f4periph\src/stm32f4xx_i2c.c ****   else
 862:.\stm32f4periph\src/stm32f4xx_i2c.c ****   {
 863:.\stm32f4periph\src/stm32f4xx_i2c.c ****     /* Disable the selected I2C DMA requests */
 864:.\stm32f4periph\src/stm32f4xx_i2c.c ****     I2Cx->CR2 &= (uint16_t)~((uint16_t)I2C_CR2_DMAEN);
 995              		.loc 1 864 0
 996 02f6 23F40063 		bic	r3, r3, #2048	@ D.7528, I2Cx_2(D)->CR2,
 997 02fa 1B04     		lsls	r3, r3, #16	@ D.7528, D.7528,
 998 02fc 1B0C     		lsrs	r3, r3, #16	@ D.7528, D.7528,
 999              	.L90:
 1000 02fe 8380     		strh	r3, [r0, #4]	@ movhi	@ D.7528,
 1001 0300 7047     		bx	lr	@
 1002              		.cfi_endproc
 1003              	.LFE133:
 1004              		.size	I2C_DMACmd, .-I2C_DMACmd
 1005              		.align	1
 1006              		.global	I2C_DMALastTransferCmd
 1007              		.thumb
 1008              		.thumb_func
 1009              		.type	I2C_DMALastTransferCmd, %function
 1010              	I2C_DMALastTransferCmd:
 1011              	.LFB134:
 865:.\stm32f4periph\src/stm32f4xx_i2c.c ****   }
 866:.\stm32f4periph\src/stm32f4xx_i2c.c **** }
 867:.\stm32f4periph\src/stm32f4xx_i2c.c **** 
 868:.\stm32f4periph\src/stm32f4xx_i2c.c **** /**
 869:.\stm32f4periph\src/stm32f4xx_i2c.c ****   * @brief  Specifies that the next DMA transfer is the last one.
 870:.\stm32f4periph\src/stm32f4xx_i2c.c ****   * @param  I2Cx: where x can be 1, 2 or 3 to select the I2C peripheral.
 871:.\stm32f4periph\src/stm32f4xx_i2c.c ****   * @param  NewState: new state of the I2C DMA last transfer.
 872:.\stm32f4periph\src/stm32f4xx_i2c.c ****   *          This parameter can be: ENABLE or DISABLE.
 873:.\stm32f4periph\src/stm32f4xx_i2c.c ****   * @retval None
 874:.\stm32f4periph\src/stm32f4xx_i2c.c ****   */
 875:.\stm32f4periph\src/stm32f4xx_i2c.c **** void I2C_DMALastTransferCmd(I2C_TypeDef* I2Cx, FunctionalState NewState)
 876:.\stm32f4periph\src/stm32f4xx_i2c.c **** {
 1012              		.loc 1 876 0
 1013              		.cfi_startproc
 1014              		@ args = 0, pretend = 0, frame = 0
 1015              		@ frame_needed = 0, uses_anonymous_args = 0
 1016              		@ link register save eliminated.
 1017              	.LVL67:
 877:.\stm32f4periph\src/stm32f4xx_i2c.c ****   /* Check the parameters */
 878:.\stm32f4periph\src/stm32f4xx_i2c.c ****   assert_param(IS_I2C_ALL_PERIPH(I2Cx));
 879:.\stm32f4periph\src/stm32f4xx_i2c.c ****   assert_param(IS_FUNCTIONAL_STATE(NewState));
 880:.\stm32f4periph\src/stm32f4xx_i2c.c ****   if (NewState != DISABLE)
 881:.\stm32f4periph\src/stm32f4xx_i2c.c ****   {
 882:.\stm32f4periph\src/stm32f4xx_i2c.c ****     /* Next DMA transfer is the last transfer */
 883:.\stm32f4periph\src/stm32f4xx_i2c.c ****     I2Cx->CR2 |= I2C_CR2_LAST;
 1018              		.loc 1 883 0
 1019 0302 8388     		ldrh	r3, [r0, #4]	@,
 880:.\stm32f4periph\src/stm32f4xx_i2c.c ****   if (NewState != DISABLE)
 1020              		.loc 1 880 0
ARM GAS  C:\Users\Kevin\AppData\Local\Temp\cc2AQj48.s 			page 35


 1021 0304 19B1     		cbz	r1, .L92	@ NewState,
 1022              		.loc 1 883 0
 1023 0306 9BB2     		uxth	r3, r3	@ D.7517, I2Cx_2(D)->CR2
 1024 0308 43F48053 		orr	r3, r3, #4096	@ D.7518, D.7517,
 1025 030c 03E0     		b	.L94	@
 1026              	.L92:
 884:.\stm32f4periph\src/stm32f4xx_i2c.c ****   }
 885:.\stm32f4periph\src/stm32f4xx_i2c.c ****   else
 886:.\stm32f4periph\src/stm32f4xx_i2c.c ****   {
 887:.\stm32f4periph\src/stm32f4xx_i2c.c ****     /* Next DMA transfer is not the last transfer */
 888:.\stm32f4periph\src/stm32f4xx_i2c.c ****     I2Cx->CR2 &= (uint16_t)~((uint16_t)I2C_CR2_LAST);
 1027              		.loc 1 888 0
 1028 030e 23F48053 		bic	r3, r3, #4096	@ D.7521, I2Cx_2(D)->CR2,
 1029 0312 1B04     		lsls	r3, r3, #16	@ D.7521, D.7521,
 1030 0314 1B0C     		lsrs	r3, r3, #16	@ D.7521, D.7521,
 1031              	.L94:
 1032 0316 8380     		strh	r3, [r0, #4]	@ movhi	@ D.7521,
 1033 0318 7047     		bx	lr	@
 1034              		.cfi_endproc
 1035              	.LFE134:
 1036              		.size	I2C_DMALastTransferCmd, .-I2C_DMALastTransferCmd
 1037              		.align	1
 1038              		.global	I2C_ReadRegister
 1039              		.thumb
 1040              		.thumb_func
 1041              		.type	I2C_ReadRegister, %function
 1042              	I2C_ReadRegister:
 1043              	.LFB135:
 889:.\stm32f4periph\src/stm32f4xx_i2c.c ****   }
 890:.\stm32f4periph\src/stm32f4xx_i2c.c **** }
 891:.\stm32f4periph\src/stm32f4xx_i2c.c **** 
 892:.\stm32f4periph\src/stm32f4xx_i2c.c **** /**
 893:.\stm32f4periph\src/stm32f4xx_i2c.c ****   * @}
 894:.\stm32f4periph\src/stm32f4xx_i2c.c ****   */
 895:.\stm32f4periph\src/stm32f4xx_i2c.c **** 
 896:.\stm32f4periph\src/stm32f4xx_i2c.c **** /** @defgroup I2C_Group5 Interrupts events and flags management functions
 897:.\stm32f4periph\src/stm32f4xx_i2c.c ****  *  @brief   Interrupts, events and flags management functions
 898:.\stm32f4periph\src/stm32f4xx_i2c.c ****  *
 899:.\stm32f4periph\src/stm32f4xx_i2c.c **** @verbatim   
 900:.\stm32f4periph\src/stm32f4xx_i2c.c ****  ===============================================================================
 901:.\stm32f4periph\src/stm32f4xx_i2c.c ****                 Interrupts, events and flags management functions
 902:.\stm32f4periph\src/stm32f4xx_i2c.c ****  ===============================================================================  
 903:.\stm32f4periph\src/stm32f4xx_i2c.c ****   This section provides functions allowing to configure the I2C Interrupts 
 904:.\stm32f4periph\src/stm32f4xx_i2c.c ****   sources and check or clear the flags or pending bits status.
 905:.\stm32f4periph\src/stm32f4xx_i2c.c ****   The user should identify which mode will be used in his application to manage 
 906:.\stm32f4periph\src/stm32f4xx_i2c.c ****   the communication: Polling mode, Interrupt mode or DMA mode. 
 907:.\stm32f4periph\src/stm32f4xx_i2c.c **** 
 908:.\stm32f4periph\src/stm32f4xx_i2c.c ****  ===============================================================================
 909:.\stm32f4periph\src/stm32f4xx_i2c.c ****                           I2C State Monitoring Functions                    
 910:.\stm32f4periph\src/stm32f4xx_i2c.c ****  ===============================================================================   
 911:.\stm32f4periph\src/stm32f4xx_i2c.c ****   This I2C driver provides three different ways for I2C state monitoring
 912:.\stm32f4periph\src/stm32f4xx_i2c.c ****   depending on the application requirements and constraints:
 913:.\stm32f4periph\src/stm32f4xx_i2c.c ****          
 914:.\stm32f4periph\src/stm32f4xx_i2c.c ****    
 915:.\stm32f4periph\src/stm32f4xx_i2c.c ****      1. Basic state monitoring (Using I2C_CheckEvent() function)
 916:.\stm32f4periph\src/stm32f4xx_i2c.c ****      -----------------------------------------------------------
 917:.\stm32f4periph\src/stm32f4xx_i2c.c ****         It compares the status registers (SR1 and SR2) content to a given event
ARM GAS  C:\Users\Kevin\AppData\Local\Temp\cc2AQj48.s 			page 36


 918:.\stm32f4periph\src/stm32f4xx_i2c.c ****         (can be the combination of one or more flags).
 919:.\stm32f4periph\src/stm32f4xx_i2c.c ****         It returns SUCCESS if the current status includes the given flags 
 920:.\stm32f4periph\src/stm32f4xx_i2c.c ****         and returns ERROR if one or more flags are missing in the current status.
 921:.\stm32f4periph\src/stm32f4xx_i2c.c **** 
 922:.\stm32f4periph\src/stm32f4xx_i2c.c ****           - When to use
 923:.\stm32f4periph\src/stm32f4xx_i2c.c ****              - This function is suitable for most applications as well as for startup 
 924:.\stm32f4periph\src/stm32f4xx_i2c.c ****                activity since the events are fully described in the product reference 
 925:.\stm32f4periph\src/stm32f4xx_i2c.c ****                manual (RM0090).
 926:.\stm32f4periph\src/stm32f4xx_i2c.c ****              - It is also suitable for users who need to define their own events.
 927:.\stm32f4periph\src/stm32f4xx_i2c.c **** 
 928:.\stm32f4periph\src/stm32f4xx_i2c.c ****           - Limitations
 929:.\stm32f4periph\src/stm32f4xx_i2c.c ****              - If an error occurs (ie. error flags are set besides to the monitored 
 930:.\stm32f4periph\src/stm32f4xx_i2c.c ****                flags), the I2C_CheckEvent() function may return SUCCESS despite 
 931:.\stm32f4periph\src/stm32f4xx_i2c.c ****                the communication hold or corrupted real state. 
 932:.\stm32f4periph\src/stm32f4xx_i2c.c ****                In this case, it is advised to use error interrupts to monitor 
 933:.\stm32f4periph\src/stm32f4xx_i2c.c ****                the error events and handle them in the interrupt IRQ handler.
 934:.\stm32f4periph\src/stm32f4xx_i2c.c ****          
 935:.\stm32f4periph\src/stm32f4xx_i2c.c ****      @note 
 936:.\stm32f4periph\src/stm32f4xx_i2c.c ****          For error management, it is advised to use the following functions:
 937:.\stm32f4periph\src/stm32f4xx_i2c.c ****            - I2C_ITConfig() to configure and enable the error interrupts (I2C_IT_ERR).
 938:.\stm32f4periph\src/stm32f4xx_i2c.c ****            - I2Cx_ER_IRQHandler() which is called when the error interrupt occurs.
 939:.\stm32f4periph\src/stm32f4xx_i2c.c ****              Where x is the peripheral instance (I2C1, I2C2 ...)
 940:.\stm32f4periph\src/stm32f4xx_i2c.c ****            - I2C_GetFlagStatus() or I2C_GetITStatus()  to be called into the 
 941:.\stm32f4periph\src/stm32f4xx_i2c.c ****              I2Cx_ER_IRQHandler() function in order to determine which error occurred.
 942:.\stm32f4periph\src/stm32f4xx_i2c.c ****            - I2C_ClearFlag() or I2C_ClearITPendingBit() and/or I2C_SoftwareResetCmd() 
 943:.\stm32f4periph\src/stm32f4xx_i2c.c ****              and/or I2C_GenerateStop() in order to clear the error flag and source 
 944:.\stm32f4periph\src/stm32f4xx_i2c.c ****              and return to correct  communication status.
 945:.\stm32f4periph\src/stm32f4xx_i2c.c ****              
 946:.\stm32f4periph\src/stm32f4xx_i2c.c ****  
 947:.\stm32f4periph\src/stm32f4xx_i2c.c ****      2. Advanced state monitoring (Using the function I2C_GetLastEvent())
 948:.\stm32f4periph\src/stm32f4xx_i2c.c ****      -------------------------------------------------------------------- 
 949:.\stm32f4periph\src/stm32f4xx_i2c.c ****         Using the function I2C_GetLastEvent() which returns the image of both status 
 950:.\stm32f4periph\src/stm32f4xx_i2c.c ****         registers in a single word (uint32_t) (Status Register 2 value is shifted left 
 951:.\stm32f4periph\src/stm32f4xx_i2c.c ****         by 16 bits and concatenated to Status Register 1).
 952:.\stm32f4periph\src/stm32f4xx_i2c.c **** 
 953:.\stm32f4periph\src/stm32f4xx_i2c.c ****           - When to use
 954:.\stm32f4periph\src/stm32f4xx_i2c.c ****              - This function is suitable for the same applications above but it 
 955:.\stm32f4periph\src/stm32f4xx_i2c.c ****                allows to overcome the mentioned limitation of I2C_GetFlagStatus() 
 956:.\stm32f4periph\src/stm32f4xx_i2c.c ****                function.
 957:.\stm32f4periph\src/stm32f4xx_i2c.c ****              - The returned value could be compared to events already defined in 
 958:.\stm32f4periph\src/stm32f4xx_i2c.c ****                the library (stm32f4xx_i2c.h) or to custom values defined by user.
 959:.\stm32f4periph\src/stm32f4xx_i2c.c ****                This function is suitable when multiple flags are monitored at the 
 960:.\stm32f4periph\src/stm32f4xx_i2c.c ****                same time.
 961:.\stm32f4periph\src/stm32f4xx_i2c.c ****              - At the opposite of I2C_CheckEvent() function, this function allows 
 962:.\stm32f4periph\src/stm32f4xx_i2c.c ****                user to choose when an event is accepted (when all events flags are 
 963:.\stm32f4periph\src/stm32f4xx_i2c.c ****                set and no other flags are set or just when the needed flags are set 
 964:.\stm32f4periph\src/stm32f4xx_i2c.c ****                like I2C_CheckEvent() function.
 965:.\stm32f4periph\src/stm32f4xx_i2c.c **** 
 966:.\stm32f4periph\src/stm32f4xx_i2c.c ****           - Limitations
 967:.\stm32f4periph\src/stm32f4xx_i2c.c ****              - User may need to define his own events.
 968:.\stm32f4periph\src/stm32f4xx_i2c.c ****              - Same remark concerning the error management is applicable for this 
 969:.\stm32f4periph\src/stm32f4xx_i2c.c ****                function if user decides to check only regular communication flags 
 970:.\stm32f4periph\src/stm32f4xx_i2c.c ****                (and ignores error flags).
 971:.\stm32f4periph\src/stm32f4xx_i2c.c ****       
 972:.\stm32f4periph\src/stm32f4xx_i2c.c ****  
 973:.\stm32f4periph\src/stm32f4xx_i2c.c ****      3. Flag-based state monitoring (Using the function I2C_GetFlagStatus())
 974:.\stm32f4periph\src/stm32f4xx_i2c.c ****      -----------------------------------------------------------------------
ARM GAS  C:\Users\Kevin\AppData\Local\Temp\cc2AQj48.s 			page 37


 975:.\stm32f4periph\src/stm32f4xx_i2c.c ****      
 976:.\stm32f4periph\src/stm32f4xx_i2c.c ****       Using the function I2C_GetFlagStatus() which simply returns the status of 
 977:.\stm32f4periph\src/stm32f4xx_i2c.c ****       one single flag (ie. I2C_FLAG_RXNE ...). 
 978:.\stm32f4periph\src/stm32f4xx_i2c.c **** 
 979:.\stm32f4periph\src/stm32f4xx_i2c.c ****           - When to use
 980:.\stm32f4periph\src/stm32f4xx_i2c.c ****              - This function could be used for specific applications or in debug 
 981:.\stm32f4periph\src/stm32f4xx_i2c.c ****                phase.
 982:.\stm32f4periph\src/stm32f4xx_i2c.c ****              - It is suitable when only one flag checking is needed (most I2C 
 983:.\stm32f4periph\src/stm32f4xx_i2c.c ****                events are monitored through multiple flags).
 984:.\stm32f4periph\src/stm32f4xx_i2c.c ****           - Limitations: 
 985:.\stm32f4periph\src/stm32f4xx_i2c.c ****              - When calling this function, the Status register is accessed. 
 986:.\stm32f4periph\src/stm32f4xx_i2c.c ****                Some flags are cleared when the status register is accessed. 
 987:.\stm32f4periph\src/stm32f4xx_i2c.c ****                So checking the status of one Flag, may clear other ones.
 988:.\stm32f4periph\src/stm32f4xx_i2c.c ****              - Function may need to be called twice or more in order to monitor 
 989:.\stm32f4periph\src/stm32f4xx_i2c.c ****                one single event.
 990:.\stm32f4periph\src/stm32f4xx_i2c.c ****  
 991:.\stm32f4periph\src/stm32f4xx_i2c.c ****    For detailed description of Events, please refer to section I2C_Events in 
 992:.\stm32f4periph\src/stm32f4xx_i2c.c ****    stm32f4xx_i2c.h file.
 993:.\stm32f4periph\src/stm32f4xx_i2c.c ****        
 994:.\stm32f4periph\src/stm32f4xx_i2c.c **** @endverbatim
 995:.\stm32f4periph\src/stm32f4xx_i2c.c ****   * @{
 996:.\stm32f4periph\src/stm32f4xx_i2c.c ****   */
 997:.\stm32f4periph\src/stm32f4xx_i2c.c ****    
 998:.\stm32f4periph\src/stm32f4xx_i2c.c **** /**
 999:.\stm32f4periph\src/stm32f4xx_i2c.c ****   * @brief  Reads the specified I2C register and returns its value.
1000:.\stm32f4periph\src/stm32f4xx_i2c.c ****   * @param  I2C_Register: specifies the register to read.
1001:.\stm32f4periph\src/stm32f4xx_i2c.c ****   *          This parameter can be one of the following values:
1002:.\stm32f4periph\src/stm32f4xx_i2c.c ****   *            @arg I2C_Register_CR1:  CR1 register.
1003:.\stm32f4periph\src/stm32f4xx_i2c.c ****   *            @arg I2C_Register_CR2:   CR2 register.
1004:.\stm32f4periph\src/stm32f4xx_i2c.c ****   *            @arg I2C_Register_OAR1:  OAR1 register.
1005:.\stm32f4periph\src/stm32f4xx_i2c.c ****   *            @arg I2C_Register_OAR2:  OAR2 register.
1006:.\stm32f4periph\src/stm32f4xx_i2c.c ****   *            @arg I2C_Register_DR:    DR register.
1007:.\stm32f4periph\src/stm32f4xx_i2c.c ****   *            @arg I2C_Register_SR1:   SR1 register.
1008:.\stm32f4periph\src/stm32f4xx_i2c.c ****   *            @arg I2C_Register_SR2:   SR2 register.
1009:.\stm32f4periph\src/stm32f4xx_i2c.c ****   *            @arg I2C_Register_CCR:   CCR register.
1010:.\stm32f4periph\src/stm32f4xx_i2c.c ****   *            @arg I2C_Register_TRISE: TRISE register.
1011:.\stm32f4periph\src/stm32f4xx_i2c.c ****   * @retval The value of the read register.
1012:.\stm32f4periph\src/stm32f4xx_i2c.c ****   */
1013:.\stm32f4periph\src/stm32f4xx_i2c.c **** uint16_t I2C_ReadRegister(I2C_TypeDef* I2Cx, uint8_t I2C_Register)
1014:.\stm32f4periph\src/stm32f4xx_i2c.c **** {
 1044              		.loc 1 1014 0
 1045              		.cfi_startproc
 1046              		@ args = 0, pretend = 0, frame = 8
 1047              		@ frame_needed = 0, uses_anonymous_args = 0
 1048              		@ link register save eliminated.
 1049              	.LVL68:
 1050 031a 82B0     		sub	sp, sp, #8	@,,
 1051              	.LCFI3:
 1052              		.cfi_def_cfa_offset 8
1015:.\stm32f4periph\src/stm32f4xx_i2c.c ****   __IO uint32_t tmp = 0;
 1053              		.loc 1 1015 0
 1054 031c 0023     		movs	r3, #0	@ tmp144,
 1055 031e 0193     		str	r3, [sp, #4]	@ tmp144, tmp
 1056              	.LVL69:
1016:.\stm32f4periph\src/stm32f4xx_i2c.c **** 
1017:.\stm32f4periph\src/stm32f4xx_i2c.c ****   /* Check the parameters */
1018:.\stm32f4periph\src/stm32f4xx_i2c.c ****   assert_param(IS_I2C_ALL_PERIPH(I2Cx));
ARM GAS  C:\Users\Kevin\AppData\Local\Temp\cc2AQj48.s 			page 38


1019:.\stm32f4periph\src/stm32f4xx_i2c.c ****   assert_param(IS_I2C_REGISTER(I2C_Register));
1020:.\stm32f4periph\src/stm32f4xx_i2c.c **** 
1021:.\stm32f4periph\src/stm32f4xx_i2c.c ****   tmp = (uint32_t) I2Cx;
 1057              		.loc 1 1021 0
 1058 0320 0190     		str	r0, [sp, #4]	@ I2Cx, tmp
1022:.\stm32f4periph\src/stm32f4xx_i2c.c ****   tmp += I2C_Register;
 1059              		.loc 1 1022 0
 1060 0322 019B     		ldr	r3, [sp, #4]	@ tmp.10, tmp
 1061 0324 C918     		adds	r1, r1, r3	@ tmp.11, I2C_Register, tmp.10
 1062              	.LVL70:
 1063 0326 0191     		str	r1, [sp, #4]	@ tmp.11, tmp
 1064              	.LVL71:
1023:.\stm32f4periph\src/stm32f4xx_i2c.c **** 
1024:.\stm32f4periph\src/stm32f4xx_i2c.c ****   /* Return the selected register value */
1025:.\stm32f4periph\src/stm32f4xx_i2c.c ****   return (*(__IO uint16_t *) tmp);
 1065              		.loc 1 1025 0
 1066 0328 019B     		ldr	r3, [sp, #4]	@ tmp.12, tmp
 1067 032a 1888     		ldrh	r0, [r3, #0]	@, *tmp.13_8
 1068              	.LVL72:
1026:.\stm32f4periph\src/stm32f4xx_i2c.c **** }
 1069              		.loc 1 1026 0
 1070 032c 80B2     		uxth	r0, r0	@, *tmp.13_8
 1071 032e 02B0     		add	sp, sp, #8	@,,
 1072 0330 7047     		bx	lr
 1073              		.cfi_endproc
 1074              	.LFE135:
 1075              		.size	I2C_ReadRegister, .-I2C_ReadRegister
 1076              		.align	1
 1077              		.global	I2C_ITConfig
 1078              		.thumb
 1079              		.thumb_func
 1080              		.type	I2C_ITConfig, %function
 1081              	I2C_ITConfig:
 1082              	.LFB136:
1027:.\stm32f4periph\src/stm32f4xx_i2c.c **** 
1028:.\stm32f4periph\src/stm32f4xx_i2c.c **** /**
1029:.\stm32f4periph\src/stm32f4xx_i2c.c ****   * @brief  Enables or disables the specified I2C interrupts.
1030:.\stm32f4periph\src/stm32f4xx_i2c.c ****   * @param  I2Cx: where x can be 1, 2 or 3 to select the I2C peripheral.
1031:.\stm32f4periph\src/stm32f4xx_i2c.c ****   * @param  I2C_IT: specifies the I2C interrupts sources to be enabled or disabled. 
1032:.\stm32f4periph\src/stm32f4xx_i2c.c ****   *          This parameter can be any combination of the following values:
1033:.\stm32f4periph\src/stm32f4xx_i2c.c ****   *            @arg I2C_IT_BUF: Buffer interrupt mask
1034:.\stm32f4periph\src/stm32f4xx_i2c.c ****   *            @arg I2C_IT_EVT: Event interrupt mask
1035:.\stm32f4periph\src/stm32f4xx_i2c.c ****   *            @arg I2C_IT_ERR: Error interrupt mask
1036:.\stm32f4periph\src/stm32f4xx_i2c.c ****   * @param  NewState: new state of the specified I2C interrupts.
1037:.\stm32f4periph\src/stm32f4xx_i2c.c ****   *          This parameter can be: ENABLE or DISABLE.
1038:.\stm32f4periph\src/stm32f4xx_i2c.c ****   * @retval None
1039:.\stm32f4periph\src/stm32f4xx_i2c.c ****   */
1040:.\stm32f4periph\src/stm32f4xx_i2c.c **** void I2C_ITConfig(I2C_TypeDef* I2Cx, uint16_t I2C_IT, FunctionalState NewState)
1041:.\stm32f4periph\src/stm32f4xx_i2c.c **** {
 1083              		.loc 1 1041 0
 1084              		.cfi_startproc
 1085              		@ args = 0, pretend = 0, frame = 0
 1086              		@ frame_needed = 0, uses_anonymous_args = 0
 1087              		@ link register save eliminated.
 1088              	.LVL73:
1042:.\stm32f4periph\src/stm32f4xx_i2c.c ****   /* Check the parameters */
1043:.\stm32f4periph\src/stm32f4xx_i2c.c ****   assert_param(IS_I2C_ALL_PERIPH(I2Cx));
ARM GAS  C:\Users\Kevin\AppData\Local\Temp\cc2AQj48.s 			page 39


1044:.\stm32f4periph\src/stm32f4xx_i2c.c ****   assert_param(IS_FUNCTIONAL_STATE(NewState));
1045:.\stm32f4periph\src/stm32f4xx_i2c.c ****   assert_param(IS_I2C_CONFIG_IT(I2C_IT));
1046:.\stm32f4periph\src/stm32f4xx_i2c.c ****   
1047:.\stm32f4periph\src/stm32f4xx_i2c.c ****   if (NewState != DISABLE)
1048:.\stm32f4periph\src/stm32f4xx_i2c.c ****   {
1049:.\stm32f4periph\src/stm32f4xx_i2c.c ****     /* Enable the selected I2C interrupts */
1050:.\stm32f4periph\src/stm32f4xx_i2c.c ****     I2Cx->CR2 |= I2C_IT;
 1089              		.loc 1 1050 0
 1090 0332 8388     		ldrh	r3, [r0, #4]	@,
 1091 0334 9BB2     		uxth	r3, r3	@ D.7501, I2Cx_2(D)->CR2
1047:.\stm32f4periph\src/stm32f4xx_i2c.c ****   if (NewState != DISABLE)
 1092              		.loc 1 1047 0
 1093 0336 0AB1     		cbz	r2, .L97	@ NewState,
 1094              		.loc 1 1050 0
 1095 0338 1943     		orrs	r1, r1, r3	@, D.7502, I2C_IT, D.7501
 1096              	.LVL74:
 1097 033a 01E0     		b	.L99	@
 1098              	.LVL75:
 1099              	.L97:
1051:.\stm32f4periph\src/stm32f4xx_i2c.c ****   }
1052:.\stm32f4periph\src/stm32f4xx_i2c.c ****   else
1053:.\stm32f4periph\src/stm32f4xx_i2c.c ****   {
1054:.\stm32f4periph\src/stm32f4xx_i2c.c ****     /* Disable the selected I2C interrupts */
1055:.\stm32f4periph\src/stm32f4xx_i2c.c ****     I2Cx->CR2 &= (uint16_t)~I2C_IT;
 1100              		.loc 1 1055 0
 1101 033c 23EA0101 		bic	r1, r3, r1	@ D.7506, D.7504, I2C_IT
 1102              	.LVL76:
 1103              	.L99:
 1104 0340 8180     		strh	r1, [r0, #4]	@ movhi	@ D.7506,
 1105 0342 7047     		bx	lr	@
 1106              		.cfi_endproc
 1107              	.LFE136:
 1108              		.size	I2C_ITConfig, .-I2C_ITConfig
 1109              		.align	1
 1110              		.global	I2C_CheckEvent
 1111              		.thumb
 1112              		.thumb_func
 1113              		.type	I2C_CheckEvent, %function
 1114              	I2C_CheckEvent:
 1115              	.LFB137:
1056:.\stm32f4periph\src/stm32f4xx_i2c.c ****   }
1057:.\stm32f4periph\src/stm32f4xx_i2c.c **** }
1058:.\stm32f4periph\src/stm32f4xx_i2c.c **** 
1059:.\stm32f4periph\src/stm32f4xx_i2c.c **** /*
1060:.\stm32f4periph\src/stm32f4xx_i2c.c ****  ===============================================================================
1061:.\stm32f4periph\src/stm32f4xx_i2c.c ****                           1. Basic state monitoring                    
1062:.\stm32f4periph\src/stm32f4xx_i2c.c ****  ===============================================================================  
1063:.\stm32f4periph\src/stm32f4xx_i2c.c ****  */
1064:.\stm32f4periph\src/stm32f4xx_i2c.c **** 
1065:.\stm32f4periph\src/stm32f4xx_i2c.c **** /**
1066:.\stm32f4periph\src/stm32f4xx_i2c.c ****   * @brief  Checks whether the last I2Cx Event is equal to the one passed
1067:.\stm32f4periph\src/stm32f4xx_i2c.c ****   *         as parameter.
1068:.\stm32f4periph\src/stm32f4xx_i2c.c ****   * @param  I2Cx: where x can be 1, 2 or 3 to select the I2C peripheral.
1069:.\stm32f4periph\src/stm32f4xx_i2c.c ****   * @param  I2C_EVENT: specifies the event to be checked. 
1070:.\stm32f4periph\src/stm32f4xx_i2c.c ****   *          This parameter can be one of the following values:
1071:.\stm32f4periph\src/stm32f4xx_i2c.c ****   *            @arg I2C_EVENT_SLAVE_TRANSMITTER_ADDRESS_MATCHED: EV1
1072:.\stm32f4periph\src/stm32f4xx_i2c.c ****   *            @arg I2C_EVENT_SLAVE_RECEIVER_ADDRESS_MATCHED: EV1
ARM GAS  C:\Users\Kevin\AppData\Local\Temp\cc2AQj48.s 			page 40


1073:.\stm32f4periph\src/stm32f4xx_i2c.c ****   *            @arg I2C_EVENT_SLAVE_TRANSMITTER_SECONDADDRESS_MATCHED: EV1
1074:.\stm32f4periph\src/stm32f4xx_i2c.c ****   *            @arg I2C_EVENT_SLAVE_RECEIVER_SECONDADDRESS_MATCHED: EV1
1075:.\stm32f4periph\src/stm32f4xx_i2c.c ****   *            @arg I2C_EVENT_SLAVE_GENERALCALLADDRESS_MATCHED: EV1
1076:.\stm32f4periph\src/stm32f4xx_i2c.c ****   *            @arg I2C_EVENT_SLAVE_BYTE_RECEIVED: EV2
1077:.\stm32f4periph\src/stm32f4xx_i2c.c ****   *            @arg (I2C_EVENT_SLAVE_BYTE_RECEIVED | I2C_FLAG_DUALF): EV2
1078:.\stm32f4periph\src/stm32f4xx_i2c.c ****   *            @arg (I2C_EVENT_SLAVE_BYTE_RECEIVED | I2C_FLAG_GENCALL): EV2
1079:.\stm32f4periph\src/stm32f4xx_i2c.c ****   *            @arg I2C_EVENT_SLAVE_BYTE_TRANSMITTED: EV3
1080:.\stm32f4periph\src/stm32f4xx_i2c.c ****   *            @arg (I2C_EVENT_SLAVE_BYTE_TRANSMITTED | I2C_FLAG_DUALF): EV3
1081:.\stm32f4periph\src/stm32f4xx_i2c.c ****   *            @arg (I2C_EVENT_SLAVE_BYTE_TRANSMITTED | I2C_FLAG_GENCALL): EV3
1082:.\stm32f4periph\src/stm32f4xx_i2c.c ****   *            @arg I2C_EVENT_SLAVE_ACK_FAILURE: EV3_2
1083:.\stm32f4periph\src/stm32f4xx_i2c.c ****   *            @arg I2C_EVENT_SLAVE_STOP_DETECTED: EV4
1084:.\stm32f4periph\src/stm32f4xx_i2c.c ****   *            @arg I2C_EVENT_MASTER_MODE_SELECT: EV5
1085:.\stm32f4periph\src/stm32f4xx_i2c.c ****   *            @arg I2C_EVENT_MASTER_TRANSMITTER_MODE_SELECTED: EV6     
1086:.\stm32f4periph\src/stm32f4xx_i2c.c ****   *            @arg I2C_EVENT_MASTER_RECEIVER_MODE_SELECTED: EV6
1087:.\stm32f4periph\src/stm32f4xx_i2c.c ****   *            @arg I2C_EVENT_MASTER_BYTE_RECEIVED: EV7
1088:.\stm32f4periph\src/stm32f4xx_i2c.c ****   *            @arg I2C_EVENT_MASTER_BYTE_TRANSMITTING: EV8
1089:.\stm32f4periph\src/stm32f4xx_i2c.c ****   *            @arg I2C_EVENT_MASTER_BYTE_TRANSMITTED: EV8_2
1090:.\stm32f4periph\src/stm32f4xx_i2c.c ****   *            @arg I2C_EVENT_MASTER_MODE_ADDRESS10: EV9
1091:.\stm32f4periph\src/stm32f4xx_i2c.c ****   *     
1092:.\stm32f4periph\src/stm32f4xx_i2c.c ****   * @note   For detailed description of Events, please refer to section I2C_Events
1093:.\stm32f4periph\src/stm32f4xx_i2c.c ****   *         in stm32f4xx_i2c.h file.
1094:.\stm32f4periph\src/stm32f4xx_i2c.c ****   *    
1095:.\stm32f4periph\src/stm32f4xx_i2c.c ****   * @retval An ErrorStatus enumeration value:
1096:.\stm32f4periph\src/stm32f4xx_i2c.c ****   *           - SUCCESS: Last event is equal to the I2C_EVENT
1097:.\stm32f4periph\src/stm32f4xx_i2c.c ****   *           - ERROR: Last event is different from the I2C_EVENT
1098:.\stm32f4periph\src/stm32f4xx_i2c.c ****   */
1099:.\stm32f4periph\src/stm32f4xx_i2c.c **** ErrorStatus I2C_CheckEvent(I2C_TypeDef* I2Cx, uint32_t I2C_EVENT)
1100:.\stm32f4periph\src/stm32f4xx_i2c.c **** {
 1116              		.loc 1 1100 0
 1117              		.cfi_startproc
 1118              		@ args = 0, pretend = 0, frame = 0
 1119              		@ frame_needed = 0, uses_anonymous_args = 0
 1120              		@ link register save eliminated.
 1121              	.LVL77:
1101:.\stm32f4periph\src/stm32f4xx_i2c.c ****   uint32_t lastevent = 0;
1102:.\stm32f4periph\src/stm32f4xx_i2c.c ****   uint32_t flag1 = 0, flag2 = 0;
1103:.\stm32f4periph\src/stm32f4xx_i2c.c ****   ErrorStatus status = ERROR;
1104:.\stm32f4periph\src/stm32f4xx_i2c.c **** 
1105:.\stm32f4periph\src/stm32f4xx_i2c.c ****   /* Check the parameters */
1106:.\stm32f4periph\src/stm32f4xx_i2c.c ****   assert_param(IS_I2C_ALL_PERIPH(I2Cx));
1107:.\stm32f4periph\src/stm32f4xx_i2c.c ****   assert_param(IS_I2C_EVENT(I2C_EVENT));
1108:.\stm32f4periph\src/stm32f4xx_i2c.c **** 
1109:.\stm32f4periph\src/stm32f4xx_i2c.c ****   /* Read the I2Cx status register */
1110:.\stm32f4periph\src/stm32f4xx_i2c.c ****   flag1 = I2Cx->SR1;
 1122              		.loc 1 1110 0
 1123 0344 838A     		ldrh	r3, [r0, #20]	@, I2Cx_6(D)->SR1
1111:.\stm32f4periph\src/stm32f4xx_i2c.c ****   flag2 = I2Cx->SR2;
 1124              		.loc 1 1111 0
 1125 0346 008B     		ldrh	r0, [r0, #24]	@, I2Cx_6(D)->SR2
 1126              	.LVL78:
1110:.\stm32f4periph\src/stm32f4xx_i2c.c ****   flag1 = I2Cx->SR1;
 1127              		.loc 1 1110 0
 1128 0348 9BB2     		uxth	r3, r3	@ D.7490, I2Cx_6(D)->SR1
 1129              	.LVL79:
1112:.\stm32f4periph\src/stm32f4xx_i2c.c ****   flag2 = flag2 << 16;
1113:.\stm32f4periph\src/stm32f4xx_i2c.c **** 
1114:.\stm32f4periph\src/stm32f4xx_i2c.c ****   /* Get the last event value from I2C status register */
ARM GAS  C:\Users\Kevin\AppData\Local\Temp\cc2AQj48.s 			page 41


1115:.\stm32f4periph\src/stm32f4xx_i2c.c ****   lastevent = (flag1 | flag2) & FLAG_MASK;
 1130              		.loc 1 1115 0
 1131 034a 43EA0040 		orr	r0, r3, r0, lsl #16	@, tmp153, D.7490, I2Cx_6(D)->SR2,
 1132              	.LVL80:
 1133 034e 0840     		ands	r0, r0, r1	@, tmp154, tmp153, I2C_EVENT
1116:.\stm32f4periph\src/stm32f4xx_i2c.c **** 
1117:.\stm32f4periph\src/stm32f4xx_i2c.c ****   /* Check whether the last event contains the I2C_EVENT */
1118:.\stm32f4periph\src/stm32f4xx_i2c.c ****   if ((lastevent & I2C_EVENT) == I2C_EVENT)
 1134              		.loc 1 1118 0
 1135 0350 20F07F40 		bic	r0, r0, #-16777216	@ tmp155, tmp154,
1119:.\stm32f4periph\src/stm32f4xx_i2c.c ****   {
1120:.\stm32f4periph\src/stm32f4xx_i2c.c ****     /* SUCCESS: last event is equal to I2C_EVENT */
1121:.\stm32f4periph\src/stm32f4xx_i2c.c ****     status = SUCCESS;
1122:.\stm32f4periph\src/stm32f4xx_i2c.c ****   }
1123:.\stm32f4periph\src/stm32f4xx_i2c.c ****   else
1124:.\stm32f4periph\src/stm32f4xx_i2c.c ****   {
1125:.\stm32f4periph\src/stm32f4xx_i2c.c ****     /* ERROR: last event is different from I2C_EVENT */
1126:.\stm32f4periph\src/stm32f4xx_i2c.c ****     status = ERROR;
1127:.\stm32f4periph\src/stm32f4xx_i2c.c ****   }
1128:.\stm32f4periph\src/stm32f4xx_i2c.c ****   /* Return status */
1129:.\stm32f4periph\src/stm32f4xx_i2c.c ****   return status;
1130:.\stm32f4periph\src/stm32f4xx_i2c.c **** }
 1136              		.loc 1 1130 0
 1137 0354 431A     		subs	r3, r0, r1	@, tmp155, I2C_EVENT
 1138              	.LVL81:
 1139 0356 5842     		rsbs	r0, r3, #0	@,,
 1140 0358 5841     		adcs	r0, r0, r3	@,,
 1141 035a 7047     		bx	lr	@
 1142              		.cfi_endproc
 1143              	.LFE137:
 1144              		.size	I2C_CheckEvent, .-I2C_CheckEvent
 1145              		.align	1
 1146              		.global	I2C_GetLastEvent
 1147              		.thumb
 1148              		.thumb_func
 1149              		.type	I2C_GetLastEvent, %function
 1150              	I2C_GetLastEvent:
 1151              	.LFB138:
1131:.\stm32f4periph\src/stm32f4xx_i2c.c **** 
1132:.\stm32f4periph\src/stm32f4xx_i2c.c **** /*
1133:.\stm32f4periph\src/stm32f4xx_i2c.c ****  ===============================================================================
1134:.\stm32f4periph\src/stm32f4xx_i2c.c ****                           2. Advanced state monitoring                   
1135:.\stm32f4periph\src/stm32f4xx_i2c.c ****  ===============================================================================  
1136:.\stm32f4periph\src/stm32f4xx_i2c.c ****  */
1137:.\stm32f4periph\src/stm32f4xx_i2c.c **** 
1138:.\stm32f4periph\src/stm32f4xx_i2c.c **** /**
1139:.\stm32f4periph\src/stm32f4xx_i2c.c ****   * @brief  Returns the last I2Cx Event.
1140:.\stm32f4periph\src/stm32f4xx_i2c.c ****   * @param  I2Cx: where x can be 1, 2 or 3 to select the I2C peripheral.
1141:.\stm32f4periph\src/stm32f4xx_i2c.c ****   *     
1142:.\stm32f4periph\src/stm32f4xx_i2c.c ****   * @note   For detailed description of Events, please refer to section I2C_Events
1143:.\stm32f4periph\src/stm32f4xx_i2c.c ****   *         in stm32f4xx_i2c.h file.
1144:.\stm32f4periph\src/stm32f4xx_i2c.c ****   *    
1145:.\stm32f4periph\src/stm32f4xx_i2c.c ****   * @retval The last event
1146:.\stm32f4periph\src/stm32f4xx_i2c.c ****   */
1147:.\stm32f4periph\src/stm32f4xx_i2c.c **** uint32_t I2C_GetLastEvent(I2C_TypeDef* I2Cx)
1148:.\stm32f4periph\src/stm32f4xx_i2c.c **** {
 1152              		.loc 1 1148 0
ARM GAS  C:\Users\Kevin\AppData\Local\Temp\cc2AQj48.s 			page 42


 1153              		.cfi_startproc
 1154              		@ args = 0, pretend = 0, frame = 0
 1155              		@ frame_needed = 0, uses_anonymous_args = 0
 1156              		@ link register save eliminated.
 1157              	.LVL82:
1149:.\stm32f4periph\src/stm32f4xx_i2c.c ****   uint32_t lastevent = 0;
1150:.\stm32f4periph\src/stm32f4xx_i2c.c ****   uint32_t flag1 = 0, flag2 = 0;
1151:.\stm32f4periph\src/stm32f4xx_i2c.c **** 
1152:.\stm32f4periph\src/stm32f4xx_i2c.c ****   /* Check the parameters */
1153:.\stm32f4periph\src/stm32f4xx_i2c.c ****   assert_param(IS_I2C_ALL_PERIPH(I2Cx));
1154:.\stm32f4periph\src/stm32f4xx_i2c.c **** 
1155:.\stm32f4periph\src/stm32f4xx_i2c.c ****   /* Read the I2Cx status register */
1156:.\stm32f4periph\src/stm32f4xx_i2c.c ****   flag1 = I2Cx->SR1;
 1158              		.loc 1 1156 0
 1159 035c 838A     		ldrh	r3, [r0, #20]	@, I2Cx_4(D)->SR1
1157:.\stm32f4periph\src/stm32f4xx_i2c.c ****   flag2 = I2Cx->SR2;
 1160              		.loc 1 1157 0
 1161 035e 008B     		ldrh	r0, [r0, #24]	@, I2Cx_4(D)->SR2
 1162              	.LVL83:
1156:.\stm32f4periph\src/stm32f4xx_i2c.c ****   flag1 = I2Cx->SR1;
 1163              		.loc 1 1156 0
 1164 0360 9BB2     		uxth	r3, r3	@ D.7485, I2Cx_4(D)->SR1
 1165              	.LVL84:
1158:.\stm32f4periph\src/stm32f4xx_i2c.c ****   flag2 = flag2 << 16;
1159:.\stm32f4periph\src/stm32f4xx_i2c.c **** 
1160:.\stm32f4periph\src/stm32f4xx_i2c.c ****   /* Get the last event value from I2C status register */
1161:.\stm32f4periph\src/stm32f4xx_i2c.c ****   lastevent = (flag1 | flag2) & FLAG_MASK;
 1166              		.loc 1 1161 0
 1167 0362 43EA0040 		orr	r0, r3, r0, lsl #16	@, tmp149, D.7485, I2Cx_4(D)->SR2,
 1168              	.LVL85:
1162:.\stm32f4periph\src/stm32f4xx_i2c.c **** 
1163:.\stm32f4periph\src/stm32f4xx_i2c.c ****   /* Return status */
1164:.\stm32f4periph\src/stm32f4xx_i2c.c ****   return lastevent;
1165:.\stm32f4periph\src/stm32f4xx_i2c.c **** }
 1169              		.loc 1 1165 0
 1170 0366 20F07F40 		bic	r0, r0, #-16777216	@, tmp149,
 1171 036a 7047     		bx	lr	@
 1172              		.cfi_endproc
 1173              	.LFE138:
 1174              		.size	I2C_GetLastEvent, .-I2C_GetLastEvent
 1175              		.align	1
 1176              		.global	I2C_GetFlagStatus
 1177              		.thumb
 1178              		.thumb_func
 1179              		.type	I2C_GetFlagStatus, %function
 1180              	I2C_GetFlagStatus:
 1181              	.LFB139:
1166:.\stm32f4periph\src/stm32f4xx_i2c.c **** 
1167:.\stm32f4periph\src/stm32f4xx_i2c.c **** /*
1168:.\stm32f4periph\src/stm32f4xx_i2c.c ****  ===============================================================================
1169:.\stm32f4periph\src/stm32f4xx_i2c.c ****                           3. Flag-based state monitoring                   
1170:.\stm32f4periph\src/stm32f4xx_i2c.c ****  ===============================================================================  
1171:.\stm32f4periph\src/stm32f4xx_i2c.c ****  */
1172:.\stm32f4periph\src/stm32f4xx_i2c.c **** 
1173:.\stm32f4periph\src/stm32f4xx_i2c.c **** /**
1174:.\stm32f4periph\src/stm32f4xx_i2c.c ****   * @brief  Checks whether the specified I2C flag is set or not.
1175:.\stm32f4periph\src/stm32f4xx_i2c.c ****   * @param  I2Cx: where x can be 1, 2 or 3 to select the I2C peripheral.
ARM GAS  C:\Users\Kevin\AppData\Local\Temp\cc2AQj48.s 			page 43


1176:.\stm32f4periph\src/stm32f4xx_i2c.c ****   * @param  I2C_FLAG: specifies the flag to check. 
1177:.\stm32f4periph\src/stm32f4xx_i2c.c ****   *          This parameter can be one of the following values:
1178:.\stm32f4periph\src/stm32f4xx_i2c.c ****   *            @arg I2C_FLAG_DUALF: Dual flag (Slave mode)
1179:.\stm32f4periph\src/stm32f4xx_i2c.c ****   *            @arg I2C_FLAG_SMBHOST: SMBus host header (Slave mode)
1180:.\stm32f4periph\src/stm32f4xx_i2c.c ****   *            @arg I2C_FLAG_SMBDEFAULT: SMBus default header (Slave mode)
1181:.\stm32f4periph\src/stm32f4xx_i2c.c ****   *            @arg I2C_FLAG_GENCALL: General call header flag (Slave mode)
1182:.\stm32f4periph\src/stm32f4xx_i2c.c ****   *            @arg I2C_FLAG_TRA: Transmitter/Receiver flag
1183:.\stm32f4periph\src/stm32f4xx_i2c.c ****   *            @arg I2C_FLAG_BUSY: Bus busy flag
1184:.\stm32f4periph\src/stm32f4xx_i2c.c ****   *            @arg I2C_FLAG_MSL: Master/Slave flag
1185:.\stm32f4periph\src/stm32f4xx_i2c.c ****   *            @arg I2C_FLAG_SMBALERT: SMBus Alert flag
1186:.\stm32f4periph\src/stm32f4xx_i2c.c ****   *            @arg I2C_FLAG_TIMEOUT: Timeout or Tlow error flag
1187:.\stm32f4periph\src/stm32f4xx_i2c.c ****   *            @arg I2C_FLAG_PECERR: PEC error in reception flag
1188:.\stm32f4periph\src/stm32f4xx_i2c.c ****   *            @arg I2C_FLAG_OVR: Overrun/Underrun flag (Slave mode)
1189:.\stm32f4periph\src/stm32f4xx_i2c.c ****   *            @arg I2C_FLAG_AF: Acknowledge failure flag
1190:.\stm32f4periph\src/stm32f4xx_i2c.c ****   *            @arg I2C_FLAG_ARLO: Arbitration lost flag (Master mode)
1191:.\stm32f4periph\src/stm32f4xx_i2c.c ****   *            @arg I2C_FLAG_BERR: Bus error flag
1192:.\stm32f4periph\src/stm32f4xx_i2c.c ****   *            @arg I2C_FLAG_TXE: Data register empty flag (Transmitter)
1193:.\stm32f4periph\src/stm32f4xx_i2c.c ****   *            @arg I2C_FLAG_RXNE: Data register not empty (Receiver) flag
1194:.\stm32f4periph\src/stm32f4xx_i2c.c ****   *            @arg I2C_FLAG_STOPF: Stop detection flag (Slave mode)
1195:.\stm32f4periph\src/stm32f4xx_i2c.c ****   *            @arg I2C_FLAG_ADD10: 10-bit header sent flag (Master mode)
1196:.\stm32f4periph\src/stm32f4xx_i2c.c ****   *            @arg I2C_FLAG_BTF: Byte transfer finished flag
1197:.\stm32f4periph\src/stm32f4xx_i2c.c ****   *            @arg I2C_FLAG_ADDR: Address sent flag (Master mode) "ADSL"
1198:.\stm32f4periph\src/stm32f4xx_i2c.c ****   *                                Address matched flag (Slave mode)"ENDAD"
1199:.\stm32f4periph\src/stm32f4xx_i2c.c ****   *            @arg I2C_FLAG_SB: Start bit flag (Master mode)
1200:.\stm32f4periph\src/stm32f4xx_i2c.c ****   * @retval The new state of I2C_FLAG (SET or RESET).
1201:.\stm32f4periph\src/stm32f4xx_i2c.c ****   */
1202:.\stm32f4periph\src/stm32f4xx_i2c.c **** FlagStatus I2C_GetFlagStatus(I2C_TypeDef* I2Cx, uint32_t I2C_FLAG)
1203:.\stm32f4periph\src/stm32f4xx_i2c.c **** {
 1182              		.loc 1 1203 0
 1183              		.cfi_startproc
 1184              		@ args = 0, pretend = 0, frame = 8
 1185              		@ frame_needed = 0, uses_anonymous_args = 0
 1186              		@ link register save eliminated.
 1187              	.LVL86:
 1188 036c 82B0     		sub	sp, sp, #8	@,,
 1189              	.LCFI4:
 1190              		.cfi_def_cfa_offset 8
1204:.\stm32f4periph\src/stm32f4xx_i2c.c ****   FlagStatus bitstatus = RESET;
1205:.\stm32f4periph\src/stm32f4xx_i2c.c ****   __IO uint32_t i2creg = 0, i2cxbase = 0;
 1191              		.loc 1 1205 0
 1192 036e 0023     		movs	r3, #0	@ tmp151,
 1193 0370 0093     		str	r3, [sp, #0]	@ tmp151, i2creg
 1194              	.LVL87:
 1195 0372 0193     		str	r3, [sp, #4]	@ tmp151, i2cxbase
 1196              	.LVL88:
1206:.\stm32f4periph\src/stm32f4xx_i2c.c **** 
1207:.\stm32f4periph\src/stm32f4xx_i2c.c ****   /* Check the parameters */
1208:.\stm32f4periph\src/stm32f4xx_i2c.c ****   assert_param(IS_I2C_ALL_PERIPH(I2Cx));
1209:.\stm32f4periph\src/stm32f4xx_i2c.c ****   assert_param(IS_I2C_GET_FLAG(I2C_FLAG));
1210:.\stm32f4periph\src/stm32f4xx_i2c.c **** 
1211:.\stm32f4periph\src/stm32f4xx_i2c.c ****   /* Get the I2Cx peripheral base address */
1212:.\stm32f4periph\src/stm32f4xx_i2c.c ****   i2cxbase = (uint32_t)I2Cx;
1213:.\stm32f4periph\src/stm32f4xx_i2c.c ****   
1214:.\stm32f4periph\src/stm32f4xx_i2c.c ****   /* Read flag register index */
1215:.\stm32f4periph\src/stm32f4xx_i2c.c ****   i2creg = I2C_FLAG >> 28;
 1197              		.loc 1 1215 0
 1198 0374 0B0F     		lsrs	r3, r1, #28	@ i2creg.1, I2C_FLAG,
ARM GAS  C:\Users\Kevin\AppData\Local\Temp\cc2AQj48.s 			page 44


 1199              	.LVL89:
1212:.\stm32f4periph\src/stm32f4xx_i2c.c ****   i2cxbase = (uint32_t)I2Cx;
 1200              		.loc 1 1212 0
 1201 0376 0190     		str	r0, [sp, #4]	@ I2Cx, i2cxbase
 1202              		.loc 1 1215 0
 1203 0378 0093     		str	r3, [sp, #0]	@ i2creg.1, i2creg
 1204              	.LVL90:
1216:.\stm32f4periph\src/stm32f4xx_i2c.c ****   
1217:.\stm32f4periph\src/stm32f4xx_i2c.c ****   /* Get bit[23:0] of the flag */
1218:.\stm32f4periph\src/stm32f4xx_i2c.c ****   I2C_FLAG &= FLAG_MASK;
1219:.\stm32f4periph\src/stm32f4xx_i2c.c ****   
1220:.\stm32f4periph\src/stm32f4xx_i2c.c ****   if(i2creg != 0)
 1205              		.loc 1 1220 0
 1206 037a 009B     		ldr	r3, [sp, #0]	@ i2creg.2, i2creg
 1207              	.LVL91:
1218:.\stm32f4periph\src/stm32f4xx_i2c.c ****   I2C_FLAG &= FLAG_MASK;
 1208              		.loc 1 1218 0
 1209 037c 21F07F41 		bic	r1, r1, #-16777216	@ I2C_FLAG, I2C_FLAG,
 1210              	.LVL92:
 1211              		.loc 1 1220 0
 1212 0380 13B1     		cbz	r3, .L103	@ i2creg.2,
1221:.\stm32f4periph\src/stm32f4xx_i2c.c ****   {
1222:.\stm32f4periph\src/stm32f4xx_i2c.c ****     /* Get the I2Cx SR1 register address */
1223:.\stm32f4periph\src/stm32f4xx_i2c.c ****     i2cxbase += 0x14;
 1213              		.loc 1 1223 0
 1214 0382 019B     		ldr	r3, [sp, #4]	@ i2cxbase.3, i2cxbase
 1215 0384 1433     		adds	r3, r3, #20	@ i2cxbase.4, i2cxbase.3,
 1216              	.LVL93:
 1217 0386 02E0     		b	.L105	@
 1218              	.LVL94:
 1219              	.L103:
1224:.\stm32f4periph\src/stm32f4xx_i2c.c ****   }
1225:.\stm32f4periph\src/stm32f4xx_i2c.c ****   else
1226:.\stm32f4periph\src/stm32f4xx_i2c.c ****   {
1227:.\stm32f4periph\src/stm32f4xx_i2c.c ****     /* Flag in I2Cx SR2 Register */
1228:.\stm32f4periph\src/stm32f4xx_i2c.c ****     I2C_FLAG = (uint32_t)(I2C_FLAG >> 16);
1229:.\stm32f4periph\src/stm32f4xx_i2c.c ****     /* Get the I2Cx SR2 register address */
1230:.\stm32f4periph\src/stm32f4xx_i2c.c ****     i2cxbase += 0x18;
 1220              		.loc 1 1230 0
 1221 0388 019B     		ldr	r3, [sp, #4]	@ i2cxbase.5, i2cxbase
1228:.\stm32f4periph\src/stm32f4xx_i2c.c ****     I2C_FLAG = (uint32_t)(I2C_FLAG >> 16);
 1222              		.loc 1 1228 0
 1223 038a 090C     		lsrs	r1, r1, #16	@ I2C_FLAG, I2C_FLAG,
 1224              	.LVL95:
 1225              		.loc 1 1230 0
 1226 038c 1833     		adds	r3, r3, #24	@ i2cxbase.6, i2cxbase.5,
 1227              	.LVL96:
 1228              	.L105:
 1229 038e 0193     		str	r3, [sp, #4]	@ i2cxbase.6, i2cxbase
1231:.\stm32f4periph\src/stm32f4xx_i2c.c ****   }
1232:.\stm32f4periph\src/stm32f4xx_i2c.c ****   
1233:.\stm32f4periph\src/stm32f4xx_i2c.c ****   if(((*(__IO uint32_t *)i2cxbase) & I2C_FLAG) != (uint32_t)RESET)
 1230              		.loc 1 1233 0
 1231 0390 019B     		ldr	r3, [sp, #4]	@ i2cxbase.7, i2cxbase
 1232              	.LVL97:
 1233 0392 1B68     		ldr	r3, [r3, #0]	@ D.7478, *i2cxbase.8_16
 1234              	.LVL98:
ARM GAS  C:\Users\Kevin\AppData\Local\Temp\cc2AQj48.s 			page 45


 1235 0394 1942     		tst	r1, r3	@ I2C_FLAG, D.7478
1234:.\stm32f4periph\src/stm32f4xx_i2c.c ****   {
1235:.\stm32f4periph\src/stm32f4xx_i2c.c ****     /* I2C_FLAG is set */
1236:.\stm32f4periph\src/stm32f4xx_i2c.c ****     bitstatus = SET;
1237:.\stm32f4periph\src/stm32f4xx_i2c.c ****   }
1238:.\stm32f4periph\src/stm32f4xx_i2c.c ****   else
1239:.\stm32f4periph\src/stm32f4xx_i2c.c ****   {
1240:.\stm32f4periph\src/stm32f4xx_i2c.c ****     /* I2C_FLAG is reset */
1241:.\stm32f4periph\src/stm32f4xx_i2c.c ****     bitstatus = RESET;
1242:.\stm32f4periph\src/stm32f4xx_i2c.c ****   }
1243:.\stm32f4periph\src/stm32f4xx_i2c.c ****   
1244:.\stm32f4periph\src/stm32f4xx_i2c.c ****   /* Return the I2C_FLAG status */
1245:.\stm32f4periph\src/stm32f4xx_i2c.c ****   return  bitstatus;
1246:.\stm32f4periph\src/stm32f4xx_i2c.c **** }
 1236              		.loc 1 1246 0
 1237 0396 0CBF     		ite	eq	@
 1238 0398 0020     		moveq	r0, #0	@,
 1239 039a 0120     		movne	r0, #1	@,
 1240              	.LVL99:
 1241 039c 02B0     		add	sp, sp, #8	@,,
 1242 039e 7047     		bx	lr
 1243              		.cfi_endproc
 1244              	.LFE139:
 1245              		.size	I2C_GetFlagStatus, .-I2C_GetFlagStatus
 1246              		.align	1
 1247              		.global	I2C_ClearFlag
 1248              		.thumb
 1249              		.thumb_func
 1250              		.type	I2C_ClearFlag, %function
 1251              	I2C_ClearFlag:
 1252              	.LFB140:
1247:.\stm32f4periph\src/stm32f4xx_i2c.c **** 
1248:.\stm32f4periph\src/stm32f4xx_i2c.c **** /**
1249:.\stm32f4periph\src/stm32f4xx_i2c.c ****   * @brief  Clears the I2Cx's pending flags.
1250:.\stm32f4periph\src/stm32f4xx_i2c.c ****   * @param  I2Cx: where x can be 1, 2 or 3 to select the I2C peripheral.
1251:.\stm32f4periph\src/stm32f4xx_i2c.c ****   * @param  I2C_FLAG: specifies the flag to clear. 
1252:.\stm32f4periph\src/stm32f4xx_i2c.c ****   *          This parameter can be any combination of the following values:
1253:.\stm32f4periph\src/stm32f4xx_i2c.c ****   *            @arg I2C_FLAG_SMBALERT: SMBus Alert flag
1254:.\stm32f4periph\src/stm32f4xx_i2c.c ****   *            @arg I2C_FLAG_TIMEOUT: Timeout or Tlow error flag
1255:.\stm32f4periph\src/stm32f4xx_i2c.c ****   *            @arg I2C_FLAG_PECERR: PEC error in reception flag
1256:.\stm32f4periph\src/stm32f4xx_i2c.c ****   *            @arg I2C_FLAG_OVR: Overrun/Underrun flag (Slave mode)
1257:.\stm32f4periph\src/stm32f4xx_i2c.c ****   *            @arg I2C_FLAG_AF: Acknowledge failure flag
1258:.\stm32f4periph\src/stm32f4xx_i2c.c ****   *            @arg I2C_FLAG_ARLO: Arbitration lost flag (Master mode)
1259:.\stm32f4periph\src/stm32f4xx_i2c.c ****   *            @arg I2C_FLAG_BERR: Bus error flag
1260:.\stm32f4periph\src/stm32f4xx_i2c.c ****   *   
1261:.\stm32f4periph\src/stm32f4xx_i2c.c ****   * @note   STOPF (STOP detection) is cleared by software sequence: a read operation 
1262:.\stm32f4periph\src/stm32f4xx_i2c.c ****   *          to I2C_SR1 register (I2C_GetFlagStatus()) followed by a write operation 
1263:.\stm32f4periph\src/stm32f4xx_i2c.c ****   *          to I2C_CR1 register (I2C_Cmd() to re-enable the I2C peripheral).
1264:.\stm32f4periph\src/stm32f4xx_i2c.c ****   * @note   ADD10 (10-bit header sent) is cleared by software sequence: a read 
1265:.\stm32f4periph\src/stm32f4xx_i2c.c ****   *          operation to I2C_SR1 (I2C_GetFlagStatus()) followed by writing the 
1266:.\stm32f4periph\src/stm32f4xx_i2c.c ****   *          second byte of the address in DR register.
1267:.\stm32f4periph\src/stm32f4xx_i2c.c ****   * @note   BTF (Byte Transfer Finished) is cleared by software sequence: a read 
1268:.\stm32f4periph\src/stm32f4xx_i2c.c ****   *          operation to I2C_SR1 register (I2C_GetFlagStatus()) followed by a 
1269:.\stm32f4periph\src/stm32f4xx_i2c.c ****   *          read/write to I2C_DR register (I2C_SendData()).
1270:.\stm32f4periph\src/stm32f4xx_i2c.c ****   * @note   ADDR (Address sent) is cleared by software sequence: a read operation to 
1271:.\stm32f4periph\src/stm32f4xx_i2c.c ****   *          I2C_SR1 register (I2C_GetFlagStatus()) followed by a read operation to 
1272:.\stm32f4periph\src/stm32f4xx_i2c.c ****   *          I2C_SR2 register ((void)(I2Cx->SR2)).
ARM GAS  C:\Users\Kevin\AppData\Local\Temp\cc2AQj48.s 			page 46


1273:.\stm32f4periph\src/stm32f4xx_i2c.c ****   * @note   SB (Start Bit) is cleared software sequence: a read operation to I2C_SR1
1274:.\stm32f4periph\src/stm32f4xx_i2c.c ****   *          register (I2C_GetFlagStatus()) followed by a write operation to I2C_DR
1275:.\stm32f4periph\src/stm32f4xx_i2c.c ****   *          register (I2C_SendData()).
1276:.\stm32f4periph\src/stm32f4xx_i2c.c ****   *  
1277:.\stm32f4periph\src/stm32f4xx_i2c.c ****   * @retval None
1278:.\stm32f4periph\src/stm32f4xx_i2c.c ****   */
1279:.\stm32f4periph\src/stm32f4xx_i2c.c **** void I2C_ClearFlag(I2C_TypeDef* I2Cx, uint32_t I2C_FLAG)
1280:.\stm32f4periph\src/stm32f4xx_i2c.c **** {
 1253              		.loc 1 1280 0
 1254              		.cfi_startproc
 1255              		@ args = 0, pretend = 0, frame = 0
 1256              		@ frame_needed = 0, uses_anonymous_args = 0
 1257              		@ link register save eliminated.
 1258              	.LVL100:
1281:.\stm32f4periph\src/stm32f4xx_i2c.c ****   uint32_t flagpos = 0;
1282:.\stm32f4periph\src/stm32f4xx_i2c.c ****   /* Check the parameters */
1283:.\stm32f4periph\src/stm32f4xx_i2c.c ****   assert_param(IS_I2C_ALL_PERIPH(I2Cx));
1284:.\stm32f4periph\src/stm32f4xx_i2c.c ****   assert_param(IS_I2C_CLEAR_FLAG(I2C_FLAG));
1285:.\stm32f4periph\src/stm32f4xx_i2c.c ****   /* Get the I2C flag position */
1286:.\stm32f4periph\src/stm32f4xx_i2c.c ****   flagpos = I2C_FLAG & FLAG_MASK;
1287:.\stm32f4periph\src/stm32f4xx_i2c.c ****   /* Clear the selected I2C flag */
1288:.\stm32f4periph\src/stm32f4xx_i2c.c ****   I2Cx->SR1 = (uint16_t)~flagpos;
 1259              		.loc 1 1288 0
 1260 03a0 C943     		mvns	r1, r1	@ tmp141, I2C_FLAG
 1261              	.LVL101:
 1262 03a2 8182     		strh	r1, [r0, #20]	@ movhi	@ D.7465, I2Cx_6(D)->SR1
 1263 03a4 7047     		bx	lr	@
 1264              		.cfi_endproc
 1265              	.LFE140:
 1266              		.size	I2C_ClearFlag, .-I2C_ClearFlag
 1267              		.align	1
 1268              		.global	I2C_GetITStatus
 1269              		.thumb
 1270              		.thumb_func
 1271              		.type	I2C_GetITStatus, %function
 1272              	I2C_GetITStatus:
 1273              	.LFB141:
1289:.\stm32f4periph\src/stm32f4xx_i2c.c **** }
1290:.\stm32f4periph\src/stm32f4xx_i2c.c **** 
1291:.\stm32f4periph\src/stm32f4xx_i2c.c **** /**
1292:.\stm32f4periph\src/stm32f4xx_i2c.c ****   * @brief  Checks whether the specified I2C interrupt has occurred or not.
1293:.\stm32f4periph\src/stm32f4xx_i2c.c ****   * @param  I2Cx: where x can be 1, 2 or 3 to select the I2C peripheral.
1294:.\stm32f4periph\src/stm32f4xx_i2c.c ****   * @param  I2C_IT: specifies the interrupt source to check. 
1295:.\stm32f4periph\src/stm32f4xx_i2c.c ****   *          This parameter can be one of the following values:
1296:.\stm32f4periph\src/stm32f4xx_i2c.c ****   *            @arg I2C_IT_SMBALERT: SMBus Alert flag
1297:.\stm32f4periph\src/stm32f4xx_i2c.c ****   *            @arg I2C_IT_TIMEOUT: Timeout or Tlow error flag
1298:.\stm32f4periph\src/stm32f4xx_i2c.c ****   *            @arg I2C_IT_PECERR: PEC error in reception flag
1299:.\stm32f4periph\src/stm32f4xx_i2c.c ****   *            @arg I2C_IT_OVR: Overrun/Underrun flag (Slave mode)
1300:.\stm32f4periph\src/stm32f4xx_i2c.c ****   *            @arg I2C_IT_AF: Acknowledge failure flag
1301:.\stm32f4periph\src/stm32f4xx_i2c.c ****   *            @arg I2C_IT_ARLO: Arbitration lost flag (Master mode)
1302:.\stm32f4periph\src/stm32f4xx_i2c.c ****   *            @arg I2C_IT_BERR: Bus error flag
1303:.\stm32f4periph\src/stm32f4xx_i2c.c ****   *            @arg I2C_IT_TXE: Data register empty flag (Transmitter)
1304:.\stm32f4periph\src/stm32f4xx_i2c.c ****   *            @arg I2C_IT_RXNE: Data register not empty (Receiver) flag
1305:.\stm32f4periph\src/stm32f4xx_i2c.c ****   *            @arg I2C_IT_STOPF: Stop detection flag (Slave mode)
1306:.\stm32f4periph\src/stm32f4xx_i2c.c ****   *            @arg I2C_IT_ADD10: 10-bit header sent flag (Master mode)
1307:.\stm32f4periph\src/stm32f4xx_i2c.c ****   *            @arg I2C_IT_BTF: Byte transfer finished flag
1308:.\stm32f4periph\src/stm32f4xx_i2c.c ****   *            @arg I2C_IT_ADDR: Address sent flag (Master mode) "ADSL"
ARM GAS  C:\Users\Kevin\AppData\Local\Temp\cc2AQj48.s 			page 47


1309:.\stm32f4periph\src/stm32f4xx_i2c.c ****   *                              Address matched flag (Slave mode)"ENDAD"
1310:.\stm32f4periph\src/stm32f4xx_i2c.c ****   *            @arg I2C_IT_SB: Start bit flag (Master mode)
1311:.\stm32f4periph\src/stm32f4xx_i2c.c ****   * @retval The new state of I2C_IT (SET or RESET).
1312:.\stm32f4periph\src/stm32f4xx_i2c.c ****   */
1313:.\stm32f4periph\src/stm32f4xx_i2c.c **** ITStatus I2C_GetITStatus(I2C_TypeDef* I2Cx, uint32_t I2C_IT)
1314:.\stm32f4periph\src/stm32f4xx_i2c.c **** {
 1274              		.loc 1 1314 0
 1275              		.cfi_startproc
 1276              		@ args = 0, pretend = 0, frame = 0
 1277              		@ frame_needed = 0, uses_anonymous_args = 0
 1278              		@ link register save eliminated.
 1279              	.LVL102:
1315:.\stm32f4periph\src/stm32f4xx_i2c.c ****   ITStatus bitstatus = RESET;
1316:.\stm32f4periph\src/stm32f4xx_i2c.c ****   uint32_t enablestatus = 0;
1317:.\stm32f4periph\src/stm32f4xx_i2c.c **** 
1318:.\stm32f4periph\src/stm32f4xx_i2c.c ****   /* Check the parameters */
1319:.\stm32f4periph\src/stm32f4xx_i2c.c ****   assert_param(IS_I2C_ALL_PERIPH(I2Cx));
1320:.\stm32f4periph\src/stm32f4xx_i2c.c ****   assert_param(IS_I2C_GET_IT(I2C_IT));
1321:.\stm32f4periph\src/stm32f4xx_i2c.c **** 
1322:.\stm32f4periph\src/stm32f4xx_i2c.c ****   /* Check if the interrupt source is enabled or not */
1323:.\stm32f4periph\src/stm32f4xx_i2c.c ****   enablestatus = (uint32_t)(((I2C_IT & ITEN_MASK) >> 16) & (I2Cx->CR2)) ;
 1280              		.loc 1 1323 0
 1281 03a6 8388     		ldrh	r3, [r0, #4]	@, I2Cx_7(D)->CR2
1324:.\stm32f4periph\src/stm32f4xx_i2c.c ****   
1325:.\stm32f4periph\src/stm32f4xx_i2c.c ****   /* Get bit[23:0] of the flag */
1326:.\stm32f4periph\src/stm32f4xx_i2c.c ****   I2C_IT &= FLAG_MASK;
1327:.\stm32f4periph\src/stm32f4xx_i2c.c **** 
1328:.\stm32f4periph\src/stm32f4xx_i2c.c ****   /* Check the status of the specified I2C flag */
1329:.\stm32f4periph\src/stm32f4xx_i2c.c ****   if (((I2Cx->SR1 & I2C_IT) != (uint32_t)RESET) && enablestatus)
 1282              		.loc 1 1329 0
 1283 03a8 808A     		ldrh	r0, [r0, #20]	@, I2Cx_7(D)->SR1
 1284              	.LVL103:
 1285 03aa 80B2     		uxth	r0, r0	@ D.7457, I2Cx_7(D)->SR1
 1286 03ac 0840     		ands	r0, r0, r1	@ tmp151, D.7457, I2C_IT
1323:.\stm32f4periph\src/stm32f4xx_i2c.c ****   enablestatus = (uint32_t)(((I2C_IT & ITEN_MASK) >> 16) & (I2Cx->CR2)) ;
 1287              		.loc 1 1323 0
 1288 03ae 9BB2     		uxth	r3, r3	@ D.7453, I2Cx_7(D)->CR2
 1289              	.LVL104:
 1290              		.loc 1 1329 0
 1291 03b0 06D0     		beq	.L108	@,
1323:.\stm32f4periph\src/stm32f4xx_i2c.c ****   enablestatus = (uint32_t)(((I2C_IT & ITEN_MASK) >> 16) & (I2Cx->CR2)) ;
 1292              		.loc 1 1323 0 discriminator 1
 1293 03b2 01F0E061 		and	r1, r1, #117440512	@ tmp152, I2C_IT,
 1294              	.LVL105:
 1295              		.loc 1 1329 0 discriminator 1
 1296 03b6 13EA1141 		ands	r1, r3, r1, lsr #16	@,, D.7453, tmp152,
 1297              	.LVL106:
1330:.\stm32f4periph\src/stm32f4xx_i2c.c ****   {
1331:.\stm32f4periph\src/stm32f4xx_i2c.c ****     /* I2C_IT is set */
1332:.\stm32f4periph\src/stm32f4xx_i2c.c ****     bitstatus = SET;
 1298              		.loc 1 1332 0 discriminator 1
 1299 03ba 0CBF     		ite	eq	@
 1300 03bc 0020     		moveq	r0, #0	@, bitstatus
 1301 03be 0120     		movne	r0, #1	@, bitstatus
 1302              	.L108:
 1303              	.LVL107:
1333:.\stm32f4periph\src/stm32f4xx_i2c.c ****   }
ARM GAS  C:\Users\Kevin\AppData\Local\Temp\cc2AQj48.s 			page 48


1334:.\stm32f4periph\src/stm32f4xx_i2c.c ****   else
1335:.\stm32f4periph\src/stm32f4xx_i2c.c ****   {
1336:.\stm32f4periph\src/stm32f4xx_i2c.c ****     /* I2C_IT is reset */
1337:.\stm32f4periph\src/stm32f4xx_i2c.c ****     bitstatus = RESET;
1338:.\stm32f4periph\src/stm32f4xx_i2c.c ****   }
1339:.\stm32f4periph\src/stm32f4xx_i2c.c ****   /* Return the I2C_IT status */
1340:.\stm32f4periph\src/stm32f4xx_i2c.c ****   return  bitstatus;
1341:.\stm32f4periph\src/stm32f4xx_i2c.c **** }
 1304              		.loc 1 1341 0
 1305 03c0 7047     		bx	lr	@
 1306              		.cfi_endproc
 1307              	.LFE141:
 1308              		.size	I2C_GetITStatus, .-I2C_GetITStatus
 1309              		.align	1
 1310              		.global	I2C_ClearITPendingBit
 1311              		.thumb
 1312              		.thumb_func
 1313              		.type	I2C_ClearITPendingBit, %function
 1314              	I2C_ClearITPendingBit:
 1315              	.LFB142:
1342:.\stm32f4periph\src/stm32f4xx_i2c.c **** 
1343:.\stm32f4periph\src/stm32f4xx_i2c.c **** /**
1344:.\stm32f4periph\src/stm32f4xx_i2c.c ****   * @brief  Clears the I2Cx's interrupt pending bits.
1345:.\stm32f4periph\src/stm32f4xx_i2c.c ****   * @param  I2Cx: where x can be 1, 2 or 3 to select the I2C peripheral.
1346:.\stm32f4periph\src/stm32f4xx_i2c.c ****   * @param  I2C_IT: specifies the interrupt pending bit to clear. 
1347:.\stm32f4periph\src/stm32f4xx_i2c.c ****   *          This parameter can be any combination of the following values:
1348:.\stm32f4periph\src/stm32f4xx_i2c.c ****   *            @arg I2C_IT_SMBALERT: SMBus Alert interrupt
1349:.\stm32f4periph\src/stm32f4xx_i2c.c ****   *            @arg I2C_IT_TIMEOUT: Timeout or Tlow error interrupt
1350:.\stm32f4periph\src/stm32f4xx_i2c.c ****   *            @arg I2C_IT_PECERR: PEC error in reception  interrupt
1351:.\stm32f4periph\src/stm32f4xx_i2c.c ****   *            @arg I2C_IT_OVR: Overrun/Underrun interrupt (Slave mode)
1352:.\stm32f4periph\src/stm32f4xx_i2c.c ****   *            @arg I2C_IT_AF: Acknowledge failure interrupt
1353:.\stm32f4periph\src/stm32f4xx_i2c.c ****   *            @arg I2C_IT_ARLO: Arbitration lost interrupt (Master mode)
1354:.\stm32f4periph\src/stm32f4xx_i2c.c ****   *            @arg I2C_IT_BERR: Bus error interrupt
1355:.\stm32f4periph\src/stm32f4xx_i2c.c ****   * 
1356:.\stm32f4periph\src/stm32f4xx_i2c.c ****   * @note   STOPF (STOP detection) is cleared by software sequence: a read operation 
1357:.\stm32f4periph\src/stm32f4xx_i2c.c ****   *          to I2C_SR1 register (I2C_GetITStatus()) followed by a write operation to 
1358:.\stm32f4periph\src/stm32f4xx_i2c.c ****   *          I2C_CR1 register (I2C_Cmd() to re-enable the I2C peripheral).
1359:.\stm32f4periph\src/stm32f4xx_i2c.c ****   * @note   ADD10 (10-bit header sent) is cleared by software sequence: a read 
1360:.\stm32f4periph\src/stm32f4xx_i2c.c ****   *          operation to I2C_SR1 (I2C_GetITStatus()) followed by writing the second 
1361:.\stm32f4periph\src/stm32f4xx_i2c.c ****   *          byte of the address in I2C_DR register.
1362:.\stm32f4periph\src/stm32f4xx_i2c.c ****   * @note   BTF (Byte Transfer Finished) is cleared by software sequence: a read 
1363:.\stm32f4periph\src/stm32f4xx_i2c.c ****   *          operation to I2C_SR1 register (I2C_GetITStatus()) followed by a 
1364:.\stm32f4periph\src/stm32f4xx_i2c.c ****   *          read/write to I2C_DR register (I2C_SendData()).
1365:.\stm32f4periph\src/stm32f4xx_i2c.c ****   * @note   ADDR (Address sent) is cleared by software sequence: a read operation to 
1366:.\stm32f4periph\src/stm32f4xx_i2c.c ****   *          I2C_SR1 register (I2C_GetITStatus()) followed by a read operation to 
1367:.\stm32f4periph\src/stm32f4xx_i2c.c ****   *          I2C_SR2 register ((void)(I2Cx->SR2)).
1368:.\stm32f4periph\src/stm32f4xx_i2c.c ****   * @note   SB (Start Bit) is cleared by software sequence: a read operation to 
1369:.\stm32f4periph\src/stm32f4xx_i2c.c ****   *          I2C_SR1 register (I2C_GetITStatus()) followed by a write operation to 
1370:.\stm32f4periph\src/stm32f4xx_i2c.c ****   *          I2C_DR register (I2C_SendData()).
1371:.\stm32f4periph\src/stm32f4xx_i2c.c ****   * @retval None
1372:.\stm32f4periph\src/stm32f4xx_i2c.c ****   */
1373:.\stm32f4periph\src/stm32f4xx_i2c.c **** void I2C_ClearITPendingBit(I2C_TypeDef* I2Cx, uint32_t I2C_IT)
1374:.\stm32f4periph\src/stm32f4xx_i2c.c **** {
 1316              		.loc 1 1374 0
 1317              		.cfi_startproc
 1318              		@ args = 0, pretend = 0, frame = 0
 1319              		@ frame_needed = 0, uses_anonymous_args = 0
ARM GAS  C:\Users\Kevin\AppData\Local\Temp\cc2AQj48.s 			page 49


 1320              		@ link register save eliminated.
 1321              	.LVL108:
1375:.\stm32f4periph\src/stm32f4xx_i2c.c ****   uint32_t flagpos = 0;
1376:.\stm32f4periph\src/stm32f4xx_i2c.c ****   /* Check the parameters */
1377:.\stm32f4periph\src/stm32f4xx_i2c.c ****   assert_param(IS_I2C_ALL_PERIPH(I2Cx));
1378:.\stm32f4periph\src/stm32f4xx_i2c.c ****   assert_param(IS_I2C_CLEAR_IT(I2C_IT));
1379:.\stm32f4periph\src/stm32f4xx_i2c.c **** 
1380:.\stm32f4periph\src/stm32f4xx_i2c.c ****   /* Get the I2C flag position */
1381:.\stm32f4periph\src/stm32f4xx_i2c.c ****   flagpos = I2C_IT & FLAG_MASK;
1382:.\stm32f4periph\src/stm32f4xx_i2c.c **** 
1383:.\stm32f4periph\src/stm32f4xx_i2c.c ****   /* Clear the selected I2C flag */
1384:.\stm32f4periph\src/stm32f4xx_i2c.c ****   I2Cx->SR1 = (uint16_t)~flagpos;
 1322              		.loc 1 1384 0
 1323 03c2 C943     		mvns	r1, r1	@ tmp141, I2C_IT
 1324              	.LVL109:
 1325 03c4 8182     		strh	r1, [r0, #20]	@ movhi	@ D.7450, I2Cx_6(D)->SR1
 1326 03c6 7047     		bx	lr	@
 1327              		.cfi_endproc
 1328              	.LFE142:
 1329              		.size	I2C_ClearITPendingBit, .-I2C_ClearITPendingBit
 1330              	.Letext0:
 1331              		.file 2 "k:\\electronics\\gcc\\bin\\../lib/gcc/arm-none-eabi/4.7.2/../../../../arm-none-eabi/inclu
 1332              		.file 3 ".\\inc/stm32f4xx.h"
 1333              		.file 4 ".\\stm32f4periph\\inc/stm32f4xx_rcc.h"
 1334              		.file 5 ".\\stm32f4periph\\inc/stm32f4xx_i2c.h"
 1335              		.file 6 ".\\inc/core_cm4.h"