ARM GAS  C:\Users\Kevin\AppData\Local\Temp\ccw18vSb.s 			page 1


   1              		.syntax unified
   2              		.cpu cortex-m4
   3              		.eabi_attribute 27, 3	@ Tag_ABI_HardFP_use
   4              		.eabi_attribute 28, 1	@ Tag_ABI_VFP_args
   5              		.fpu fpv4-sp-d16
   6              		.eabi_attribute 20, 1	@ Tag_ABI_FP_denormal
   7              		.eabi_attribute 21, 1	@ Tag_ABI_FP_exceptions
   8              		.eabi_attribute 23, 3	@ Tag_ABI_FP_number_model
   9              		.eabi_attribute 24, 1	@ Tag_ABI_align8_needed
  10              		.eabi_attribute 25, 1	@ Tag_ABI_align8_preserved
  11              		.eabi_attribute 26, 1	@ Tag_ABI_enum_size
  12              		.eabi_attribute 30, 4	@ Tag_ABI_optimization_goals
  13              		.eabi_attribute 34, 1	@ Tag_CPU_unaligned_access
  14              		.eabi_attribute 18, 4	@ Tag_ABI_PCS_wchar_t
  15              		.file	"complementary.c"
  16              	@ GNU C (Sourcery CodeBench Lite 2012.09-63) version 4.7.2 (arm-none-eabi)
  17              	@	compiled by GNU C version 4.3.2, GMP version 5.0.5, MPFR version 3.1.1-p2, MPC version 1.0.1
  18              	@ GGC heuristics: --param ggc-min-expand=100 --param ggc-min-heapsize=131072
  19              	@ options passed:  -I . -I \STMSPINCDDIR -I .\stm32f4periph\inc
  20              	@ -I .\CMSIS\Include -I .\inc\commo\usb -I .\inc\commo -I .\inc\common
  21              	@ -I .\inc -imultilib thumb2
  22              	@ -iprefix k:\electronics\gcc\bin\../lib/gcc/arm-none-eabi/4.7.2/
  23              	@ -isysroot k:\electronics\gcc\bin\../arm-none-eabi
  24              	@ -MD .\src\sensors\fusion\complementary.d -MF .dep\complementary.o.d -MP
  25              	@ -MQ .\src\sensors\fusion\complementary.o -D__USES_INITFINI__ -D STM32F0XX
  26              	@ -D USE_STDPERIPH_DRIVER -D RUN_FROM_FLASH=1
  27              	@ -D __CS_SOURCERYGXX_MAJ__=2012 -D __CS_SOURCERYGXX_MIN__=9
  28              	@ -D __CS_SOURCERYGXX_REV__=63 .\src\sensors\fusion\complementary.c
  29              	@ -mcpu=cortex-m4 -mfpu=fpv4-sp-d16 -mfloat-abi=hard -mthumb
  30              	@ -auxbase-strip .\src\sensors\fusion\complementary.o -gdwarf-2 -Os -Wall
  31              	@ -Wstrict-prototypes -std=gnu99 -fomit-frame-pointer -fverbose-asm
  32              	@ options enabled:  -fauto-inc-dec -fbranch-count-reg -fcaller-saves
  33              	@ -fcombine-stack-adjustments -fcommon -fcompare-elim -fcprop-registers
  34              	@ -fcrossjumping -fcse-follow-jumps -fdebug-types-section -fdefer-pop
  35              	@ -fdelete-null-pointer-checks -fdevirtualize -fdwarf2-cfi-asm
  36              	@ -fearly-inlining -feliminate-unused-debug-types -fexpensive-optimizations
  37              	@ -fextension-elimination -fforward-propagate -ffunction-cse -fgcse
  38              	@ -fgcse-lm -fgnu-runtime -fguess-branch-probability -fident
  39              	@ -fif-conversion -fif-conversion2 -findirect-inlining -finline
  40              	@ -finline-atomics -finline-functions -finline-functions-called-once
  41              	@ -finline-small-functions -fipa-cp -fipa-profile -fipa-pure-const
  42              	@ -fipa-reference -fipa-sra -fira-share-save-slots -fira-share-spill-slots
  43              	@ -fivopts -fkeep-static-consts -fleading-underscore -fmath-errno
  44              	@ -fmerge-constants -fmerge-debug-strings -fmove-loop-invariants
  45              	@ -fomit-frame-pointer -foptimize-register-move -foptimize-sibling-calls
  46              	@ -fpartial-inlining -fpeephole -fpeephole2 -fprefetch-loop-arrays
  47              	@ -freg-struct-return -fregmove -freorder-blocks -freorder-functions
  48              	@ -frerun-cse-after-loop -fsched-critical-path-heuristic
  49              	@ -fsched-dep-count-heuristic -fsched-group-heuristic -fsched-interblock
  50              	@ -fsched-last-insn-heuristic -fsched-rank-heuristic -fsched-spec
  51              	@ -fsched-spec-insn-heuristic -fsched-stalled-insns-dep -fschedule-insns2
  52              	@ -fsection-anchors -fshow-column -fshrink-wrap -fsigned-zeros
  53              	@ -fsplit-ivs-in-unroller -fsplit-wide-types -fstrict-aliasing
  54              	@ -fstrict-overflow -fstrict-volatile-bitfields -fthread-jumps
  55              	@ -ftoplevel-reorder -ftrapping-math -ftree-bit-ccp -ftree-builtin-call-dce
  56              	@ -ftree-ccp -ftree-ch -ftree-copy-prop -ftree-copyrename -ftree-cselim
  57              	@ -ftree-dce -ftree-dominator-opts -ftree-dse -ftree-forwprop -ftree-fre
ARM GAS  C:\Users\Kevin\AppData\Local\Temp\ccw18vSb.s 			page 2


  58              	@ -ftree-if-to-switch-conversion -ftree-loop-if-convert -ftree-loop-im
  59              	@ -ftree-loop-ivcanon -ftree-loop-optimize -ftree-parallelize-loops=
  60              	@ -ftree-phiprop -ftree-pre -ftree-pta -ftree-reassoc -ftree-scev-cprop
  61              	@ -ftree-sink -ftree-slp-vectorize -ftree-sra -ftree-switch-conversion
  62              	@ -ftree-tail-merge -ftree-ter -ftree-vect-loop-version -ftree-vrp
  63              	@ -funit-at-a-time -fvar-tracking -fvar-tracking-assignments -fverbose-asm
  64              	@ -fzero-initialized-in-bss -mlittle-endian -msched-prolog -mthumb
  65              	@ -munaligned-access -mvectorize-with-neon-quad
  66              	
  67              		.text
  68              	.Ltext0:
  69              		.cfi_sections	.debug_frame
  70              		.align	1
  71              		.global	TWB_SNSR_Complementary_Process
  72              		.thumb
  73              		.thumb_func
  74              		.type	TWB_SNSR_Complementary_Process, %function
  75              	TWB_SNSR_Complementary_Process:
  76              	.LFB117:
  77              		.file 1 ".\\src\\sensors\\fusion\\complementary.c"
   1:.\src\sensors\fusion/complementary.c **** /*
   2:.\src\sensors\fusion/complementary.c ****  * complementary.c
   3:.\src\sensors\fusion/complementary.c ****  *
   4:.\src\sensors\fusion/complementary.c ****  *  Created on: Jan 4, 2013
   5:.\src\sensors\fusion/complementary.c ****  *      Author: kevinw
   6:.\src\sensors\fusion/complementary.c ****  */
   7:.\src\sensors\fusion/complementary.c **** 
   8:.\src\sensors\fusion/complementary.c **** #include "sensors/fusion/complementary.h"
   9:.\src\sensors\fusion/complementary.c **** #include "common/twb_serial_eeprom.h"
  10:.\src\sensors\fusion/complementary.c **** #include "twb_eeprom.h"
  11:.\src\sensors\fusion/complementary.c **** #include "common/twb_debug.h"
  12:.\src\sensors\fusion/complementary.c **** #include "common/memory_mgmt.h"
  13:.\src\sensors\fusion/complementary.c **** #include "sensors/GPS.h"
  14:.\src\sensors\fusion/complementary.c **** #include "flight/autopilot.h"
  15:.\src\sensors\fusion/complementary.c **** 
  16:.\src\sensors\fusion/complementary.c **** SensorFusion_t *ComplementaryFilterConfig;
  17:.\src\sensors\fusion/complementary.c **** 
  18:.\src\sensors\fusion/complementary.c **** typedef struct {
  19:.\src\sensors\fusion/complementary.c **** 	int16_t Combined;
  20:.\src\sensors\fusion/complementary.c **** 	int16_t Sensor1;
  21:.\src\sensors\fusion/complementary.c **** 	int16_t Sensor2;
  22:.\src\sensors\fusion/complementary.c **** 	int16_t Sensor3;
  23:.\src\sensors\fusion/complementary.c **** 
  24:.\src\sensors\fusion/complementary.c **** 	SensorDevice_e DeviceType;
  25:.\src\sensors\fusion/complementary.c **** 
  26:.\src\sensors\fusion/complementary.c **** } SensorFusionMsg_t;
  27:.\src\sensors\fusion/complementary.c **** 
  28:.\src\sensors\fusion/complementary.c **** SensorFusionMsg_t *SensorFusionMsg;
  29:.\src\sensors\fusion/complementary.c **** 
  30:.\src\sensors\fusion/complementary.c **** CompFilter_t *CompFilterPitch;
  31:.\src\sensors\fusion/complementary.c **** CompFilter_t *CompFilterRoll;
  32:.\src\sensors\fusion/complementary.c **** CompFilter_t *CompFilterHeading;
  33:.\src\sensors\fusion/complementary.c **** CompFilter_t *CompFilterAltitude;
  34:.\src\sensors\fusion/complementary.c **** 
  35:.\src\sensors\fusion/complementary.c **** void __snsr_ResolveCompFilter(CompFilterValues_t value, CompFilter_t *filterSettings){
  36:.\src\sensors\fusion/complementary.c **** 	float timeConstant = 0.0f;
  37:.\src\sensors\fusion/complementary.c **** 
ARM GAS  C:\Users\Kevin\AppData\Local\Temp\ccw18vSb.s 			page 3


  38:.\src\sensors\fusion/complementary.c **** 	switch(value){
  39:.\src\sensors\fusion/complementary.c **** 		case CompFilter_1sec: timeConstant = 1.000; break;
  40:.\src\sensors\fusion/complementary.c **** 		case CompFilter_900Ms: timeConstant = 0.90; break;
  41:.\src\sensors\fusion/complementary.c **** 		case CompFilter_800Ms: timeConstant = 0.80; break;
  42:.\src\sensors\fusion/complementary.c **** 		case CompFilter_700Ms: timeConstant = 0.70; break;
  43:.\src\sensors\fusion/complementary.c **** 		case CompFilter_600Ms: timeConstant = 0.60; break;
  44:.\src\sensors\fusion/complementary.c **** 		case CompFilter_500Ms: timeConstant = 0.50; break;
  45:.\src\sensors\fusion/complementary.c **** 		case CompFilter_400Ms: timeConstant = 0.400; break;
  46:.\src\sensors\fusion/complementary.c **** 		case CompFilter_300Ms: timeConstant = 0.300; break;
  47:.\src\sensors\fusion/complementary.c **** 		case CompFilter_200Ms: timeConstant = 0.200; break;
  48:.\src\sensors\fusion/complementary.c **** 		case CompFilter_150Ms: timeConstant = 0.150; break;
  49:.\src\sensors\fusion/complementary.c **** 		case CompFilter_100Ms: timeConstant = 0.100; break;
  50:.\src\sensors\fusion/complementary.c **** 		case CompFilter_50Ms: timeConstant = 0.050; break;
  51:.\src\sensors\fusion/complementary.c **** 		case CompFilter_25Ms: timeConstant = 0.025; break;
  52:.\src\sensors\fusion/complementary.c **** 		case CompFilter_20Ms: timeConstant = 0.020; break;
  53:.\src\sensors\fusion/complementary.c **** 		case CompFilter_15Ms: timeConstant = 0.015; break;
  54:.\src\sensors\fusion/complementary.c **** 		case CompFilter_10Ms: timeConstant = 0.010; break;
  55:.\src\sensors\fusion/complementary.c **** 		case CompFilter_05Ms: timeConstant = 0.005; break;
  56:.\src\sensors\fusion/complementary.c **** 		case CompFilter_02Ms: timeConstant = 0.002; break;
  57:.\src\sensors\fusion/complementary.c **** 		case CompFilter_01Ms: timeConstant = 0.001; break;
  58:.\src\sensors\fusion/complementary.c **** 	}
  59:.\src\sensors\fusion/complementary.c **** 
  60:.\src\sensors\fusion/complementary.c **** 	float ms = TWB_Timer_GetMSFromSampleRate(ComplementaryFilterConfig->SampleRate) / 1000.0f;
  61:.\src\sensors\fusion/complementary.c **** 
  62:.\src\sensors\fusion/complementary.c ****     float alpha = timeConstant / (timeConstant + ms);
  63:.\src\sensors\fusion/complementary.c **** 
  64:.\src\sensors\fusion/complementary.c **** 	filterSettings->Period1 = alpha;;
  65:.\src\sensors\fusion/complementary.c **** 	filterSettings->Period2 = 1.0f - alpha;
  66:.\src\sensors\fusion/complementary.c **** }
  67:.\src\sensors\fusion/complementary.c **** 
  68:.\src\sensors\fusion/complementary.c **** void __snsr_compFilter_ResolveCompFilters(void){
  69:.\src\sensors\fusion/complementary.c **** 	__snsr_ResolveCompFilter(ComplementaryFilterConfig->TimeConstantPitch, CompFilterPitch);
  70:.\src\sensors\fusion/complementary.c **** 	__snsr_ResolveCompFilter(ComplementaryFilterConfig->TimeConstantRoll, CompFilterRoll);
  71:.\src\sensors\fusion/complementary.c **** 	__snsr_ResolveCompFilter(ComplementaryFilterConfig->TimeConstantHeading, CompFilterHeading);
  72:.\src\sensors\fusion/complementary.c **** 	__snsr_ResolveCompFilter(ComplementaryFilterConfig->TimeConstantAltitude, CompFilterAltitude);
  73:.\src\sensors\fusion/complementary.c **** }
  74:.\src\sensors\fusion/complementary.c **** 
  75:.\src\sensors\fusion/complementary.c **** Sensor_t *__snsr_compFilter_ResolveSensor(SensorDevice_e sensorType){
  76:.\src\sensors\fusion/complementary.c **** 	switch(sensorType){
  77:.\src\sensors\fusion/complementary.c **** 		case GyroITG3200: return GyroITG3200Sensor;
  78:.\src\sensors\fusion/complementary.c **** 		case GyroL3GD20: return GyroL3GD20Sensor;
  79:.\src\sensors\fusion/complementary.c **** 		case GyroMPU60x0: return GyroMPU60x0Sensor;
  80:.\src\sensors\fusion/complementary.c **** 
  81:.\src\sensors\fusion/complementary.c **** 		case AccLSM303: return AccLSM303Sensor;
  82:.\src\sensors\fusion/complementary.c **** 		case AccADXL345: return AccADXL345Sensor;
  83:.\src\sensors\fusion/complementary.c **** 		case AccMPU60x0: return AccMPU60x0Sensor;
  84:.\src\sensors\fusion/complementary.c **** 
  85:.\src\sensors\fusion/complementary.c **** 		case MagLSM303: return MagLSM303Sensor;
  86:.\src\sensors\fusion/complementary.c **** 		case MagHMS5883: return MagHMC5883Sensor;
  87:.\src\sensors\fusion/complementary.c **** 
  88:.\src\sensors\fusion/complementary.c **** 		case AltBMP085: return PressureBMP085Sensor;
  89:.\src\sensors\fusion/complementary.c **** 		case AltMS5611: return PressureMS5611Sensor;
  90:.\src\sensors\fusion/complementary.c **** 		case AltSonar: return SonarSensor;
  91:.\src\sensors\fusion/complementary.c **** 		case AltGPS: return GeoGPSSensor;
  92:.\src\sensors\fusion/complementary.c **** 
  93:.\src\sensors\fusion/complementary.c **** 		default: return SensorNone;
  94:.\src\sensors\fusion/complementary.c **** 	}
ARM GAS  C:\Users\Kevin\AppData\Local\Temp\ccw18vSb.s 			page 4


  95:.\src\sensors\fusion/complementary.c **** }
  96:.\src\sensors\fusion/complementary.c **** 
  97:.\src\sensors\fusion/complementary.c **** void __snsr_compFilter_ResolveSensors(void){
  98:.\src\sensors\fusion/complementary.c **** 	CompFilterPitch->Sensor1 = __snsr_compFilter_ResolveSensor(ComplementaryFilterConfig->Sensor1Pitch
  99:.\src\sensors\fusion/complementary.c **** 	CompFilterPitch->Sensor2 = __snsr_compFilter_ResolveSensor(ComplementaryFilterConfig->Sensor2Pitch
 100:.\src\sensors\fusion/complementary.c **** 	CompFilterPitch->Sensor3 = __snsr_compFilter_ResolveSensor(ComplementaryFilterConfig->Sensor3Pitch
 101:.\src\sensors\fusion/complementary.c **** 
 102:.\src\sensors\fusion/complementary.c **** 	CompFilterRoll->Sensor1 = __snsr_compFilter_ResolveSensor(ComplementaryFilterConfig->Sensor1Roll);
 103:.\src\sensors\fusion/complementary.c **** 	CompFilterRoll->Sensor2 = __snsr_compFilter_ResolveSensor(ComplementaryFilterConfig->Sensor2Roll);
 104:.\src\sensors\fusion/complementary.c **** 	CompFilterRoll->Sensor3 = __snsr_compFilter_ResolveSensor(ComplementaryFilterConfig->Sensor3Roll);
 105:.\src\sensors\fusion/complementary.c **** 
 106:.\src\sensors\fusion/complementary.c **** 	CompFilterHeading->Sensor1 = __snsr_compFilter_ResolveSensor(ComplementaryFilterConfig->Sensor1Hea
 107:.\src\sensors\fusion/complementary.c **** 	CompFilterHeading->Sensor2 = __snsr_compFilter_ResolveSensor(ComplementaryFilterConfig->Sensor2Hea
 108:.\src\sensors\fusion/complementary.c **** 	CompFilterHeading->Sensor3 = __snsr_compFilter_ResolveSensor(ComplementaryFilterConfig->Sensor3Hea
 109:.\src\sensors\fusion/complementary.c **** 
 110:.\src\sensors\fusion/complementary.c **** 	CompFilterAltitude->Sensor1 = __snsr_compFilter_ResolveSensor(ComplementaryFilterConfig->Sensor1Al
 111:.\src\sensors\fusion/complementary.c **** 	CompFilterAltitude->Sensor2 = __snsr_compFilter_ResolveSensor(ComplementaryFilterConfig->Sensor2Al
 112:.\src\sensors\fusion/complementary.c **** 	CompFilterAltitude->Sensor3 = __snsr_compFilter_ResolveSensor(ComplementaryFilterConfig->Sensor3Al
 113:.\src\sensors\fusion/complementary.c **** }
 114:.\src\sensors\fusion/complementary.c **** 
 115:.\src\sensors\fusion/complementary.c **** iOpResult_e TWB_SNSR_Complementary_Init(void){
 116:.\src\sensors\fusion/complementary.c **** 	assert_succeed(TWB_SE_ReadU8(COMPLEMENTARY_EEPROM_OFFSET + 0, &ComplementaryFilterConfig->Enabled)
 117:.\src\sensors\fusion/complementary.c **** 	assert_succeed(TWB_SE_ReadU8(COMPLEMENTARY_EEPROM_OFFSET + 1, &ComplementaryFilterConfig->SampleRa
 118:.\src\sensors\fusion/complementary.c **** 
 119:.\src\sensors\fusion/complementary.c **** 	assert_succeed(TWB_SE_ReadU8(COMPLEMENTARY_EEPROM_OFFSET + 2, &ComplementaryFilterConfig->FilterOp
 120:.\src\sensors\fusion/complementary.c **** 	assert_succeed(TWB_SE_ReadU8(COMPLEMENTARY_EEPROM_OFFSET + 3, &ComplementaryFilterConfig->FilterOp
 121:.\src\sensors\fusion/complementary.c **** 	assert_succeed(TWB_SE_ReadU8(COMPLEMENTARY_EEPROM_OFFSET + 4, &ComplementaryFilterConfig->FilterOp
 122:.\src\sensors\fusion/complementary.c **** 	assert_succeed(TWB_SE_ReadU8(COMPLEMENTARY_EEPROM_OFFSET + 5, &ComplementaryFilterConfig->FilterOp
 123:.\src\sensors\fusion/complementary.c **** 
 124:.\src\sensors\fusion/complementary.c **** 	assert_succeed(TWB_SE_ReadU8(COMPLEMENTARY_EEPROM_OFFSET + 6, &ComplementaryFilterConfig->TimeCons
 125:.\src\sensors\fusion/complementary.c **** 	assert_succeed(TWB_SE_ReadU8(COMPLEMENTARY_EEPROM_OFFSET + 7, &ComplementaryFilterConfig->TimeCons
 126:.\src\sensors\fusion/complementary.c **** 	assert_succeed(TWB_SE_ReadU8(COMPLEMENTARY_EEPROM_OFFSET + 8, &ComplementaryFilterConfig->TimeCons
 127:.\src\sensors\fusion/complementary.c **** 	assert_succeed(TWB_SE_ReadU8(COMPLEMENTARY_EEPROM_OFFSET + 9, &ComplementaryFilterConfig->TimeCons
 128:.\src\sensors\fusion/complementary.c **** 
 129:.\src\sensors\fusion/complementary.c **** 	assert_succeed(TWB_SE_ReadU8(COMPLEMENTARY_EEPROM_OFFSET + 10, &ComplementaryFilterConfig->Sensor1
 130:.\src\sensors\fusion/complementary.c **** 	assert_succeed(TWB_SE_ReadU8(COMPLEMENTARY_EEPROM_OFFSET + 11, &ComplementaryFilterConfig->Sensor2
 131:.\src\sensors\fusion/complementary.c **** 	assert_succeed(TWB_SE_ReadU8(COMPLEMENTARY_EEPROM_OFFSET + 12, &ComplementaryFilterConfig->Sensor3
 132:.\src\sensors\fusion/complementary.c **** 
 133:.\src\sensors\fusion/complementary.c **** 	assert_succeed(TWB_SE_ReadU8(COMPLEMENTARY_EEPROM_OFFSET + 13, &ComplementaryFilterConfig->Sensor1
 134:.\src\sensors\fusion/complementary.c **** 	assert_succeed(TWB_SE_ReadU8(COMPLEMENTARY_EEPROM_OFFSET + 14, &ComplementaryFilterConfig->Sensor2
 135:.\src\sensors\fusion/complementary.c **** 	assert_succeed(TWB_SE_ReadU8(COMPLEMENTARY_EEPROM_OFFSET + 15, &ComplementaryFilterConfig->Sensor3
 136:.\src\sensors\fusion/complementary.c **** 
 137:.\src\sensors\fusion/complementary.c **** 	assert_succeed(TWB_SE_ReadU8(COMPLEMENTARY_EEPROM_OFFSET + 16, &ComplementaryFilterConfig->Sensor1
 138:.\src\sensors\fusion/complementary.c **** 	assert_succeed(TWB_SE_ReadU8(COMPLEMENTARY_EEPROM_OFFSET + 17, &ComplementaryFilterConfig->Sensor2
 139:.\src\sensors\fusion/complementary.c **** 	assert_succeed(TWB_SE_ReadU8(COMPLEMENTARY_EEPROM_OFFSET + 18, &ComplementaryFilterConfig->Sensor3
 140:.\src\sensors\fusion/complementary.c **** 
 141:.\src\sensors\fusion/complementary.c **** 	assert_succeed(TWB_SE_ReadU8(COMPLEMENTARY_EEPROM_OFFSET + 19, &ComplementaryFilterConfig->Sensor1
 142:.\src\sensors\fusion/complementary.c **** 	assert_succeed(TWB_SE_ReadU8(COMPLEMENTARY_EEPROM_OFFSET + 20, &ComplementaryFilterConfig->Sensor2
 143:.\src\sensors\fusion/complementary.c **** 	assert_succeed(TWB_SE_ReadU8(COMPLEMENTARY_EEPROM_OFFSET + 21, &ComplementaryFilterConfig->Sensor3
 144:.\src\sensors\fusion/complementary.c **** 
 145:.\src\sensors\fusion/complementary.c **** 	SensorFusionMsg = pm_malloc(sizeof(SensorFusionMsg_t));
 146:.\src\sensors\fusion/complementary.c **** 
 147:.\src\sensors\fusion/complementary.c **** 	CompFilterPitch = pm_malloc(sizeof(CompFilter_t));
 148:.\src\sensors\fusion/complementary.c **** 	CompFilterPitch->Axis = PitchAxis;
 149:.\src\sensors\fusion/complementary.c **** 	CompFilterPitch->Filter = pm_malloc(sizeof(FilterFloat_t));
 150:.\src\sensors\fusion/complementary.c **** 	CompFilterPitch->Filter->FilterType = ComplementaryFilterConfig->FilterOptionPitch;
 151:.\src\sensors\fusion/complementary.c **** 	CompFilterPitch->Filter->IsInitialized = false;
ARM GAS  C:\Users\Kevin\AppData\Local\Temp\ccw18vSb.s 			page 5


 152:.\src\sensors\fusion/complementary.c **** 	CompFilterPitch->Filter->Current = 0.0f;
 153:.\src\sensors\fusion/complementary.c **** 	CompFilterPitch->Filter->CurrentSlot = 0;
 154:.\src\sensors\fusion/complementary.c **** 	CompFilterPitch->Filter->Previous = 0.0f;
 155:.\src\sensors\fusion/complementary.c **** 
 156:.\src\sensors\fusion/complementary.c **** 	CompFilterRoll = pm_malloc(sizeof(CompFilter_t));
 157:.\src\sensors\fusion/complementary.c **** 	CompFilterRoll->Axis = RollAxis;
 158:.\src\sensors\fusion/complementary.c **** 	CompFilterRoll->Filter = pm_malloc(sizeof(FilterFloat_t));
 159:.\src\sensors\fusion/complementary.c **** 	CompFilterRoll->Filter->FilterType = ComplementaryFilterConfig->FilterOptionRoll;
 160:.\src\sensors\fusion/complementary.c **** 	CompFilterRoll->Filter->IsInitialized = false;
 161:.\src\sensors\fusion/complementary.c **** 	CompFilterRoll->Filter->Current = 0.0f;
 162:.\src\sensors\fusion/complementary.c **** 	CompFilterRoll->Filter->CurrentSlot = 0;
 163:.\src\sensors\fusion/complementary.c **** 	CompFilterRoll->Filter->Previous = 0.0f;
 164:.\src\sensors\fusion/complementary.c **** 
 165:.\src\sensors\fusion/complementary.c **** 	CompFilterHeading = pm_malloc(sizeof(CompFilter_t));
 166:.\src\sensors\fusion/complementary.c **** 	CompFilterHeading->Axis = HeadingAxis;
 167:.\src\sensors\fusion/complementary.c **** 	CompFilterHeading->Filter = pm_malloc(sizeof(FilterFloat_t));
 168:.\src\sensors\fusion/complementary.c **** 	CompFilterHeading->Filter->FilterType = ComplementaryFilterConfig->FilterOptionHeading;
 169:.\src\sensors\fusion/complementary.c **** 	CompFilterHeading->Filter->IsInitialized = false;
 170:.\src\sensors\fusion/complementary.c **** 	CompFilterHeading->Filter->Current = 0.0f;
 171:.\src\sensors\fusion/complementary.c **** 	CompFilterHeading->Filter->CurrentSlot = 0;
 172:.\src\sensors\fusion/complementary.c **** 	CompFilterHeading->Filter->Previous = 0.0f;
 173:.\src\sensors\fusion/complementary.c **** 
 174:.\src\sensors\fusion/complementary.c **** 	CompFilterAltitude = pm_malloc(sizeof(CompFilter_t));
 175:.\src\sensors\fusion/complementary.c **** 	CompFilterAltitude->Axis = AltitudeAxis;
 176:.\src\sensors\fusion/complementary.c **** 	CompFilterAltitude->Filter = pm_malloc(sizeof(FilterFloat_t));
 177:.\src\sensors\fusion/complementary.c **** 	CompFilterAltitude->Filter->FilterType = ComplementaryFilterConfig->FilterOptionAltitude;
 178:.\src\sensors\fusion/complementary.c **** 	CompFilterAltitude->Filter->IsInitialized = false;
 179:.\src\sensors\fusion/complementary.c **** 	CompFilterAltitude->Filter->Current = 0.0f;
 180:.\src\sensors\fusion/complementary.c **** 	CompFilterAltitude->Filter->CurrentSlot = 0;
 181:.\src\sensors\fusion/complementary.c **** 	CompFilterAltitude->Filter->Previous = 0.0f;
 182:.\src\sensors\fusion/complementary.c **** 
 183:.\src\sensors\fusion/complementary.c **** 	ComplementarySnsrFusion->IsEnabled = ComplementaryFilterConfig->Enabled;
 184:.\src\sensors\fusion/complementary.c **** 	ComplementarySnsrFusion->SampleRate = ComplementaryFilterConfig->SampleRate;
 185:.\src\sensors\fusion/complementary.c **** 
 186:.\src\sensors\fusion/complementary.c **** 	ComplementarySnsrFusion->Read = &TWB_SNSR_Complementary_Process;
 187:.\src\sensors\fusion/complementary.c **** 
 188:.\src\sensors\fusion/complementary.c **** 	__snsr_compFilter_ResolveSensors();
 189:.\src\sensors\fusion/complementary.c **** 	__snsr_compFilter_ResolveCompFilters();
 190:.\src\sensors\fusion/complementary.c **** 
 191:.\src\sensors\fusion/complementary.c **** 	return OK;
 192:.\src\sensors\fusion/complementary.c **** }
 193:.\src\sensors\fusion/complementary.c **** 
 194:.\src\sensors\fusion/complementary.c **** iOpResult_e TWB_SNSR_Complementary_ResetDefaults(void) {
 195:.\src\sensors\fusion/complementary.c **** 	ComplementaryFilterConfig->Enabled = Enabled;
 196:.\src\sensors\fusion/complementary.c **** 	ComplementaryFilterConfig->SampleRate = SampleRate_200Hz;
 197:.\src\sensors\fusion/complementary.c **** 
 198:.\src\sensors\fusion/complementary.c **** 	ComplementaryFilterConfig->TimeConstantPitch = CompFilter_200Ms;
 199:.\src\sensors\fusion/complementary.c **** 	ComplementaryFilterConfig->TimeConstantRoll = CompFilter_200Ms;
 200:.\src\sensors\fusion/complementary.c **** 	ComplementaryFilterConfig->TimeConstantHeading = CompFilter_100Ms;
 201:.\src\sensors\fusion/complementary.c **** 	ComplementaryFilterConfig->TimeConstantAltitude = CompFilter_500Ms;
 202:.\src\sensors\fusion/complementary.c **** 
 203:.\src\sensors\fusion/complementary.c **** 	ComplementaryFilterConfig->FilterOptionPitch = FilterOption_None;
 204:.\src\sensors\fusion/complementary.c **** 	ComplementaryFilterConfig->FilterOptionRoll = FilterOption_None;
 205:.\src\sensors\fusion/complementary.c **** 	ComplementaryFilterConfig->FilterOptionHeading = FilterOption_None;
 206:.\src\sensors\fusion/complementary.c **** 	ComplementaryFilterConfig->FilterOptionAltitude = FilterOption_None;
 207:.\src\sensors\fusion/complementary.c **** 
 208:.\src\sensors\fusion/complementary.c **** 	ComplementaryFilterConfig->Sensor1Pitch = GyroL3GD20;
ARM GAS  C:\Users\Kevin\AppData\Local\Temp\ccw18vSb.s 			page 6


 209:.\src\sensors\fusion/complementary.c **** 	ComplementaryFilterConfig->Sensor2Pitch = AccLSM303;
 210:.\src\sensors\fusion/complementary.c **** 	ComplementaryFilterConfig->Sensor3Pitch = SensorNone;
 211:.\src\sensors\fusion/complementary.c **** 
 212:.\src\sensors\fusion/complementary.c **** 	ComplementaryFilterConfig->Sensor1Roll = GyroL3GD20;
 213:.\src\sensors\fusion/complementary.c **** 	ComplementaryFilterConfig->Sensor2Roll = AccLSM303;
 214:.\src\sensors\fusion/complementary.c **** 	ComplementaryFilterConfig->Sensor3Roll = SensorNone;
 215:.\src\sensors\fusion/complementary.c **** 
 216:.\src\sensors\fusion/complementary.c **** 	ComplementaryFilterConfig->Sensor1Heading = GyroL3GD20;
 217:.\src\sensors\fusion/complementary.c **** 	ComplementaryFilterConfig->Sensor2Heading = MagLSM303;
 218:.\src\sensors\fusion/complementary.c **** 	ComplementaryFilterConfig->Sensor3Heading = SensorNone;
 219:.\src\sensors\fusion/complementary.c **** 
 220:.\src\sensors\fusion/complementary.c **** 	ComplementaryFilterConfig->Sensor1Altitude = AltSonar;
 221:.\src\sensors\fusion/complementary.c **** 	ComplementaryFilterConfig->Sensor2Altitude = AltBMP085;
 222:.\src\sensors\fusion/complementary.c **** 	ComplementaryFilterConfig->Sensor3Altitude = SensorNone;
 223:.\src\sensors\fusion/complementary.c **** 
 224:.\src\sensors\fusion/complementary.c **** 	assert_succeed(TWB_SE_WriteU8Pause(COMPLEMENTARY_EEPROM_OFFSET + 0, ComplementaryFilterConfig->Ena
 225:.\src\sensors\fusion/complementary.c **** 	assert_succeed(TWB_SE_WriteU8Pause(COMPLEMENTARY_EEPROM_OFFSET + 1, ComplementaryFilterConfig->Sam
 226:.\src\sensors\fusion/complementary.c **** 
 227:.\src\sensors\fusion/complementary.c **** 	assert_succeed(TWB_SE_WriteU8Pause(COMPLEMENTARY_EEPROM_OFFSET + 2, ComplementaryFilterConfig->Fil
 228:.\src\sensors\fusion/complementary.c **** 	assert_succeed(TWB_SE_WriteU8Pause(COMPLEMENTARY_EEPROM_OFFSET + 3, ComplementaryFilterConfig->Fil
 229:.\src\sensors\fusion/complementary.c **** 	assert_succeed(TWB_SE_WriteU8Pause(COMPLEMENTARY_EEPROM_OFFSET + 4, ComplementaryFilterConfig->Fil
 230:.\src\sensors\fusion/complementary.c **** 	assert_succeed(TWB_SE_WriteU8Pause(COMPLEMENTARY_EEPROM_OFFSET + 5, ComplementaryFilterConfig->Fil
 231:.\src\sensors\fusion/complementary.c **** 
 232:.\src\sensors\fusion/complementary.c **** 	assert_succeed(TWB_SE_WriteU8Pause(COMPLEMENTARY_EEPROM_OFFSET + 6, ComplementaryFilterConfig->Tim
 233:.\src\sensors\fusion/complementary.c **** 	assert_succeed(TWB_SE_WriteU8Pause(COMPLEMENTARY_EEPROM_OFFSET + 7, ComplementaryFilterConfig->Tim
 234:.\src\sensors\fusion/complementary.c **** 	assert_succeed(TWB_SE_WriteU8Pause(COMPLEMENTARY_EEPROM_OFFSET + 8, ComplementaryFilterConfig->Tim
 235:.\src\sensors\fusion/complementary.c **** 	assert_succeed(TWB_SE_WriteU8Pause(COMPLEMENTARY_EEPROM_OFFSET + 9, ComplementaryFilterConfig->Tim
 236:.\src\sensors\fusion/complementary.c **** 
 237:.\src\sensors\fusion/complementary.c **** 	assert_succeed(TWB_SE_WriteU8Pause(COMPLEMENTARY_EEPROM_OFFSET + 10, ComplementaryFilterConfig->Se
 238:.\src\sensors\fusion/complementary.c **** 	assert_succeed(TWB_SE_WriteU8Pause(COMPLEMENTARY_EEPROM_OFFSET + 11, ComplementaryFilterConfig->Se
 239:.\src\sensors\fusion/complementary.c **** 	assert_succeed(TWB_SE_WriteU8Pause(COMPLEMENTARY_EEPROM_OFFSET + 12, ComplementaryFilterConfig->Se
 240:.\src\sensors\fusion/complementary.c **** 
 241:.\src\sensors\fusion/complementary.c **** 	assert_succeed(TWB_SE_WriteU8Pause(COMPLEMENTARY_EEPROM_OFFSET + 13, ComplementaryFilterConfig->Se
 242:.\src\sensors\fusion/complementary.c **** 	assert_succeed(TWB_SE_WriteU8Pause(COMPLEMENTARY_EEPROM_OFFSET + 14, ComplementaryFilterConfig->Se
 243:.\src\sensors\fusion/complementary.c **** 	assert_succeed(TWB_SE_WriteU8Pause(COMPLEMENTARY_EEPROM_OFFSET + 15, ComplementaryFilterConfig->Se
 244:.\src\sensors\fusion/complementary.c **** 
 245:.\src\sensors\fusion/complementary.c **** 	assert_succeed(TWB_SE_WriteU8Pause(COMPLEMENTARY_EEPROM_OFFSET + 16, ComplementaryFilterConfig->Se
 246:.\src\sensors\fusion/complementary.c **** 	assert_succeed(TWB_SE_WriteU8Pause(COMPLEMENTARY_EEPROM_OFFSET + 17, ComplementaryFilterConfig->Se
 247:.\src\sensors\fusion/complementary.c **** 	assert_succeed(TWB_SE_WriteU8Pause(COMPLEMENTARY_EEPROM_OFFSET + 18, ComplementaryFilterConfig->Se
 248:.\src\sensors\fusion/complementary.c **** 
 249:.\src\sensors\fusion/complementary.c **** 	assert_succeed(TWB_SE_WriteU8Pause(COMPLEMENTARY_EEPROM_OFFSET + 19, ComplementaryFilterConfig->Se
 250:.\src\sensors\fusion/complementary.c **** 	assert_succeed(TWB_SE_WriteU8Pause(COMPLEMENTARY_EEPROM_OFFSET + 20, ComplementaryFilterConfig->Se
 251:.\src\sensors\fusion/complementary.c **** 	assert_succeed(TWB_SE_WriteU8Pause(COMPLEMENTARY_EEPROM_OFFSET + 21, ComplementaryFilterConfig->Se
 252:.\src\sensors\fusion/complementary.c **** 
 253:.\src\sensors\fusion/complementary.c **** 	ComplementarySnsrFusion->IsEnabled = ComplementaryFilterConfig->Enabled;
 254:.\src\sensors\fusion/complementary.c **** 	ComplementarySnsrFusion->SampleRate = ComplementaryFilterConfig->SampleRate;
 255:.\src\sensors\fusion/complementary.c **** 
 256:.\src\sensors\fusion/complementary.c **** 	return OK;
 257:.\src\sensors\fusion/complementary.c **** }
 258:.\src\sensors\fusion/complementary.c **** 
 259:.\src\sensors\fusion/complementary.c **** iOpResult_e TWB_SNSR_Complementary_UpdateSettings(uint16_t addr, uint8_t value){
 260:.\src\sensors\fusion/complementary.c **** 	switch(addr){
 261:.\src\sensors\fusion/complementary.c **** 	case 0:
 262:.\src\sensors\fusion/complementary.c **** 		ComplementarySnsrFusion->IsEnabled = value;
 263:.\src\sensors\fusion/complementary.c **** 		ComplementaryFilterConfig->Enabled = value;
 264:.\src\sensors\fusion/complementary.c **** 
 265:.\src\sensors\fusion/complementary.c **** 		break;
ARM GAS  C:\Users\Kevin\AppData\Local\Temp\ccw18vSb.s 			page 7


 266:.\src\sensors\fusion/complementary.c **** 	case 1:
 267:.\src\sensors\fusion/complementary.c **** 		ComplementarySnsrFusion->SampleRate = value;
 268:.\src\sensors\fusion/complementary.c **** 		ComplementaryFilterConfig->SampleRate = value;
 269:.\src\sensors\fusion/complementary.c **** 		break;
 270:.\src\sensors\fusion/complementary.c **** 
 271:.\src\sensors\fusion/complementary.c **** 	case 2:
 272:.\src\sensors\fusion/complementary.c **** 		ComplementaryFilterConfig->FilterOptionPitch = value;
 273:.\src\sensors\fusion/complementary.c **** 		CompFilterPitch->Filter->FilterType = value;
 274:.\src\sensors\fusion/complementary.c **** 		CompFilterPitch->Filter->IsInitialized = false;
 275:.\src\sensors\fusion/complementary.c **** 		CompFilterPitch->Filter->CurrentSlot = 0;
 276:.\src\sensors\fusion/complementary.c **** 		CompFilterPitch->Filter->Previous = 0.0f;
 277:.\src\sensors\fusion/complementary.c **** 		break;
 278:.\src\sensors\fusion/complementary.c **** 
 279:.\src\sensors\fusion/complementary.c **** 	case 3:
 280:.\src\sensors\fusion/complementary.c **** 		ComplementaryFilterConfig->FilterOptionRoll = value;
 281:.\src\sensors\fusion/complementary.c **** 		CompFilterRoll->Filter->FilterType = value;
 282:.\src\sensors\fusion/complementary.c **** 		CompFilterRoll->Filter->IsInitialized = false;
 283:.\src\sensors\fusion/complementary.c **** 		CompFilterRoll->Filter->CurrentSlot = 0;
 284:.\src\sensors\fusion/complementary.c **** 		CompFilterRoll->Filter->Previous = 0.0f;
 285:.\src\sensors\fusion/complementary.c **** 
 286:.\src\sensors\fusion/complementary.c **** 		break;
 287:.\src\sensors\fusion/complementary.c **** 	case 4:
 288:.\src\sensors\fusion/complementary.c **** 		ComplementaryFilterConfig->FilterOptionHeading = value;
 289:.\src\sensors\fusion/complementary.c **** 		CompFilterHeading->Filter->FilterType = value;
 290:.\src\sensors\fusion/complementary.c **** 		CompFilterHeading->Filter->IsInitialized = false;
 291:.\src\sensors\fusion/complementary.c **** 		CompFilterHeading->Filter->CurrentSlot = 0;
 292:.\src\sensors\fusion/complementary.c **** 		CompFilterHeading->Filter->Previous = 0.0f;
 293:.\src\sensors\fusion/complementary.c **** 		break;
 294:.\src\sensors\fusion/complementary.c **** 	case 5:
 295:.\src\sensors\fusion/complementary.c **** 		ComplementaryFilterConfig->FilterOptionAltitude = value;
 296:.\src\sensors\fusion/complementary.c **** 		CompFilterAltitude->Filter->FilterType = value;
 297:.\src\sensors\fusion/complementary.c **** 		CompFilterAltitude->Filter->IsInitialized = false;
 298:.\src\sensors\fusion/complementary.c **** 		CompFilterAltitude->Filter->CurrentSlot = 0;
 299:.\src\sensors\fusion/complementary.c **** 		CompFilterAltitude->Filter->Previous = 0.0f;
 300:.\src\sensors\fusion/complementary.c **** 		break;
 301:.\src\sensors\fusion/complementary.c **** 
 302:.\src\sensors\fusion/complementary.c ****     /* Update the time constants for the comp filters */
 303:.\src\sensors\fusion/complementary.c **** 	case 6:
 304:.\src\sensors\fusion/complementary.c **** 		ComplementaryFilterConfig->TimeConstantPitch = value;
 305:.\src\sensors\fusion/complementary.c **** 		__snsr_ResolveCompFilter(ComplementaryFilterConfig->TimeConstantPitch, CompFilterPitch);
 306:.\src\sensors\fusion/complementary.c **** 		break;
 307:.\src\sensors\fusion/complementary.c **** 	case 7:
 308:.\src\sensors\fusion/complementary.c **** 		ComplementaryFilterConfig->TimeConstantRoll = value;
 309:.\src\sensors\fusion/complementary.c **** 		__snsr_ResolveCompFilter(ComplementaryFilterConfig->TimeConstantRoll, CompFilterRoll);
 310:.\src\sensors\fusion/complementary.c **** 		break;
 311:.\src\sensors\fusion/complementary.c **** 	case 8:
 312:.\src\sensors\fusion/complementary.c **** 		ComplementaryFilterConfig->TimeConstantHeading = value;
 313:.\src\sensors\fusion/complementary.c **** 		__snsr_ResolveCompFilter(ComplementaryFilterConfig->TimeConstantHeading, CompFilterHeading);
 314:.\src\sensors\fusion/complementary.c **** 		break;
 315:.\src\sensors\fusion/complementary.c **** 	case 9:
 316:.\src\sensors\fusion/complementary.c **** 		ComplementaryFilterConfig->TimeConstantAltitude = value;
 317:.\src\sensors\fusion/complementary.c **** 		__snsr_ResolveCompFilter(ComplementaryFilterConfig->TimeConstantAltitude, CompFilterAltitude);
 318:.\src\sensors\fusion/complementary.c **** 		break;
 319:.\src\sensors\fusion/complementary.c **** 
 320:.\src\sensors\fusion/complementary.c **** 
 321:.\src\sensors\fusion/complementary.c **** 	/* Update the filters for each axis */
 322:.\src\sensors\fusion/complementary.c **** 
ARM GAS  C:\Users\Kevin\AppData\Local\Temp\ccw18vSb.s 			page 8


 323:.\src\sensors\fusion/complementary.c **** 	case 10:
 324:.\src\sensors\fusion/complementary.c **** 		ComplementaryFilterConfig->Sensor1Pitch = value;
 325:.\src\sensors\fusion/complementary.c **** 		CompFilterPitch->Sensor1 = __snsr_compFilter_ResolveSensor(ComplementaryFilterConfig->Sensor1Pitc
 326:.\src\sensors\fusion/complementary.c **** 		break;
 327:.\src\sensors\fusion/complementary.c **** 	case 11:
 328:.\src\sensors\fusion/complementary.c **** 		ComplementaryFilterConfig->Sensor2Pitch = value;
 329:.\src\sensors\fusion/complementary.c **** 		CompFilterPitch->Sensor2 = __snsr_compFilter_ResolveSensor(ComplementaryFilterConfig->Sensor2Pitc
 330:.\src\sensors\fusion/complementary.c **** 		break;
 331:.\src\sensors\fusion/complementary.c **** 	case 12:
 332:.\src\sensors\fusion/complementary.c **** 		ComplementaryFilterConfig->Sensor3Pitch = value;
 333:.\src\sensors\fusion/complementary.c **** 		CompFilterPitch->Sensor3 = __snsr_compFilter_ResolveSensor(ComplementaryFilterConfig->Sensor3Pitc
 334:.\src\sensors\fusion/complementary.c **** 		break;
 335:.\src\sensors\fusion/complementary.c **** 	case 13:
 336:.\src\sensors\fusion/complementary.c **** 		ComplementaryFilterConfig->Sensor1Roll = value;
 337:.\src\sensors\fusion/complementary.c **** 		CompFilterRoll->Sensor1 = __snsr_compFilter_ResolveSensor(ComplementaryFilterConfig->Sensor1Roll)
 338:.\src\sensors\fusion/complementary.c **** 	break;
 339:.\src\sensors\fusion/complementary.c **** 	case 14:
 340:.\src\sensors\fusion/complementary.c **** 		ComplementaryFilterConfig->Sensor2Roll = value;
 341:.\src\sensors\fusion/complementary.c **** 		CompFilterRoll->Sensor2 = __snsr_compFilter_ResolveSensor(ComplementaryFilterConfig->Sensor2Roll)
 342:.\src\sensors\fusion/complementary.c **** 		break;
 343:.\src\sensors\fusion/complementary.c **** 	case 15:
 344:.\src\sensors\fusion/complementary.c **** 		ComplementaryFilterConfig->Sensor3Roll = value;
 345:.\src\sensors\fusion/complementary.c **** 		CompFilterRoll->Sensor3 = __snsr_compFilter_ResolveSensor(ComplementaryFilterConfig->Sensor3Roll)
 346:.\src\sensors\fusion/complementary.c **** 		break;
 347:.\src\sensors\fusion/complementary.c **** 	case 16:
 348:.\src\sensors\fusion/complementary.c **** 		ComplementaryFilterConfig->Sensor1Heading = value;
 349:.\src\sensors\fusion/complementary.c **** 		CompFilterHeading->Sensor1 = __snsr_compFilter_ResolveSensor(ComplementaryFilterConfig->Sensor1He
 350:.\src\sensors\fusion/complementary.c **** 		break;
 351:.\src\sensors\fusion/complementary.c **** 	case 17:
 352:.\src\sensors\fusion/complementary.c **** 		ComplementaryFilterConfig->Sensor2Heading = value;
 353:.\src\sensors\fusion/complementary.c **** 		CompFilterHeading->Sensor2 = __snsr_compFilter_ResolveSensor(ComplementaryFilterConfig->Sensor2He
 354:.\src\sensors\fusion/complementary.c **** 		break;
 355:.\src\sensors\fusion/complementary.c **** 	case 18:
 356:.\src\sensors\fusion/complementary.c **** 		ComplementaryFilterConfig->Sensor3Heading = value;
 357:.\src\sensors\fusion/complementary.c **** 		CompFilterHeading->Sensor3 = __snsr_compFilter_ResolveSensor(ComplementaryFilterConfig->Sensor3He
 358:.\src\sensors\fusion/complementary.c **** 		break;
 359:.\src\sensors\fusion/complementary.c **** 	case 19:
 360:.\src\sensors\fusion/complementary.c **** 		ComplementaryFilterConfig->Sensor1Altitude = value;
 361:.\src\sensors\fusion/complementary.c **** 		CompFilterAltitude->Sensor1 = __snsr_compFilter_ResolveSensor(ComplementaryFilterConfig->Sensor1A
 362:.\src\sensors\fusion/complementary.c **** 		break;
 363:.\src\sensors\fusion/complementary.c **** 	case 20:
 364:.\src\sensors\fusion/complementary.c **** 		ComplementaryFilterConfig->Sensor2Altitude = value;
 365:.\src\sensors\fusion/complementary.c **** 		CompFilterAltitude->Sensor2 = __snsr_compFilter_ResolveSensor(ComplementaryFilterConfig->Sensor2A
 366:.\src\sensors\fusion/complementary.c **** 		break;
 367:.\src\sensors\fusion/complementary.c **** 	case 21:
 368:.\src\sensors\fusion/complementary.c **** 		ComplementaryFilterConfig->Sensor3Altitude = value;
 369:.\src\sensors\fusion/complementary.c **** 		CompFilterAltitude->Sensor3 = __snsr_compFilter_ResolveSensor(ComplementaryFilterConfig->Sensor3A
 370:.\src\sensors\fusion/complementary.c **** 		break;
 371:.\src\sensors\fusion/complementary.c **** 	}
 372:.\src\sensors\fusion/complementary.c **** 	return OK;
 373:.\src\sensors\fusion/complementary.c **** }
 374:.\src\sensors\fusion/complementary.c **** 
 375:.\src\sensors\fusion/complementary.c **** iOpResult_e TWB_SNSR_Complementary_Process(float deltaT){
  78              		.loc 1 375 0
  79              		.cfi_startproc
  80              		@ args = 0, pretend = 0, frame = 0
  81              		@ frame_needed = 0, uses_anonymous_args = 0
ARM GAS  C:\Users\Kevin\AppData\Local\Temp\ccw18vSb.s 			page 9


  82              	.LVL0:
  83 0000 38B5     		push	{r3, r4, r5, lr}	@
  84              	.LCFI0:
  85              		.cfi_def_cfa_offset 16
  86              		.cfi_offset 3, -16
  87              		.cfi_offset 4, -12
  88              		.cfi_offset 5, -8
  89              		.cfi_offset 14, -4
 376:.\src\sensors\fusion/complementary.c **** 	//TODO: After complementary filter, we need to pump the angle back into the gyro, or pickup the de
 377:.\src\sensors\fusion/complementary.c **** 	if(ComplementaryFilterConfig->Sensor1Pitch != SensorNone){
  90              		.loc 1 377 0
  91 0002 534B     		ldr	r3, .L37	@ tmp281,
  92 0004 1B68     		ldr	r3, [r3, #0]	@ ComplementaryFilterConfig.20, ComplementaryFilterConfig
  93 0006 9A7A     		ldrb	r2, [r3, #10]	@ zero_extendqisi2	@ ComplementaryFilterConfig.20_1->Sensor1Pitch, Complementar
 375:.\src\sensors\fusion/complementary.c **** iOpResult_e TWB_SNSR_Complementary_Process(float deltaT){
  94              		.loc 1 375 0
  95 0008 2DED028B 		fstmfdd	sp!, {d8}	@,
  96              	.LCFI1:
  97              		.cfi_def_cfa_offset 24
  98              		.cfi_offset 80, -24
  99              		.loc 1 377 0
 100 000c 002A     		cmp	r2, #0	@ ComplementaryFilterConfig.20_1->Sensor1Pitch
 101 000e 2FD0     		beq	.L2	@
 378:.\src\sensors\fusion/complementary.c **** 		if(ComplementaryFilterConfig->Sensor2Pitch != SensorNone)
 102              		.loc 1 378 0
 103 0010 D97A     		ldrb	r1, [r3, #11]	@ zero_extendqisi2	@ ComplementaryFilterConfig.20_1->Sensor2Pitch, Complementar
 104 0012 504A     		ldr	r2, .L37+4	@ tmp475,
 105 0014 504B     		ldr	r3, .L37+8	@ tmp474,
 106 0016 91B1     		cbz	r1, .L3	@ ComplementaryFilterConfig.20_1->Sensor2Pitch,
 379:.\src\sensors\fusion/complementary.c **** 			InternalState->Pitch = (CompFilterPitch->Sensor1->X * CompFilterPitch->Period1) + (CompFilterPit
 107              		.loc 1 379 0
 108 0018 1B68     		ldr	r3, [r3, #0]	@ CompFilterPitch.22, CompFilterPitch
 109 001a 1168     		ldr	r1, [r2, #0]	@ InternalState, InternalState
 110 001c 1A69     		ldr	r2, [r3, #16]	@ CompFilterPitch.22_6->Sensor1, CompFilterPitch.22_6->Sensor1
 111 001e D2ED116A 		flds	s13, [r2, #68]	@ D.9408_7->X, D.9408_7->X
 112 0022 5A69     		ldr	r2, [r3, #20]	@ CompFilterPitch.22_6->Sensor2, CompFilterPitch.22_6->Sensor2
 113 0024 D3ED017A 		flds	s15, [r3, #4]	@ CompFilterPitch.22_6->Period2, CompFilterPitch.22_6->Period2
 114 0028 92ED116A 		flds	s12, [r2, #68]	@ D.9412_13->X, D.9412_13->X
 115 002c 93ED007A 		flds	s14, [r3, #0]	@ CompFilterPitch.22_6->Period1, CompFilterPitch.22_6->Period1
 116 0030 66EE277A 		fmuls	s15, s12, s15	@ tmp295, D.9412_13->X, CompFilterPitch.22_6->Period2
 117 0034 46EE877A 		fmacs	s15, s13, s14	@ tmp295, D.9408_7->X, CompFilterPitch.22_6->Period1
 118 0038 C1ED007A 		fsts	s15, [r1, #0]	@ tmp295, InternalState.21_5->Pitch
 119 003c 04E0     		b	.L4	@
 120              	.L3:
 380:.\src\sensors\fusion/complementary.c **** 		else
 381:.\src\sensors\fusion/complementary.c **** 			InternalState->Pitch = CompFilterPitch->Sensor1->X;
 121              		.loc 1 381 0
 122 003e 1B68     		ldr	r3, [r3, #0]	@ CompFilterPitch, CompFilterPitch
 123 0040 1268     		ldr	r2, [r2, #0]	@ InternalState, InternalState
 124 0042 1B69     		ldr	r3, [r3, #16]	@ CompFilterPitch.22_20->Sensor1, CompFilterPitch.22_20->Sensor1
 125 0044 5B6C     		ldr	r3, [r3, #68]	@ float	@ D.9408_21->X, D.9408_21->X
 126 0046 1360     		str	r3, [r2, #0]	@ float	@ D.9408_21->X, InternalState.21_19->Pitch
 127              	.L4:
 382:.\src\sensors\fusion/complementary.c **** 
 383:.\src\sensors\fusion/complementary.c **** 		TWB_Filter_Median_Apply_Float(CompFilterPitch->Filter, InternalState->Pitch);
 128              		.loc 1 383 0
 129 0048 434C     		ldr	r4, .L37+8	@ tmp303,
ARM GAS  C:\Users\Kevin\AppData\Local\Temp\ccw18vSb.s 			page 10


 130 004a 424D     		ldr	r5, .L37+4	@ tmp305,
 131 004c 2268     		ldr	r2, [r4, #0]	@ CompFilterPitch, CompFilterPitch
 132 004e 2B68     		ldr	r3, [r5, #0]	@ InternalState, InternalState
 133 0050 D068     		ldr	r0, [r2, #12]	@, CompFilterPitch.22_23->Filter
 134 0052 93ED000A 		flds	s0, [r3, #0]	@, InternalState.21_25->Pitch
 135              	.LVL1:
 136 0056 FFF7FEFF 		bl	TWB_Filter_Median_Apply_Float	@
 137              	.LVL2:
 384:.\src\sensors\fusion/complementary.c **** 
 385:.\src\sensors\fusion/complementary.c **** 		InternalState->Pitch = CompFilterPitch->Filter->Current;
 138              		.loc 1 385 0
 139 005a 2268     		ldr	r2, [r4, #0]	@ CompFilterPitch, CompFilterPitch
 140 005c 2B68     		ldr	r3, [r5, #0]	@ InternalState.21, InternalState
 141 005e D268     		ldr	r2, [r2, #12]	@ CompFilterPitch.22_28->Filter, CompFilterPitch.22_28->Filter
 142 0060 926A     		ldr	r2, [r2, #40]	@ float	@ D.9418_29->Current, D.9418_29->Current
 143 0062 1A60     		str	r2, [r3, #0]	@ float	@ D.9418_29->Current, InternalState.21_27->Pitch
 386:.\src\sensors\fusion/complementary.c **** 		InternalState->PitchRateDPS = ((GryoExtendedData_t *)CompFilterRoll->Sensor1->Extended)->RateXDPS
 144              		.loc 1 386 0
 145 0064 3D4A     		ldr	r2, .L37+12	@ tmp312,
 146 0066 1268     		ldr	r2, [r2, #0]	@ CompFilterRoll, CompFilterRoll
 147 0068 1269     		ldr	r2, [r2, #16]	@ CompFilterRoll.23_32->Sensor1, CompFilterRoll.23_32->Sensor1
 148 006a 126D     		ldr	r2, [r2, #80]	@ D.9422_33->Extended, D.9422_33->Extended
 149 006c 1268     		ldr	r2, [r2, #0]	@ float	@ MEM[(struct GryoExtendedData_t *)D.9423_34].RateXDPS, MEM[(struct GryoE
 150 006e 5A61     		str	r2, [r3, #20]	@ float	@ MEM[(struct GryoExtendedData_t *)D.9423_34].RateXDPS, InternalState.21
 151              	.L2:
 387:.\src\sensors\fusion/complementary.c **** 	}
 388:.\src\sensors\fusion/complementary.c **** 
 389:.\src\sensors\fusion/complementary.c **** 	if(ComplementaryFilterConfig->Sensor1Roll != SensorNone){
 152              		.loc 1 389 0
 153 0070 374B     		ldr	r3, .L37	@ tmp316,
 154 0072 1B68     		ldr	r3, [r3, #0]	@ ComplementaryFilterConfig.20, ComplementaryFilterConfig
 155 0074 5A7B     		ldrb	r2, [r3, #13]	@ zero_extendqisi2	@ ComplementaryFilterConfig.20_36->Sensor1Roll, Complementar
 156 0076 002A     		cmp	r2, #0	@ ComplementaryFilterConfig.20_36->Sensor1Roll
 157 0078 2DD0     		beq	.L5	@
 390:.\src\sensors\fusion/complementary.c **** 		if(ComplementaryFilterConfig->Sensor2Roll != SensorNone)
 158              		.loc 1 390 0
 159 007a 997B     		ldrb	r1, [r3, #14]	@ zero_extendqisi2	@ ComplementaryFilterConfig.20_36->Sensor2Roll, Complementar
 160 007c 354A     		ldr	r2, .L37+4	@ tmp477,
 161 007e 374B     		ldr	r3, .L37+12	@ tmp478,
 162 0080 91B1     		cbz	r1, .L6	@ ComplementaryFilterConfig.20_36->Sensor2Roll,
 391:.\src\sensors\fusion/complementary.c **** 			InternalState->Roll = (CompFilterRoll->Sensor1->Y * CompFilterRoll->Period1) + (CompFilterRoll->
 163              		.loc 1 391 0
 164 0082 1B68     		ldr	r3, [r3, #0]	@ CompFilterRoll.23, CompFilterRoll
 165 0084 1168     		ldr	r1, [r2, #0]	@ InternalState, InternalState
 166 0086 1A69     		ldr	r2, [r3, #16]	@ CompFilterRoll.23_41->Sensor1, CompFilterRoll.23_41->Sensor1
 167 0088 D2ED126A 		flds	s13, [r2, #72]	@ D.9422_42->Y, D.9422_42->Y
 168 008c 5A69     		ldr	r2, [r3, #20]	@ CompFilterRoll.23_41->Sensor2, CompFilterRoll.23_41->Sensor2
 169 008e D3ED017A 		flds	s15, [r3, #4]	@ CompFilterRoll.23_41->Period2, CompFilterRoll.23_41->Period2
 170 0092 92ED126A 		flds	s12, [r2, #72]	@ D.9434_48->Y, D.9434_48->Y
 171 0096 93ED007A 		flds	s14, [r3, #0]	@ CompFilterRoll.23_41->Period1, CompFilterRoll.23_41->Period1
 172 009a 66EE277A 		fmuls	s15, s12, s15	@ tmp330, D.9434_48->Y, CompFilterRoll.23_41->Period2
 173 009e 46EE877A 		fmacs	s15, s13, s14	@ tmp330, D.9422_42->Y, CompFilterRoll.23_41->Period1
 174 00a2 C1ED017A 		fsts	s15, [r1, #4]	@ tmp330, InternalState.21_40->Roll
 175 00a6 04E0     		b	.L7	@
 176              	.L6:
 392:.\src\sensors\fusion/complementary.c **** 		else
 393:.\src\sensors\fusion/complementary.c **** 			InternalState->Roll = CompFilterRoll->Sensor1->Y;
ARM GAS  C:\Users\Kevin\AppData\Local\Temp\ccw18vSb.s 			page 11


 177              		.loc 1 393 0
 178 00a8 1B68     		ldr	r3, [r3, #0]	@ CompFilterRoll, CompFilterRoll
 179 00aa 1268     		ldr	r2, [r2, #0]	@ InternalState, InternalState
 180 00ac 1B69     		ldr	r3, [r3, #16]	@ CompFilterRoll.23_55->Sensor1, CompFilterRoll.23_55->Sensor1
 181 00ae 9B6C     		ldr	r3, [r3, #72]	@ float	@ D.9422_56->Y, D.9422_56->Y
 182 00b0 5360     		str	r3, [r2, #4]	@ float	@ D.9422_56->Y, InternalState.21_54->Roll
 183              	.L7:
 394:.\src\sensors\fusion/complementary.c **** 
 395:.\src\sensors\fusion/complementary.c **** 		TWB_Filter_Median_Apply_Float(CompFilterRoll->Filter, InternalState->Roll);
 184              		.loc 1 395 0
 185 00b2 2A4C     		ldr	r4, .L37+12	@ tmp338,
 186 00b4 274D     		ldr	r5, .L37+4	@ tmp340,
 187 00b6 2268     		ldr	r2, [r4, #0]	@ CompFilterRoll, CompFilterRoll
 188 00b8 2B68     		ldr	r3, [r5, #0]	@ InternalState, InternalState
 189 00ba D068     		ldr	r0, [r2, #12]	@, CompFilterRoll.23_58->Filter
 190 00bc 93ED010A 		flds	s0, [r3, #4]	@, InternalState.21_60->Roll
 191 00c0 FFF7FEFF 		bl	TWB_Filter_Median_Apply_Float	@
 192              	.LVL3:
 396:.\src\sensors\fusion/complementary.c **** 
 397:.\src\sensors\fusion/complementary.c **** 		InternalState->Roll = CompFilterRoll->Filter->Current;
 193              		.loc 1 397 0
 194 00c4 2268     		ldr	r2, [r4, #0]	@ CompFilterRoll.23, CompFilterRoll
 195 00c6 2B68     		ldr	r3, [r5, #0]	@ InternalState.21, InternalState
 196 00c8 D168     		ldr	r1, [r2, #12]	@ CompFilterRoll.23_63->Filter, CompFilterRoll.23_63->Filter
 398:.\src\sensors\fusion/complementary.c **** 		InternalState->RollRateDPS = ((GryoExtendedData_t *)CompFilterRoll->Sensor1->Extended)->RateYDPS;
 197              		.loc 1 398 0
 198 00ca 1269     		ldr	r2, [r2, #16]	@ CompFilterRoll.23_63->Sensor1, CompFilterRoll.23_63->Sensor1
 397:.\src\sensors\fusion/complementary.c **** 		InternalState->Roll = CompFilterRoll->Filter->Current;
 199              		.loc 1 397 0
 200 00cc 896A     		ldr	r1, [r1, #40]	@ float	@ D.9440_64->Current, D.9440_64->Current
 201              		.loc 1 398 0
 202 00ce 126D     		ldr	r2, [r2, #80]	@ D.9422_68->Extended, D.9422_68->Extended
 397:.\src\sensors\fusion/complementary.c **** 		InternalState->Roll = CompFilterRoll->Filter->Current;
 203              		.loc 1 397 0
 204 00d0 5960     		str	r1, [r3, #4]	@ float	@ D.9440_64->Current, InternalState.21_62->Roll
 205              		.loc 1 398 0
 206 00d2 5268     		ldr	r2, [r2, #4]	@ float	@ MEM[(struct GryoExtendedData_t *)D.9423_69].RateYDPS, MEM[(struct GryoE
 207 00d4 9A61     		str	r2, [r3, #24]	@ float	@ MEM[(struct GryoExtendedData_t *)D.9423_69].RateYDPS, InternalState.21
 208              	.L5:
 399:.\src\sensors\fusion/complementary.c **** 	}
 400:.\src\sensors\fusion/complementary.c **** 
 401:.\src\sensors\fusion/complementary.c **** 	if(ComplementaryFilterConfig->Sensor1Heading != SensorNone){
 209              		.loc 1 401 0
 210 00d6 1E4B     		ldr	r3, .L37	@ tmp348,
 211 00d8 1B68     		ldr	r3, [r3, #0]	@ ComplementaryFilterConfig.20, ComplementaryFilterConfig
 212 00da 1A7C     		ldrb	r2, [r3, #16]	@ zero_extendqisi2	@ ComplementaryFilterConfig.20_71->Sensor1Heading, Complemen
 213 00dc B2EE048A 		fconsts	s16, #36	@ tmp476,
 214 00e0 002A     		cmp	r2, #0	@ ComplementaryFilterConfig.20_71->Sensor1Heading
 215 00e2 5BD0     		beq	.L8	@
 402:.\src\sensors\fusion/complementary.c **** 		if(ComplementaryFilterConfig->Sensor2Heading != SensorNone){
 216              		.loc 1 402 0
 217 00e4 5A7C     		ldrb	r2, [r3, #17]	@ zero_extendqisi2	@ ComplementaryFilterConfig.20_71->Sensor2Heading, Complemen
 218 00e6 1E4B     		ldr	r3, .L37+16	@ tmp479,
 219 00e8 002A     		cmp	r2, #0	@ ComplementaryFilterConfig.20_71->Sensor2Heading
 220 00ea 3DD0     		beq	.L9	@
 221              	.LBB2:
 403:.\src\sensors\fusion/complementary.c **** 			float sensor1 = CompFilterHeading->Sensor1->Z;
ARM GAS  C:\Users\Kevin\AppData\Local\Temp\ccw18vSb.s 			page 12


 222              		.loc 1 403 0
 223 00ec 1B68     		ldr	r3, [r3, #0]	@ CompFilterHeading.24, CompFilterHeading
 224 00ee 1A69     		ldr	r2, [r3, #16]	@ CompFilterHeading.24_75->Sensor1, CompFilterHeading.24_75->Sensor1
 404:.\src\sensors\fusion/complementary.c **** 			float sensor2 = CompFilterHeading->Sensor2->Z;
 405:.\src\sensors\fusion/complementary.c **** 
 406:.\src\sensors\fusion/complementary.c **** 			/* Need to be careful around 0 degrees */
 407:.\src\sensors\fusion/complementary.c **** 			if(sensor1 > 350.0f && sensor2 < 10.0f){
 225              		.loc 1 407 0
 226 00f0 DFED1C6A 		flds	s13, .L37+20	@ tmp354,
 403:.\src\sensors\fusion/complementary.c **** 			float sensor1 = CompFilterHeading->Sensor1->Z;
 227              		.loc 1 403 0
 228 00f4 92ED137A 		flds	s14, [r2, #76]	@ sensor1, D.9451_76->Z
 229              	.LVL4:
 404:.\src\sensors\fusion/complementary.c **** 			float sensor2 = CompFilterHeading->Sensor2->Z;
 230              		.loc 1 404 0
 231 00f8 5A69     		ldr	r2, [r3, #20]	@ CompFilterHeading.24_75->Sensor2, CompFilterHeading.24_75->Sensor2
 232              		.loc 1 407 0
 233 00fa B4EEE67A 		fcmpes	s14, s13	@ sensor1, tmp354
 234 00fe F1EE10FA 		fmstat
 404:.\src\sensors\fusion/complementary.c **** 			float sensor2 = CompFilterHeading->Sensor2->Z;
 235              		.loc 1 404 0
 236 0102 D2ED137A 		flds	s15, [r2, #76]	@ sensor2, D.9452_79->Z
 237              	.LVL5:
 238 0106 134A     		ldr	r2, .L37+4	@ tmp480,
 239              		.loc 1 407 0
 240 0108 06DD     		ble	.L10	@,
 241              		.loc 1 407 0 is_stmt 0 discriminator 1
 242 010a F4EEC87A 		fcmpes	s15, s16	@ sensor2, tmp476
 243 010e F1EE10FA 		fmstat
 244 0112 01D5     		bpl	.L10	@,
 245              	.LVL6:
 408:.\src\sensors\fusion/complementary.c **** 				sensor1 = sensor2;
 409:.\src\sensors\fusion/complementary.c **** 				InternalState->Heading = sensor1;
 246              		.loc 1 409 0 is_stmt 1
 247 0114 1368     		ldr	r3, [r2, #0]	@ InternalState, InternalState
 248 0116 0BE0     		b	.L36	@
 249              	.LVL7:
 250              	.L10:
 410:.\src\sensors\fusion/complementary.c **** 			}
 411:.\src\sensors\fusion/complementary.c **** 			else if(sensor1 < 10.0f && sensor2 > 350.f){
 251              		.loc 1 411 0
 252 0118 B4EEC87A 		fcmpes	s14, s16	@ sensor1, tmp476
 253 011c F1EE10FA 		fmstat
 254 0120 09D5     		bpl	.L14	@,
 255              		.loc 1 411 0 is_stmt 0 discriminator 1
 256 0122 F4EEE67A 		fcmpes	s15, s13	@ sensor2, tmp481
 257 0126 F1EE10FA 		fmstat
 258 012a 04DD     		ble	.L14	@,
 259              	.LVL8:
 412:.\src\sensors\fusion/complementary.c **** 				sensor1 = sensor2;
 413:.\src\sensors\fusion/complementary.c **** 				InternalState->Heading = sensor1;
 260              		.loc 1 413 0 is_stmt 1
 261 012c 094B     		ldr	r3, .L37+4	@ tmp361,
 262 012e 1B68     		ldr	r3, [r3, #0]	@ InternalState, InternalState
 263              	.L36:
 264 0130 C3ED027A 		fsts	s15, [r3, #8]	@ sensor2,
 265 0134 1EE0     		b	.L13	@
ARM GAS  C:\Users\Kevin\AppData\Local\Temp\ccw18vSb.s 			page 13


 266              	.LVL9:
 267              	.L14:
 414:.\src\sensors\fusion/complementary.c **** 			}
 415:.\src\sensors\fusion/complementary.c **** 			else
 416:.\src\sensors\fusion/complementary.c **** 				InternalState->Heading = (sensor1 * CompFilterHeading->Period1) + (sensor2 * CompFilterHeading-
 268              		.loc 1 416 0
 269 0136 93ED016A 		flds	s12, [r3, #4]	@ CompFilterHeading.24_75->Period2, CompFilterHeading.24_75->Period2
 270 013a D3ED006A 		flds	s13, [r3, #0]	@ CompFilterHeading.24_75->Period1, CompFilterHeading.24_75->Period1
 271 013e 67EE867A 		fmuls	s15, s15, s12	@ tmp368, sensor2, CompFilterHeading.24_75->Period2
 272              	.LVL10:
 273 0142 47EE267A 		fmacs	s15, s14, s13	@ tmp368, sensor1, CompFilterHeading.24_75->Period1
 274 0146 1268     		ldr	r2, [r2, #0]	@ InternalState, InternalState
 275 0148 C2ED027A 		fsts	s15, [r2, #8]	@ tmp368, InternalState.21_85->Heading
 276 014c 12E0     		b	.L13	@
 277              	.L38:
 278 014e 00BF     		.align	2
 279              	.L37:
 280 0150 00000000 		.word	ComplementaryFilterConfig
 281 0154 00000000 		.word	InternalState
 282 0158 00000000 		.word	CompFilterPitch
 283 015c 00000000 		.word	CompFilterRoll
 284 0160 00000000 		.word	CompFilterHeading
 285 0164 0000AF43 		.word	1135542272
 286              	.LVL11:
 287              	.L9:
 288              	.LBE2:
 417:.\src\sensors\fusion/complementary.c **** 		}
 418:.\src\sensors\fusion/complementary.c **** 		else
 419:.\src\sensors\fusion/complementary.c **** 			InternalState->Heading = CompFilterHeading->Sensor1->Z;
 289              		.loc 1 419 0
 290 0168 1B68     		ldr	r3, [r3, #0]	@ CompFilterHeading, CompFilterHeading
 291 016a 464A     		ldr	r2, .L39	@ tmp370,
 292 016c 1B69     		ldr	r3, [r3, #16]	@ CompFilterHeading.24_94->Sensor1, CompFilterHeading.24_94->Sensor1
 293 016e 1268     		ldr	r2, [r2, #0]	@ InternalState, InternalState
 294 0170 DB6C     		ldr	r3, [r3, #76]	@ float	@ D.9451_95->Z, D.9451_95->Z
 295 0172 9360     		str	r3, [r2, #8]	@ float	@ D.9451_95->Z, InternalState.21_93->Heading
 296              	.L13:
 420:.\src\sensors\fusion/complementary.c **** 
 421:.\src\sensors\fusion/complementary.c **** 		TWB_Filter_Median_Apply_Float(CompFilterHeading->Filter, InternalState->Heading);
 297              		.loc 1 421 0
 298 0174 444C     		ldr	r4, .L39+4	@ tmp376,
 299 0176 434D     		ldr	r5, .L39	@ tmp378,
 300 0178 2268     		ldr	r2, [r4, #0]	@ CompFilterHeading, CompFilterHeading
 301 017a 2B68     		ldr	r3, [r5, #0]	@ InternalState, InternalState
 302 017c D068     		ldr	r0, [r2, #12]	@, CompFilterHeading.24_97->Filter
 303 017e 93ED020A 		flds	s0, [r3, #8]	@, InternalState.21_99->Heading
 304 0182 FFF7FEFF 		bl	TWB_Filter_Median_Apply_Float	@
 305              	.LVL12:
 422:.\src\sensors\fusion/complementary.c **** 
 423:.\src\sensors\fusion/complementary.c **** 		InternalState->Heading = CompFilterHeading->Filter->Current;
 306              		.loc 1 423 0
 307 0186 2268     		ldr	r2, [r4, #0]	@ CompFilterHeading, CompFilterHeading
 308 0188 2B68     		ldr	r3, [r5, #0]	@ InternalState.21, InternalState
 309 018a D268     		ldr	r2, [r2, #12]	@ CompFilterHeading.24_102->Filter, CompFilterHeading.24_102->Filter
 310 018c 926A     		ldr	r2, [r2, #40]	@ float	@ D.9468_103->Current, D.9468_103->Current
 311 018e 9A60     		str	r2, [r3, #8]	@ float	@ D.9468_103->Current, InternalState.21_101->Heading
 424:.\src\sensors\fusion/complementary.c **** 		InternalState->YawRateDPS = ((GryoExtendedData_t *)CompFilterRoll->Sensor1->Extended)->RateZDPS;
ARM GAS  C:\Users\Kevin\AppData\Local\Temp\ccw18vSb.s 			page 14


 312              		.loc 1 424 0
 313 0190 3E4A     		ldr	r2, .L39+8	@ tmp385,
 314 0192 1268     		ldr	r2, [r2, #0]	@ CompFilterRoll, CompFilterRoll
 315 0194 1269     		ldr	r2, [r2, #16]	@ CompFilterRoll.23_106->Sensor1, CompFilterRoll.23_106->Sensor1
 316 0196 126D     		ldr	r2, [r2, #80]	@ D.9422_107->Extended, D.9422_107->Extended
 317 0198 9268     		ldr	r2, [r2, #8]	@ float	@ MEM[(struct GryoExtendedData_t *)D.9423_108].RateZDPS, MEM[(struct Gryo
 318 019a DA61     		str	r2, [r3, #28]	@ float	@ MEM[(struct GryoExtendedData_t *)D.9423_108].RateZDPS, InternalState.2
 319              	.L8:
 425:.\src\sensors\fusion/complementary.c **** 	}
 426:.\src\sensors\fusion/complementary.c **** 
 427:.\src\sensors\fusion/complementary.c **** 	TWB_Autopilot_DetermineAltitude(CompFilterAltitude);
 320              		.loc 1 427 0
 321 019c 3C4B     		ldr	r3, .L39+12	@ tmp389,
 322 019e 1868     		ldr	r0, [r3, #0]	@, CompFilterAltitude
 323 01a0 FFF7FEFF 		bl	TWB_Autopilot_DetermineAltitude	@
 324              	.LVL13:
 428:.\src\sensors\fusion/complementary.c **** 
 429:.\src\sensors\fusion/complementary.c **** 	/*Now update the gyro with the output of the complemenatary filter */
 430:.\src\sensors\fusion/complementary.c **** 	if(ComplementaryFilterConfig->Sensor1Pitch >= GyroITG3200 && ComplementaryFilterConfig->Sensor1Pit
 325              		.loc 1 430 0
 326 01a4 3B4B     		ldr	r3, .L39+16	@ tmp390,
 327 01a6 1B68     		ldr	r3, [r3, #0]	@ ComplementaryFilterConfig.20, ComplementaryFilterConfig
 328 01a8 9A7A     		ldrb	r2, [r3, #10]	@ zero_extendqisi2	@ ComplementaryFilterConfig.20_111->Sensor1Pitch, Complement
 329 01aa 203A     		subs	r2, r2, #32	@ tmp394, ComplementaryFilterConfig.20_111->Sensor1Pitch,
 330 01ac 022A     		cmp	r2, #2	@ tmp394,
 331 01ae 06D8     		bhi	.L17	@,
 431:.\src\sensors\fusion/complementary.c **** 		CompFilterPitch->Sensor1->X = InternalState->Pitch;
 332              		.loc 1 431 0
 333 01b0 394A     		ldr	r2, .L39+20	@ tmp396,
 334 01b2 3449     		ldr	r1, .L39	@ tmp399,
 335 01b4 1268     		ldr	r2, [r2, #0]	@ CompFilterPitch, CompFilterPitch
 336 01b6 0968     		ldr	r1, [r1, #0]	@ InternalState, InternalState
 337 01b8 1269     		ldr	r2, [r2, #16]	@ CompFilterPitch.22_114->Sensor1, CompFilterPitch.22_114->Sensor1
 338 01ba 0968     		ldr	r1, [r1, #0]	@ float	@ InternalState.21_116->Pitch, InternalState.21_116->Pitch
 339 01bc 5164     		str	r1, [r2, #68]	@ float	@ InternalState.21_116->Pitch, D.9408_115->X
 340              	.L17:
 432:.\src\sensors\fusion/complementary.c **** 
 433:.\src\sensors\fusion/complementary.c **** 	if(ComplementaryFilterConfig->Sensor2Pitch >= GyroITG3200 && ComplementaryFilterConfig->Sensor2Pit
 341              		.loc 1 433 0
 342 01be DA7A     		ldrb	r2, [r3, #11]	@ zero_extendqisi2	@ ComplementaryFilterConfig.20_111->Sensor2Pitch, Complement
 343 01c0 203A     		subs	r2, r2, #32	@ tmp404, ComplementaryFilterConfig.20_111->Sensor2Pitch,
 344 01c2 022A     		cmp	r2, #2	@ tmp404,
 345 01c4 06D8     		bhi	.L18	@,
 434:.\src\sensors\fusion/complementary.c **** 		CompFilterPitch->Sensor2->X = InternalState->Pitch;
 346              		.loc 1 434 0
 347 01c6 344A     		ldr	r2, .L39+20	@ tmp406,
 348 01c8 2E49     		ldr	r1, .L39	@ tmp409,
 349 01ca 1268     		ldr	r2, [r2, #0]	@ CompFilterPitch, CompFilterPitch
 350 01cc 0968     		ldr	r1, [r1, #0]	@ InternalState, InternalState
 351 01ce 5269     		ldr	r2, [r2, #20]	@ CompFilterPitch.22_121->Sensor2, CompFilterPitch.22_121->Sensor2
 352 01d0 0968     		ldr	r1, [r1, #0]	@ float	@ InternalState.21_123->Pitch, InternalState.21_123->Pitch
 353 01d2 5164     		str	r1, [r2, #68]	@ float	@ InternalState.21_123->Pitch, D.9412_122->X
 354              	.L18:
 435:.\src\sensors\fusion/complementary.c **** 
 436:.\src\sensors\fusion/complementary.c **** 	if(ComplementaryFilterConfig->Sensor1Roll >= GyroITG3200 && ComplementaryFilterConfig->Sensor1Roll
 355              		.loc 1 436 0
 356 01d4 5A7B     		ldrb	r2, [r3, #13]	@ zero_extendqisi2	@ ComplementaryFilterConfig.20_111->Sensor1Roll, Complementa
ARM GAS  C:\Users\Kevin\AppData\Local\Temp\ccw18vSb.s 			page 15


 357 01d6 203A     		subs	r2, r2, #32	@ tmp414, ComplementaryFilterConfig.20_111->Sensor1Roll,
 358 01d8 022A     		cmp	r2, #2	@ tmp414,
 359 01da 06D8     		bhi	.L19	@,
 437:.\src\sensors\fusion/complementary.c **** 		CompFilterPitch->Sensor1->Y = InternalState->Roll;
 360              		.loc 1 437 0
 361 01dc 2E4A     		ldr	r2, .L39+20	@ tmp416,
 362 01de 2949     		ldr	r1, .L39	@ tmp419,
 363 01e0 1268     		ldr	r2, [r2, #0]	@ CompFilterPitch, CompFilterPitch
 364 01e2 0968     		ldr	r1, [r1, #0]	@ InternalState, InternalState
 365 01e4 1269     		ldr	r2, [r2, #16]	@ CompFilterPitch.22_128->Sensor1, CompFilterPitch.22_128->Sensor1
 366 01e6 4968     		ldr	r1, [r1, #4]	@ float	@ InternalState.21_130->Roll, InternalState.21_130->Roll
 367 01e8 9164     		str	r1, [r2, #72]	@ float	@ InternalState.21_130->Roll, D.9408_129->Y
 368              	.L19:
 438:.\src\sensors\fusion/complementary.c **** 
 439:.\src\sensors\fusion/complementary.c **** 	if(ComplementaryFilterConfig->Sensor2Roll >= GyroITG3200 && ComplementaryFilterConfig->Sensor2Roll
 369              		.loc 1 439 0
 370 01ea 9A7B     		ldrb	r2, [r3, #14]	@ zero_extendqisi2	@ ComplementaryFilterConfig.20_111->Sensor2Roll, Complementa
 371 01ec 203A     		subs	r2, r2, #32	@ tmp424, ComplementaryFilterConfig.20_111->Sensor2Roll,
 372 01ee 022A     		cmp	r2, #2	@ tmp424,
 373 01f0 06D8     		bhi	.L20	@,
 440:.\src\sensors\fusion/complementary.c **** 		CompFilterPitch->Sensor2->Y = InternalState->Roll;
 374              		.loc 1 440 0
 375 01f2 294A     		ldr	r2, .L39+20	@ tmp426,
 376 01f4 2349     		ldr	r1, .L39	@ tmp429,
 377 01f6 1268     		ldr	r2, [r2, #0]	@ CompFilterPitch, CompFilterPitch
 378 01f8 0968     		ldr	r1, [r1, #0]	@ InternalState, InternalState
 379 01fa 5269     		ldr	r2, [r2, #20]	@ CompFilterPitch.22_135->Sensor2, CompFilterPitch.22_135->Sensor2
 380 01fc 4968     		ldr	r1, [r1, #4]	@ float	@ InternalState.21_137->Roll, InternalState.21_137->Roll
 381 01fe 9164     		str	r1, [r2, #72]	@ float	@ InternalState.21_137->Roll, D.9412_136->Y
 382              	.L20:
 441:.\src\sensors\fusion/complementary.c **** 
 442:.\src\sensors\fusion/complementary.c **** 	if(ComplementaryFilterConfig->Sensor1Heading >= GyroITG3200 && ComplementaryFilterConfig->Sensor1H
 383              		.loc 1 442 0
 384 0200 1A7C     		ldrb	r2, [r3, #16]	@ zero_extendqisi2	@ ComplementaryFilterConfig.20_111->Sensor1Heading, Compleme
 385 0202 203A     		subs	r2, r2, #32	@ tmp434, ComplementaryFilterConfig.20_111->Sensor1Heading,
 386 0204 022A     		cmp	r2, #2	@ tmp434,
 387 0206 06D8     		bhi	.L21	@,
 443:.\src\sensors\fusion/complementary.c **** 		CompFilterPitch->Sensor1->Z = InternalState->Heading;
 388              		.loc 1 443 0
 389 0208 234A     		ldr	r2, .L39+20	@ tmp436,
 390 020a 1E49     		ldr	r1, .L39	@ tmp439,
 391 020c 1268     		ldr	r2, [r2, #0]	@ CompFilterPitch, CompFilterPitch
 392 020e 0968     		ldr	r1, [r1, #0]	@ InternalState, InternalState
 393 0210 1269     		ldr	r2, [r2, #16]	@ CompFilterPitch.22_142->Sensor1, CompFilterPitch.22_142->Sensor1
 394 0212 8968     		ldr	r1, [r1, #8]	@ float	@ InternalState.21_144->Heading, InternalState.21_144->Heading
 395 0214 D164     		str	r1, [r2, #76]	@ float	@ InternalState.21_144->Heading, D.9408_143->Z
 396              	.L21:
 444:.\src\sensors\fusion/complementary.c **** 
 445:.\src\sensors\fusion/complementary.c **** 	if(ComplementaryFilterConfig->Sensor2Heading >= GyroITG3200 && ComplementaryFilterConfig->Sensor2H
 397              		.loc 1 445 0
 398 0216 5B7C     		ldrb	r3, [r3, #17]	@ zero_extendqisi2	@ ComplementaryFilterConfig.20_111->Sensor2Heading, Compleme
 399 0218 203B     		subs	r3, r3, #32	@ tmp444, ComplementaryFilterConfig.20_111->Sensor2Heading,
 400 021a 022B     		cmp	r3, #2	@ tmp444,
 401 021c 06D8     		bhi	.L22	@,
 446:.\src\sensors\fusion/complementary.c **** 		CompFilterPitch->Sensor2->Z = InternalState->Heading;
 402              		.loc 1 446 0
 403 021e 1E4B     		ldr	r3, .L39+20	@ tmp446,
ARM GAS  C:\Users\Kevin\AppData\Local\Temp\ccw18vSb.s 			page 16


 404 0220 184A     		ldr	r2, .L39	@ tmp449,
 405 0222 1B68     		ldr	r3, [r3, #0]	@ CompFilterPitch, CompFilterPitch
 406 0224 1268     		ldr	r2, [r2, #0]	@ InternalState, InternalState
 407 0226 5B69     		ldr	r3, [r3, #20]	@ CompFilterPitch.22_149->Sensor2, CompFilterPitch.22_149->Sensor2
 408 0228 9268     		ldr	r2, [r2, #8]	@ float	@ InternalState.21_151->Heading, InternalState.21_151->Heading
 409 022a DA64     		str	r2, [r3, #76]	@ float	@ InternalState.21_151->Heading, D.9412_150->Z
 410              	.L22:
 447:.\src\sensors\fusion/complementary.c **** 
 448:.\src\sensors\fusion/complementary.c **** 	SensorData->Pitch = (int16_t)(InternalState->Pitch * 10.0f);
 411              		.loc 1 448 0
 412 022c 154A     		ldr	r2, .L39	@ tmp452,
 413 022e 1B4B     		ldr	r3, .L39+24	@ tmp451,
 414 0230 1268     		ldr	r2, [r2, #0]	@ InternalState.21, InternalState
 415 0232 1B68     		ldr	r3, [r3, #0]	@ SensorData.26, SensorData
 416 0234 D2ED007A 		flds	s15, [r2, #0]	@ InternalState.21_154->Pitch, InternalState.21_154->Pitch
 417 0238 67EE887A 		fmuls	s15, s15, s16	@ tmp453, InternalState.21_154->Pitch, tmp476
 449:.\src\sensors\fusion/complementary.c **** 	SensorData->Roll = (int16_t)(InternalState->Roll * 10.0f);
 450:.\src\sensors\fusion/complementary.c **** 	SensorData->Heading = (uint16_t)(InternalState->Heading * 10.0f);
 451:.\src\sensors\fusion/complementary.c **** 	SensorData->AltitudeM = (int16_t)(InternalState->AltitudeM * 10.0f);
 452:.\src\sensors\fusion/complementary.c **** 
 453:.\src\sensors\fusion/complementary.c **** 	return OK;
 454:.\src\sensors\fusion/complementary.c **** }
 418              		.loc 1 454 0
 419 023c 0020     		movs	r0, #0	@,
 448:.\src\sensors\fusion/complementary.c **** 	SensorData->Pitch = (int16_t)(InternalState->Pitch * 10.0f);
 420              		.loc 1 448 0
 421 023e FDEEE77A 		ftosizs	s15, s15	@, tmp453
 422 0242 17EE901A 		fmrs	r1, s15	@ int	@ tmp456,
 449:.\src\sensors\fusion/complementary.c **** 	SensorData->Roll = (int16_t)(InternalState->Roll * 10.0f);
 423              		.loc 1 449 0
 424 0246 D2ED017A 		flds	s15, [r2, #4]	@ InternalState.21_154->Roll, InternalState.21_154->Roll
 425 024a 67EE887A 		fmuls	s15, s15, s16	@ tmp458, InternalState.21_154->Roll, tmp476
 448:.\src\sensors\fusion/complementary.c **** 	SensorData->Pitch = (int16_t)(InternalState->Pitch * 10.0f);
 426              		.loc 1 448 0
 427 024e 1980     		strh	r1, [r3, #0]	@ movhi	@ tmp456, SensorData.26_153->Pitch
 449:.\src\sensors\fusion/complementary.c **** 	SensorData->Roll = (int16_t)(InternalState->Roll * 10.0f);
 428              		.loc 1 449 0
 429 0250 FDEEE77A 		ftosizs	s15, s15	@, tmp458
 430 0254 17EE901A 		fmrs	r1, s15	@ int	@ tmp461,
 450:.\src\sensors\fusion/complementary.c **** 	SensorData->Heading = (uint16_t)(InternalState->Heading * 10.0f);
 431              		.loc 1 450 0
 432 0258 D2ED027A 		flds	s15, [r2, #8]	@ InternalState.21_154->Heading, InternalState.21_154->Heading
 433 025c 67EE887A 		fmuls	s15, s15, s16	@ tmp463, InternalState.21_154->Heading, tmp476
 449:.\src\sensors\fusion/complementary.c **** 	SensorData->Roll = (int16_t)(InternalState->Roll * 10.0f);
 434              		.loc 1 449 0
 435 0260 5980     		strh	r1, [r3, #2]	@ movhi	@ tmp461, SensorData.26_153->Roll
 450:.\src\sensors\fusion/complementary.c **** 	SensorData->Heading = (uint16_t)(InternalState->Heading * 10.0f);
 436              		.loc 1 450 0
 437 0262 FCEEE77A 		ftouizs	s15, s15	@, tmp463
 438 0266 17EE901A 		fmrs	r1, s15	@ int	@ tmp466,
 451:.\src\sensors\fusion/complementary.c **** 	SensorData->AltitudeM = (int16_t)(InternalState->AltitudeM * 10.0f);
 439              		.loc 1 451 0
 440 026a D2ED037A 		flds	s15, [r2, #12]	@ InternalState.21_154->AltitudeM, InternalState.21_154->AltitudeM
 441 026e 27EE888A 		fmuls	s16, s15, s16	@ tmp468, InternalState.21_154->AltitudeM, tmp476
 450:.\src\sensors\fusion/complementary.c **** 	SensorData->Heading = (uint16_t)(InternalState->Heading * 10.0f);
 442              		.loc 1 450 0
 443 0272 9980     		strh	r1, [r3, #4]	@ movhi	@ tmp466, SensorData.26_153->Heading
ARM GAS  C:\Users\Kevin\AppData\Local\Temp\ccw18vSb.s 			page 17


 451:.\src\sensors\fusion/complementary.c **** 	SensorData->AltitudeM = (int16_t)(InternalState->AltitudeM * 10.0f);
 444              		.loc 1 451 0
 445 0274 BDEEC88A 		ftosizs	s16, s16	@, tmp468
 446 0278 18EE102A 		fmrs	r2, s16	@ int	@ tmp471,
 447 027c DA80     		strh	r2, [r3, #6]	@ movhi	@ tmp471, SensorData.26_153->AltitudeM
 448              		.loc 1 454 0
 449 027e BDEC028B 		fldmfdd	sp!, {d8}
 450 0282 38BD     		pop	{r3, r4, r5, pc}
 451              	.L40:
 452              		.align	2
 453              	.L39:
 454 0284 00000000 		.word	InternalState
 455 0288 00000000 		.word	CompFilterHeading
 456 028c 00000000 		.word	CompFilterRoll
 457 0290 00000000 		.word	CompFilterAltitude
 458 0294 00000000 		.word	ComplementaryFilterConfig
 459 0298 00000000 		.word	CompFilterPitch
 460 029c 00000000 		.word	SensorData
 461              		.cfi_endproc
 462              	.LFE117:
 463              		.size	TWB_SNSR_Complementary_Process, .-TWB_SNSR_Complementary_Process
 464              		.align	1
 465              		.global	__snsr_ResolveCompFilter
 466              		.thumb
 467              		.thumb_func
 468              		.type	__snsr_ResolveCompFilter, %function
 469              	__snsr_ResolveCompFilter:
 470              	.LFB110:
  35:.\src\sensors\fusion/complementary.c **** void __snsr_ResolveCompFilter(CompFilterValues_t value, CompFilter_t *filterSettings){
 471              		.loc 1 35 0
 472              		.cfi_startproc
 473              		@ args = 0, pretend = 0, frame = 0
 474              		@ frame_needed = 0, uses_anonymous_args = 0
 475              	.LVL14:
 476 02a0 1228     		cmp	r0, #18	@ value,
 477 02a2 98BF     		it	ls
 478 02a4 144B     		ldrls	r3, .L44	@ tmp146,
 479 02a6 10B5     		push	{r4, lr}	@
 480              	.LCFI2:
 481              		.cfi_def_cfa_offset 8
 482              		.cfi_offset 4, -8
 483              		.cfi_offset 14, -4
 484 02a8 98BF     		it	ls
 485 02aa 03EB8000 		addls	r0, r3, r0, lsl #2	@, tmp148, tmp146, value,
 486              	.LVL15:
  60:.\src\sensors\fusion/complementary.c **** 	float ms = TWB_Timer_GetMSFromSampleRate(ComplementaryFilterConfig->SampleRate) / 1000.0f;
 487              		.loc 1 60 0
 488 02ae 134B     		ldr	r3, .L44+4	@ tmp150,
 489 02b0 1B68     		ldr	r3, [r3, #0]	@ ComplementaryFilterConfig, ComplementaryFilterConfig
  35:.\src\sensors\fusion/complementary.c **** void __snsr_ResolveCompFilter(CompFilterValues_t value, CompFilter_t *filterSettings){
 490              		.loc 1 35 0
 491 02b2 2DED028B 		fstmfdd	sp!, {d8}	@,
 492              	.LCFI3:
 493              		.cfi_def_cfa_offset 16
 494              		.cfi_offset 80, -16
 495 02b6 98BF     		it	ls
 496 02b8 90ED008A 		fldsls	s16, [r0, #0]	@ timeConstant, CSWTCH.60
ARM GAS  C:\Users\Kevin\AppData\Local\Temp\ccw18vSb.s 			page 18


  60:.\src\sensors\fusion/complementary.c **** 	float ms = TWB_Timer_GetMSFromSampleRate(ComplementaryFilterConfig->SampleRate) / 1000.0f;
 497              		.loc 1 60 0
 498 02bc 5878     		ldrb	r0, [r3, #1]	@ zero_extendqisi2	@, ComplementaryFilterConfig.56_24->SampleRate
  35:.\src\sensors\fusion/complementary.c **** void __snsr_ResolveCompFilter(CompFilterValues_t value, CompFilter_t *filterSettings){
 499              		.loc 1 35 0
 500 02be 0C46     		mov	r4, r1	@ filterSettings, filterSettings
 501 02c0 88BF     		it	hi
 502 02c2 9FED0F8A 		fldshi	s16, .L44+8	@ timeConstant,
 503              	.LVL16:
  60:.\src\sensors\fusion/complementary.c **** 	float ms = TWB_Timer_GetMSFromSampleRate(ComplementaryFilterConfig->SampleRate) / 1000.0f;
 504              		.loc 1 60 0
 505 02c6 FFF7FEFF 		bl	TWB_Timer_GetMSFromSampleRate	@
 506              	.LVL17:
 507 02ca 07EE900A 		fmsr	s15, r0	@ int	@,
 508 02ce B8EEE77A 		fsitos	s14, s15	@ tmp153,
 509 02d2 DFED0C7A 		flds	s15, .L44+12	@ tmp155,
 510 02d6 C7EE277A 		fdivs	s15, s14, s15	@ tmp154, tmp153, tmp155
  65:.\src\sensors\fusion/complementary.c **** 	filterSettings->Period2 = 1.0f - alpha;
 511              		.loc 1 65 0
 512 02da B7EE007A 		fconsts	s14, #112	@ tmp158,
  62:.\src\sensors\fusion/complementary.c ****     float alpha = timeConstant / (timeConstant + ms);
 513              		.loc 1 62 0
 514 02de 78EE277A 		fadds	s15, s16, s15	@ tmp156, timeConstant, tmp154
 515 02e2 C8EE277A 		fdivs	s15, s16, s15	@ alpha, timeConstant, tmp156
 516              	.LVL18:
  64:.\src\sensors\fusion/complementary.c **** 	filterSettings->Period1 = alpha;;
 517              		.loc 1 64 0
 518 02e6 C4ED007A 		fsts	s15, [r4, #0]	@ alpha, filterSettings_32(D)->Period1
  65:.\src\sensors\fusion/complementary.c **** 	filterSettings->Period2 = 1.0f - alpha;
 519              		.loc 1 65 0
 520 02ea 77EE677A 		fsubs	s15, s14, s15	@ tmp157, tmp158, alpha
 521              	.LVL19:
 522 02ee C4ED017A 		fsts	s15, [r4, #4]	@ tmp157, filterSettings_32(D)->Period2
  66:.\src\sensors\fusion/complementary.c **** }
 523              		.loc 1 66 0
 524 02f2 BDEC028B 		fldmfdd	sp!, {d8}
 525 02f6 10BD     		pop	{r4, pc}
 526              	.L45:
 527              		.align	2
 528              	.L44:
 529 02f8 00000000 		.word	.LANCHOR0
 530 02fc 00000000 		.word	ComplementaryFilterConfig
 531 0300 00000000 		.word	0
 532 0304 00007A44 		.word	1148846080
 533              		.cfi_endproc
 534              	.LFE110:
 535              		.size	__snsr_ResolveCompFilter, .-__snsr_ResolveCompFilter
 536              		.align	1
 537              		.global	__snsr_compFilter_ResolveCompFilters
 538              		.thumb
 539              		.thumb_func
 540              		.type	__snsr_compFilter_ResolveCompFilters, %function
 541              	__snsr_compFilter_ResolveCompFilters:
 542              	.LFB111:
  68:.\src\sensors\fusion/complementary.c **** void __snsr_compFilter_ResolveCompFilters(void){
 543              		.loc 1 68 0
 544              		.cfi_startproc
ARM GAS  C:\Users\Kevin\AppData\Local\Temp\ccw18vSb.s 			page 19


 545              		@ args = 0, pretend = 0, frame = 0
 546              		@ frame_needed = 0, uses_anonymous_args = 0
 547 0308 10B5     		push	{r4, lr}	@
 548              	.LCFI4:
 549              		.cfi_def_cfa_offset 8
 550              		.cfi_offset 4, -8
 551              		.cfi_offset 14, -4
  69:.\src\sensors\fusion/complementary.c **** 	__snsr_ResolveCompFilter(ComplementaryFilterConfig->TimeConstantPitch, CompFilterPitch);
 552              		.loc 1 69 0
 553 030a 0D4C     		ldr	r4, .L47	@ tmp147,
 554 030c 2368     		ldr	r3, [r4, #0]	@ ComplementaryFilterConfig, ComplementaryFilterConfig
 555 030e 9879     		ldrb	r0, [r3, #6]	@ zero_extendqisi2	@, ComplementaryFilterConfig.51_1->TimeConstantPitch
 556 0310 0C4B     		ldr	r3, .L47+4	@ tmp149,
 557 0312 1968     		ldr	r1, [r3, #0]	@, CompFilterPitch
 558 0314 FFF7FEFF 		bl	__snsr_ResolveCompFilter	@
 559              	.LVL20:
  70:.\src\sensors\fusion/complementary.c **** 	__snsr_ResolveCompFilter(ComplementaryFilterConfig->TimeConstantRoll, CompFilterRoll);
 560              		.loc 1 70 0
 561 0318 2368     		ldr	r3, [r4, #0]	@ ComplementaryFilterConfig, ComplementaryFilterConfig
 562 031a D879     		ldrb	r0, [r3, #7]	@ zero_extendqisi2	@, ComplementaryFilterConfig.51_4->TimeConstantRoll
 563 031c 0A4B     		ldr	r3, .L47+8	@ tmp153,
 564 031e 1968     		ldr	r1, [r3, #0]	@, CompFilterRoll
 565 0320 FFF7FEFF 		bl	__snsr_ResolveCompFilter	@
 566              	.LVL21:
  71:.\src\sensors\fusion/complementary.c **** 	__snsr_ResolveCompFilter(ComplementaryFilterConfig->TimeConstantHeading, CompFilterHeading);
 567              		.loc 1 71 0
 568 0324 2368     		ldr	r3, [r4, #0]	@ ComplementaryFilterConfig, ComplementaryFilterConfig
 569 0326 187A     		ldrb	r0, [r3, #8]	@ zero_extendqisi2	@, ComplementaryFilterConfig.51_7->TimeConstantHeading
 570 0328 084B     		ldr	r3, .L47+12	@ tmp157,
 571 032a 1968     		ldr	r1, [r3, #0]	@, CompFilterHeading
 572 032c FFF7FEFF 		bl	__snsr_ResolveCompFilter	@
 573              	.LVL22:
  72:.\src\sensors\fusion/complementary.c **** 	__snsr_ResolveCompFilter(ComplementaryFilterConfig->TimeConstantAltitude, CompFilterAltitude);
 574              		.loc 1 72 0
 575 0330 2368     		ldr	r3, [r4, #0]	@ ComplementaryFilterConfig, ComplementaryFilterConfig
 576 0332 587A     		ldrb	r0, [r3, #9]	@ zero_extendqisi2	@, ComplementaryFilterConfig.51_10->TimeConstantAltitude
 577 0334 064B     		ldr	r3, .L47+16	@ tmp161,
 578 0336 1968     		ldr	r1, [r3, #0]	@, CompFilterAltitude
  73:.\src\sensors\fusion/complementary.c **** }
 579              		.loc 1 73 0
 580 0338 BDE81040 		pop	{r4, lr}	@
  72:.\src\sensors\fusion/complementary.c **** 	__snsr_ResolveCompFilter(ComplementaryFilterConfig->TimeConstantAltitude, CompFilterAltitude);
 581              		.loc 1 72 0
 582 033c FFF7FEBF 		b	__snsr_ResolveCompFilter	@
 583              	.LVL23:
 584              	.L48:
 585              		.align	2
 586              	.L47:
 587 0340 00000000 		.word	ComplementaryFilterConfig
 588 0344 00000000 		.word	CompFilterPitch
 589 0348 00000000 		.word	CompFilterRoll
 590 034c 00000000 		.word	CompFilterHeading
 591 0350 00000000 		.word	CompFilterAltitude
 592              		.cfi_endproc
 593              	.LFE111:
 594              		.size	__snsr_compFilter_ResolveCompFilters, .-__snsr_compFilter_ResolveCompFilters
 595              		.align	1
ARM GAS  C:\Users\Kevin\AppData\Local\Temp\ccw18vSb.s 			page 20


 596              		.global	__snsr_compFilter_ResolveSensor
 597              		.thumb
 598              		.thumb_func
 599              		.type	__snsr_compFilter_ResolveSensor, %function
 600              	__snsr_compFilter_ResolveSensor:
 601              	.LFB112:
  75:.\src\sensors\fusion/complementary.c **** Sensor_t *__snsr_compFilter_ResolveSensor(SensorDevice_e sensorType){
 602              		.loc 1 75 0
 603              		.cfi_startproc
 604              		@ args = 0, pretend = 0, frame = 0
 605              		@ frame_needed = 0, uses_anonymous_args = 0
 606              		@ link register save eliminated.
 607              	.LVL24:
  76:.\src\sensors\fusion/complementary.c **** 	switch(sensorType){
 608              		.loc 1 76 0
 609 0354 4028     		cmp	r0, #64	@ sensorType,
 610 0356 28D0     		beq	.L57	@,
 611 0358 0ED8     		bhi	.L63	@,
 612 035a 3028     		cmp	r0, #48	@ sensorType,
 613 035c 1FD0     		beq	.L54	@,
 614 035e 06D8     		bhi	.L64	@,
 615 0360 2128     		cmp	r0, #33	@ sensorType,
 616 0362 1AD0     		beq	.L52	@,
 617 0364 2228     		cmp	r0, #34	@ sensorType,
 618 0366 16D0     		beq	.L53	@,
 619 0368 2028     		cmp	r0, #32	@ sensorType,
 620 036a 2BD1     		bne	.L66	@,
 621 036c 11E0     		b	.L51	@
 622              	.L64:
 623 036e 3128     		cmp	r0, #49	@ sensorType,
 624 0370 17D0     		beq	.L55	@,
 625 0372 3228     		cmp	r0, #50	@ sensorType,
 626 0374 26D1     		bne	.L66	@,
 627 0376 16E0     		b	.L56	@
 628              	.L63:
 629 0378 5128     		cmp	r0, #81	@ sensorType,
 630 037a 1ED0     		beq	.L60	@,
 631 037c 04D8     		bhi	.L65	@,
 632 037e 4128     		cmp	r0, #65	@ sensorType,
 633 0380 15D0     		beq	.L58	@,
 634 0382 5028     		cmp	r0, #80	@ sensorType,
 635 0384 1ED1     		bne	.L66	@,
 636 0386 14E0     		b	.L59	@
 637              	.L65:
 638 0388 5228     		cmp	r0, #82	@ sensorType,
 639 038a 18D0     		beq	.L61	@,
 640 038c 5328     		cmp	r0, #83	@ sensorType,
 641 038e 19D1     		bne	.L66	@,
 642 0390 11E0     		b	.L62	@
 643              	.L51:
  77:.\src\sensors\fusion/complementary.c **** 		case GyroITG3200: return GyroITG3200Sensor;
 644              		.loc 1 77 0
 645 0392 0D4B     		ldr	r3, .L68	@ tmp137,
 646 0394 14E0     		b	.L67	@
 647              	.L53:
  78:.\src\sensors\fusion/complementary.c **** 		case GyroL3GD20: return GyroL3GD20Sensor;
 648              		.loc 1 78 0
ARM GAS  C:\Users\Kevin\AppData\Local\Temp\ccw18vSb.s 			page 21


 649 0396 0D4B     		ldr	r3, .L68+4	@ tmp138,
 650 0398 12E0     		b	.L67	@
 651              	.L52:
  79:.\src\sensors\fusion/complementary.c **** 		case GyroMPU60x0: return GyroMPU60x0Sensor;
 652              		.loc 1 79 0
 653 039a 0D4B     		ldr	r3, .L68+8	@ tmp139,
 654 039c 10E0     		b	.L67	@
 655              	.L54:
  81:.\src\sensors\fusion/complementary.c **** 		case AccLSM303: return AccLSM303Sensor;
 656              		.loc 1 81 0
 657 039e 0D4B     		ldr	r3, .L68+12	@ tmp140,
 658 03a0 0EE0     		b	.L67	@
 659              	.L55:
  82:.\src\sensors\fusion/complementary.c **** 		case AccADXL345: return AccADXL345Sensor;
 660              		.loc 1 82 0
 661 03a2 0D4B     		ldr	r3, .L68+16	@ tmp141,
 662 03a4 0CE0     		b	.L67	@
 663              	.L56:
  83:.\src\sensors\fusion/complementary.c **** 		case AccMPU60x0: return AccMPU60x0Sensor;
 664              		.loc 1 83 0
 665 03a6 0D4B     		ldr	r3, .L68+20	@ tmp142,
 666 03a8 0AE0     		b	.L67	@
 667              	.L57:
  85:.\src\sensors\fusion/complementary.c **** 		case MagLSM303: return MagLSM303Sensor;
 668              		.loc 1 85 0
 669 03aa 0D4B     		ldr	r3, .L68+24	@ tmp143,
 670 03ac 08E0     		b	.L67	@
 671              	.L58:
  86:.\src\sensors\fusion/complementary.c **** 		case MagHMS5883: return MagHMC5883Sensor;
 672              		.loc 1 86 0
 673 03ae 0D4B     		ldr	r3, .L68+28	@ tmp144,
 674 03b0 06E0     		b	.L67	@
 675              	.L59:
  88:.\src\sensors\fusion/complementary.c **** 		case AltBMP085: return PressureBMP085Sensor;
 676              		.loc 1 88 0
 677 03b2 0D4B     		ldr	r3, .L68+32	@ tmp145,
 678 03b4 04E0     		b	.L67	@
 679              	.L62:
  89:.\src\sensors\fusion/complementary.c **** 		case AltMS5611: return PressureMS5611Sensor;
 680              		.loc 1 89 0
 681 03b6 0D4B     		ldr	r3, .L68+36	@ tmp146,
 682 03b8 02E0     		b	.L67	@
 683              	.L60:
  90:.\src\sensors\fusion/complementary.c **** 		case AltSonar: return SonarSensor;
 684              		.loc 1 90 0
 685 03ba 0D4B     		ldr	r3, .L68+40	@ tmp147,
 686 03bc 00E0     		b	.L67	@
 687              	.L61:
  91:.\src\sensors\fusion/complementary.c **** 		case AltGPS: return GeoGPSSensor;
 688              		.loc 1 91 0
 689 03be 0D4B     		ldr	r3, .L68+44	@ tmp148,
 690              	.L67:
 691 03c0 1868     		ldr	r0, [r3, #0]	@ D.9782,
 692              	.LVL25:
 693 03c2 7047     		bx	lr	@
 694              	.LVL26:
 695              	.L66:
ARM GAS  C:\Users\Kevin\AppData\Local\Temp\ccw18vSb.s 			page 22


  93:.\src\sensors\fusion/complementary.c **** 		default: return SensorNone;
 696              		.loc 1 93 0
 697 03c4 0020     		movs	r0, #0	@ D.9782,
 698              	.LVL27:
  95:.\src\sensors\fusion/complementary.c **** }
 699              		.loc 1 95 0
 700 03c6 7047     		bx	lr	@
 701              	.L69:
 702              		.align	2
 703              	.L68:
 704 03c8 00000000 		.word	GyroITG3200Sensor
 705 03cc 00000000 		.word	GyroL3GD20Sensor
 706 03d0 00000000 		.word	GyroMPU60x0Sensor
 707 03d4 00000000 		.word	AccLSM303Sensor
 708 03d8 00000000 		.word	AccADXL345Sensor
 709 03dc 00000000 		.word	AccMPU60x0Sensor
 710 03e0 00000000 		.word	MagLSM303Sensor
 711 03e4 00000000 		.word	MagHMC5883Sensor
 712 03e8 00000000 		.word	PressureBMP085Sensor
 713 03ec 00000000 		.word	PressureMS5611Sensor
 714 03f0 00000000 		.word	SonarSensor
 715 03f4 00000000 		.word	GeoGPSSensor
 716              		.cfi_endproc
 717              	.LFE112:
 718              		.size	__snsr_compFilter_ResolveSensor, .-__snsr_compFilter_ResolveSensor
 719              		.align	1
 720              		.global	__snsr_compFilter_ResolveSensors
 721              		.thumb
 722              		.thumb_func
 723              		.type	__snsr_compFilter_ResolveSensors, %function
 724              	__snsr_compFilter_ResolveSensors:
 725              	.LFB113:
  97:.\src\sensors\fusion/complementary.c **** void __snsr_compFilter_ResolveSensors(void){
 726              		.loc 1 97 0
 727              		.cfi_startproc
 728              		@ args = 0, pretend = 0, frame = 0
 729              		@ frame_needed = 0, uses_anonymous_args = 0
 730 03f8 38B5     		push	{r3, r4, r5, lr}	@
 731              	.LCFI5:
 732              		.cfi_def_cfa_offset 16
 733              		.cfi_offset 3, -16
 734              		.cfi_offset 4, -12
 735              		.cfi_offset 5, -8
 736              		.cfi_offset 14, -4
  98:.\src\sensors\fusion/complementary.c **** 	CompFilterPitch->Sensor1 = __snsr_compFilter_ResolveSensor(ComplementaryFilterConfig->Sensor1Pitch
 737              		.loc 1 98 0
 738 03fa 1D4B     		ldr	r3, .L71	@ tmp163,
 739 03fc 1D68     		ldr	r5, [r3, #0]	@ CompFilterPitch.46, CompFilterPitch
 740 03fe 1D4B     		ldr	r3, .L71+4	@ tmp164,
 741 0400 1C68     		ldr	r4, [r3, #0]	@ ComplementaryFilterConfig.47, ComplementaryFilterConfig
 742 0402 A07A     		ldrb	r0, [r4, #10]	@ zero_extendqisi2	@, ComplementaryFilterConfig.47_2->Sensor1Pitch
 743 0404 FFF7FEFF 		bl	__snsr_compFilter_ResolveSensor	@
 744              	.LVL28:
 745 0408 2861     		str	r0, [r5, #16]	@, CompFilterPitch.46_1->Sensor1
  99:.\src\sensors\fusion/complementary.c **** 	CompFilterPitch->Sensor2 = __snsr_compFilter_ResolveSensor(ComplementaryFilterConfig->Sensor2Pitch
 746              		.loc 1 99 0
 747 040a E07A     		ldrb	r0, [r4, #11]	@ zero_extendqisi2	@, ComplementaryFilterConfig.47_2->Sensor2Pitch
ARM GAS  C:\Users\Kevin\AppData\Local\Temp\ccw18vSb.s 			page 23


 748 040c FFF7FEFF 		bl	__snsr_compFilter_ResolveSensor	@
 749              	.LVL29:
 750 0410 6861     		str	r0, [r5, #20]	@, CompFilterPitch.46_1->Sensor2
 100:.\src\sensors\fusion/complementary.c **** 	CompFilterPitch->Sensor3 = __snsr_compFilter_ResolveSensor(ComplementaryFilterConfig->Sensor3Pitch
 751              		.loc 1 100 0
 752 0412 207B     		ldrb	r0, [r4, #12]	@ zero_extendqisi2	@, ComplementaryFilterConfig.47_2->Sensor3Pitch
 753 0414 FFF7FEFF 		bl	__snsr_compFilter_ResolveSensor	@
 754              	.LVL30:
 102:.\src\sensors\fusion/complementary.c **** 	CompFilterRoll->Sensor1 = __snsr_compFilter_ResolveSensor(ComplementaryFilterConfig->Sensor1Roll);
 755              		.loc 1 102 0
 756 0418 174B     		ldr	r3, .L71+8	@ tmp168,
 100:.\src\sensors\fusion/complementary.c **** 	CompFilterPitch->Sensor3 = __snsr_compFilter_ResolveSensor(ComplementaryFilterConfig->Sensor3Pitch
 757              		.loc 1 100 0
 758 041a A861     		str	r0, [r5, #24]	@, CompFilterPitch.46_1->Sensor3
 102:.\src\sensors\fusion/complementary.c **** 	CompFilterRoll->Sensor1 = __snsr_compFilter_ResolveSensor(ComplementaryFilterConfig->Sensor1Roll);
 759              		.loc 1 102 0
 760 041c 607B     		ldrb	r0, [r4, #13]	@ zero_extendqisi2	@, ComplementaryFilterConfig.47_2->Sensor1Roll
 761 041e 1D68     		ldr	r5, [r3, #0]	@ CompFilterRoll.48, CompFilterRoll
 762 0420 FFF7FEFF 		bl	__snsr_compFilter_ResolveSensor	@
 763              	.LVL31:
 764 0424 2861     		str	r0, [r5, #16]	@, CompFilterRoll.48_13->Sensor1
 103:.\src\sensors\fusion/complementary.c **** 	CompFilterRoll->Sensor2 = __snsr_compFilter_ResolveSensor(ComplementaryFilterConfig->Sensor2Roll);
 765              		.loc 1 103 0
 766 0426 A07B     		ldrb	r0, [r4, #14]	@ zero_extendqisi2	@, ComplementaryFilterConfig.47_2->Sensor2Roll
 767 0428 FFF7FEFF 		bl	__snsr_compFilter_ResolveSensor	@
 768              	.LVL32:
 769 042c 6861     		str	r0, [r5, #20]	@, CompFilterRoll.48_13->Sensor2
 104:.\src\sensors\fusion/complementary.c **** 	CompFilterRoll->Sensor3 = __snsr_compFilter_ResolveSensor(ComplementaryFilterConfig->Sensor3Roll);
 770              		.loc 1 104 0
 771 042e E07B     		ldrb	r0, [r4, #15]	@ zero_extendqisi2	@, ComplementaryFilterConfig.47_2->Sensor3Roll
 772 0430 FFF7FEFF 		bl	__snsr_compFilter_ResolveSensor	@
 773              	.LVL33:
 106:.\src\sensors\fusion/complementary.c **** 	CompFilterHeading->Sensor1 = __snsr_compFilter_ResolveSensor(ComplementaryFilterConfig->Sensor1Hea
 774              		.loc 1 106 0
 775 0434 114B     		ldr	r3, .L71+12	@ tmp172,
 104:.\src\sensors\fusion/complementary.c **** 	CompFilterRoll->Sensor3 = __snsr_compFilter_ResolveSensor(ComplementaryFilterConfig->Sensor3Roll);
 776              		.loc 1 104 0
 777 0436 A861     		str	r0, [r5, #24]	@, CompFilterRoll.48_13->Sensor3
 106:.\src\sensors\fusion/complementary.c **** 	CompFilterHeading->Sensor1 = __snsr_compFilter_ResolveSensor(ComplementaryFilterConfig->Sensor1Hea
 778              		.loc 1 106 0
 779 0438 207C     		ldrb	r0, [r4, #16]	@ zero_extendqisi2	@, ComplementaryFilterConfig.47_2->Sensor1Heading
 780 043a 1D68     		ldr	r5, [r3, #0]	@ CompFilterHeading.49, CompFilterHeading
 781 043c FFF7FEFF 		bl	__snsr_compFilter_ResolveSensor	@
 782              	.LVL34:
 783 0440 2861     		str	r0, [r5, #16]	@, CompFilterHeading.49_25->Sensor1
 107:.\src\sensors\fusion/complementary.c **** 	CompFilterHeading->Sensor2 = __snsr_compFilter_ResolveSensor(ComplementaryFilterConfig->Sensor2Hea
 784              		.loc 1 107 0
 785 0442 607C     		ldrb	r0, [r4, #17]	@ zero_extendqisi2	@, ComplementaryFilterConfig.47_2->Sensor2Heading
 786 0444 FFF7FEFF 		bl	__snsr_compFilter_ResolveSensor	@
 787              	.LVL35:
 788 0448 6861     		str	r0, [r5, #20]	@, CompFilterHeading.49_25->Sensor2
 108:.\src\sensors\fusion/complementary.c **** 	CompFilterHeading->Sensor3 = __snsr_compFilter_ResolveSensor(ComplementaryFilterConfig->Sensor3Hea
 789              		.loc 1 108 0
 790 044a A07C     		ldrb	r0, [r4, #18]	@ zero_extendqisi2	@, ComplementaryFilterConfig.47_2->Sensor3Heading
 791 044c FFF7FEFF 		bl	__snsr_compFilter_ResolveSensor	@
 792              	.LVL36:
 110:.\src\sensors\fusion/complementary.c **** 	CompFilterAltitude->Sensor1 = __snsr_compFilter_ResolveSensor(ComplementaryFilterConfig->Sensor1Al
ARM GAS  C:\Users\Kevin\AppData\Local\Temp\ccw18vSb.s 			page 24


 793              		.loc 1 110 0
 794 0450 0B4B     		ldr	r3, .L71+16	@ tmp176,
 108:.\src\sensors\fusion/complementary.c **** 	CompFilterHeading->Sensor3 = __snsr_compFilter_ResolveSensor(ComplementaryFilterConfig->Sensor3Hea
 795              		.loc 1 108 0
 796 0452 A861     		str	r0, [r5, #24]	@, CompFilterHeading.49_25->Sensor3
 110:.\src\sensors\fusion/complementary.c **** 	CompFilterAltitude->Sensor1 = __snsr_compFilter_ResolveSensor(ComplementaryFilterConfig->Sensor1Al
 797              		.loc 1 110 0
 798 0454 E07C     		ldrb	r0, [r4, #19]	@ zero_extendqisi2	@, ComplementaryFilterConfig.47_2->Sensor1Altitude
 799 0456 1D68     		ldr	r5, [r3, #0]	@ CompFilterAltitude.50, CompFilterAltitude
 800 0458 FFF7FEFF 		bl	__snsr_compFilter_ResolveSensor	@
 801              	.LVL37:
 802 045c 2861     		str	r0, [r5, #16]	@, CompFilterAltitude.50_37->Sensor1
 111:.\src\sensors\fusion/complementary.c **** 	CompFilterAltitude->Sensor2 = __snsr_compFilter_ResolveSensor(ComplementaryFilterConfig->Sensor2Al
 803              		.loc 1 111 0
 804 045e 207D     		ldrb	r0, [r4, #20]	@ zero_extendqisi2	@, ComplementaryFilterConfig.47_2->Sensor2Altitude
 805 0460 FFF7FEFF 		bl	__snsr_compFilter_ResolveSensor	@
 806              	.LVL38:
 807 0464 6861     		str	r0, [r5, #20]	@, CompFilterAltitude.50_37->Sensor2
 112:.\src\sensors\fusion/complementary.c **** 	CompFilterAltitude->Sensor3 = __snsr_compFilter_ResolveSensor(ComplementaryFilterConfig->Sensor3Al
 808              		.loc 1 112 0
 809 0466 607D     		ldrb	r0, [r4, #21]	@ zero_extendqisi2	@, ComplementaryFilterConfig.47_2->Sensor3Altitude
 810 0468 FFF7FEFF 		bl	__snsr_compFilter_ResolveSensor	@
 811              	.LVL39:
 812 046c A861     		str	r0, [r5, #24]	@, CompFilterAltitude.50_37->Sensor3
 813 046e 38BD     		pop	{r3, r4, r5, pc}	@
 814              	.L72:
 815              		.align	2
 816              	.L71:
 817 0470 00000000 		.word	CompFilterPitch
 818 0474 00000000 		.word	ComplementaryFilterConfig
 819 0478 00000000 		.word	CompFilterRoll
 820 047c 00000000 		.word	CompFilterHeading
 821 0480 00000000 		.word	CompFilterAltitude
 822              		.cfi_endproc
 823              	.LFE113:
 824              		.size	__snsr_compFilter_ResolveSensors, .-__snsr_compFilter_ResolveSensors
 825              		.align	1
 826              		.global	TWB_SNSR_Complementary_Init
 827              		.thumb
 828              		.thumb_func
 829              		.type	TWB_SNSR_Complementary_Init, %function
 830              	TWB_SNSR_Complementary_Init:
 831              	.LFB114:
 115:.\src\sensors\fusion/complementary.c **** iOpResult_e TWB_SNSR_Complementary_Init(void){
 832              		.loc 1 115 0
 833              		.cfi_startproc
 834              		@ args = 0, pretend = 0, frame = 0
 835              		@ frame_needed = 0, uses_anonymous_args = 0
 836 0484 2DE9F041 		push	{r4, r5, r6, r7, r8, lr}	@
 837              	.LCFI6:
 838              		.cfi_def_cfa_offset 24
 839              		.cfi_offset 4, -24
 840              		.cfi_offset 5, -20
 841              		.cfi_offset 6, -16
 842              		.cfi_offset 7, -12
 843              		.cfi_offset 8, -8
 844              		.cfi_offset 14, -4
ARM GAS  C:\Users\Kevin\AppData\Local\Temp\ccw18vSb.s 			page 25


 116:.\src\sensors\fusion/complementary.c **** 	assert_succeed(TWB_SE_ReadU8(COMPLEMENTARY_EEPROM_OFFSET + 0, &ComplementaryFilterConfig->Enabled)
 845              		.loc 1 116 0
 846 0488 7D4C     		ldr	r4, .L97	@ tmp282,
 847 048a 4FF47870 		mov	r0, #992	@,
 848 048e 2168     		ldr	r1, [r4, #0]	@, ComplementaryFilterConfig
 849 0490 FFF7FEFF 		bl	TWB_SE_ReadU8	@
 850              	.LVL40:
 851 0494 18B1     		cbz	r0, .L74	@,
 116:.\src\sensors\fusion/complementary.c **** 	assert_succeed(TWB_SE_ReadU8(COMPLEMENTARY_EEPROM_OFFSET + 0, &ComplementaryFilterConfig->Enabled)
 852              		.loc 1 116 0 is_stmt 0 discriminator 1
 853 0496 4FF47870 		mov	r0, #992	@,
 854 049a 2168     		ldr	r1, [r4, #0]	@, ComplementaryFilterConfig
 855 049c EBE0     		b	.L96	@
 856              	.L74:
 117:.\src\sensors\fusion/complementary.c **** 	assert_succeed(TWB_SE_ReadU8(COMPLEMENTARY_EEPROM_OFFSET + 1, &ComplementaryFilterConfig->SampleRa
 857              		.loc 1 117 0 is_stmt 1
 858 049e 2168     		ldr	r1, [r4, #0]	@ ComplementaryFilterConfig, ComplementaryFilterConfig
 859 04a0 40F2E130 		movw	r0, #993	@,
 860 04a4 0131     		adds	r1, r1, #1	@, ComplementaryFilterConfig,
 861 04a6 FFF7FEFF 		bl	TWB_SE_ReadU8	@
 862              	.LVL41:
 863 04aa 2168     		ldr	r1, [r4, #0]	@ ComplementaryFilterConfig, ComplementaryFilterConfig
 864 04ac 18B1     		cbz	r0, .L75	@,
 117:.\src\sensors\fusion/complementary.c **** 	assert_succeed(TWB_SE_ReadU8(COMPLEMENTARY_EEPROM_OFFSET + 1, &ComplementaryFilterConfig->SampleRa
 865              		.loc 1 117 0 is_stmt 0 discriminator 1
 866 04ae 40F2E130 		movw	r0, #993	@,
 867 04b2 0131     		adds	r1, r1, #1	@, ComplementaryFilterConfig,
 868 04b4 DFE0     		b	.L96	@
 869              	.L75:
 119:.\src\sensors\fusion/complementary.c **** 	assert_succeed(TWB_SE_ReadU8(COMPLEMENTARY_EEPROM_OFFSET + 2, &ComplementaryFilterConfig->FilterOp
 870              		.loc 1 119 0 is_stmt 1
 871 04b6 0231     		adds	r1, r1, #2	@, ComplementaryFilterConfig,
 872 04b8 40F2E230 		movw	r0, #994	@,
 873 04bc FFF7FEFF 		bl	TWB_SE_ReadU8	@
 874              	.LVL42:
 875 04c0 2168     		ldr	r1, [r4, #0]	@ ComplementaryFilterConfig, ComplementaryFilterConfig
 876 04c2 18B1     		cbz	r0, .L76	@,
 119:.\src\sensors\fusion/complementary.c **** 	assert_succeed(TWB_SE_ReadU8(COMPLEMENTARY_EEPROM_OFFSET + 2, &ComplementaryFilterConfig->FilterOp
 877              		.loc 1 119 0 is_stmt 0 discriminator 1
 878 04c4 40F2E230 		movw	r0, #994	@,
 879 04c8 0231     		adds	r1, r1, #2	@, ComplementaryFilterConfig,
 880 04ca D4E0     		b	.L96	@
 881              	.L76:
 120:.\src\sensors\fusion/complementary.c **** 	assert_succeed(TWB_SE_ReadU8(COMPLEMENTARY_EEPROM_OFFSET + 3, &ComplementaryFilterConfig->FilterOp
 882              		.loc 1 120 0 is_stmt 1
 883 04cc 0331     		adds	r1, r1, #3	@, ComplementaryFilterConfig,
 884 04ce 40F2E330 		movw	r0, #995	@,
 885 04d2 FFF7FEFF 		bl	TWB_SE_ReadU8	@
 886              	.LVL43:
 887 04d6 2168     		ldr	r1, [r4, #0]	@ ComplementaryFilterConfig, ComplementaryFilterConfig
 888 04d8 18B1     		cbz	r0, .L77	@,
 120:.\src\sensors\fusion/complementary.c **** 	assert_succeed(TWB_SE_ReadU8(COMPLEMENTARY_EEPROM_OFFSET + 3, &ComplementaryFilterConfig->FilterOp
 889              		.loc 1 120 0 is_stmt 0 discriminator 1
 890 04da 40F2E330 		movw	r0, #995	@,
 891 04de 0331     		adds	r1, r1, #3	@, ComplementaryFilterConfig,
 892 04e0 C9E0     		b	.L96	@
 893              	.L77:
ARM GAS  C:\Users\Kevin\AppData\Local\Temp\ccw18vSb.s 			page 26


 121:.\src\sensors\fusion/complementary.c **** 	assert_succeed(TWB_SE_ReadU8(COMPLEMENTARY_EEPROM_OFFSET + 4, &ComplementaryFilterConfig->FilterOp
 894              		.loc 1 121 0 is_stmt 1
 895 04e2 0431     		adds	r1, r1, #4	@, ComplementaryFilterConfig,
 896 04e4 4FF47970 		mov	r0, #996	@,
 897 04e8 FFF7FEFF 		bl	TWB_SE_ReadU8	@
 898              	.LVL44:
 899 04ec 2168     		ldr	r1, [r4, #0]	@ ComplementaryFilterConfig, ComplementaryFilterConfig
 900 04ee 18B1     		cbz	r0, .L78	@,
 121:.\src\sensors\fusion/complementary.c **** 	assert_succeed(TWB_SE_ReadU8(COMPLEMENTARY_EEPROM_OFFSET + 4, &ComplementaryFilterConfig->FilterOp
 901              		.loc 1 121 0 is_stmt 0 discriminator 1
 902 04f0 4FF47970 		mov	r0, #996	@,
 903 04f4 0431     		adds	r1, r1, #4	@, ComplementaryFilterConfig,
 904 04f6 BEE0     		b	.L96	@
 905              	.L78:
 122:.\src\sensors\fusion/complementary.c **** 	assert_succeed(TWB_SE_ReadU8(COMPLEMENTARY_EEPROM_OFFSET + 5, &ComplementaryFilterConfig->FilterOp
 906              		.loc 1 122 0 is_stmt 1
 907 04f8 0531     		adds	r1, r1, #5	@, ComplementaryFilterConfig,
 908 04fa 40F2E530 		movw	r0, #997	@,
 909 04fe FFF7FEFF 		bl	TWB_SE_ReadU8	@
 910              	.LVL45:
 911 0502 2168     		ldr	r1, [r4, #0]	@ ComplementaryFilterConfig, ComplementaryFilterConfig
 912 0504 18B1     		cbz	r0, .L79	@,
 122:.\src\sensors\fusion/complementary.c **** 	assert_succeed(TWB_SE_ReadU8(COMPLEMENTARY_EEPROM_OFFSET + 5, &ComplementaryFilterConfig->FilterOp
 913              		.loc 1 122 0 is_stmt 0 discriminator 1
 914 0506 40F2E530 		movw	r0, #997	@,
 915 050a 0531     		adds	r1, r1, #5	@, ComplementaryFilterConfig,
 916 050c B3E0     		b	.L96	@
 917              	.L79:
 124:.\src\sensors\fusion/complementary.c **** 	assert_succeed(TWB_SE_ReadU8(COMPLEMENTARY_EEPROM_OFFSET + 6, &ComplementaryFilterConfig->TimeCons
 918              		.loc 1 124 0 is_stmt 1
 919 050e 0631     		adds	r1, r1, #6	@, ComplementaryFilterConfig,
 920 0510 40F2E630 		movw	r0, #998	@,
 921 0514 FFF7FEFF 		bl	TWB_SE_ReadU8	@
 922              	.LVL46:
 923 0518 2168     		ldr	r1, [r4, #0]	@ ComplementaryFilterConfig, ComplementaryFilterConfig
 924 051a 18B1     		cbz	r0, .L80	@,
 124:.\src\sensors\fusion/complementary.c **** 	assert_succeed(TWB_SE_ReadU8(COMPLEMENTARY_EEPROM_OFFSET + 6, &ComplementaryFilterConfig->TimeCons
 925              		.loc 1 124 0 is_stmt 0 discriminator 1
 926 051c 40F2E630 		movw	r0, #998	@,
 927 0520 0631     		adds	r1, r1, #6	@, ComplementaryFilterConfig,
 928 0522 A8E0     		b	.L96	@
 929              	.L80:
 125:.\src\sensors\fusion/complementary.c **** 	assert_succeed(TWB_SE_ReadU8(COMPLEMENTARY_EEPROM_OFFSET + 7, &ComplementaryFilterConfig->TimeCons
 930              		.loc 1 125 0 is_stmt 1
 931 0524 0731     		adds	r1, r1, #7	@, ComplementaryFilterConfig,
 932 0526 40F2E730 		movw	r0, #999	@,
 933 052a FFF7FEFF 		bl	TWB_SE_ReadU8	@
 934              	.LVL47:
 935 052e 2168     		ldr	r1, [r4, #0]	@ ComplementaryFilterConfig, ComplementaryFilterConfig
 936 0530 18B1     		cbz	r0, .L81	@,
 125:.\src\sensors\fusion/complementary.c **** 	assert_succeed(TWB_SE_ReadU8(COMPLEMENTARY_EEPROM_OFFSET + 7, &ComplementaryFilterConfig->TimeCons
 937              		.loc 1 125 0 is_stmt 0 discriminator 1
 938 0532 40F2E730 		movw	r0, #999	@,
 939 0536 0731     		adds	r1, r1, #7	@, ComplementaryFilterConfig,
 940 0538 9DE0     		b	.L96	@
 941              	.L81:
 126:.\src\sensors\fusion/complementary.c **** 	assert_succeed(TWB_SE_ReadU8(COMPLEMENTARY_EEPROM_OFFSET + 8, &ComplementaryFilterConfig->TimeCons
ARM GAS  C:\Users\Kevin\AppData\Local\Temp\ccw18vSb.s 			page 27


 942              		.loc 1 126 0 is_stmt 1
 943 053a 0831     		adds	r1, r1, #8	@, ComplementaryFilterConfig,
 944 053c 4FF47A70 		mov	r0, #1000	@,
 945 0540 FFF7FEFF 		bl	TWB_SE_ReadU8	@
 946              	.LVL48:
 947 0544 2168     		ldr	r1, [r4, #0]	@ ComplementaryFilterConfig, ComplementaryFilterConfig
 948 0546 18B1     		cbz	r0, .L82	@,
 126:.\src\sensors\fusion/complementary.c **** 	assert_succeed(TWB_SE_ReadU8(COMPLEMENTARY_EEPROM_OFFSET + 8, &ComplementaryFilterConfig->TimeCons
 949              		.loc 1 126 0 is_stmt 0 discriminator 1
 950 0548 4FF47A70 		mov	r0, #1000	@,
 951 054c 0831     		adds	r1, r1, #8	@, ComplementaryFilterConfig,
 952 054e 92E0     		b	.L96	@
 953              	.L82:
 127:.\src\sensors\fusion/complementary.c **** 	assert_succeed(TWB_SE_ReadU8(COMPLEMENTARY_EEPROM_OFFSET + 9, &ComplementaryFilterConfig->TimeCons
 954              		.loc 1 127 0 is_stmt 1
 955 0550 40F2E930 		movw	r0, #1001	@,
 956 0554 0931     		adds	r1, r1, #9	@, ComplementaryFilterConfig,
 957 0556 FFF7FEFF 		bl	TWB_SE_ReadU8	@
 958              	.LVL49:
 959 055a 20B1     		cbz	r0, .L83	@,
 127:.\src\sensors\fusion/complementary.c **** 	assert_succeed(TWB_SE_ReadU8(COMPLEMENTARY_EEPROM_OFFSET + 9, &ComplementaryFilterConfig->TimeCons
 960              		.loc 1 127 0 is_stmt 0 discriminator 1
 961 055c 2168     		ldr	r1, [r4, #0]	@ ComplementaryFilterConfig, ComplementaryFilterConfig
 962 055e 40F2E930 		movw	r0, #1001	@,
 963 0562 0931     		adds	r1, r1, #9	@, ComplementaryFilterConfig,
 964 0564 87E0     		b	.L96	@
 965              	.L83:
 129:.\src\sensors\fusion/complementary.c **** 	assert_succeed(TWB_SE_ReadU8(COMPLEMENTARY_EEPROM_OFFSET + 10, &ComplementaryFilterConfig->Sensor1
 966              		.loc 1 129 0 is_stmt 1
 967 0566 2168     		ldr	r1, [r4, #0]	@ ComplementaryFilterConfig, ComplementaryFilterConfig
 968 0568 454D     		ldr	r5, .L97	@ tmp373,
 969 056a 0A31     		adds	r1, r1, #10	@, ComplementaryFilterConfig,
 970 056c 40F2EA30 		movw	r0, #1002	@,
 971 0570 FFF7FEFF 		bl	TWB_SE_ReadU8	@
 972              	.LVL50:
 973 0574 2968     		ldr	r1, [r5, #0]	@ ComplementaryFilterConfig, ComplementaryFilterConfig
 974 0576 18B1     		cbz	r0, .L84	@,
 129:.\src\sensors\fusion/complementary.c **** 	assert_succeed(TWB_SE_ReadU8(COMPLEMENTARY_EEPROM_OFFSET + 10, &ComplementaryFilterConfig->Sensor1
 975              		.loc 1 129 0 is_stmt 0 discriminator 1
 976 0578 40F2EA30 		movw	r0, #1002	@,
 977 057c 0A31     		adds	r1, r1, #10	@, ComplementaryFilterConfig,
 978 057e 7AE0     		b	.L96	@
 979              	.L84:
 130:.\src\sensors\fusion/complementary.c **** 	assert_succeed(TWB_SE_ReadU8(COMPLEMENTARY_EEPROM_OFFSET + 11, &ComplementaryFilterConfig->Sensor2
 980              		.loc 1 130 0 is_stmt 1
 981 0580 0B31     		adds	r1, r1, #11	@, ComplementaryFilterConfig,
 982 0582 40F2EB30 		movw	r0, #1003	@,
 983 0586 FFF7FEFF 		bl	TWB_SE_ReadU8	@
 984              	.LVL51:
 985 058a 2968     		ldr	r1, [r5, #0]	@ ComplementaryFilterConfig, ComplementaryFilterConfig
 986 058c 18B1     		cbz	r0, .L85	@,
 130:.\src\sensors\fusion/complementary.c **** 	assert_succeed(TWB_SE_ReadU8(COMPLEMENTARY_EEPROM_OFFSET + 11, &ComplementaryFilterConfig->Sensor2
 987              		.loc 1 130 0 is_stmt 0 discriminator 1
 988 058e 40F2EB30 		movw	r0, #1003	@,
 989 0592 0B31     		adds	r1, r1, #11	@, ComplementaryFilterConfig,
 990 0594 6FE0     		b	.L96	@
 991              	.L85:
ARM GAS  C:\Users\Kevin\AppData\Local\Temp\ccw18vSb.s 			page 28


 131:.\src\sensors\fusion/complementary.c **** 	assert_succeed(TWB_SE_ReadU8(COMPLEMENTARY_EEPROM_OFFSET + 12, &ComplementaryFilterConfig->Sensor3
 992              		.loc 1 131 0 is_stmt 1
 993 0596 0C31     		adds	r1, r1, #12	@, ComplementaryFilterConfig,
 994 0598 4FF47B70 		mov	r0, #1004	@,
 995 059c FFF7FEFF 		bl	TWB_SE_ReadU8	@
 996              	.LVL52:
 997 05a0 2968     		ldr	r1, [r5, #0]	@ ComplementaryFilterConfig, ComplementaryFilterConfig
 998 05a2 18B1     		cbz	r0, .L86	@,
 131:.\src\sensors\fusion/complementary.c **** 	assert_succeed(TWB_SE_ReadU8(COMPLEMENTARY_EEPROM_OFFSET + 12, &ComplementaryFilterConfig->Sensor3
 999              		.loc 1 131 0 is_stmt 0 discriminator 1
 1000 05a4 4FF47B70 		mov	r0, #1004	@,
 1001 05a8 0C31     		adds	r1, r1, #12	@, ComplementaryFilterConfig,
 1002 05aa 64E0     		b	.L96	@
 1003              	.L86:
 133:.\src\sensors\fusion/complementary.c **** 	assert_succeed(TWB_SE_ReadU8(COMPLEMENTARY_EEPROM_OFFSET + 13, &ComplementaryFilterConfig->Sensor1
 1004              		.loc 1 133 0 is_stmt 1
 1005 05ac 0D31     		adds	r1, r1, #13	@, ComplementaryFilterConfig,
 1006 05ae 40F2ED30 		movw	r0, #1005	@,
 1007 05b2 FFF7FEFF 		bl	TWB_SE_ReadU8	@
 1008              	.LVL53:
 1009 05b6 2968     		ldr	r1, [r5, #0]	@ ComplementaryFilterConfig, ComplementaryFilterConfig
 1010 05b8 18B1     		cbz	r0, .L87	@,
 133:.\src\sensors\fusion/complementary.c **** 	assert_succeed(TWB_SE_ReadU8(COMPLEMENTARY_EEPROM_OFFSET + 13, &ComplementaryFilterConfig->Sensor1
 1011              		.loc 1 133 0 is_stmt 0 discriminator 1
 1012 05ba 40F2ED30 		movw	r0, #1005	@,
 1013 05be 0D31     		adds	r1, r1, #13	@, ComplementaryFilterConfig,
 1014 05c0 59E0     		b	.L96	@
 1015              	.L87:
 134:.\src\sensors\fusion/complementary.c **** 	assert_succeed(TWB_SE_ReadU8(COMPLEMENTARY_EEPROM_OFFSET + 14, &ComplementaryFilterConfig->Sensor2
 1016              		.loc 1 134 0 is_stmt 1
 1017 05c2 0E31     		adds	r1, r1, #14	@, ComplementaryFilterConfig,
 1018 05c4 40F2EE30 		movw	r0, #1006	@,
 1019 05c8 FFF7FEFF 		bl	TWB_SE_ReadU8	@
 1020              	.LVL54:
 1021 05cc 2968     		ldr	r1, [r5, #0]	@ ComplementaryFilterConfig, ComplementaryFilterConfig
 1022 05ce 18B1     		cbz	r0, .L88	@,
 134:.\src\sensors\fusion/complementary.c **** 	assert_succeed(TWB_SE_ReadU8(COMPLEMENTARY_EEPROM_OFFSET + 14, &ComplementaryFilterConfig->Sensor2
 1023              		.loc 1 134 0 is_stmt 0 discriminator 1
 1024 05d0 40F2EE30 		movw	r0, #1006	@,
 1025 05d4 0E31     		adds	r1, r1, #14	@, ComplementaryFilterConfig,
 1026 05d6 4EE0     		b	.L96	@
 1027              	.L88:
 135:.\src\sensors\fusion/complementary.c **** 	assert_succeed(TWB_SE_ReadU8(COMPLEMENTARY_EEPROM_OFFSET + 15, &ComplementaryFilterConfig->Sensor3
 1028              		.loc 1 135 0 is_stmt 1
 1029 05d8 0F31     		adds	r1, r1, #15	@, ComplementaryFilterConfig,
 1030 05da 40F2EF30 		movw	r0, #1007	@,
 1031 05de FFF7FEFF 		bl	TWB_SE_ReadU8	@
 1032              	.LVL55:
 1033 05e2 2968     		ldr	r1, [r5, #0]	@ ComplementaryFilterConfig, ComplementaryFilterConfig
 1034 05e4 18B1     		cbz	r0, .L89	@,
 135:.\src\sensors\fusion/complementary.c **** 	assert_succeed(TWB_SE_ReadU8(COMPLEMENTARY_EEPROM_OFFSET + 15, &ComplementaryFilterConfig->Sensor3
 1035              		.loc 1 135 0 is_stmt 0 discriminator 1
 1036 05e6 40F2EF30 		movw	r0, #1007	@,
 1037 05ea 0F31     		adds	r1, r1, #15	@, ComplementaryFilterConfig,
 1038 05ec 43E0     		b	.L96	@
 1039              	.L89:
 137:.\src\sensors\fusion/complementary.c **** 	assert_succeed(TWB_SE_ReadU8(COMPLEMENTARY_EEPROM_OFFSET + 16, &ComplementaryFilterConfig->Sensor1
ARM GAS  C:\Users\Kevin\AppData\Local\Temp\ccw18vSb.s 			page 29


 1040              		.loc 1 137 0 is_stmt 1
 1041 05ee 1031     		adds	r1, r1, #16	@, ComplementaryFilterConfig,
 1042 05f0 4FF47C70 		mov	r0, #1008	@,
 1043 05f4 FFF7FEFF 		bl	TWB_SE_ReadU8	@
 1044              	.LVL56:
 1045 05f8 2968     		ldr	r1, [r5, #0]	@ ComplementaryFilterConfig, ComplementaryFilterConfig
 1046 05fa 18B1     		cbz	r0, .L90	@,
 137:.\src\sensors\fusion/complementary.c **** 	assert_succeed(TWB_SE_ReadU8(COMPLEMENTARY_EEPROM_OFFSET + 16, &ComplementaryFilterConfig->Sensor1
 1047              		.loc 1 137 0 is_stmt 0 discriminator 1
 1048 05fc 4FF47C70 		mov	r0, #1008	@,
 1049 0600 1031     		adds	r1, r1, #16	@, ComplementaryFilterConfig,
 1050 0602 38E0     		b	.L96	@
 1051              	.L90:
 138:.\src\sensors\fusion/complementary.c **** 	assert_succeed(TWB_SE_ReadU8(COMPLEMENTARY_EEPROM_OFFSET + 17, &ComplementaryFilterConfig->Sensor2
 1052              		.loc 1 138 0 is_stmt 1
 1053 0604 1131     		adds	r1, r1, #17	@, ComplementaryFilterConfig,
 1054 0606 40F2F130 		movw	r0, #1009	@,
 1055 060a FFF7FEFF 		bl	TWB_SE_ReadU8	@
 1056              	.LVL57:
 1057 060e 2968     		ldr	r1, [r5, #0]	@ ComplementaryFilterConfig, ComplementaryFilterConfig
 1058 0610 18B1     		cbz	r0, .L91	@,
 138:.\src\sensors\fusion/complementary.c **** 	assert_succeed(TWB_SE_ReadU8(COMPLEMENTARY_EEPROM_OFFSET + 17, &ComplementaryFilterConfig->Sensor2
 1059              		.loc 1 138 0 is_stmt 0 discriminator 1
 1060 0612 40F2F130 		movw	r0, #1009	@,
 1061 0616 1131     		adds	r1, r1, #17	@, ComplementaryFilterConfig,
 1062 0618 2DE0     		b	.L96	@
 1063              	.L91:
 139:.\src\sensors\fusion/complementary.c **** 	assert_succeed(TWB_SE_ReadU8(COMPLEMENTARY_EEPROM_OFFSET + 18, &ComplementaryFilterConfig->Sensor3
 1064              		.loc 1 139 0 is_stmt 1
 1065 061a 1231     		adds	r1, r1, #18	@, ComplementaryFilterConfig,
 1066 061c 40F2F230 		movw	r0, #1010	@,
 1067 0620 FFF7FEFF 		bl	TWB_SE_ReadU8	@
 1068              	.LVL58:
 1069 0624 2968     		ldr	r1, [r5, #0]	@ ComplementaryFilterConfig, ComplementaryFilterConfig
 1070 0626 18B1     		cbz	r0, .L92	@,
 139:.\src\sensors\fusion/complementary.c **** 	assert_succeed(TWB_SE_ReadU8(COMPLEMENTARY_EEPROM_OFFSET + 18, &ComplementaryFilterConfig->Sensor3
 1071              		.loc 1 139 0 is_stmt 0 discriminator 1
 1072 0628 40F2F230 		movw	r0, #1010	@,
 1073 062c 1231     		adds	r1, r1, #18	@, ComplementaryFilterConfig,
 1074 062e 22E0     		b	.L96	@
 1075              	.L92:
 141:.\src\sensors\fusion/complementary.c **** 	assert_succeed(TWB_SE_ReadU8(COMPLEMENTARY_EEPROM_OFFSET + 19, &ComplementaryFilterConfig->Sensor1
 1076              		.loc 1 141 0 is_stmt 1
 1077 0630 40F2F330 		movw	r0, #1011	@,
 1078 0634 1331     		adds	r1, r1, #19	@, ComplementaryFilterConfig,
 1079 0636 FFF7FEFF 		bl	TWB_SE_ReadU8	@
 1080              	.LVL59:
 1081 063a 20B1     		cbz	r0, .L93	@,
 141:.\src\sensors\fusion/complementary.c **** 	assert_succeed(TWB_SE_ReadU8(COMPLEMENTARY_EEPROM_OFFSET + 19, &ComplementaryFilterConfig->Sensor1
 1082              		.loc 1 141 0 is_stmt 0 discriminator 1
 1083 063c 2968     		ldr	r1, [r5, #0]	@ ComplementaryFilterConfig, ComplementaryFilterConfig
 1084 063e 40F2F330 		movw	r0, #1011	@,
 1085 0642 1331     		adds	r1, r1, #19	@, ComplementaryFilterConfig,
 1086 0644 17E0     		b	.L96	@
 1087              	.L93:
 142:.\src\sensors\fusion/complementary.c **** 	assert_succeed(TWB_SE_ReadU8(COMPLEMENTARY_EEPROM_OFFSET + 20, &ComplementaryFilterConfig->Sensor2
 1088              		.loc 1 142 0 is_stmt 1
ARM GAS  C:\Users\Kevin\AppData\Local\Temp\ccw18vSb.s 			page 30


 1089 0646 2968     		ldr	r1, [r5, #0]	@ ComplementaryFilterConfig, ComplementaryFilterConfig
 1090 0648 0D4E     		ldr	r6, .L97	@ tmp468,
 1091 064a 1431     		adds	r1, r1, #20	@, ComplementaryFilterConfig,
 1092 064c 4FF47D70 		mov	r0, #1012	@,
 1093 0650 FFF7FEFF 		bl	TWB_SE_ReadU8	@
 1094              	.LVL60:
 1095 0654 3168     		ldr	r1, [r6, #0]	@ ComplementaryFilterConfig, ComplementaryFilterConfig
 1096 0656 18B1     		cbz	r0, .L94	@,
 142:.\src\sensors\fusion/complementary.c **** 	assert_succeed(TWB_SE_ReadU8(COMPLEMENTARY_EEPROM_OFFSET + 20, &ComplementaryFilterConfig->Sensor2
 1097              		.loc 1 142 0 is_stmt 0 discriminator 1
 1098 0658 4FF47D70 		mov	r0, #1012	@,
 1099 065c 1431     		adds	r1, r1, #20	@, ComplementaryFilterConfig,
 1100 065e 0AE0     		b	.L96	@
 1101              	.L94:
 143:.\src\sensors\fusion/complementary.c **** 	assert_succeed(TWB_SE_ReadU8(COMPLEMENTARY_EEPROM_OFFSET + 21, &ComplementaryFilterConfig->Sensor3
 1102              		.loc 1 143 0 is_stmt 1
 1103 0660 40F2F530 		movw	r0, #1013	@,
 1104 0664 1531     		adds	r1, r1, #21	@, ComplementaryFilterConfig,
 1105 0666 FFF7FEFF 		bl	TWB_SE_ReadU8	@
 1106              	.LVL61:
 1107 066a 0446     		mov	r4, r0	@ tmp480,
 1108 066c 50B1     		cbz	r0, .L95	@ tmp480,
 143:.\src\sensors\fusion/complementary.c **** 	assert_succeed(TWB_SE_ReadU8(COMPLEMENTARY_EEPROM_OFFSET + 21, &ComplementaryFilterConfig->Sensor3
 1109              		.loc 1 143 0 is_stmt 0 discriminator 1
 1110 066e 3168     		ldr	r1, [r6, #0]	@ ComplementaryFilterConfig, ComplementaryFilterConfig
 1111 0670 40F2F530 		movw	r0, #1013	@,
 1112 0674 1531     		adds	r1, r1, #21	@, ComplementaryFilterConfig,
 1113              	.L96:
 192:.\src\sensors\fusion/complementary.c **** }
 1114              		.loc 1 192 0 is_stmt 1 discriminator 1
 1115 0676 BDE8F041 		pop	{r4, r5, r6, r7, r8, lr}	@
 143:.\src\sensors\fusion/complementary.c **** 	assert_succeed(TWB_SE_ReadU8(COMPLEMENTARY_EEPROM_OFFSET + 21, &ComplementaryFilterConfig->Sensor3
 1116              		.loc 1 143 0 discriminator 1
 1117 067a FFF7FEBF 		b	TWB_SE_ReadU8	@
 1118              	.LVL62:
 1119              	.L98:
 1120 067e 00BF     		.align	2
 1121              	.L97:
 1122 0680 00000000 		.word	ComplementaryFilterConfig
 1123              	.L95:
 145:.\src\sensors\fusion/complementary.c **** 	SensorFusionMsg = pm_malloc(sizeof(SensorFusionMsg_t));
 1124              		.loc 1 145 0
 1125 0684 0A20     		movs	r0, #10	@,
 1126 0686 FFF7FEFF 		bl	pm_malloc	@
 1127              	.LVL63:
 1128 068a 3D4B     		ldr	r3, .L99	@ tmp486,
 147:.\src\sensors\fusion/complementary.c **** 	CompFilterPitch = pm_malloc(sizeof(CompFilter_t));
 1129              		.loc 1 147 0
 1130 068c 3D4F     		ldr	r7, .L99+4	@ tmp487,
 145:.\src\sensors\fusion/complementary.c **** 	SensorFusionMsg = pm_malloc(sizeof(SensorFusionMsg_t));
 1131              		.loc 1 145 0
 1132 068e 1860     		str	r0, [r3, #0]	@, SensorFusionMsg
 147:.\src\sensors\fusion/complementary.c **** 	CompFilterPitch = pm_malloc(sizeof(CompFilter_t));
 1133              		.loc 1 147 0
 1134 0690 1C20     		movs	r0, #28	@,
 1135 0692 FFF7FEFF 		bl	pm_malloc	@
 1136              	.LVL64:
ARM GAS  C:\Users\Kevin\AppData\Local\Temp\ccw18vSb.s 			page 31


 148:.\src\sensors\fusion/complementary.c **** 	CompFilterPitch->Axis = PitchAxis;
 1137              		.loc 1 148 0
 1138 0696 0A23     		movs	r3, #10	@ tmp488,
 147:.\src\sensors\fusion/complementary.c **** 	CompFilterPitch = pm_malloc(sizeof(CompFilter_t));
 1139              		.loc 1 147 0
 1140 0698 0546     		mov	r5, r0	@ CompFilterPitch.37,
 1141 069a 3860     		str	r0, [r7, #0]	@ CompFilterPitch.37, CompFilterPitch
 148:.\src\sensors\fusion/complementary.c **** 	CompFilterPitch->Axis = PitchAxis;
 1142              		.loc 1 148 0
 1143 069c 0372     		strb	r3, [r0, #8]	@ tmp488, MEM[(struct CompFilter_t *)CompFilterPitch.37_135].Axis
 149:.\src\sensors\fusion/complementary.c **** 	CompFilterPitch->Filter = pm_malloc(sizeof(FilterFloat_t));
 1144              		.loc 1 149 0
 1145 069e 3420     		movs	r0, #52	@,
 1146 06a0 FFF7FEFF 		bl	pm_malloc	@
 1147              	.LVL65:
 150:.\src\sensors\fusion/complementary.c **** 	CompFilterPitch->Filter->FilterType = ComplementaryFilterConfig->FilterOptionPitch;
 1148              		.loc 1 150 0
 1149 06a4 3B68     		ldr	r3, [r7, #0]	@ CompFilterPitch.38, CompFilterPitch
 149:.\src\sensors\fusion/complementary.c **** 	CompFilterPitch->Filter = pm_malloc(sizeof(FilterFloat_t));
 1150              		.loc 1 149 0
 1151 06a6 E860     		str	r0, [r5, #12]	@, MEM[(struct CompFilter_t *)CompFilterPitch.37_135].Filter
 150:.\src\sensors\fusion/complementary.c **** 	CompFilterPitch->Filter->FilterType = ComplementaryFilterConfig->FilterOptionPitch;
 1152              		.loc 1 150 0
 1153 06a8 3168     		ldr	r1, [r6, #0]	@ ComplementaryFilterConfig, ComplementaryFilterConfig
 1154 06aa DA68     		ldr	r2, [r3, #12]	@ D.9731, CompFilterPitch.38_139->Filter
 1155 06ac 8978     		ldrb	r1, [r1, #2]	@ zero_extendqisi2	@ ComplementaryFilterConfig.35_141->FilterOptionPitch, Comple
 151:.\src\sensors\fusion/complementary.c **** 	CompFilterPitch->Filter->IsInitialized = false;
 1156              		.loc 1 151 0
 1157 06ae 82F83040 		strb	r4, [r2, #48]	@ tmp480, D.9731_140->IsInitialized
 150:.\src\sensors\fusion/complementary.c **** 	CompFilterPitch->Filter->FilterType = ComplementaryFilterConfig->FilterOptionPitch;
 1158              		.loc 1 150 0
 1159 06b2 5170     		strb	r1, [r2, #1]	@ ComplementaryFilterConfig.35_141->FilterOptionPitch, D.9731_140->FilterType
 152:.\src\sensors\fusion/complementary.c **** 	CompFilterPitch->Filter->Current = 0.0f;
 1160              		.loc 1 152 0
 1161 06b4 DA68     		ldr	r2, [r3, #12]	@ D.9731, CompFilterPitch.38_139->Filter
 156:.\src\sensors\fusion/complementary.c **** 	CompFilterRoll = pm_malloc(sizeof(CompFilter_t));
 1162              		.loc 1 156 0
 1163 06b6 DFF8D880 		ldr	r8, .L99+16	@ tmp502,
 153:.\src\sensors\fusion/complementary.c **** 	CompFilterPitch->Filter->CurrentSlot = 0;
 1164              		.loc 1 153 0
 1165 06ba 1470     		strb	r4, [r2, #0]	@ tmp480, D.9731_146->CurrentSlot
 154:.\src\sensors\fusion/complementary.c **** 	CompFilterPitch->Filter->Previous = 0.0f;
 1166              		.loc 1 154 0
 1167 06bc DB68     		ldr	r3, [r3, #12]	@ CompFilterPitch.38_139->Filter, CompFilterPitch.38_139->Filter
 152:.\src\sensors\fusion/complementary.c **** 	CompFilterPitch->Filter->Current = 0.0f;
 1168              		.loc 1 152 0
 1169 06be 0025     		movs	r5, #0	@ tmp497,
 1170 06c0 9562     		str	r5, [r2, #40]	@ float	@ tmp497, D.9731_146->Current
 154:.\src\sensors\fusion/complementary.c **** 	CompFilterPitch->Filter->Previous = 0.0f;
 1171              		.loc 1 154 0
 1172 06c2 DD62     		str	r5, [r3, #44]	@ float	@ tmp497, D.9731_150->Previous
 156:.\src\sensors\fusion/complementary.c **** 	CompFilterRoll = pm_malloc(sizeof(CompFilter_t));
 1173              		.loc 1 156 0
 1174 06c4 1C20     		movs	r0, #28	@,
 1175 06c6 FFF7FEFF 		bl	pm_malloc	@
 1176              	.LVL66:
 157:.\src\sensors\fusion/complementary.c **** 	CompFilterRoll->Axis = RollAxis;
ARM GAS  C:\Users\Kevin\AppData\Local\Temp\ccw18vSb.s 			page 32


 1177              		.loc 1 157 0
 1178 06ca 0B23     		movs	r3, #11	@ tmp503,
 156:.\src\sensors\fusion/complementary.c **** 	CompFilterRoll = pm_malloc(sizeof(CompFilter_t));
 1179              		.loc 1 156 0
 1180 06cc 0746     		mov	r7, r0	@ CompFilterRoll.39,
 1181 06ce C8F80000 		str	r0, [r8, #0]	@ CompFilterRoll.39, CompFilterRoll
 157:.\src\sensors\fusion/complementary.c **** 	CompFilterRoll->Axis = RollAxis;
 1182              		.loc 1 157 0
 1183 06d2 0372     		strb	r3, [r0, #8]	@ tmp503, MEM[(struct CompFilter_t *)CompFilterRoll.39_151].Axis
 158:.\src\sensors\fusion/complementary.c **** 	CompFilterRoll->Filter = pm_malloc(sizeof(FilterFloat_t));
 1184              		.loc 1 158 0
 1185 06d4 3420     		movs	r0, #52	@,
 1186 06d6 FFF7FEFF 		bl	pm_malloc	@
 1187              	.LVL67:
 159:.\src\sensors\fusion/complementary.c **** 	CompFilterRoll->Filter->FilterType = ComplementaryFilterConfig->FilterOptionRoll;
 1188              		.loc 1 159 0
 1189 06da D8F80030 		ldr	r3, [r8, #0]	@ CompFilterRoll.40, CompFilterRoll
 158:.\src\sensors\fusion/complementary.c **** 	CompFilterRoll->Filter = pm_malloc(sizeof(FilterFloat_t));
 1190              		.loc 1 158 0
 1191 06de F860     		str	r0, [r7, #12]	@, MEM[(struct CompFilter_t *)CompFilterRoll.39_151].Filter
 159:.\src\sensors\fusion/complementary.c **** 	CompFilterRoll->Filter->FilterType = ComplementaryFilterConfig->FilterOptionRoll;
 1192              		.loc 1 159 0
 1193 06e0 3168     		ldr	r1, [r6, #0]	@ ComplementaryFilterConfig, ComplementaryFilterConfig
 1194 06e2 DA68     		ldr	r2, [r3, #12]	@ D.9736, CompFilterRoll.40_155->Filter
 1195 06e4 C978     		ldrb	r1, [r1, #3]	@ zero_extendqisi2	@ ComplementaryFilterConfig.35_157->FilterOptionRoll, Complem
 160:.\src\sensors\fusion/complementary.c **** 	CompFilterRoll->Filter->IsInitialized = false;
 1196              		.loc 1 160 0
 1197 06e6 82F83040 		strb	r4, [r2, #48]	@ tmp480, D.9736_156->IsInitialized
 159:.\src\sensors\fusion/complementary.c **** 	CompFilterRoll->Filter->FilterType = ComplementaryFilterConfig->FilterOptionRoll;
 1198              		.loc 1 159 0
 1199 06ea 5170     		strb	r1, [r2, #1]	@ ComplementaryFilterConfig.35_157->FilterOptionRoll, D.9736_156->FilterType
 161:.\src\sensors\fusion/complementary.c **** 	CompFilterRoll->Filter->Current = 0.0f;
 1200              		.loc 1 161 0
 1201 06ec DA68     		ldr	r2, [r3, #12]	@ D.9736, CompFilterRoll.40_155->Filter
 165:.\src\sensors\fusion/complementary.c **** 	CompFilterHeading = pm_malloc(sizeof(CompFilter_t));
 1202              		.loc 1 165 0
 1203 06ee DFF8A480 		ldr	r8, .L99+20	@ tmp517,
 162:.\src\sensors\fusion/complementary.c **** 	CompFilterRoll->Filter->CurrentSlot = 0;
 1204              		.loc 1 162 0
 1205 06f2 1470     		strb	r4, [r2, #0]	@ tmp480, D.9736_162->CurrentSlot
 163:.\src\sensors\fusion/complementary.c **** 	CompFilterRoll->Filter->Previous = 0.0f;
 1206              		.loc 1 163 0
 1207 06f4 DB68     		ldr	r3, [r3, #12]	@ CompFilterRoll.40_155->Filter, CompFilterRoll.40_155->Filter
 161:.\src\sensors\fusion/complementary.c **** 	CompFilterRoll->Filter->Current = 0.0f;
 1208              		.loc 1 161 0
 1209 06f6 9562     		str	r5, [r2, #40]	@ float	@ tmp497, D.9736_162->Current
 163:.\src\sensors\fusion/complementary.c **** 	CompFilterRoll->Filter->Previous = 0.0f;
 1210              		.loc 1 163 0
 1211 06f8 DD62     		str	r5, [r3, #44]	@ float	@ tmp497, D.9736_166->Previous
 165:.\src\sensors\fusion/complementary.c **** 	CompFilterHeading = pm_malloc(sizeof(CompFilter_t));
 1212              		.loc 1 165 0
 1213 06fa 1C20     		movs	r0, #28	@,
 1214 06fc FFF7FEFF 		bl	pm_malloc	@
 1215              	.LVL68:
 166:.\src\sensors\fusion/complementary.c **** 	CompFilterHeading->Axis = HeadingAxis;
 1216              		.loc 1 166 0
 1217 0700 0C23     		movs	r3, #12	@ tmp518,
ARM GAS  C:\Users\Kevin\AppData\Local\Temp\ccw18vSb.s 			page 33


 165:.\src\sensors\fusion/complementary.c **** 	CompFilterHeading = pm_malloc(sizeof(CompFilter_t));
 1218              		.loc 1 165 0
 1219 0702 0746     		mov	r7, r0	@ CompFilterHeading.41,
 1220 0704 C8F80000 		str	r0, [r8, #0]	@ CompFilterHeading.41, CompFilterHeading
 166:.\src\sensors\fusion/complementary.c **** 	CompFilterHeading->Axis = HeadingAxis;
 1221              		.loc 1 166 0
 1222 0708 0372     		strb	r3, [r0, #8]	@ tmp518, MEM[(struct CompFilter_t *)CompFilterHeading.41_167].Axis
 167:.\src\sensors\fusion/complementary.c **** 	CompFilterHeading->Filter = pm_malloc(sizeof(FilterFloat_t));
 1223              		.loc 1 167 0
 1224 070a 3420     		movs	r0, #52	@,
 1225 070c FFF7FEFF 		bl	pm_malloc	@
 1226              	.LVL69:
 168:.\src\sensors\fusion/complementary.c **** 	CompFilterHeading->Filter->FilterType = ComplementaryFilterConfig->FilterOptionHeading;
 1227              		.loc 1 168 0
 1228 0710 D8F80030 		ldr	r3, [r8, #0]	@ CompFilterHeading.42, CompFilterHeading
 167:.\src\sensors\fusion/complementary.c **** 	CompFilterHeading->Filter = pm_malloc(sizeof(FilterFloat_t));
 1229              		.loc 1 167 0
 1230 0714 F860     		str	r0, [r7, #12]	@, MEM[(struct CompFilter_t *)CompFilterHeading.41_167].Filter
 168:.\src\sensors\fusion/complementary.c **** 	CompFilterHeading->Filter->FilterType = ComplementaryFilterConfig->FilterOptionHeading;
 1231              		.loc 1 168 0
 1232 0716 3168     		ldr	r1, [r6, #0]	@ ComplementaryFilterConfig, ComplementaryFilterConfig
 1233 0718 DA68     		ldr	r2, [r3, #12]	@ D.9741, CompFilterHeading.42_171->Filter
 1234 071a 0979     		ldrb	r1, [r1, #4]	@ zero_extendqisi2	@ ComplementaryFilterConfig.35_173->FilterOptionHeading, Comp
 169:.\src\sensors\fusion/complementary.c **** 	CompFilterHeading->Filter->IsInitialized = false;
 1235              		.loc 1 169 0
 1236 071c 82F83040 		strb	r4, [r2, #48]	@ tmp480, D.9741_172->IsInitialized
 168:.\src\sensors\fusion/complementary.c **** 	CompFilterHeading->Filter->FilterType = ComplementaryFilterConfig->FilterOptionHeading;
 1237              		.loc 1 168 0
 1238 0720 5170     		strb	r1, [r2, #1]	@ ComplementaryFilterConfig.35_173->FilterOptionHeading, D.9741_172->FilterType
 170:.\src\sensors\fusion/complementary.c **** 	CompFilterHeading->Filter->Current = 0.0f;
 1239              		.loc 1 170 0
 1240 0722 DA68     		ldr	r2, [r3, #12]	@ D.9741, CompFilterHeading.42_171->Filter
 174:.\src\sensors\fusion/complementary.c **** 	CompFilterAltitude = pm_malloc(sizeof(CompFilter_t));
 1241              		.loc 1 174 0
 1242 0724 DFF87080 		ldr	r8, .L99+24	@ tmp532,
 171:.\src\sensors\fusion/complementary.c **** 	CompFilterHeading->Filter->CurrentSlot = 0;
 1243              		.loc 1 171 0
 1244 0728 1470     		strb	r4, [r2, #0]	@ tmp480, D.9741_178->CurrentSlot
 172:.\src\sensors\fusion/complementary.c **** 	CompFilterHeading->Filter->Previous = 0.0f;
 1245              		.loc 1 172 0
 1246 072a DB68     		ldr	r3, [r3, #12]	@ CompFilterHeading.42_171->Filter, CompFilterHeading.42_171->Filter
 170:.\src\sensors\fusion/complementary.c **** 	CompFilterHeading->Filter->Current = 0.0f;
 1247              		.loc 1 170 0
 1248 072c 9562     		str	r5, [r2, #40]	@ float	@ tmp497, D.9741_178->Current
 172:.\src\sensors\fusion/complementary.c **** 	CompFilterHeading->Filter->Previous = 0.0f;
 1249              		.loc 1 172 0
 1250 072e DD62     		str	r5, [r3, #44]	@ float	@ tmp497, D.9741_182->Previous
 174:.\src\sensors\fusion/complementary.c **** 	CompFilterAltitude = pm_malloc(sizeof(CompFilter_t));
 1251              		.loc 1 174 0
 1252 0730 1C20     		movs	r0, #28	@,
 1253 0732 FFF7FEFF 		bl	pm_malloc	@
 1254              	.LVL70:
 175:.\src\sensors\fusion/complementary.c **** 	CompFilterAltitude->Axis = AltitudeAxis;
 1255              		.loc 1 175 0
 1256 0736 0D23     		movs	r3, #13	@ tmp533,
 174:.\src\sensors\fusion/complementary.c **** 	CompFilterAltitude = pm_malloc(sizeof(CompFilter_t));
 1257              		.loc 1 174 0
ARM GAS  C:\Users\Kevin\AppData\Local\Temp\ccw18vSb.s 			page 34


 1258 0738 0746     		mov	r7, r0	@ CompFilterAltitude.43,
 1259 073a C8F80000 		str	r0, [r8, #0]	@ CompFilterAltitude.43, CompFilterAltitude
 175:.\src\sensors\fusion/complementary.c **** 	CompFilterAltitude->Axis = AltitudeAxis;
 1260              		.loc 1 175 0
 1261 073e 0372     		strb	r3, [r0, #8]	@ tmp533, MEM[(struct CompFilter_t *)CompFilterAltitude.43_183].Axis
 176:.\src\sensors\fusion/complementary.c **** 	CompFilterAltitude->Filter = pm_malloc(sizeof(FilterFloat_t));
 1262              		.loc 1 176 0
 1263 0740 3420     		movs	r0, #52	@,
 1264 0742 FFF7FEFF 		bl	pm_malloc	@
 1265              	.LVL71:
 177:.\src\sensors\fusion/complementary.c **** 	CompFilterAltitude->Filter->FilterType = ComplementaryFilterConfig->FilterOptionAltitude;
 1266              		.loc 1 177 0
 1267 0746 D8F80030 		ldr	r3, [r8, #0]	@ CompFilterAltitude.44, CompFilterAltitude
 176:.\src\sensors\fusion/complementary.c **** 	CompFilterAltitude->Filter = pm_malloc(sizeof(FilterFloat_t));
 1268              		.loc 1 176 0
 1269 074a F860     		str	r0, [r7, #12]	@, MEM[(struct CompFilter_t *)CompFilterAltitude.43_183].Filter
 177:.\src\sensors\fusion/complementary.c **** 	CompFilterAltitude->Filter->FilterType = ComplementaryFilterConfig->FilterOptionAltitude;
 1270              		.loc 1 177 0
 1271 074c 3268     		ldr	r2, [r6, #0]	@ ComplementaryFilterConfig.35, ComplementaryFilterConfig
 1272 074e D968     		ldr	r1, [r3, #12]	@ D.9746, CompFilterAltitude.44_187->Filter
 1273 0750 5079     		ldrb	r0, [r2, #5]	@ zero_extendqisi2	@ ComplementaryFilterConfig.35_189->FilterOptionAltitude, Com
 178:.\src\sensors\fusion/complementary.c **** 	CompFilterAltitude->Filter->IsInitialized = false;
 1274              		.loc 1 178 0
 1275 0752 81F83040 		strb	r4, [r1, #48]	@ tmp480, D.9746_188->IsInitialized
 177:.\src\sensors\fusion/complementary.c **** 	CompFilterAltitude->Filter->FilterType = ComplementaryFilterConfig->FilterOptionAltitude;
 1276              		.loc 1 177 0
 1277 0756 4870     		strb	r0, [r1, #1]	@ ComplementaryFilterConfig.35_189->FilterOptionAltitude, D.9746_188->FilterType
 179:.\src\sensors\fusion/complementary.c **** 	CompFilterAltitude->Filter->Current = 0.0f;
 1278              		.loc 1 179 0
 1279 0758 D968     		ldr	r1, [r3, #12]	@ D.9746, CompFilterAltitude.44_187->Filter
 180:.\src\sensors\fusion/complementary.c **** 	CompFilterAltitude->Filter->CurrentSlot = 0;
 1280              		.loc 1 180 0
 1281 075a 0C70     		strb	r4, [r1, #0]	@ tmp480, D.9746_194->CurrentSlot
 181:.\src\sensors\fusion/complementary.c **** 	CompFilterAltitude->Filter->Previous = 0.0f;
 1282              		.loc 1 181 0
 1283 075c DB68     		ldr	r3, [r3, #12]	@ CompFilterAltitude.44_187->Filter, CompFilterAltitude.44_187->Filter
 179:.\src\sensors\fusion/complementary.c **** 	CompFilterAltitude->Filter->Current = 0.0f;
 1284              		.loc 1 179 0
 1285 075e 8D62     		str	r5, [r1, #40]	@ float	@ tmp497, D.9746_194->Current
 181:.\src\sensors\fusion/complementary.c **** 	CompFilterAltitude->Filter->Previous = 0.0f;
 1286              		.loc 1 181 0
 1287 0760 DD62     		str	r5, [r3, #44]	@ float	@ tmp497, D.9746_198->Previous
 183:.\src\sensors\fusion/complementary.c **** 	ComplementarySnsrFusion->IsEnabled = ComplementaryFilterConfig->Enabled;
 1288              		.loc 1 183 0
 1289 0762 094B     		ldr	r3, .L99+8	@ tmp546,
 1290 0764 1178     		ldrb	r1, [r2, #0]	@ zero_extendqisi2	@ ComplementaryFilterConfig.35_189->Enabled, ComplementaryFil
 1291 0766 1B68     		ldr	r3, [r3, #0]	@ ComplementarySnsrFusion.45, ComplementarySnsrFusion
 184:.\src\sensors\fusion/complementary.c **** 	ComplementarySnsrFusion->SampleRate = ComplementaryFilterConfig->SampleRate;
 1292              		.loc 1 184 0
 1293 0768 5278     		ldrb	r2, [r2, #1]	@ zero_extendqisi2	@ ComplementaryFilterConfig.35_189->SampleRate, Complementary
 183:.\src\sensors\fusion/complementary.c **** 	ComplementarySnsrFusion->IsEnabled = ComplementaryFilterConfig->Enabled;
 1294              		.loc 1 183 0
 1295 076a 5971     		strb	r1, [r3, #5]	@ ComplementaryFilterConfig.35_189->Enabled, ComplementarySnsrFusion.45_199->IsE
 184:.\src\sensors\fusion/complementary.c **** 	ComplementarySnsrFusion->SampleRate = ComplementaryFilterConfig->SampleRate;
 1296              		.loc 1 184 0
 1297 076c 5A73     		strb	r2, [r3, #13]	@ ComplementaryFilterConfig.35_189->SampleRate, ComplementarySnsrFusion.45_199-
 186:.\src\sensors\fusion/complementary.c **** 	ComplementarySnsrFusion->Read = &TWB_SNSR_Complementary_Process;
ARM GAS  C:\Users\Kevin\AppData\Local\Temp\ccw18vSb.s 			page 35


 1298              		.loc 1 186 0
 1299 076e 074A     		ldr	r2, .L99+12	@ tmp551,
 1300 0770 9A62     		str	r2, [r3, #40]	@ tmp551, ComplementarySnsrFusion.45_199->Read
 188:.\src\sensors\fusion/complementary.c **** 	__snsr_compFilter_ResolveSensors();
 1301              		.loc 1 188 0
 1302 0772 FFF7FEFF 		bl	__snsr_compFilter_ResolveSensors	@
 1303              	.LVL72:
 189:.\src\sensors\fusion/complementary.c **** 	__snsr_compFilter_ResolveCompFilters();
 1304              		.loc 1 189 0
 1305 0776 FFF7FEFF 		bl	__snsr_compFilter_ResolveCompFilters	@
 1306              	.LVL73:
 192:.\src\sensors\fusion/complementary.c **** }
 1307              		.loc 1 192 0
 1308 077a 2046     		mov	r0, r4	@, tmp480
 1309 077c BDE8F081 		pop	{r4, r5, r6, r7, r8, pc}	@
 1310              	.L100:
 1311              		.align	2
 1312              	.L99:
 1313 0780 00000000 		.word	SensorFusionMsg
 1314 0784 00000000 		.word	CompFilterPitch
 1315 0788 00000000 		.word	ComplementarySnsrFusion
 1316 078c 00000000 		.word	TWB_SNSR_Complementary_Process
 1317 0790 00000000 		.word	CompFilterRoll
 1318 0794 00000000 		.word	CompFilterHeading
 1319 0798 00000000 		.word	CompFilterAltitude
 1320              		.cfi_endproc
 1321              	.LFE114:
 1322              		.size	TWB_SNSR_Complementary_Init, .-TWB_SNSR_Complementary_Init
 1323              		.align	1
 1324              		.global	TWB_SNSR_Complementary_ResetDefaults
 1325              		.thumb
 1326              		.thumb_func
 1327              		.type	TWB_SNSR_Complementary_ResetDefaults, %function
 1328              	TWB_SNSR_Complementary_ResetDefaults:
 1329              	.LFB115:
 194:.\src\sensors\fusion/complementary.c **** iOpResult_e TWB_SNSR_Complementary_ResetDefaults(void) {
 1330              		.loc 1 194 0
 1331              		.cfi_startproc
 1332              		@ args = 0, pretend = 0, frame = 0
 1333              		@ frame_needed = 0, uses_anonymous_args = 0
 1334 079c 38B5     		push	{r3, r4, r5, lr}	@
 1335              	.LCFI7:
 1336              		.cfi_def_cfa_offset 16
 1337              		.cfi_offset 3, -16
 1338              		.cfi_offset 4, -12
 1339              		.cfi_offset 5, -8
 1340              		.cfi_offset 14, -4
 195:.\src\sensors\fusion/complementary.c **** 	ComplementaryFilterConfig->Enabled = Enabled;
 1341              		.loc 1 195 0
 1342 079e 914C     		ldr	r4, .L125	@ tmp249,
 1343 07a0 2368     		ldr	r3, [r4, #0]	@ ComplementaryFilterConfig.33, ComplementaryFilterConfig
 196:.\src\sensors\fusion/complementary.c **** 	ComplementaryFilterConfig->SampleRate = SampleRate_200Hz;
 1344              		.loc 1 196 0
 1345 07a2 0222     		movs	r2, #2	@ tmp252,
 208:.\src\sensors\fusion/complementary.c **** 	ComplementaryFilterConfig->Sensor1Pitch = GyroL3GD20;
 1346              		.loc 1 208 0
 1347 07a4 2220     		movs	r0, #34	@ tmp270,
ARM GAS  C:\Users\Kevin\AppData\Local\Temp\ccw18vSb.s 			page 36


 196:.\src\sensors\fusion/complementary.c **** 	ComplementaryFilterConfig->SampleRate = SampleRate_200Hz;
 1348              		.loc 1 196 0
 1349 07a6 5A70     		strb	r2, [r3, #1]	@ tmp252, ComplementaryFilterConfig.33_2->SampleRate
 198:.\src\sensors\fusion/complementary.c **** 	ComplementaryFilterConfig->TimeConstantPitch = CompFilter_200Ms;
 1350              		.loc 1 198 0
 1351 07a8 0822     		movs	r2, #8	@ tmp254,
 1352 07aa 9A71     		strb	r2, [r3, #6]	@ tmp254, ComplementaryFilterConfig.33_2->TimeConstantPitch
 199:.\src\sensors\fusion/complementary.c **** 	ComplementaryFilterConfig->TimeConstantRoll = CompFilter_200Ms;
 1353              		.loc 1 199 0
 1354 07ac DA71     		strb	r2, [r3, #7]	@ tmp254, ComplementaryFilterConfig.33_2->TimeConstantRoll
 208:.\src\sensors\fusion/complementary.c **** 	ComplementaryFilterConfig->Sensor1Pitch = GyroL3GD20;
 1355              		.loc 1 208 0
 1356 07ae 9872     		strb	r0, [r3, #10]	@ tmp270, ComplementaryFilterConfig.33_2->Sensor1Pitch
 212:.\src\sensors\fusion/complementary.c **** 	ComplementaryFilterConfig->Sensor1Roll = GyroL3GD20;
 1357              		.loc 1 212 0
 1358 07b0 5873     		strb	r0, [r3, #13]	@ tmp270, ComplementaryFilterConfig.33_2->Sensor1Roll
 216:.\src\sensors\fusion/complementary.c **** 	ComplementaryFilterConfig->Sensor1Heading = GyroL3GD20;
 1359              		.loc 1 216 0
 1360 07b2 1874     		strb	r0, [r3, #16]	@ tmp270, ComplementaryFilterConfig.33_2->Sensor1Heading
 200:.\src\sensors\fusion/complementary.c **** 	ComplementaryFilterConfig->TimeConstantHeading = CompFilter_100Ms;
 1361              		.loc 1 200 0
 1362 07b4 0A22     		movs	r2, #10	@ tmp258,
 217:.\src\sensors\fusion/complementary.c **** 	ComplementaryFilterConfig->Sensor2Heading = MagLSM303;
 1363              		.loc 1 217 0
 1364 07b6 4020     		movs	r0, #64	@ tmp284,
 200:.\src\sensors\fusion/complementary.c **** 	ComplementaryFilterConfig->TimeConstantHeading = CompFilter_100Ms;
 1365              		.loc 1 200 0
 1366 07b8 1A72     		strb	r2, [r3, #8]	@ tmp258, ComplementaryFilterConfig.33_2->TimeConstantHeading
 217:.\src\sensors\fusion/complementary.c **** 	ComplementaryFilterConfig->Sensor2Heading = MagLSM303;
 1367              		.loc 1 217 0
 1368 07ba 5874     		strb	r0, [r3, #17]	@ tmp284, ComplementaryFilterConfig.33_2->Sensor2Heading
 201:.\src\sensors\fusion/complementary.c **** 	ComplementaryFilterConfig->TimeConstantAltitude = CompFilter_500Ms;
 1369              		.loc 1 201 0
 1370 07bc 0522     		movs	r2, #5	@ tmp260,
 220:.\src\sensors\fusion/complementary.c **** 	ComplementaryFilterConfig->Sensor1Altitude = AltSonar;
 1371              		.loc 1 220 0
 1372 07be 5120     		movs	r0, #81	@ tmp288,
 201:.\src\sensors\fusion/complementary.c **** 	ComplementaryFilterConfig->TimeConstantAltitude = CompFilter_500Ms;
 1373              		.loc 1 201 0
 1374 07c0 5A72     		strb	r2, [r3, #9]	@ tmp260, ComplementaryFilterConfig.33_2->TimeConstantAltitude
 220:.\src\sensors\fusion/complementary.c **** 	ComplementaryFilterConfig->Sensor1Altitude = AltSonar;
 1375              		.loc 1 220 0
 1376 07c2 D874     		strb	r0, [r3, #19]	@ tmp288, ComplementaryFilterConfig.33_2->Sensor1Altitude
 203:.\src\sensors\fusion/complementary.c **** 	ComplementaryFilterConfig->FilterOptionPitch = FilterOption_None;
 1377              		.loc 1 203 0
 1378 07c4 0022     		movs	r2, #0	@ tmp262,
 195:.\src\sensors\fusion/complementary.c **** 	ComplementaryFilterConfig->Enabled = Enabled;
 1379              		.loc 1 195 0
 1380 07c6 FF21     		movs	r1, #255	@ tmp250,
 209:.\src\sensors\fusion/complementary.c **** 	ComplementaryFilterConfig->Sensor2Pitch = AccLSM303;
 1381              		.loc 1 209 0
 1382 07c8 3025     		movs	r5, #48	@ tmp272,
 221:.\src\sensors\fusion/complementary.c **** 	ComplementaryFilterConfig->Sensor2Altitude = AltBMP085;
 1383              		.loc 1 221 0
 1384 07ca 5020     		movs	r0, #80	@ tmp290,
 1385 07cc 1875     		strb	r0, [r3, #20]	@ tmp290, ComplementaryFilterConfig.33_2->Sensor2Altitude
 195:.\src\sensors\fusion/complementary.c **** 	ComplementaryFilterConfig->Enabled = Enabled;
ARM GAS  C:\Users\Kevin\AppData\Local\Temp\ccw18vSb.s 			page 37


 1386              		.loc 1 195 0
 1387 07ce 1970     		strb	r1, [r3, #0]	@ tmp250, ComplementaryFilterConfig.33_2->Enabled
 203:.\src\sensors\fusion/complementary.c **** 	ComplementaryFilterConfig->FilterOptionPitch = FilterOption_None;
 1388              		.loc 1 203 0
 1389 07d0 9A70     		strb	r2, [r3, #2]	@ tmp262, ComplementaryFilterConfig.33_2->FilterOptionPitch
 204:.\src\sensors\fusion/complementary.c **** 	ComplementaryFilterConfig->FilterOptionRoll = FilterOption_None;
 1390              		.loc 1 204 0
 1391 07d2 DA70     		strb	r2, [r3, #3]	@ tmp262, ComplementaryFilterConfig.33_2->FilterOptionRoll
 205:.\src\sensors\fusion/complementary.c **** 	ComplementaryFilterConfig->FilterOptionHeading = FilterOption_None;
 1392              		.loc 1 205 0
 1393 07d4 1A71     		strb	r2, [r3, #4]	@ tmp262, ComplementaryFilterConfig.33_2->FilterOptionHeading
 206:.\src\sensors\fusion/complementary.c **** 	ComplementaryFilterConfig->FilterOptionAltitude = FilterOption_None;
 1394              		.loc 1 206 0
 1395 07d6 5A71     		strb	r2, [r3, #5]	@ tmp262, ComplementaryFilterConfig.33_2->FilterOptionAltitude
 209:.\src\sensors\fusion/complementary.c **** 	ComplementaryFilterConfig->Sensor2Pitch = AccLSM303;
 1396              		.loc 1 209 0
 1397 07d8 DD72     		strb	r5, [r3, #11]	@ tmp272, ComplementaryFilterConfig.33_2->Sensor2Pitch
 210:.\src\sensors\fusion/complementary.c **** 	ComplementaryFilterConfig->Sensor3Pitch = SensorNone;
 1398              		.loc 1 210 0
 1399 07da 1A73     		strb	r2, [r3, #12]	@ tmp262, ComplementaryFilterConfig.33_2->Sensor3Pitch
 213:.\src\sensors\fusion/complementary.c **** 	ComplementaryFilterConfig->Sensor2Roll = AccLSM303;
 1400              		.loc 1 213 0
 1401 07dc 9D73     		strb	r5, [r3, #14]	@ tmp272, ComplementaryFilterConfig.33_2->Sensor2Roll
 214:.\src\sensors\fusion/complementary.c **** 	ComplementaryFilterConfig->Sensor3Roll = SensorNone;
 1402              		.loc 1 214 0
 1403 07de DA73     		strb	r2, [r3, #15]	@ tmp262, ComplementaryFilterConfig.33_2->Sensor3Roll
 218:.\src\sensors\fusion/complementary.c **** 	ComplementaryFilterConfig->Sensor3Heading = SensorNone;
 1404              		.loc 1 218 0
 1405 07e0 9A74     		strb	r2, [r3, #18]	@ tmp262, ComplementaryFilterConfig.33_2->Sensor3Heading
 222:.\src\sensors\fusion/complementary.c **** 	ComplementaryFilterConfig->Sensor3Altitude = SensorNone;
 1406              		.loc 1 222 0
 1407 07e2 5A75     		strb	r2, [r3, #21]	@ tmp262, ComplementaryFilterConfig.33_2->Sensor3Altitude
 224:.\src\sensors\fusion/complementary.c **** 	assert_succeed(TWB_SE_WriteU8Pause(COMPLEMENTARY_EEPROM_OFFSET + 0, ComplementaryFilterConfig->Ena
 1408              		.loc 1 224 0
 1409 07e4 4FF47870 		mov	r0, #992	@,
 1410 07e8 FFF7FEFF 		bl	TWB_SE_WriteU8Pause	@
 1411              	.LVL74:
 1412 07ec 2368     		ldr	r3, [r4, #0]	@ ComplementaryFilterConfig, ComplementaryFilterConfig
 1413 07ee 18B1     		cbz	r0, .L102	@,
 224:.\src\sensors\fusion/complementary.c **** 	assert_succeed(TWB_SE_WriteU8Pause(COMPLEMENTARY_EEPROM_OFFSET + 0, ComplementaryFilterConfig->Ena
 1414              		.loc 1 224 0 is_stmt 0 discriminator 1
 1415 07f0 4FF47870 		mov	r0, #992	@,
 1416 07f4 1978     		ldrb	r1, [r3, #0]	@ zero_extendqisi2	@, ComplementaryFilterConfig.33_27->Enabled
 1417 07f6 E9E0     		b	.L124	@
 1418              	.L102:
 225:.\src\sensors\fusion/complementary.c **** 	assert_succeed(TWB_SE_WriteU8Pause(COMPLEMENTARY_EEPROM_OFFSET + 1, ComplementaryFilterConfig->Sam
 1419              		.loc 1 225 0 is_stmt 1
 1420 07f8 5978     		ldrb	r1, [r3, #1]	@ zero_extendqisi2	@, ComplementaryFilterConfig.33_30->SampleRate
 1421 07fa 40F2E130 		movw	r0, #993	@,
 1422 07fe FFF7FEFF 		bl	TWB_SE_WriteU8Pause	@
 1423              	.LVL75:
 1424 0802 2368     		ldr	r3, [r4, #0]	@ ComplementaryFilterConfig, ComplementaryFilterConfig
 1425 0804 18B1     		cbz	r0, .L103	@,
 225:.\src\sensors\fusion/complementary.c **** 	assert_succeed(TWB_SE_WriteU8Pause(COMPLEMENTARY_EEPROM_OFFSET + 1, ComplementaryFilterConfig->Sam
 1426              		.loc 1 225 0 is_stmt 0 discriminator 1
 1427 0806 40F2E130 		movw	r0, #993	@,
 1428 080a 5978     		ldrb	r1, [r3, #1]	@ zero_extendqisi2	@, ComplementaryFilterConfig.33_33->SampleRate
ARM GAS  C:\Users\Kevin\AppData\Local\Temp\ccw18vSb.s 			page 38


 1429 080c DEE0     		b	.L124	@
 1430              	.L103:
 227:.\src\sensors\fusion/complementary.c **** 	assert_succeed(TWB_SE_WriteU8Pause(COMPLEMENTARY_EEPROM_OFFSET + 2, ComplementaryFilterConfig->Fil
 1431              		.loc 1 227 0 is_stmt 1
 1432 080e 9978     		ldrb	r1, [r3, #2]	@ zero_extendqisi2	@, ComplementaryFilterConfig.33_36->FilterOptionPitch
 1433 0810 40F2E230 		movw	r0, #994	@,
 1434 0814 FFF7FEFF 		bl	TWB_SE_WriteU8Pause	@
 1435              	.LVL76:
 1436 0818 2368     		ldr	r3, [r4, #0]	@ ComplementaryFilterConfig, ComplementaryFilterConfig
 1437 081a 18B1     		cbz	r0, .L104	@,
 227:.\src\sensors\fusion/complementary.c **** 	assert_succeed(TWB_SE_WriteU8Pause(COMPLEMENTARY_EEPROM_OFFSET + 2, ComplementaryFilterConfig->Fil
 1438              		.loc 1 227 0 is_stmt 0 discriminator 1
 1439 081c 40F2E230 		movw	r0, #994	@,
 1440 0820 9978     		ldrb	r1, [r3, #2]	@ zero_extendqisi2	@, ComplementaryFilterConfig.33_39->FilterOptionPitch
 1441 0822 D3E0     		b	.L124	@
 1442              	.L104:
 228:.\src\sensors\fusion/complementary.c **** 	assert_succeed(TWB_SE_WriteU8Pause(COMPLEMENTARY_EEPROM_OFFSET + 3, ComplementaryFilterConfig->Fil
 1443              		.loc 1 228 0 is_stmt 1
 1444 0824 D978     		ldrb	r1, [r3, #3]	@ zero_extendqisi2	@, ComplementaryFilterConfig.33_42->FilterOptionRoll
 1445 0826 40F2E330 		movw	r0, #995	@,
 1446 082a FFF7FEFF 		bl	TWB_SE_WriteU8Pause	@
 1447              	.LVL77:
 1448 082e 2368     		ldr	r3, [r4, #0]	@ ComplementaryFilterConfig, ComplementaryFilterConfig
 1449 0830 18B1     		cbz	r0, .L105	@,
 228:.\src\sensors\fusion/complementary.c **** 	assert_succeed(TWB_SE_WriteU8Pause(COMPLEMENTARY_EEPROM_OFFSET + 3, ComplementaryFilterConfig->Fil
 1450              		.loc 1 228 0 is_stmt 0 discriminator 1
 1451 0832 40F2E330 		movw	r0, #995	@,
 1452 0836 D978     		ldrb	r1, [r3, #3]	@ zero_extendqisi2	@, ComplementaryFilterConfig.33_45->FilterOptionRoll
 1453 0838 C8E0     		b	.L124	@
 1454              	.L105:
 229:.\src\sensors\fusion/complementary.c **** 	assert_succeed(TWB_SE_WriteU8Pause(COMPLEMENTARY_EEPROM_OFFSET + 4, ComplementaryFilterConfig->Fil
 1455              		.loc 1 229 0 is_stmt 1
 1456 083a 1979     		ldrb	r1, [r3, #4]	@ zero_extendqisi2	@, ComplementaryFilterConfig.33_48->FilterOptionHeading
 1457 083c 4FF47970 		mov	r0, #996	@,
 1458 0840 FFF7FEFF 		bl	TWB_SE_WriteU8Pause	@
 1459              	.LVL78:
 1460 0844 2368     		ldr	r3, [r4, #0]	@ ComplementaryFilterConfig, ComplementaryFilterConfig
 1461 0846 18B1     		cbz	r0, .L106	@,
 229:.\src\sensors\fusion/complementary.c **** 	assert_succeed(TWB_SE_WriteU8Pause(COMPLEMENTARY_EEPROM_OFFSET + 4, ComplementaryFilterConfig->Fil
 1462              		.loc 1 229 0 is_stmt 0 discriminator 1
 1463 0848 4FF47970 		mov	r0, #996	@,
 1464 084c 1979     		ldrb	r1, [r3, #4]	@ zero_extendqisi2	@, ComplementaryFilterConfig.33_51->FilterOptionHeading
 1465 084e BDE0     		b	.L124	@
 1466              	.L106:
 230:.\src\sensors\fusion/complementary.c **** 	assert_succeed(TWB_SE_WriteU8Pause(COMPLEMENTARY_EEPROM_OFFSET + 5, ComplementaryFilterConfig->Fil
 1467              		.loc 1 230 0 is_stmt 1
 1468 0850 5979     		ldrb	r1, [r3, #5]	@ zero_extendqisi2	@, ComplementaryFilterConfig.33_54->FilterOptionAltitude
 1469 0852 40F2E530 		movw	r0, #997	@,
 1470 0856 FFF7FEFF 		bl	TWB_SE_WriteU8Pause	@
 1471              	.LVL79:
 1472 085a 2368     		ldr	r3, [r4, #0]	@ ComplementaryFilterConfig, ComplementaryFilterConfig
 1473 085c 18B1     		cbz	r0, .L107	@,
 230:.\src\sensors\fusion/complementary.c **** 	assert_succeed(TWB_SE_WriteU8Pause(COMPLEMENTARY_EEPROM_OFFSET + 5, ComplementaryFilterConfig->Fil
 1474              		.loc 1 230 0 is_stmt 0 discriminator 1
 1475 085e 40F2E530 		movw	r0, #997	@,
 1476 0862 5979     		ldrb	r1, [r3, #5]	@ zero_extendqisi2	@, ComplementaryFilterConfig.33_57->FilterOptionAltitude
 1477 0864 B2E0     		b	.L124	@
ARM GAS  C:\Users\Kevin\AppData\Local\Temp\ccw18vSb.s 			page 39


 1478              	.L107:
 232:.\src\sensors\fusion/complementary.c **** 	assert_succeed(TWB_SE_WriteU8Pause(COMPLEMENTARY_EEPROM_OFFSET + 6, ComplementaryFilterConfig->Tim
 1479              		.loc 1 232 0 is_stmt 1
 1480 0866 9979     		ldrb	r1, [r3, #6]	@ zero_extendqisi2	@, ComplementaryFilterConfig.33_60->TimeConstantPitch
 1481 0868 40F2E630 		movw	r0, #998	@,
 1482 086c FFF7FEFF 		bl	TWB_SE_WriteU8Pause	@
 1483              	.LVL80:
 1484 0870 2368     		ldr	r3, [r4, #0]	@ ComplementaryFilterConfig, ComplementaryFilterConfig
 1485 0872 18B1     		cbz	r0, .L108	@,
 232:.\src\sensors\fusion/complementary.c **** 	assert_succeed(TWB_SE_WriteU8Pause(COMPLEMENTARY_EEPROM_OFFSET + 6, ComplementaryFilterConfig->Tim
 1486              		.loc 1 232 0 is_stmt 0 discriminator 1
 1487 0874 40F2E630 		movw	r0, #998	@,
 1488 0878 9979     		ldrb	r1, [r3, #6]	@ zero_extendqisi2	@, ComplementaryFilterConfig.33_63->TimeConstantPitch
 1489 087a A7E0     		b	.L124	@
 1490              	.L108:
 233:.\src\sensors\fusion/complementary.c **** 	assert_succeed(TWB_SE_WriteU8Pause(COMPLEMENTARY_EEPROM_OFFSET + 7, ComplementaryFilterConfig->Tim
 1491              		.loc 1 233 0 is_stmt 1
 1492 087c D979     		ldrb	r1, [r3, #7]	@ zero_extendqisi2	@, ComplementaryFilterConfig.33_66->TimeConstantRoll
 1493 087e 40F2E730 		movw	r0, #999	@,
 1494 0882 FFF7FEFF 		bl	TWB_SE_WriteU8Pause	@
 1495              	.LVL81:
 1496 0886 2368     		ldr	r3, [r4, #0]	@ ComplementaryFilterConfig, ComplementaryFilterConfig
 1497 0888 18B1     		cbz	r0, .L109	@,
 233:.\src\sensors\fusion/complementary.c **** 	assert_succeed(TWB_SE_WriteU8Pause(COMPLEMENTARY_EEPROM_OFFSET + 7, ComplementaryFilterConfig->Tim
 1498              		.loc 1 233 0 is_stmt 0 discriminator 1
 1499 088a 40F2E730 		movw	r0, #999	@,
 1500 088e D979     		ldrb	r1, [r3, #7]	@ zero_extendqisi2	@, ComplementaryFilterConfig.33_69->TimeConstantRoll
 1501 0890 9CE0     		b	.L124	@
 1502              	.L109:
 234:.\src\sensors\fusion/complementary.c **** 	assert_succeed(TWB_SE_WriteU8Pause(COMPLEMENTARY_EEPROM_OFFSET + 8, ComplementaryFilterConfig->Tim
 1503              		.loc 1 234 0 is_stmt 1
 1504 0892 197A     		ldrb	r1, [r3, #8]	@ zero_extendqisi2	@, ComplementaryFilterConfig.33_72->TimeConstantHeading
 1505 0894 4FF47A70 		mov	r0, #1000	@,
 1506 0898 FFF7FEFF 		bl	TWB_SE_WriteU8Pause	@
 1507              	.LVL82:
 1508 089c 2368     		ldr	r3, [r4, #0]	@ ComplementaryFilterConfig, ComplementaryFilterConfig
 1509 089e 18B1     		cbz	r0, .L110	@,
 234:.\src\sensors\fusion/complementary.c **** 	assert_succeed(TWB_SE_WriteU8Pause(COMPLEMENTARY_EEPROM_OFFSET + 8, ComplementaryFilterConfig->Tim
 1510              		.loc 1 234 0 is_stmt 0 discriminator 1
 1511 08a0 4FF47A70 		mov	r0, #1000	@,
 1512 08a4 197A     		ldrb	r1, [r3, #8]	@ zero_extendqisi2	@, ComplementaryFilterConfig.33_75->TimeConstantHeading
 1513 08a6 91E0     		b	.L124	@
 1514              	.L110:
 235:.\src\sensors\fusion/complementary.c **** 	assert_succeed(TWB_SE_WriteU8Pause(COMPLEMENTARY_EEPROM_OFFSET + 9, ComplementaryFilterConfig->Tim
 1515              		.loc 1 235 0 is_stmt 1
 1516 08a8 40F2E930 		movw	r0, #1001	@,
 1517 08ac 597A     		ldrb	r1, [r3, #9]	@ zero_extendqisi2	@, ComplementaryFilterConfig.33_78->TimeConstantAltitude
 1518 08ae FFF7FEFF 		bl	TWB_SE_WriteU8Pause	@
 1519              	.LVL83:
 1520 08b2 20B1     		cbz	r0, .L111	@,
 235:.\src\sensors\fusion/complementary.c **** 	assert_succeed(TWB_SE_WriteU8Pause(COMPLEMENTARY_EEPROM_OFFSET + 9, ComplementaryFilterConfig->Tim
 1521              		.loc 1 235 0 is_stmt 0 discriminator 1
 1522 08b4 2368     		ldr	r3, [r4, #0]	@ ComplementaryFilterConfig, ComplementaryFilterConfig
 1523 08b6 40F2E930 		movw	r0, #1001	@,
 1524 08ba 597A     		ldrb	r1, [r3, #9]	@ zero_extendqisi2	@, ComplementaryFilterConfig.33_81->TimeConstantAltitude
 1525 08bc 86E0     		b	.L124	@
 1526              	.L111:
ARM GAS  C:\Users\Kevin\AppData\Local\Temp\ccw18vSb.s 			page 40


 237:.\src\sensors\fusion/complementary.c **** 	assert_succeed(TWB_SE_WriteU8Pause(COMPLEMENTARY_EEPROM_OFFSET + 10, ComplementaryFilterConfig->Se
 1527              		.loc 1 237 0 is_stmt 1
 1528 08be 2368     		ldr	r3, [r4, #0]	@ ComplementaryFilterConfig, ComplementaryFilterConfig
 1529 08c0 484D     		ldr	r5, .L125	@ tmp387,
 1530 08c2 997A     		ldrb	r1, [r3, #10]	@ zero_extendqisi2	@, ComplementaryFilterConfig.33_84->Sensor1Pitch
 1531 08c4 40F2EA30 		movw	r0, #1002	@,
 1532 08c8 FFF7FEFF 		bl	TWB_SE_WriteU8Pause	@
 1533              	.LVL84:
 1534 08cc 2B68     		ldr	r3, [r5, #0]	@ ComplementaryFilterConfig, ComplementaryFilterConfig
 1535 08ce 18B1     		cbz	r0, .L112	@,
 237:.\src\sensors\fusion/complementary.c **** 	assert_succeed(TWB_SE_WriteU8Pause(COMPLEMENTARY_EEPROM_OFFSET + 10, ComplementaryFilterConfig->Se
 1536              		.loc 1 237 0 is_stmt 0 discriminator 1
 1537 08d0 40F2EA30 		movw	r0, #1002	@,
 1538 08d4 997A     		ldrb	r1, [r3, #10]	@ zero_extendqisi2	@, ComplementaryFilterConfig.33_87->Sensor1Pitch
 1539 08d6 79E0     		b	.L124	@
 1540              	.L112:
 238:.\src\sensors\fusion/complementary.c **** 	assert_succeed(TWB_SE_WriteU8Pause(COMPLEMENTARY_EEPROM_OFFSET + 11, ComplementaryFilterConfig->Se
 1541              		.loc 1 238 0 is_stmt 1
 1542 08d8 D97A     		ldrb	r1, [r3, #11]	@ zero_extendqisi2	@, ComplementaryFilterConfig.33_90->Sensor2Pitch
 1543 08da 40F2EB30 		movw	r0, #1003	@,
 1544 08de FFF7FEFF 		bl	TWB_SE_WriteU8Pause	@
 1545              	.LVL85:
 1546 08e2 2B68     		ldr	r3, [r5, #0]	@ ComplementaryFilterConfig, ComplementaryFilterConfig
 1547 08e4 18B1     		cbz	r0, .L113	@,
 238:.\src\sensors\fusion/complementary.c **** 	assert_succeed(TWB_SE_WriteU8Pause(COMPLEMENTARY_EEPROM_OFFSET + 11, ComplementaryFilterConfig->Se
 1548              		.loc 1 238 0 is_stmt 0 discriminator 1
 1549 08e6 40F2EB30 		movw	r0, #1003	@,
 1550 08ea D97A     		ldrb	r1, [r3, #11]	@ zero_extendqisi2	@, ComplementaryFilterConfig.33_93->Sensor2Pitch
 1551 08ec 6EE0     		b	.L124	@
 1552              	.L113:
 239:.\src\sensors\fusion/complementary.c **** 	assert_succeed(TWB_SE_WriteU8Pause(COMPLEMENTARY_EEPROM_OFFSET + 12, ComplementaryFilterConfig->Se
 1553              		.loc 1 239 0 is_stmt 1
 1554 08ee 197B     		ldrb	r1, [r3, #12]	@ zero_extendqisi2	@, ComplementaryFilterConfig.33_96->Sensor3Pitch
 1555 08f0 4FF47B70 		mov	r0, #1004	@,
 1556 08f4 FFF7FEFF 		bl	TWB_SE_WriteU8Pause	@
 1557              	.LVL86:
 1558 08f8 2B68     		ldr	r3, [r5, #0]	@ ComplementaryFilterConfig, ComplementaryFilterConfig
 1559 08fa 18B1     		cbz	r0, .L114	@,
 239:.\src\sensors\fusion/complementary.c **** 	assert_succeed(TWB_SE_WriteU8Pause(COMPLEMENTARY_EEPROM_OFFSET + 12, ComplementaryFilterConfig->Se
 1560              		.loc 1 239 0 is_stmt 0 discriminator 1
 1561 08fc 4FF47B70 		mov	r0, #1004	@,
 1562 0900 197B     		ldrb	r1, [r3, #12]	@ zero_extendqisi2	@, ComplementaryFilterConfig.33_99->Sensor3Pitch
 1563 0902 63E0     		b	.L124	@
 1564              	.L114:
 241:.\src\sensors\fusion/complementary.c **** 	assert_succeed(TWB_SE_WriteU8Pause(COMPLEMENTARY_EEPROM_OFFSET + 13, ComplementaryFilterConfig->Se
 1565              		.loc 1 241 0 is_stmt 1
 1566 0904 597B     		ldrb	r1, [r3, #13]	@ zero_extendqisi2	@, ComplementaryFilterConfig.33_102->Sensor1Roll
 1567 0906 40F2ED30 		movw	r0, #1005	@,
 1568 090a FFF7FEFF 		bl	TWB_SE_WriteU8Pause	@
 1569              	.LVL87:
 1570 090e 2B68     		ldr	r3, [r5, #0]	@ ComplementaryFilterConfig, ComplementaryFilterConfig
 1571 0910 18B1     		cbz	r0, .L115	@,
 241:.\src\sensors\fusion/complementary.c **** 	assert_succeed(TWB_SE_WriteU8Pause(COMPLEMENTARY_EEPROM_OFFSET + 13, ComplementaryFilterConfig->Se
 1572              		.loc 1 241 0 is_stmt 0 discriminator 1
 1573 0912 40F2ED30 		movw	r0, #1005	@,
 1574 0916 597B     		ldrb	r1, [r3, #13]	@ zero_extendqisi2	@, ComplementaryFilterConfig.33_105->Sensor1Roll
 1575 0918 58E0     		b	.L124	@
ARM GAS  C:\Users\Kevin\AppData\Local\Temp\ccw18vSb.s 			page 41


 1576              	.L115:
 242:.\src\sensors\fusion/complementary.c **** 	assert_succeed(TWB_SE_WriteU8Pause(COMPLEMENTARY_EEPROM_OFFSET + 14, ComplementaryFilterConfig->Se
 1577              		.loc 1 242 0 is_stmt 1
 1578 091a 997B     		ldrb	r1, [r3, #14]	@ zero_extendqisi2	@, ComplementaryFilterConfig.33_108->Sensor2Roll
 1579 091c 40F2EE30 		movw	r0, #1006	@,
 1580 0920 FFF7FEFF 		bl	TWB_SE_WriteU8Pause	@
 1581              	.LVL88:
 1582 0924 2B68     		ldr	r3, [r5, #0]	@ ComplementaryFilterConfig, ComplementaryFilterConfig
 1583 0926 18B1     		cbz	r0, .L116	@,
 242:.\src\sensors\fusion/complementary.c **** 	assert_succeed(TWB_SE_WriteU8Pause(COMPLEMENTARY_EEPROM_OFFSET + 14, ComplementaryFilterConfig->Se
 1584              		.loc 1 242 0 is_stmt 0 discriminator 1
 1585 0928 40F2EE30 		movw	r0, #1006	@,
 1586 092c 997B     		ldrb	r1, [r3, #14]	@ zero_extendqisi2	@, ComplementaryFilterConfig.33_111->Sensor2Roll
 1587 092e 4DE0     		b	.L124	@
 1588              	.L116:
 243:.\src\sensors\fusion/complementary.c **** 	assert_succeed(TWB_SE_WriteU8Pause(COMPLEMENTARY_EEPROM_OFFSET + 15, ComplementaryFilterConfig->Se
 1589              		.loc 1 243 0 is_stmt 1
 1590 0930 D97B     		ldrb	r1, [r3, #15]	@ zero_extendqisi2	@, ComplementaryFilterConfig.33_114->Sensor3Roll
 1591 0932 40F2EF30 		movw	r0, #1007	@,
 1592 0936 FFF7FEFF 		bl	TWB_SE_WriteU8Pause	@
 1593              	.LVL89:
 1594 093a 2B68     		ldr	r3, [r5, #0]	@ ComplementaryFilterConfig, ComplementaryFilterConfig
 1595 093c 18B1     		cbz	r0, .L117	@,
 243:.\src\sensors\fusion/complementary.c **** 	assert_succeed(TWB_SE_WriteU8Pause(COMPLEMENTARY_EEPROM_OFFSET + 15, ComplementaryFilterConfig->Se
 1596              		.loc 1 243 0 is_stmt 0 discriminator 1
 1597 093e 40F2EF30 		movw	r0, #1007	@,
 1598 0942 D97B     		ldrb	r1, [r3, #15]	@ zero_extendqisi2	@, ComplementaryFilterConfig.33_117->Sensor3Roll
 1599 0944 42E0     		b	.L124	@
 1600              	.L117:
 245:.\src\sensors\fusion/complementary.c **** 	assert_succeed(TWB_SE_WriteU8Pause(COMPLEMENTARY_EEPROM_OFFSET + 16, ComplementaryFilterConfig->Se
 1601              		.loc 1 245 0 is_stmt 1
 1602 0946 197C     		ldrb	r1, [r3, #16]	@ zero_extendqisi2	@, ComplementaryFilterConfig.33_120->Sensor1Heading
 1603 0948 4FF47C70 		mov	r0, #1008	@,
 1604 094c FFF7FEFF 		bl	TWB_SE_WriteU8Pause	@
 1605              	.LVL90:
 1606 0950 2B68     		ldr	r3, [r5, #0]	@ ComplementaryFilterConfig, ComplementaryFilterConfig
 1607 0952 18B1     		cbz	r0, .L118	@,
 245:.\src\sensors\fusion/complementary.c **** 	assert_succeed(TWB_SE_WriteU8Pause(COMPLEMENTARY_EEPROM_OFFSET + 16, ComplementaryFilterConfig->Se
 1608              		.loc 1 245 0 is_stmt 0 discriminator 1
 1609 0954 4FF47C70 		mov	r0, #1008	@,
 1610 0958 197C     		ldrb	r1, [r3, #16]	@ zero_extendqisi2	@, ComplementaryFilterConfig.33_123->Sensor1Heading
 1611 095a 37E0     		b	.L124	@
 1612              	.L118:
 246:.\src\sensors\fusion/complementary.c **** 	assert_succeed(TWB_SE_WriteU8Pause(COMPLEMENTARY_EEPROM_OFFSET + 17, ComplementaryFilterConfig->Se
 1613              		.loc 1 246 0 is_stmt 1
 1614 095c 597C     		ldrb	r1, [r3, #17]	@ zero_extendqisi2	@, ComplementaryFilterConfig.33_126->Sensor2Heading
 1615 095e 40F2F130 		movw	r0, #1009	@,
 1616 0962 FFF7FEFF 		bl	TWB_SE_WriteU8Pause	@
 1617              	.LVL91:
 1618 0966 2B68     		ldr	r3, [r5, #0]	@ ComplementaryFilterConfig, ComplementaryFilterConfig
 1619 0968 18B1     		cbz	r0, .L119	@,
 246:.\src\sensors\fusion/complementary.c **** 	assert_succeed(TWB_SE_WriteU8Pause(COMPLEMENTARY_EEPROM_OFFSET + 17, ComplementaryFilterConfig->Se
 1620              		.loc 1 246 0 is_stmt 0 discriminator 1
 1621 096a 40F2F130 		movw	r0, #1009	@,
 1622 096e 597C     		ldrb	r1, [r3, #17]	@ zero_extendqisi2	@, ComplementaryFilterConfig.33_129->Sensor2Heading
 1623 0970 2CE0     		b	.L124	@
 1624              	.L119:
ARM GAS  C:\Users\Kevin\AppData\Local\Temp\ccw18vSb.s 			page 42


 247:.\src\sensors\fusion/complementary.c **** 	assert_succeed(TWB_SE_WriteU8Pause(COMPLEMENTARY_EEPROM_OFFSET + 18, ComplementaryFilterConfig->Se
 1625              		.loc 1 247 0 is_stmt 1
 1626 0972 997C     		ldrb	r1, [r3, #18]	@ zero_extendqisi2	@, ComplementaryFilterConfig.33_132->Sensor3Heading
 1627 0974 40F2F230 		movw	r0, #1010	@,
 1628 0978 FFF7FEFF 		bl	TWB_SE_WriteU8Pause	@
 1629              	.LVL92:
 1630 097c 2B68     		ldr	r3, [r5, #0]	@ ComplementaryFilterConfig, ComplementaryFilterConfig
 1631 097e 18B1     		cbz	r0, .L120	@,
 247:.\src\sensors\fusion/complementary.c **** 	assert_succeed(TWB_SE_WriteU8Pause(COMPLEMENTARY_EEPROM_OFFSET + 18, ComplementaryFilterConfig->Se
 1632              		.loc 1 247 0 is_stmt 0 discriminator 1
 1633 0980 40F2F230 		movw	r0, #1010	@,
 1634 0984 997C     		ldrb	r1, [r3, #18]	@ zero_extendqisi2	@, ComplementaryFilterConfig.33_135->Sensor3Heading
 1635 0986 21E0     		b	.L124	@
 1636              	.L120:
 249:.\src\sensors\fusion/complementary.c **** 	assert_succeed(TWB_SE_WriteU8Pause(COMPLEMENTARY_EEPROM_OFFSET + 19, ComplementaryFilterConfig->Se
 1637              		.loc 1 249 0 is_stmt 1
 1638 0988 40F2F330 		movw	r0, #1011	@,
 1639 098c D97C     		ldrb	r1, [r3, #19]	@ zero_extendqisi2	@, ComplementaryFilterConfig.33_138->Sensor1Altitude
 1640 098e FFF7FEFF 		bl	TWB_SE_WriteU8Pause	@
 1641              	.LVL93:
 1642 0992 20B1     		cbz	r0, .L121	@,
 249:.\src\sensors\fusion/complementary.c **** 	assert_succeed(TWB_SE_WriteU8Pause(COMPLEMENTARY_EEPROM_OFFSET + 19, ComplementaryFilterConfig->Se
 1643              		.loc 1 249 0 is_stmt 0 discriminator 1
 1644 0994 2B68     		ldr	r3, [r5, #0]	@ ComplementaryFilterConfig, ComplementaryFilterConfig
 1645 0996 40F2F330 		movw	r0, #1011	@,
 1646 099a D97C     		ldrb	r1, [r3, #19]	@ zero_extendqisi2	@, ComplementaryFilterConfig.33_141->Sensor1Altitude
 1647 099c 16E0     		b	.L124	@
 1648              	.L121:
 250:.\src\sensors\fusion/complementary.c **** 	assert_succeed(TWB_SE_WriteU8Pause(COMPLEMENTARY_EEPROM_OFFSET + 20, ComplementaryFilterConfig->Se
 1649              		.loc 1 250 0 is_stmt 1
 1650 099e 2B68     		ldr	r3, [r5, #0]	@ ComplementaryFilterConfig, ComplementaryFilterConfig
 1651 09a0 104C     		ldr	r4, .L125	@ tmp482,
 1652 09a2 197D     		ldrb	r1, [r3, #20]	@ zero_extendqisi2	@, ComplementaryFilterConfig.33_144->Sensor2Altitude
 1653 09a4 4FF47D70 		mov	r0, #1012	@,
 1654 09a8 FFF7FEFF 		bl	TWB_SE_WriteU8Pause	@
 1655              	.LVL94:
 1656 09ac 2368     		ldr	r3, [r4, #0]	@ ComplementaryFilterConfig, ComplementaryFilterConfig
 1657 09ae 18B1     		cbz	r0, .L122	@,
 250:.\src\sensors\fusion/complementary.c **** 	assert_succeed(TWB_SE_WriteU8Pause(COMPLEMENTARY_EEPROM_OFFSET + 20, ComplementaryFilterConfig->Se
 1658              		.loc 1 250 0 is_stmt 0 discriminator 1
 1659 09b0 4FF47D70 		mov	r0, #1012	@,
 1660 09b4 197D     		ldrb	r1, [r3, #20]	@ zero_extendqisi2	@, ComplementaryFilterConfig.33_147->Sensor2Altitude
 1661 09b6 09E0     		b	.L124	@
 1662              	.L122:
 251:.\src\sensors\fusion/complementary.c **** 	assert_succeed(TWB_SE_WriteU8Pause(COMPLEMENTARY_EEPROM_OFFSET + 21, ComplementaryFilterConfig->Se
 1663              		.loc 1 251 0 is_stmt 1
 1664 09b8 40F2F530 		movw	r0, #1013	@,
 1665 09bc 597D     		ldrb	r1, [r3, #21]	@ zero_extendqisi2	@, ComplementaryFilterConfig.33_150->Sensor3Altitude
 1666 09be FFF7FEFF 		bl	TWB_SE_WriteU8Pause	@
 1667              	.LVL95:
 1668 09c2 38B1     		cbz	r0, .L123	@,
 251:.\src\sensors\fusion/complementary.c **** 	assert_succeed(TWB_SE_WriteU8Pause(COMPLEMENTARY_EEPROM_OFFSET + 21, ComplementaryFilterConfig->Se
 1669              		.loc 1 251 0 is_stmt 0 discriminator 1
 1670 09c4 2368     		ldr	r3, [r4, #0]	@ ComplementaryFilterConfig, ComplementaryFilterConfig
 1671 09c6 597D     		ldrb	r1, [r3, #21]	@ zero_extendqisi2	@, ComplementaryFilterConfig.33_153->Sensor3Altitude
 1672 09c8 40F2F530 		movw	r0, #1013	@,
 1673              	.L124:
ARM GAS  C:\Users\Kevin\AppData\Local\Temp\ccw18vSb.s 			page 43


 257:.\src\sensors\fusion/complementary.c **** }
 1674              		.loc 1 257 0 is_stmt 1 discriminator 1
 1675 09cc BDE83840 		pop	{r3, r4, r5, lr}	@
 251:.\src\sensors\fusion/complementary.c **** 	assert_succeed(TWB_SE_WriteU8Pause(COMPLEMENTARY_EEPROM_OFFSET + 21, ComplementaryFilterConfig->Se
 1676              		.loc 1 251 0 discriminator 1
 1677 09d0 FFF7FEBF 		b	TWB_SE_WriteU8Pause	@
 1678              	.LVL96:
 1679              	.L123:
 253:.\src\sensors\fusion/complementary.c **** 	ComplementarySnsrFusion->IsEnabled = ComplementaryFilterConfig->Enabled;
 1680              		.loc 1 253 0
 1681 09d4 2268     		ldr	r2, [r4, #0]	@ ComplementaryFilterConfig.33, ComplementaryFilterConfig
 1682 09d6 044B     		ldr	r3, .L125+4	@ tmp499,
 1683 09d8 1178     		ldrb	r1, [r2, #0]	@ zero_extendqisi2	@ ComplementaryFilterConfig.33_157->Enabled, ComplementaryFil
 1684 09da 1B68     		ldr	r3, [r3, #0]	@ ComplementarySnsrFusion.34, ComplementarySnsrFusion
 254:.\src\sensors\fusion/complementary.c **** 	ComplementarySnsrFusion->SampleRate = ComplementaryFilterConfig->SampleRate;
 1685              		.loc 1 254 0
 1686 09dc 5278     		ldrb	r2, [r2, #1]	@ zero_extendqisi2	@ ComplementaryFilterConfig.33_157->SampleRate, Complementary
 253:.\src\sensors\fusion/complementary.c **** 	ComplementarySnsrFusion->IsEnabled = ComplementaryFilterConfig->Enabled;
 1687              		.loc 1 253 0
 1688 09de 5971     		strb	r1, [r3, #5]	@ ComplementaryFilterConfig.33_157->Enabled, ComplementarySnsrFusion.34_156->IsE
 254:.\src\sensors\fusion/complementary.c **** 	ComplementarySnsrFusion->SampleRate = ComplementaryFilterConfig->SampleRate;
 1689              		.loc 1 254 0
 1690 09e0 5A73     		strb	r2, [r3, #13]	@ ComplementaryFilterConfig.33_157->SampleRate, ComplementarySnsrFusion.34_156-
 257:.\src\sensors\fusion/complementary.c **** }
 1691              		.loc 1 257 0
 1692 09e2 38BD     		pop	{r3, r4, r5, pc}	@
 1693              	.L126:
 1694              		.align	2
 1695              	.L125:
 1696 09e4 00000000 		.word	ComplementaryFilterConfig
 1697 09e8 00000000 		.word	ComplementarySnsrFusion
 1698              		.cfi_endproc
 1699              	.LFE115:
 1700              		.size	TWB_SNSR_Complementary_ResetDefaults, .-TWB_SNSR_Complementary_ResetDefaults
 1701              		.align	1
 1702              		.global	TWB_SNSR_Complementary_UpdateSettings
 1703              		.thumb
 1704              		.thumb_func
 1705              		.type	TWB_SNSR_Complementary_UpdateSettings, %function
 1706              	TWB_SNSR_Complementary_UpdateSettings:
 1707              	.LFB116:
 259:.\src\sensors\fusion/complementary.c **** iOpResult_e TWB_SNSR_Complementary_UpdateSettings(uint16_t addr, uint8_t value){
 1708              		.loc 1 259 0
 1709              		.cfi_startproc
 1710              		@ args = 0, pretend = 0, frame = 0
 1711              		@ frame_needed = 0, uses_anonymous_args = 0
 1712              	.LVL97:
 1713 09ec 10B5     		push	{r4, lr}	@
 1714              	.LCFI8:
 1715              		.cfi_def_cfa_offset 8
 1716              		.cfi_offset 4, -8
 1717              		.cfi_offset 14, -4
 260:.\src\sensors\fusion/complementary.c **** 	switch(addr){
 1718              		.loc 1 260 0
 1719 09ee 1528     		cmp	r0, #21	@ addr,
 1720 09f0 00F29F80 		bhi	.L128	@
 1721 09f4 DFE800F0 		tbb	[pc, r0]	@ addr
ARM GAS  C:\Users\Kevin\AppData\Local\Temp\ccw18vSb.s 			page 44


 1722              	.L151:
 1723 09f8 0B       		.byte	(.L129-.L151)/2
 1724 09f9 12       		.byte	(.L130-.L151)/2
 1725 09fa 19       		.byte	(.L131-.L151)/2
 1726 09fb 1E       		.byte	(.L132-.L151)/2
 1727 09fc 2E       		.byte	(.L133-.L151)/2
 1728 09fd 33       		.byte	(.L134-.L151)/2
 1729 09fe 38       		.byte	(.L135-.L151)/2
 1730 09ff 3E       		.byte	(.L136-.L151)/2
 1731 0a00 44       		.byte	(.L137-.L151)/2
 1732 0a01 4A       		.byte	(.L138-.L151)/2
 1733 0a02 53       		.byte	(.L139-.L151)/2
 1734 0a03 58       		.byte	(.L140-.L151)/2
 1735 0a04 5D       		.byte	(.L141-.L151)/2
 1736 0a05 62       		.byte	(.L142-.L151)/2
 1737 0a06 67       		.byte	(.L143-.L151)/2
 1738 0a07 6C       		.byte	(.L144-.L151)/2
 1739 0a08 71       		.byte	(.L145-.L151)/2
 1740 0a09 76       		.byte	(.L146-.L151)/2
 1741 0a0a 7B       		.byte	(.L147-.L151)/2
 1742 0a0b 80       		.byte	(.L148-.L151)/2
 1743 0a0c 8A       		.byte	(.L149-.L151)/2
 1744 0a0d 94       		.byte	(.L150-.L151)/2
 1745              		.align	1
 1746              	.L129:
 262:.\src\sensors\fusion/complementary.c **** 		ComplementarySnsrFusion->IsEnabled = value;
 1747              		.loc 1 262 0
 1748 0a0e 4A4B     		ldr	r3, .L157	@ tmp206,
 1749 0a10 1B68     		ldr	r3, [r3, #0]	@ ComplementarySnsrFusion, ComplementarySnsrFusion
 1750 0a12 5971     		strb	r1, [r3, #5]	@ value, ComplementarySnsrFusion.27_3->IsEnabled
 263:.\src\sensors\fusion/complementary.c **** 		ComplementaryFilterConfig->Enabled = value;
 1751              		.loc 1 263 0
 1752 0a14 494B     		ldr	r3, .L157+4	@ tmp209,
 1753 0a16 1B68     		ldr	r3, [r3, #0]	@ ComplementaryFilterConfig, ComplementaryFilterConfig
 1754 0a18 1970     		strb	r1, [r3, #0]	@ value, ComplementaryFilterConfig.28_5->Enabled
 265:.\src\sensors\fusion/complementary.c **** 		break;
 1755              		.loc 1 265 0
 1756 0a1a 8AE0     		b	.L128	@
 1757              	.L130:
 267:.\src\sensors\fusion/complementary.c **** 		ComplementarySnsrFusion->SampleRate = value;
 1758              		.loc 1 267 0
 1759 0a1c 464B     		ldr	r3, .L157	@ tmp212,
 1760 0a1e 1B68     		ldr	r3, [r3, #0]	@ ComplementarySnsrFusion, ComplementarySnsrFusion
 1761 0a20 5973     		strb	r1, [r3, #13]	@ value, ComplementarySnsrFusion.27_6->SampleRate
 268:.\src\sensors\fusion/complementary.c **** 		ComplementaryFilterConfig->SampleRate = value;
 1762              		.loc 1 268 0
 1763 0a22 464B     		ldr	r3, .L157+4	@ tmp215,
 1764 0a24 1B68     		ldr	r3, [r3, #0]	@ ComplementaryFilterConfig, ComplementaryFilterConfig
 1765 0a26 5970     		strb	r1, [r3, #1]	@ value, ComplementaryFilterConfig.28_7->SampleRate
 269:.\src\sensors\fusion/complementary.c **** 		break;
 1766              		.loc 1 269 0
 1767 0a28 83E0     		b	.L128	@
 1768              	.L131:
 272:.\src\sensors\fusion/complementary.c **** 		ComplementaryFilterConfig->FilterOptionPitch = value;
 1769              		.loc 1 272 0
 1770 0a2a 444B     		ldr	r3, .L157+4	@ tmp218,
 1771 0a2c 1B68     		ldr	r3, [r3, #0]	@ ComplementaryFilterConfig, ComplementaryFilterConfig
ARM GAS  C:\Users\Kevin\AppData\Local\Temp\ccw18vSb.s 			page 45


 1772 0a2e 9970     		strb	r1, [r3, #2]	@ value, ComplementaryFilterConfig.28_8->FilterOptionPitch
 273:.\src\sensors\fusion/complementary.c **** 		CompFilterPitch->Filter->FilterType = value;
 1773              		.loc 1 273 0
 1774 0a30 434B     		ldr	r3, .L157+8	@ tmp220,
 1775 0a32 03E0     		b	.L152	@
 1776              	.L132:
 280:.\src\sensors\fusion/complementary.c **** 		ComplementaryFilterConfig->FilterOptionRoll = value;
 1777              		.loc 1 280 0
 1778 0a34 414B     		ldr	r3, .L157+4	@ tmp229,
 1779 0a36 1B68     		ldr	r3, [r3, #0]	@ ComplementaryFilterConfig, ComplementaryFilterConfig
 1780 0a38 D970     		strb	r1, [r3, #3]	@ value, ComplementaryFilterConfig.28_17->FilterOptionRoll
 281:.\src\sensors\fusion/complementary.c **** 		CompFilterRoll->Filter->FilterType = value;
 1781              		.loc 1 281 0
 1782 0a3a 424B     		ldr	r3, .L157+12	@ tmp231,
 1783              	.L152:
 1784 0a3c 1B68     		ldr	r3, [r3, #0]	@ CompFilterRoll.30,
 1785 0a3e D868     		ldr	r0, [r3, #12]	@ D.9509,
 1786              	.LVL98:
 282:.\src\sensors\fusion/complementary.c **** 		CompFilterRoll->Filter->IsInitialized = false;
 1787              		.loc 1 282 0
 1788 0a40 0022     		movs	r2, #0	@ tmp233,
 1789 0a42 80F83020 		strb	r2, [r0, #48]	@ tmp233,
 281:.\src\sensors\fusion/complementary.c **** 		CompFilterRoll->Filter->FilterType = value;
 1790              		.loc 1 281 0
 1791 0a46 4170     		strb	r1, [r0, #1]	@ value,
 283:.\src\sensors\fusion/complementary.c **** 		CompFilterRoll->Filter->CurrentSlot = 0;
 1792              		.loc 1 283 0
 1793 0a48 D968     		ldr	r1, [r3, #12]	@ D.9509,
 1794              	.LVL99:
 1795 0a4a 0A70     		strb	r2, [r1, #0]	@ tmp233,* D.9509
 284:.\src\sensors\fusion/complementary.c **** 		CompFilterRoll->Filter->Previous = 0.0f;
 1796              		.loc 1 284 0
 1797 0a4c DB68     		ldr	r3, [r3, #12]	@ CompFilterRoll.30_18->Filter,
 1798 0a4e 0022     		movs	r2, #0	@ tmp238,
 1799 0a50 DA62     		str	r2, [r3, #44]	@ float	@ tmp238,
 286:.\src\sensors\fusion/complementary.c **** 		break;
 1800              		.loc 1 286 0
 1801 0a52 6EE0     		b	.L128	@
 1802              	.LVL100:
 1803              	.L133:
 288:.\src\sensors\fusion/complementary.c **** 		ComplementaryFilterConfig->FilterOptionHeading = value;
 1804              		.loc 1 288 0
 1805 0a54 394B     		ldr	r3, .L157+4	@ tmp240,
 1806 0a56 1B68     		ldr	r3, [r3, #0]	@ ComplementaryFilterConfig, ComplementaryFilterConfig
 1807 0a58 1971     		strb	r1, [r3, #4]	@ value, ComplementaryFilterConfig.28_26->FilterOptionHeading
 289:.\src\sensors\fusion/complementary.c **** 		CompFilterHeading->Filter->FilterType = value;
 1808              		.loc 1 289 0
 1809 0a5a 3B4B     		ldr	r3, .L157+16	@ tmp242,
 1810 0a5c EEE7     		b	.L152	@
 1811              	.L134:
 295:.\src\sensors\fusion/complementary.c **** 		ComplementaryFilterConfig->FilterOptionAltitude = value;
 1812              		.loc 1 295 0
 1813 0a5e 374B     		ldr	r3, .L157+4	@ tmp251,
 1814 0a60 1B68     		ldr	r3, [r3, #0]	@ ComplementaryFilterConfig, ComplementaryFilterConfig
 1815 0a62 5971     		strb	r1, [r3, #5]	@ value, ComplementaryFilterConfig.28_35->FilterOptionAltitude
 296:.\src\sensors\fusion/complementary.c **** 		CompFilterAltitude->Filter->FilterType = value;
 1816              		.loc 1 296 0
ARM GAS  C:\Users\Kevin\AppData\Local\Temp\ccw18vSb.s 			page 46


 1817 0a64 394B     		ldr	r3, .L157+20	@ tmp253,
 1818 0a66 E9E7     		b	.L152	@
 1819              	.L135:
 304:.\src\sensors\fusion/complementary.c **** 		ComplementaryFilterConfig->TimeConstantPitch = value;
 1820              		.loc 1 304 0
 1821 0a68 344B     		ldr	r3, .L157+4	@ tmp262,
 1822 0a6a 1B68     		ldr	r3, [r3, #0]	@ ComplementaryFilterConfig, ComplementaryFilterConfig
 305:.\src\sensors\fusion/complementary.c **** 		__snsr_ResolveCompFilter(ComplementaryFilterConfig->TimeConstantPitch, CompFilterPitch);
 1823              		.loc 1 305 0
 1824 0a6c 0846     		mov	r0, r1	@, value
 1825              	.LVL101:
 304:.\src\sensors\fusion/complementary.c **** 		ComplementaryFilterConfig->TimeConstantPitch = value;
 1826              		.loc 1 304 0
 1827 0a6e 9971     		strb	r1, [r3, #6]	@ value, ComplementaryFilterConfig.28_44->TimeConstantPitch
 305:.\src\sensors\fusion/complementary.c **** 		__snsr_ResolveCompFilter(ComplementaryFilterConfig->TimeConstantPitch, CompFilterPitch);
 1828              		.loc 1 305 0
 1829 0a70 334B     		ldr	r3, .L157+8	@ tmp264,
 1830 0a72 10E0     		b	.L156	@
 1831              	.LVL102:
 1832              	.L136:
 308:.\src\sensors\fusion/complementary.c **** 		ComplementaryFilterConfig->TimeConstantRoll = value;
 1833              		.loc 1 308 0
 1834 0a74 314B     		ldr	r3, .L157+4	@ tmp266,
 1835 0a76 1B68     		ldr	r3, [r3, #0]	@ ComplementaryFilterConfig, ComplementaryFilterConfig
 309:.\src\sensors\fusion/complementary.c **** 		__snsr_ResolveCompFilter(ComplementaryFilterConfig->TimeConstantRoll, CompFilterRoll);
 1836              		.loc 1 309 0
 1837 0a78 0846     		mov	r0, r1	@, value
 1838              	.LVL103:
 308:.\src\sensors\fusion/complementary.c **** 		ComplementaryFilterConfig->TimeConstantRoll = value;
 1839              		.loc 1 308 0
 1840 0a7a D971     		strb	r1, [r3, #7]	@ value, ComplementaryFilterConfig.28_48->TimeConstantRoll
 309:.\src\sensors\fusion/complementary.c **** 		__snsr_ResolveCompFilter(ComplementaryFilterConfig->TimeConstantRoll, CompFilterRoll);
 1841              		.loc 1 309 0
 1842 0a7c 314B     		ldr	r3, .L157+12	@ tmp268,
 1843 0a7e 0AE0     		b	.L156	@
 1844              	.LVL104:
 1845              	.L137:
 312:.\src\sensors\fusion/complementary.c **** 		ComplementaryFilterConfig->TimeConstantHeading = value;
 1846              		.loc 1 312 0
 1847 0a80 2E4B     		ldr	r3, .L157+4	@ tmp270,
 1848 0a82 1B68     		ldr	r3, [r3, #0]	@ ComplementaryFilterConfig, ComplementaryFilterConfig
 313:.\src\sensors\fusion/complementary.c **** 		__snsr_ResolveCompFilter(ComplementaryFilterConfig->TimeConstantHeading, CompFilterHeading);
 1849              		.loc 1 313 0
 1850 0a84 0846     		mov	r0, r1	@, value
 1851              	.LVL105:
 312:.\src\sensors\fusion/complementary.c **** 		ComplementaryFilterConfig->TimeConstantHeading = value;
 1852              		.loc 1 312 0
 1853 0a86 1972     		strb	r1, [r3, #8]	@ value, ComplementaryFilterConfig.28_52->TimeConstantHeading
 313:.\src\sensors\fusion/complementary.c **** 		__snsr_ResolveCompFilter(ComplementaryFilterConfig->TimeConstantHeading, CompFilterHeading);
 1854              		.loc 1 313 0
 1855 0a88 2F4B     		ldr	r3, .L157+16	@ tmp272,
 1856 0a8a 04E0     		b	.L156	@
 1857              	.LVL106:
 1858              	.L138:
 316:.\src\sensors\fusion/complementary.c **** 		ComplementaryFilterConfig->TimeConstantAltitude = value;
 1859              		.loc 1 316 0
 1860 0a8c 2B4B     		ldr	r3, .L157+4	@ tmp274,
ARM GAS  C:\Users\Kevin\AppData\Local\Temp\ccw18vSb.s 			page 47


 1861 0a8e 1B68     		ldr	r3, [r3, #0]	@ ComplementaryFilterConfig, ComplementaryFilterConfig
 1862 0a90 5972     		strb	r1, [r3, #9]	@ value, ComplementaryFilterConfig.28_56->TimeConstantAltitude
 317:.\src\sensors\fusion/complementary.c **** 		__snsr_ResolveCompFilter(ComplementaryFilterConfig->TimeConstantAltitude, CompFilterAltitude);
 1863              		.loc 1 317 0
 1864 0a92 2E4B     		ldr	r3, .L157+20	@ tmp276,
 1865 0a94 0846     		mov	r0, r1	@, value
 1866              	.LVL107:
 1867              	.L156:
 1868 0a96 1968     		ldr	r1, [r3, #0]	@,
 1869              	.LVL108:
 1870 0a98 FFF7FEFF 		bl	__snsr_ResolveCompFilter	@
 1871              	.LVL109:
 318:.\src\sensors\fusion/complementary.c **** 		break;
 1872              		.loc 1 318 0
 1873 0a9c 49E0     		b	.L128	@
 1874              	.LVL110:
 1875              	.L139:
 324:.\src\sensors\fusion/complementary.c **** 		ComplementaryFilterConfig->Sensor1Pitch = value;
 1876              		.loc 1 324 0
 1877 0a9e 274B     		ldr	r3, .L157+4	@ tmp278,
 1878 0aa0 1B68     		ldr	r3, [r3, #0]	@ ComplementaryFilterConfig, ComplementaryFilterConfig
 1879 0aa2 9972     		strb	r1, [r3, #10]	@ value, ComplementaryFilterConfig.28_60->Sensor1Pitch
 325:.\src\sensors\fusion/complementary.c **** 		CompFilterPitch->Sensor1 = __snsr_compFilter_ResolveSensor(ComplementaryFilterConfig->Sensor1Pitc
 1880              		.loc 1 325 0
 1881 0aa4 264B     		ldr	r3, .L157+8	@ tmp280,
 1882 0aa6 2BE0     		b	.L155	@
 1883              	.L140:
 328:.\src\sensors\fusion/complementary.c **** 		ComplementaryFilterConfig->Sensor2Pitch = value;
 1884              		.loc 1 328 0
 1885 0aa8 244B     		ldr	r3, .L157+4	@ tmp282,
 1886 0aaa 1B68     		ldr	r3, [r3, #0]	@ ComplementaryFilterConfig, ComplementaryFilterConfig
 1887 0aac D972     		strb	r1, [r3, #11]	@ value, ComplementaryFilterConfig.28_65->Sensor2Pitch
 329:.\src\sensors\fusion/complementary.c **** 		CompFilterPitch->Sensor2 = __snsr_compFilter_ResolveSensor(ComplementaryFilterConfig->Sensor2Pitc
 1888              		.loc 1 329 0
 1889 0aae 244B     		ldr	r3, .L157+8	@ tmp284,
 1890 0ab0 30E0     		b	.L154	@
 1891              	.L141:
 332:.\src\sensors\fusion/complementary.c **** 		ComplementaryFilterConfig->Sensor3Pitch = value;
 1892              		.loc 1 332 0
 1893 0ab2 224B     		ldr	r3, .L157+4	@ tmp286,
 1894 0ab4 1B68     		ldr	r3, [r3, #0]	@ ComplementaryFilterConfig, ComplementaryFilterConfig
 1895 0ab6 1973     		strb	r1, [r3, #12]	@ value, ComplementaryFilterConfig.28_70->Sensor3Pitch
 333:.\src\sensors\fusion/complementary.c **** 		CompFilterPitch->Sensor3 = __snsr_compFilter_ResolveSensor(ComplementaryFilterConfig->Sensor3Pitc
 1896              		.loc 1 333 0
 1897 0ab8 214B     		ldr	r3, .L157+8	@ tmp288,
 1898 0aba 35E0     		b	.L153	@
 1899              	.L142:
 336:.\src\sensors\fusion/complementary.c **** 		ComplementaryFilterConfig->Sensor1Roll = value;
 1900              		.loc 1 336 0
 1901 0abc 1F4B     		ldr	r3, .L157+4	@ tmp290,
 1902 0abe 1B68     		ldr	r3, [r3, #0]	@ ComplementaryFilterConfig, ComplementaryFilterConfig
 1903 0ac0 5973     		strb	r1, [r3, #13]	@ value, ComplementaryFilterConfig.28_75->Sensor1Roll
 337:.\src\sensors\fusion/complementary.c **** 		CompFilterRoll->Sensor1 = __snsr_compFilter_ResolveSensor(ComplementaryFilterConfig->Sensor1Roll)
 1904              		.loc 1 337 0
 1905 0ac2 204B     		ldr	r3, .L157+12	@ tmp292,
 1906 0ac4 1CE0     		b	.L155	@
 1907              	.L143:
ARM GAS  C:\Users\Kevin\AppData\Local\Temp\ccw18vSb.s 			page 48


 340:.\src\sensors\fusion/complementary.c **** 		ComplementaryFilterConfig->Sensor2Roll = value;
 1908              		.loc 1 340 0
 1909 0ac6 1D4B     		ldr	r3, .L157+4	@ tmp294,
 1910 0ac8 1B68     		ldr	r3, [r3, #0]	@ ComplementaryFilterConfig, ComplementaryFilterConfig
 1911 0aca 9973     		strb	r1, [r3, #14]	@ value, ComplementaryFilterConfig.28_80->Sensor2Roll
 341:.\src\sensors\fusion/complementary.c **** 		CompFilterRoll->Sensor2 = __snsr_compFilter_ResolveSensor(ComplementaryFilterConfig->Sensor2Roll)
 1912              		.loc 1 341 0
 1913 0acc 1D4B     		ldr	r3, .L157+12	@ tmp296,
 1914 0ace 21E0     		b	.L154	@
 1915              	.L144:
 344:.\src\sensors\fusion/complementary.c **** 		ComplementaryFilterConfig->Sensor3Roll = value;
 1916              		.loc 1 344 0
 1917 0ad0 1A4B     		ldr	r3, .L157+4	@ tmp298,
 1918 0ad2 1B68     		ldr	r3, [r3, #0]	@ ComplementaryFilterConfig, ComplementaryFilterConfig
 1919 0ad4 D973     		strb	r1, [r3, #15]	@ value, ComplementaryFilterConfig.28_85->Sensor3Roll
 345:.\src\sensors\fusion/complementary.c **** 		CompFilterRoll->Sensor3 = __snsr_compFilter_ResolveSensor(ComplementaryFilterConfig->Sensor3Roll)
 1920              		.loc 1 345 0
 1921 0ad6 1B4B     		ldr	r3, .L157+12	@ tmp300,
 1922 0ad8 26E0     		b	.L153	@
 1923              	.L145:
 348:.\src\sensors\fusion/complementary.c **** 		ComplementaryFilterConfig->Sensor1Heading = value;
 1924              		.loc 1 348 0
 1925 0ada 184B     		ldr	r3, .L157+4	@ tmp302,
 1926 0adc 1B68     		ldr	r3, [r3, #0]	@ ComplementaryFilterConfig, ComplementaryFilterConfig
 1927 0ade 1974     		strb	r1, [r3, #16]	@ value, ComplementaryFilterConfig.28_90->Sensor1Heading
 349:.\src\sensors\fusion/complementary.c **** 		CompFilterHeading->Sensor1 = __snsr_compFilter_ResolveSensor(ComplementaryFilterConfig->Sensor1He
 1928              		.loc 1 349 0
 1929 0ae0 194B     		ldr	r3, .L157+16	@ tmp304,
 1930 0ae2 0DE0     		b	.L155	@
 1931              	.L146:
 352:.\src\sensors\fusion/complementary.c **** 		ComplementaryFilterConfig->Sensor2Heading = value;
 1932              		.loc 1 352 0
 1933 0ae4 154B     		ldr	r3, .L157+4	@ tmp306,
 1934 0ae6 1B68     		ldr	r3, [r3, #0]	@ ComplementaryFilterConfig, ComplementaryFilterConfig
 1935 0ae8 5974     		strb	r1, [r3, #17]	@ value, ComplementaryFilterConfig.28_95->Sensor2Heading
 353:.\src\sensors\fusion/complementary.c **** 		CompFilterHeading->Sensor2 = __snsr_compFilter_ResolveSensor(ComplementaryFilterConfig->Sensor2He
 1936              		.loc 1 353 0
 1937 0aea 174B     		ldr	r3, .L157+16	@ tmp308,
 1938 0aec 12E0     		b	.L154	@
 1939              	.L147:
 356:.\src\sensors\fusion/complementary.c **** 		ComplementaryFilterConfig->Sensor3Heading = value;
 1940              		.loc 1 356 0
 1941 0aee 134B     		ldr	r3, .L157+4	@ tmp310,
 1942 0af0 1B68     		ldr	r3, [r3, #0]	@ ComplementaryFilterConfig, ComplementaryFilterConfig
 1943 0af2 9974     		strb	r1, [r3, #18]	@ value, ComplementaryFilterConfig.28_100->Sensor3Heading
 357:.\src\sensors\fusion/complementary.c **** 		CompFilterHeading->Sensor3 = __snsr_compFilter_ResolveSensor(ComplementaryFilterConfig->Sensor3He
 1944              		.loc 1 357 0
 1945 0af4 144B     		ldr	r3, .L157+16	@ tmp312,
 1946 0af6 17E0     		b	.L153	@
 1947              	.L148:
 360:.\src\sensors\fusion/complementary.c **** 		ComplementaryFilterConfig->Sensor1Altitude = value;
 1948              		.loc 1 360 0
 1949 0af8 104B     		ldr	r3, .L157+4	@ tmp314,
 1950 0afa 1B68     		ldr	r3, [r3, #0]	@ ComplementaryFilterConfig, ComplementaryFilterConfig
 1951 0afc D974     		strb	r1, [r3, #19]	@ value, ComplementaryFilterConfig.28_105->Sensor1Altitude
 361:.\src\sensors\fusion/complementary.c **** 		CompFilterAltitude->Sensor1 = __snsr_compFilter_ResolveSensor(ComplementaryFilterConfig->Sensor1A
 1952              		.loc 1 361 0
ARM GAS  C:\Users\Kevin\AppData\Local\Temp\ccw18vSb.s 			page 49


 1953 0afe 134B     		ldr	r3, .L157+20	@ tmp316,
 1954              	.L155:
 1955 0b00 0846     		mov	r0, r1	@, value
 1956              	.LVL111:
 1957 0b02 1C68     		ldr	r4, [r3, #0]	@ CompFilterAltitude.32,
 1958 0b04 FFF7FEFF 		bl	__snsr_compFilter_ResolveSensor	@
 1959              	.LVL112:
 1960 0b08 2061     		str	r0, [r4, #16]	@,
 362:.\src\sensors\fusion/complementary.c **** 		break;
 1961              		.loc 1 362 0
 1962 0b0a 12E0     		b	.L128	@
 1963              	.LVL113:
 1964              	.L149:
 364:.\src\sensors\fusion/complementary.c **** 		ComplementaryFilterConfig->Sensor2Altitude = value;
 1965              		.loc 1 364 0
 1966 0b0c 0B4B     		ldr	r3, .L157+4	@ tmp318,
 1967 0b0e 1B68     		ldr	r3, [r3, #0]	@ ComplementaryFilterConfig, ComplementaryFilterConfig
 1968 0b10 1975     		strb	r1, [r3, #20]	@ value, ComplementaryFilterConfig.28_110->Sensor2Altitude
 365:.\src\sensors\fusion/complementary.c **** 		CompFilterAltitude->Sensor2 = __snsr_compFilter_ResolveSensor(ComplementaryFilterConfig->Sensor2A
 1969              		.loc 1 365 0
 1970 0b12 0E4B     		ldr	r3, .L157+20	@ tmp320,
 1971              	.L154:
 1972 0b14 0846     		mov	r0, r1	@, value
 1973              	.LVL114:
 1974 0b16 1C68     		ldr	r4, [r3, #0]	@ CompFilterAltitude.32,
 1975 0b18 FFF7FEFF 		bl	__snsr_compFilter_ResolveSensor	@
 1976              	.LVL115:
 1977 0b1c 6061     		str	r0, [r4, #20]	@,
 366:.\src\sensors\fusion/complementary.c **** 		break;
 1978              		.loc 1 366 0
 1979 0b1e 08E0     		b	.L128	@
 1980              	.LVL116:
 1981              	.L150:
 368:.\src\sensors\fusion/complementary.c **** 		ComplementaryFilterConfig->Sensor3Altitude = value;
 1982              		.loc 1 368 0
 1983 0b20 064B     		ldr	r3, .L157+4	@ tmp322,
 1984 0b22 1B68     		ldr	r3, [r3, #0]	@ ComplementaryFilterConfig, ComplementaryFilterConfig
 1985 0b24 5975     		strb	r1, [r3, #21]	@ value, ComplementaryFilterConfig.28_115->Sensor3Altitude
 369:.\src\sensors\fusion/complementary.c **** 		CompFilterAltitude->Sensor3 = __snsr_compFilter_ResolveSensor(ComplementaryFilterConfig->Sensor3A
 1986              		.loc 1 369 0
 1987 0b26 094B     		ldr	r3, .L157+20	@ tmp324,
 1988              	.L153:
 1989 0b28 0846     		mov	r0, r1	@, value
 1990              	.LVL117:
 1991 0b2a 1C68     		ldr	r4, [r3, #0]	@ CompFilterAltitude.32,
 1992 0b2c FFF7FEFF 		bl	__snsr_compFilter_ResolveSensor	@
 1993              	.LVL118:
 1994 0b30 A061     		str	r0, [r4, #24]	@,
 1995              	.L128:
 373:.\src\sensors\fusion/complementary.c **** }
 1996              		.loc 1 373 0
 1997 0b32 0020     		movs	r0, #0	@,
 1998 0b34 10BD     		pop	{r4, pc}	@
 1999              	.L158:
 2000 0b36 00BF     		.align	2
 2001              	.L157:
 2002 0b38 00000000 		.word	ComplementarySnsrFusion
ARM GAS  C:\Users\Kevin\AppData\Local\Temp\ccw18vSb.s 			page 50


 2003 0b3c 00000000 		.word	ComplementaryFilterConfig
 2004 0b40 00000000 		.word	CompFilterPitch
 2005 0b44 00000000 		.word	CompFilterRoll
 2006 0b48 00000000 		.word	CompFilterHeading
 2007 0b4c 00000000 		.word	CompFilterAltitude
 2008              		.cfi_endproc
 2009              	.LFE116:
 2010              		.size	TWB_SNSR_Complementary_UpdateSettings, .-TWB_SNSR_Complementary_UpdateSettings
 2011              		.align	1
 2012              		.global	TWB_SNSR_Complementary_SendDiag
 2013              		.thumb
 2014              		.thumb_func
 2015              		.type	TWB_SNSR_Complementary_SendDiag, %function
 2016              	TWB_SNSR_Complementary_SendDiag:
 2017              	.LFB118:
 455:.\src\sensors\fusion/complementary.c **** 
 456:.\src\sensors\fusion/complementary.c **** 
 457:.\src\sensors\fusion/complementary.c **** void TWB_SNSR_Complementary_SendDiag(void){
 2018              		.loc 1 457 0
 2019              		.cfi_startproc
 2020              		@ args = 0, pretend = 0, frame = 0
 2021              		@ frame_needed = 0, uses_anonymous_args = 0
 2022              		@ link register save eliminated.
 458:.\src\sensors\fusion/complementary.c **** 	switch(SystemStatus->SnsrState){
 2023              		.loc 1 458 0
 2024 0b50 754B     		ldr	r3, .L192	@ tmp234,
 2025 0b52 1B68     		ldr	r3, [r3, #0]	@ SystemStatus, SystemStatus
 2026 0b54 1A79     		ldrb	r2, [r3, #4]	@ zero_extendqisi2	@ SystemStatus.0_13->SnsrState, SystemStatus.0_13->SnsrState
 2027 0b56 754B     		ldr	r3, .L192+4	@ tmp396,
 2028 0b58 783A     		subs	r2, r2, #120	@ tmp236, SystemStatus.0_13->SnsrState,
 2029 0b5a 032A     		cmp	r2, #3	@ tmp236,
 2030 0b5c 00F2DA80 		bhi	.L160	@
 2031 0b60 DFE802F0 		tbb	[pc, r2]	@ tmp236
 2032              	.L165:
 2033 0b64 02       		.byte	(.L161-.L165)/2
 2034 0b65 38       		.byte	(.L162-.L165)/2
 2035 0b66 6D       		.byte	(.L163-.L165)/2
 2036 0b67 9E       		.byte	(.L164-.L165)/2
 2037              		.align	1
 2038              	.L161:
 459:.\src\sensors\fusion/complementary.c **** 		case SensorAppState_SnsrFusionPitch:
 460:.\src\sensors\fusion/complementary.c **** 			SensorFusionMsg->Combined = (int16_t)(InternalState->Pitch * 10.0f);
 2039              		.loc 1 460 0
 2040 0b68 714A     		ldr	r2, .L192+8	@ tmp239,
 2041 0b6a 1B68     		ldr	r3, [r3, #0]	@ SensorFusionMsg.1, SensorFusionMsg
 2042 0b6c 1268     		ldr	r2, [r2, #0]	@ InternalState, InternalState
 2043 0b6e 92ED007A 		flds	s14, [r2, #0]	@ InternalState.2_17->Pitch, InternalState.2_17->Pitch
 2044 0b72 F2EE047A 		fconsts	s15, #36	@ tmp242,
 2045 0b76 27EE277A 		fmuls	s14, s14, s15	@ tmp240, InternalState.2_17->Pitch, tmp242
 2046 0b7a BDEEC77A 		ftosizs	s14, s14	@, tmp240
 2047 0b7e 17EE102A 		fmrs	r2, s14	@ int	@ tmp243,
 2048 0b82 1A80     		strh	r2, [r3, #0]	@ movhi	@ tmp243, SensorFusionMsg.1_16->Combined
 461:.\src\sensors\fusion/complementary.c **** 
 462:.\src\sensors\fusion/complementary.c **** 			SensorFusionMsg->Sensor1 = ComplementaryFilterConfig->Sensor1Pitch == SensorNone ? 0 :(int16_t)(
 2049              		.loc 1 462 0
 2050 0b84 6B4A     		ldr	r2, .L192+12	@ tmp245,
 2051 0b86 1268     		ldr	r2, [r2, #0]	@ ComplementaryFilterConfig.4, ComplementaryFilterConfig
ARM GAS  C:\Users\Kevin\AppData\Local\Temp\ccw18vSb.s 			page 51


 2052 0b88 917A     		ldrb	r1, [r2, #10]	@ zero_extendqisi2	@ ComplementaryFilterConfig.4_22->Sensor1Pitch, Complementar
 2053 0b8a 51B1     		cbz	r1, .L166	@ ComplementaryFilterConfig.4_22->Sensor1Pitch,
 2054              		.loc 1 462 0 is_stmt 0 discriminator 1
 2055 0b8c 6A49     		ldr	r1, .L192+16	@ tmp248,
 2056 0b8e 0968     		ldr	r1, [r1, #0]	@ CompFilterPitch, CompFilterPitch
 2057 0b90 0969     		ldr	r1, [r1, #16]	@ CompFilterPitch.5_24->Sensor1, CompFilterPitch.5_24->Sensor1
 2058 0b92 91ED117A 		flds	s14, [r1, #68]	@ D.9294_25->X, D.9294_25->X
 2059 0b96 27EE277A 		fmuls	s14, s14, s15	@ tmp250, D.9294_25->X, tmp400
 2060 0b9a BDEEC77A 		ftosizs	s14, s14	@, tmp250
 2061 0b9e 17EE101A 		fmrs	r1, s14	@ int	@,
 2062              	.L166:
 2063              		.loc 1 462 0 discriminator 3
 2064 0ba2 5980     		strh	r1, [r3, #2]	@ movhi	@ iftmp.3, SensorFusionMsg.1_16->Sensor1
 463:.\src\sensors\fusion/complementary.c **** 			SensorFusionMsg->Sensor2 = ComplementaryFilterConfig->Sensor2Pitch == SensorNone ? 0 :(int16_t)(
 2065              		.loc 1 463 0 is_stmt 1 discriminator 3
 2066 0ba4 D17A     		ldrb	r1, [r2, #11]	@ zero_extendqisi2	@ ComplementaryFilterConfig.4_22->Sensor2Pitch, Complementar
 2067 0ba6 51B1     		cbz	r1, .L167	@ ComplementaryFilterConfig.4_22->Sensor2Pitch,
 2068              		.loc 1 463 0 is_stmt 0 discriminator 1
 2069 0ba8 6349     		ldr	r1, .L192+16	@ tmp258,
 2070 0baa 0968     		ldr	r1, [r1, #0]	@ CompFilterPitch, CompFilterPitch
 2071 0bac 4969     		ldr	r1, [r1, #20]	@ CompFilterPitch.5_33->Sensor2, CompFilterPitch.5_33->Sensor2
 2072 0bae 91ED117A 		flds	s14, [r1, #68]	@ D.9302_34->X, D.9302_34->X
 2073 0bb2 27EE277A 		fmuls	s14, s14, s15	@ tmp260, D.9302_34->X, tmp400
 2074 0bb6 BDEEC77A 		ftosizs	s14, s14	@, tmp260
 2075 0bba 17EE101A 		fmrs	r1, s14	@ int	@,
 2076              	.L167:
 464:.\src\sensors\fusion/complementary.c **** 			SensorFusionMsg->Sensor3 = ComplementaryFilterConfig->Sensor3Pitch == SensorNone ? 0 :(int16_t)(
 2077              		.loc 1 464 0 is_stmt 1 discriminator 3
 2078 0bbe 127B     		ldrb	r2, [r2, #12]	@ zero_extendqisi2	@ ComplementaryFilterConfig.4_22->Sensor3Pitch, Complementar
 463:.\src\sensors\fusion/complementary.c **** 			SensorFusionMsg->Sensor2 = ComplementaryFilterConfig->Sensor2Pitch == SensorNone ? 0 :(int16_t)(
 2079              		.loc 1 463 0 discriminator 3
 2080 0bc0 9980     		strh	r1, [r3, #4]	@ movhi	@ iftmp.6, SensorFusionMsg.1_16->Sensor2
 2081              		.loc 1 464 0 discriminator 3
 2082 0bc2 002A     		cmp	r2, #0	@ ComplementaryFilterConfig.4_22->Sensor3Pitch
 2083 0bc4 00F0A580 		beq	.L177	@
 2084              		.loc 1 464 0 is_stmt 0 discriminator 1
 2085 0bc8 5B4A     		ldr	r2, .L192+16	@ tmp268,
 2086 0bca 1268     		ldr	r2, [r2, #0]	@ CompFilterPitch, CompFilterPitch
 2087 0bcc 9269     		ldr	r2, [r2, #24]	@ CompFilterPitch.5_42->Sensor3, CompFilterPitch.5_42->Sensor3
 2088 0bce 92ED117A 		flds	s14, [r2, #68]	@ D.9310_43->X, D.9310_43->X
 2089 0bd2 98E0     		b	.L190	@
 2090              	.L162:
 465:.\src\sensors\fusion/complementary.c **** 
 466:.\src\sensors\fusion/complementary.c **** 			break;
 467:.\src\sensors\fusion/complementary.c **** 		case SensorAppState_SnsrFusionRoll:
 468:.\src\sensors\fusion/complementary.c **** 			SensorFusionMsg->Combined = (int16_t)(InternalState->Roll * 10.0f);
 2091              		.loc 1 468 0 is_stmt 1
 2092 0bd4 564A     		ldr	r2, .L192+8	@ tmp278,
 2093 0bd6 1B68     		ldr	r3, [r3, #0]	@ SensorFusionMsg.1, SensorFusionMsg
 2094 0bd8 1268     		ldr	r2, [r2, #0]	@ InternalState, InternalState
 2095 0bda 92ED017A 		flds	s14, [r2, #4]	@ InternalState.2_49->Roll, InternalState.2_49->Roll
 2096 0bde F2EE047A 		fconsts	s15, #36	@ tmp281,
 2097 0be2 27EE277A 		fmuls	s14, s14, s15	@ tmp279, InternalState.2_49->Roll, tmp281
 2098 0be6 BDEEC77A 		ftosizs	s14, s14	@, tmp279
 2099 0bea 17EE102A 		fmrs	r2, s14	@ int	@ tmp282,
 2100 0bee 1A80     		strh	r2, [r3, #0]	@ movhi	@ tmp282, SensorFusionMsg.1_48->Combined
 469:.\src\sensors\fusion/complementary.c **** 
ARM GAS  C:\Users\Kevin\AppData\Local\Temp\ccw18vSb.s 			page 52


 470:.\src\sensors\fusion/complementary.c **** 			SensorFusionMsg->Sensor1 = ComplementaryFilterConfig->Sensor1Roll == SensorNone ? 0 : (int16_t)(
 2101              		.loc 1 470 0
 2102 0bf0 504A     		ldr	r2, .L192+12	@ tmp284,
 2103 0bf2 1268     		ldr	r2, [r2, #0]	@ ComplementaryFilterConfig.4, ComplementaryFilterConfig
 2104 0bf4 517B     		ldrb	r1, [r2, #13]	@ zero_extendqisi2	@ ComplementaryFilterConfig.4_54->Sensor1Roll, Complementary
 2105 0bf6 51B1     		cbz	r1, .L169	@ ComplementaryFilterConfig.4_54->Sensor1Roll,
 2106              		.loc 1 470 0 is_stmt 0 discriminator 1
 2107 0bf8 5049     		ldr	r1, .L192+20	@ tmp287,
 2108 0bfa 0968     		ldr	r1, [r1, #0]	@ CompFilterRoll, CompFilterRoll
 2109 0bfc 0969     		ldr	r1, [r1, #16]	@ CompFilterRoll.9_56->Sensor1, CompFilterRoll.9_56->Sensor1
 2110 0bfe 91ED127A 		flds	s14, [r1, #72]	@ D.9322_57->Y, D.9322_57->Y
 2111 0c02 27EE277A 		fmuls	s14, s14, s15	@ tmp289, D.9322_57->Y, tmp399
 2112 0c06 BDEEC77A 		ftosizs	s14, s14	@, tmp289
 2113 0c0a 17EE101A 		fmrs	r1, s14	@ int	@,
 2114              	.L169:
 2115              		.loc 1 470 0 discriminator 3
 2116 0c0e 5980     		strh	r1, [r3, #2]	@ movhi	@ iftmp.8, SensorFusionMsg.1_48->Sensor1
 471:.\src\sensors\fusion/complementary.c **** 			SensorFusionMsg->Sensor2 = ComplementaryFilterConfig->Sensor2Roll == SensorNone ? 0 : (int16_t)(
 2117              		.loc 1 471 0 is_stmt 1 discriminator 3
 2118 0c10 917B     		ldrb	r1, [r2, #14]	@ zero_extendqisi2	@ ComplementaryFilterConfig.4_54->Sensor2Roll, Complementary
 2119 0c12 51B1     		cbz	r1, .L170	@ ComplementaryFilterConfig.4_54->Sensor2Roll,
 2120              		.loc 1 471 0 is_stmt 0 discriminator 1
 2121 0c14 4949     		ldr	r1, .L192+20	@ tmp297,
 2122 0c16 0968     		ldr	r1, [r1, #0]	@ CompFilterRoll, CompFilterRoll
 2123 0c18 4969     		ldr	r1, [r1, #20]	@ CompFilterRoll.9_65->Sensor2, CompFilterRoll.9_65->Sensor2
 2124 0c1a 91ED127A 		flds	s14, [r1, #72]	@ D.9330_66->Y, D.9330_66->Y
 2125 0c1e 27EE277A 		fmuls	s14, s14, s15	@ tmp299, D.9330_66->Y, tmp399
 2126 0c22 BDEEC77A 		ftosizs	s14, s14	@, tmp299
 2127 0c26 17EE101A 		fmrs	r1, s14	@ int	@,
 2128              	.L170:
 472:.\src\sensors\fusion/complementary.c **** 			SensorFusionMsg->Sensor3 = ComplementaryFilterConfig->Sensor3Roll == SensorNone ? 0 : (int16_t)(
 2129              		.loc 1 472 0 is_stmt 1 discriminator 3
 2130 0c2a D27B     		ldrb	r2, [r2, #15]	@ zero_extendqisi2	@ ComplementaryFilterConfig.4_54->Sensor3Roll, Complementary
 471:.\src\sensors\fusion/complementary.c **** 			SensorFusionMsg->Sensor2 = ComplementaryFilterConfig->Sensor2Roll == SensorNone ? 0 : (int16_t)(
 2131              		.loc 1 471 0 discriminator 3
 2132 0c2c 9980     		strh	r1, [r3, #4]	@ movhi	@ iftmp.10, SensorFusionMsg.1_48->Sensor2
 2133              		.loc 1 472 0 discriminator 3
 2134 0c2e 002A     		cmp	r2, #0	@ ComplementaryFilterConfig.4_54->Sensor3Roll
 2135 0c30 6FD0     		beq	.L177	@
 2136              		.loc 1 472 0 is_stmt 0 discriminator 1
 2137 0c32 424A     		ldr	r2, .L192+20	@ tmp307,
 2138 0c34 1268     		ldr	r2, [r2, #0]	@ CompFilterRoll, CompFilterRoll
 2139 0c36 9269     		ldr	r2, [r2, #24]	@ CompFilterRoll.9_74->Sensor3, CompFilterRoll.9_74->Sensor3
 2140 0c38 92ED127A 		flds	s14, [r2, #72]	@ D.9338_75->Y, D.9338_75->Y
 2141 0c3c 63E0     		b	.L190	@
 2142              	.L163:
 473:.\src\sensors\fusion/complementary.c **** 
 474:.\src\sensors\fusion/complementary.c **** 			break;
 475:.\src\sensors\fusion/complementary.c **** 		case SensorAppState_SnsrFusionHeading:
 476:.\src\sensors\fusion/complementary.c **** 			SensorFusionMsg->Combined = (int16_t)(InternalState->Heading * 10.0f);
 2143              		.loc 1 476 0 is_stmt 1
 2144 0c3e 3C4A     		ldr	r2, .L192+8	@ tmp317,
 2145 0c40 1B68     		ldr	r3, [r3, #0]	@ SensorFusionMsg.1, SensorFusionMsg
 2146 0c42 1268     		ldr	r2, [r2, #0]	@ InternalState, InternalState
 2147 0c44 92ED027A 		flds	s14, [r2, #8]	@ InternalState.2_81->Heading, InternalState.2_81->Heading
 2148 0c48 F2EE047A 		fconsts	s15, #36	@ tmp320,
 2149 0c4c 27EE277A 		fmuls	s14, s14, s15	@ tmp318, InternalState.2_81->Heading, tmp320
ARM GAS  C:\Users\Kevin\AppData\Local\Temp\ccw18vSb.s 			page 53


 2150 0c50 BDEEC77A 		ftosizs	s14, s14	@, tmp318
 2151 0c54 17EE102A 		fmrs	r2, s14	@ int	@ tmp321,
 2152 0c58 1A80     		strh	r2, [r3, #0]	@ movhi	@ tmp321, SensorFusionMsg.1_80->Combined
 477:.\src\sensors\fusion/complementary.c **** 
 478:.\src\sensors\fusion/complementary.c **** 			SensorFusionMsg->Sensor1 = ComplementaryFilterConfig->Sensor1Heading == SensorNone ? 0 : (int16_
 2153              		.loc 1 478 0
 2154 0c5a 364A     		ldr	r2, .L192+12	@ tmp323,
 2155 0c5c 1268     		ldr	r2, [r2, #0]	@ ComplementaryFilterConfig.4, ComplementaryFilterConfig
 2156 0c5e 117C     		ldrb	r1, [r2, #16]	@ zero_extendqisi2	@ ComplementaryFilterConfig.4_86->Sensor1Heading, Complement
 2157 0c60 51B1     		cbz	r1, .L172	@ ComplementaryFilterConfig.4_86->Sensor1Heading,
 2158              		.loc 1 478 0 is_stmt 0 discriminator 1
 2159 0c62 3749     		ldr	r1, .L192+24	@ tmp326,
 2160 0c64 0968     		ldr	r1, [r1, #0]	@ CompFilterHeading, CompFilterHeading
 2161 0c66 0969     		ldr	r1, [r1, #16]	@ CompFilterHeading.13_88->Sensor1, CompFilterHeading.13_88->Sensor1
 2162 0c68 91ED137A 		flds	s14, [r1, #76]	@ D.9350_89->Z, D.9350_89->Z
 2163 0c6c 27EE277A 		fmuls	s14, s14, s15	@ tmp328, D.9350_89->Z, tmp398
 2164 0c70 BDEEC77A 		ftosizs	s14, s14	@, tmp328
 2165 0c74 17EE101A 		fmrs	r1, s14	@ int	@,
 2166              	.L172:
 2167              		.loc 1 478 0 discriminator 3
 2168 0c78 5980     		strh	r1, [r3, #2]	@ movhi	@ iftmp.12, SensorFusionMsg.1_80->Sensor1
 479:.\src\sensors\fusion/complementary.c **** 			SensorFusionMsg->Sensor2 = ComplementaryFilterConfig->Sensor2Heading == SensorNone ? 0 : (int16_
 2169              		.loc 1 479 0 is_stmt 1 discriminator 3
 2170 0c7a 517C     		ldrb	r1, [r2, #17]	@ zero_extendqisi2	@ ComplementaryFilterConfig.4_86->Sensor2Heading, Complement
 2171 0c7c 51B1     		cbz	r1, .L173	@ ComplementaryFilterConfig.4_86->Sensor2Heading,
 2172              		.loc 1 479 0 is_stmt 0 discriminator 1
 2173 0c7e 3049     		ldr	r1, .L192+24	@ tmp336,
 2174 0c80 0968     		ldr	r1, [r1, #0]	@ CompFilterHeading, CompFilterHeading
 2175 0c82 4969     		ldr	r1, [r1, #20]	@ CompFilterHeading.13_97->Sensor2, CompFilterHeading.13_97->Sensor2
 2176 0c84 91ED137A 		flds	s14, [r1, #76]	@ D.9358_98->Z, D.9358_98->Z
 2177 0c88 27EE277A 		fmuls	s14, s14, s15	@ tmp338, D.9358_98->Z, tmp398
 2178 0c8c BDEEC77A 		ftosizs	s14, s14	@, tmp338
 2179 0c90 17EE101A 		fmrs	r1, s14	@ int	@,
 2180              	.L173:
 480:.\src\sensors\fusion/complementary.c **** 			SensorFusionMsg->Sensor3 = ComplementaryFilterConfig->Sensor3Heading == SensorNone ? 0 : (int16_
 2181              		.loc 1 480 0 is_stmt 1 discriminator 3
 2182 0c94 927C     		ldrb	r2, [r2, #18]	@ zero_extendqisi2	@ ComplementaryFilterConfig.4_86->Sensor3Heading, Complement
 479:.\src\sensors\fusion/complementary.c **** 			SensorFusionMsg->Sensor2 = ComplementaryFilterConfig->Sensor2Heading == SensorNone ? 0 : (int16_
 2183              		.loc 1 479 0 discriminator 3
 2184 0c96 9980     		strh	r1, [r3, #4]	@ movhi	@ iftmp.14, SensorFusionMsg.1_80->Sensor2
 2185              		.loc 1 480 0 discriminator 3
 2186 0c98 002A     		cmp	r2, #0	@ ComplementaryFilterConfig.4_86->Sensor3Heading
 2187 0c9a 3AD0     		beq	.L177	@
 2188              		.loc 1 480 0 is_stmt 0 discriminator 1
 2189 0c9c 284A     		ldr	r2, .L192+24	@ tmp346,
 2190 0c9e 2EE0     		b	.L191	@
 2191              	.L164:
 481:.\src\sensors\fusion/complementary.c **** 
 482:.\src\sensors\fusion/complementary.c **** 			break;
 483:.\src\sensors\fusion/complementary.c **** 		case SensorAppState_SnsrFusionAltitude:
 484:.\src\sensors\fusion/complementary.c **** 			SensorFusionMsg->Combined = (int16_t)(InternalState->AltitudeM * 10.0f);
 2192              		.loc 1 484 0 is_stmt 1
 2193 0ca0 234A     		ldr	r2, .L192+8	@ tmp356,
 2194 0ca2 1B68     		ldr	r3, [r3, #0]	@ SensorFusionMsg.1, SensorFusionMsg
 2195 0ca4 1268     		ldr	r2, [r2, #0]	@ InternalState, InternalState
 2196 0ca6 92ED037A 		flds	s14, [r2, #12]	@ InternalState.2_113->AltitudeM, InternalState.2_113->AltitudeM
 2197 0caa F2EE047A 		fconsts	s15, #36	@ tmp359,
ARM GAS  C:\Users\Kevin\AppData\Local\Temp\ccw18vSb.s 			page 54


 2198 0cae 27EE277A 		fmuls	s14, s14, s15	@ tmp357, InternalState.2_113->AltitudeM, tmp359
 2199 0cb2 BDEEC77A 		ftosizs	s14, s14	@, tmp357
 2200 0cb6 17EE102A 		fmrs	r2, s14	@ int	@ tmp360,
 2201 0cba 1A80     		strh	r2, [r3, #0]	@ movhi	@ tmp360, SensorFusionMsg.1_112->Combined
 485:.\src\sensors\fusion/complementary.c **** 
 486:.\src\sensors\fusion/complementary.c **** 			SensorFusionMsg->Sensor1 = ComplementaryFilterConfig->Sensor1Altitude == SensorNone ? 0 : (int16
 2202              		.loc 1 486 0
 2203 0cbc 1D4A     		ldr	r2, .L192+12	@ tmp362,
 2204 0cbe 1268     		ldr	r2, [r2, #0]	@ ComplementaryFilterConfig.4, ComplementaryFilterConfig
 2205 0cc0 D17C     		ldrb	r1, [r2, #19]	@ zero_extendqisi2	@ ComplementaryFilterConfig.4_118->Sensor1Altitude, Compleme
 2206 0cc2 51B1     		cbz	r1, .L175	@ ComplementaryFilterConfig.4_118->Sensor1Altitude,
 2207              		.loc 1 486 0 is_stmt 0 discriminator 1
 2208 0cc4 1F49     		ldr	r1, .L192+28	@ tmp365,
 2209 0cc6 0968     		ldr	r1, [r1, #0]	@ CompFilterAltitude, CompFilterAltitude
 2210 0cc8 0969     		ldr	r1, [r1, #16]	@ CompFilterAltitude.17_120->Sensor1, CompFilterAltitude.17_120->Sensor1
 2211 0cca 91ED137A 		flds	s14, [r1, #76]	@ D.9378_121->Z, D.9378_121->Z
 2212 0cce 27EE277A 		fmuls	s14, s14, s15	@ tmp367, D.9378_121->Z, tmp397
 2213 0cd2 BDEEC77A 		ftosizs	s14, s14	@, tmp367
 2214 0cd6 17EE101A 		fmrs	r1, s14	@ int	@,
 2215              	.L175:
 2216              		.loc 1 486 0 discriminator 3
 2217 0cda 5980     		strh	r1, [r3, #2]	@ movhi	@ iftmp.16, SensorFusionMsg.1_112->Sensor1
 487:.\src\sensors\fusion/complementary.c **** 			SensorFusionMsg->Sensor2 = ComplementaryFilterConfig->Sensor2Altitude == SensorNone ? 0 : (int16
 2218              		.loc 1 487 0 is_stmt 1 discriminator 3
 2219 0cdc 117D     		ldrb	r1, [r2, #20]	@ zero_extendqisi2	@ ComplementaryFilterConfig.4_118->Sensor2Altitude, Compleme
 2220 0cde 51B1     		cbz	r1, .L176	@ ComplementaryFilterConfig.4_118->Sensor2Altitude,
 2221              		.loc 1 487 0 is_stmt 0 discriminator 1
 2222 0ce0 1849     		ldr	r1, .L192+28	@ tmp375,
 2223 0ce2 0968     		ldr	r1, [r1, #0]	@ CompFilterAltitude, CompFilterAltitude
 2224 0ce4 4969     		ldr	r1, [r1, #20]	@ CompFilterAltitude.17_129->Sensor2, CompFilterAltitude.17_129->Sensor2
 2225 0ce6 91ED137A 		flds	s14, [r1, #76]	@ D.9386_130->Z, D.9386_130->Z
 2226 0cea 27EE277A 		fmuls	s14, s14, s15	@ tmp377, D.9386_130->Z, tmp397
 2227 0cee BDEEC77A 		ftosizs	s14, s14	@, tmp377
 2228 0cf2 17EE101A 		fmrs	r1, s14	@ int	@,
 2229              	.L176:
 488:.\src\sensors\fusion/complementary.c **** 			SensorFusionMsg->Sensor3 = ComplementaryFilterConfig->Sensor3Altitude == SensorNone ? 0 : (int16
 2230              		.loc 1 488 0 is_stmt 1 discriminator 3
 2231 0cf6 527D     		ldrb	r2, [r2, #21]	@ zero_extendqisi2	@ ComplementaryFilterConfig.4_118->Sensor3Altitude, Compleme
 487:.\src\sensors\fusion/complementary.c **** 			SensorFusionMsg->Sensor2 = ComplementaryFilterConfig->Sensor2Altitude == SensorNone ? 0 : (int16
 2232              		.loc 1 487 0 discriminator 3
 2233 0cf8 9980     		strh	r1, [r3, #4]	@ movhi	@ iftmp.18, SensorFusionMsg.1_112->Sensor2
 2234              		.loc 1 488 0 discriminator 3
 2235 0cfa 52B1     		cbz	r2, .L177	@ ComplementaryFilterConfig.4_118->Sensor3Altitude,
 2236              		.loc 1 488 0 is_stmt 0 discriminator 1
 2237 0cfc 114A     		ldr	r2, .L192+28	@ tmp385,
 2238              	.L191:
 2239 0cfe 1268     		ldr	r2, [r2, #0]	@ CompFilterAltitude,
 2240 0d00 9269     		ldr	r2, [r2, #24]	@ CompFilterAltitude.17_138->Sensor3,
 2241 0d02 92ED137A 		flds	s14, [r2, #76]	@ D.9394_139->Z,
 2242              	.L190:
 2243 0d06 67EE277A 		fmuls	s15, s14, s15	@ tmp387, D.9394_139->Z, tmp397
 2244 0d0a FDEEE77A 		ftosizs	s15, s15	@, tmp387
 2245 0d0e 17EE902A 		fmrs	r2, s15	@ int	@,
 2246              	.L177:
 2247              		.loc 1 488 0 discriminator 3
 2248 0d12 DA80     		strh	r2, [r3, #6]	@ movhi	@ iftmp.19,
 2249              	.L160:
ARM GAS  C:\Users\Kevin\AppData\Local\Temp\ccw18vSb.s 			page 55


 489:.\src\sensors\fusion/complementary.c **** 			break;
 490:.\src\sensors\fusion/complementary.c **** 		default: break;
 491:.\src\sensors\fusion/complementary.c **** 	}
 492:.\src\sensors\fusion/complementary.c **** 
 493:.\src\sensors\fusion/complementary.c **** 
 494:.\src\sensors\fusion/complementary.c **** 	SensorFusionMsg->DeviceType = SnsrFusionComplementary;
 2250              		.loc 1 494 0 is_stmt 1
 2251 0d14 054B     		ldr	r3, .L192+4	@ tmp393,
 2252 0d16 1A68     		ldr	r2, [r3, #0]	@ SensorFusionMsg.1, SensorFusionMsg
 2253 0d18 8023     		movs	r3, #128	@ tmp394,
 2254 0d1a 1372     		strb	r3, [r2, #8]	@ tmp394, SensorFusionMsg.1_144->DeviceType
 495:.\src\sensors\fusion/complementary.c **** 
 496:.\src\sensors\fusion/complementary.c **** 	TWB_Commo_SendMessage(MOD_Sensor, MSG_SnsrFusion, (uint8_t *)SensorFusionMsg, sizeof(SensorFusionM
 2255              		.loc 1 496 0
 2256 0d1c 4620     		movs	r0, #70	@,
 2257 0d1e 3321     		movs	r1, #51	@,
 2258 0d20 0A23     		movs	r3, #10	@,
 497:.\src\sensors\fusion/complementary.c **** }
 2259              		.loc 1 497 0
 496:.\src\sensors\fusion/complementary.c **** 	TWB_Commo_SendMessage(MOD_Sensor, MSG_SnsrFusion, (uint8_t *)SensorFusionMsg, sizeof(SensorFusionM
 2260              		.loc 1 496 0
 2261 0d22 FFF7FEBF 		b	TWB_Commo_SendMessage	@
 2262              	.LVL119:
 2263              	.L193:
 2264 0d26 00BF     		.align	2
 2265              	.L192:
 2266 0d28 00000000 		.word	SystemStatus
 2267 0d2c 00000000 		.word	SensorFusionMsg
 2268 0d30 00000000 		.word	InternalState
 2269 0d34 00000000 		.word	ComplementaryFilterConfig
 2270 0d38 00000000 		.word	CompFilterPitch
 2271 0d3c 00000000 		.word	CompFilterRoll
 2272 0d40 00000000 		.word	CompFilterHeading
 2273 0d44 00000000 		.word	CompFilterAltitude
 2274              		.cfi_endproc
 2275              	.LFE118:
 2276              		.size	TWB_SNSR_Complementary_SendDiag, .-TWB_SNSR_Complementary_SendDiag
 2277              		.comm	CompFilterAltitude,4,4
 2278              		.comm	CompFilterHeading,4,4
 2279              		.comm	CompFilterRoll,4,4
 2280              		.comm	CompFilterPitch,4,4
 2281              		.comm	SensorFusionMsg,4,4
 2282              		.comm	ComplementaryFilterConfig,4,4
 2283              		.comm	I2CZeroJob,4,4
 2284              		.section	.rodata
 2285              		.align	2
 2286              		.set	.LANCHOR0,. + 0
 2287              		.type	CSWTCH.60, %object
 2288              		.size	CSWTCH.60, 76
 2289              	CSWTCH.60:
 2290 0000 0000803F 		.word	1065353216
 2291 0004 6666663F 		.word	1063675494
 2292 0008 CDCC4C3F 		.word	1061997773
 2293 000c 3333333F 		.word	1060320051
 2294 0010 9A99193F 		.word	1058642330
 2295 0014 0000003F 		.word	1056964608
 2296 0018 CDCCCC3E 		.word	1053609165
ARM GAS  C:\Users\Kevin\AppData\Local\Temp\ccw18vSb.s 			page 56


 2297 001c 9A99993E 		.word	1050253722
 2298 0020 CDCC4C3E 		.word	1045220557
 2299 0024 9A99193E 		.word	1041865114
 2300 0028 CDCCCC3D 		.word	1036831949
 2301 002c CDCC4C3D 		.word	1028443341
 2302 0030 CDCCCC3C 		.word	1020054733
 2303 0034 0AD7A33C 		.word	1017370378
 2304 0038 8FC2753C 		.word	1014350479
 2305 003c 0AD7233C 		.word	1008981770
 2306 0040 0AD7A33B 		.word	1000593162
 2307 0044 6F12033B 		.word	990057071
 2308 0048 6F12833A 		.word	981668463
 2309              		.text
 2310              	.Letext0:
 2311              		.file 2 "k:\\electronics\\gcc\\bin\\../lib/gcc/arm-none-eabi/4.7.2/../../../../arm-none-eabi/inclu
 2312              		.file 3 ".\\inc/twb_config.h"
 2313              		.file 4 ".\\inc/common/twb_common.h"
 2314              		.file 5 ".\\inc/filters/filter.h"
 2315              		.file 6 ".\\inc/common/twb_i2c.h"
 2316              		.file 7 ".\\inc/commo/message_ids.h"
 2317              		.file 8 ".\\inc/sensors/snsr_main.h"
 2318              		.file 9 ".\\inc/sensors/fusion/complementary.h"
 2319              		.file 10 ".\\inc/core_cm4.h"
 2320              		.file 11 ".\\inc/flight/autopilot.h"
 2321              		.file 12 ".\\inc/common/twb_timer.h"
 2322              		.file 13 ".\\inc/common/twb_serial_eeprom.h"
 2323              		.file 14 ".\\inc/common/memory_mgmt.h"
 2324              		.file 15 ".\\inc/commo/commo.h"