ARM GAS  C:\Users\Kevin\AppData\Local\Temp\ccw18vSb.s 			page 1


   1              		.syntax unified
   2              		.cpu cortex-m4
   3              		.eabi_attribute 27, 3	@ Tag_ABI_HardFP_use
   4              		.eabi_attribute 28, 1	@ Tag_ABI_VFP_args
   5              		.fpu fpv4-sp-d16
   6              		.eabi_attribute 20, 1	@ Tag_ABI_FP_denormal
   7              		.eabi_attribute 21, 1	@ Tag_ABI_FP_exceptions
   8              		.eabi_attribute 23, 3	@ Tag_ABI_FP_number_model
   9              		.eabi_attribute 24, 1	@ Tag_ABI_align8_needed
  10              		.eabi_attribute 25, 1	@ Tag_ABI_align8_preserved
  11              		.eabi_attribute 26, 1	@ Tag_ABI_enum_size
  12              		.eabi_attribute 30, 4	@ Tag_ABI_optimization_goals
  13              		.eabi_attribute 34, 1	@ Tag_CPU_unaligned_access
  14              		.eabi_attribute 18, 4	@ Tag_ABI_PCS_wchar_t
  15              		.file	"complementary.c"
  16              	@ GNU C (Sourcery CodeBench Lite 2012.09-63) version 4.7.2 (arm-none-eabi)
  17              	@	compiled by GNU C version 4.3.2, GMP version 5.0.5, MPFR version 3.1.1-p2, MPC version 1.0.1
  18              	@ GGC heuristics: --param ggc-min-expand=100 --param ggc-min-heapsize=131072
  19              	@ options passed:  -I . -I \STMSPINCDDIR -I .\stm32f4periph\inc
  20              	@ -I .\CMSIS\Include -I .\inc\commo\usb -I .\inc\commo -I .\inc\common
  21              	@ -I .\inc -imultilib thumb2
  22              	@ -iprefix k:\electronics\gcc\bin\../lib/gcc/arm-none-eabi/4.7.2/
  23              	@ -isysroot k:\electronics\gcc\bin\../arm-none-eabi
  24              	@ -MD .\src\sensors\fusion\complementary.d -MF .dep\complementary.o.d -MP
  25              	@ -MQ .\src\sensors\fusion\complementary.o -D__USES_INITFINI__ -D STM32F0XX
  26              	@ -D USE_STDPERIPH_DRIVER -D RUN_FROM_FLASH=1
  27              	@ -D __CS_SOURCERYGXX_MAJ__=2012 -D __CS_SOURCERYGXX_MIN__=9
  28              	@ -D __CS_SOURCERYGXX_REV__=63 .\src\sensors\fusion\complementary.c
  29              	@ -mcpu=cortex-m4 -mfpu=fpv4-sp-d16 -mfloat-abi=hard -mthumb
  30              	@ -auxbase-strip .\src\sensors\fusion\complementary.o -gdwarf-2 -Os -Wall
  31              	@ -Wstrict-prototypes -std=gnu99 -fomit-frame-pointer -fverbose-asm
  32              	@ options enabled:  -fauto-inc-dec -fbranch-count-reg -fcaller-saves
  33              	@ -fcombine-stack-adjustments -fcommon -fcompare-elim -fcprop-registers
  34              	@ -fcrossjumping -fcse-follow-jumps -fdebug-types-section -fdefer-pop
  35              	@ -fdelete-null-pointer-checks -fdevirtualize -fdwarf2-cfi-asm
  36              	@ -fearly-inlining -feliminate-unused-debug-types -fexpensive-optimizations
  37              	@ -fextension-elimination -fforward-propagate -ffunction-cse -fgcse
  38              	@ -fgcse-lm -fgnu-runtime -fguess-branch-probability -fident
  39              	@ -fif-conversion -fif-conversion2 -findirect-inlining -finline
  40              	@ -finline-atomics -finline-functions -finline-functions-called-once
  41              	@ -finline-small-functions -fipa-cp -fipa-profile -fipa-pure-const
  42              	@ -fipa-reference -fipa-sra -fira-share-save-slots -fira-share-spill-slots
  43              	@ -fivopts -fkeep-static-consts -fleading-underscore -fmath-errno
  44              	@ -fmerge-constants -fmerge-debug-strings -fmove-loop-invariants
  45              	@ -fomit-frame-pointer -foptimize-register-move -foptimize-sibling-calls
  46              	@ -fpartial-inlining -fpeephole -fpeephole2 -fprefetch-loop-arrays
  47              	@ -freg-struct-return -fregmove -freorder-blocks -freorder-functions
  48              	@ -frerun-cse-after-loop -fsched-critical-path-heuristic
  49              	@ -fsched-dep-count-heuristic -fsched-group-heuristic -fsched-interblock
  50              	@ -fsched-last-insn-heuristic -fsched-rank-heuristic -fsched-spec
  51              	@ -fsched-spec-insn-heuristic -fsched-stalled-insns-dep -fschedule-insns2
  52              	@ -fsection-anchors -fshow-column -fshrink-wrap -fsigned-zeros
  53              	@ -fsplit-ivs-in-unroller -fsplit-wide-types -fstrict-aliasing
  54              	@ -fstrict-overflow -fstrict-volatile-bitfields -fthread-jumps
  55              	@ -ftoplevel-reorder -ftrapping-math -ftree-bit-ccp -ftree-builtin-call-dce
  56              	@ -ftree-ccp -ftree-ch -ftree-copy-prop -ftree-copyrename -ftree-cselim
  57              	@ -ftree-dce -ftree-dominator-opts -ftree-dse -ftree-forwprop -ftree-fre
ARM GAS  C:\Users\Kevin\AppData\Local\Temp\ccw18vSb.s 			page 2


  58              	@ -ftree-if-to-switch-conversion -ftree-loop-if-convert -ftree-loop-im
  59              	@ -ftree-loop-ivcanon -ftree-loop-optimize -ftree-parallelize-loops=
  60              	@ -ftree-phiprop -ftree-pre -ftree-pta -ftree-reassoc -ftree-scev-cprop
  61              	@ -ftree-sink -ftree-slp-vectorize -ftree-sra -ftree-switch-conversion
  62              	@ -ftree-tail-merge -ftree-ter -ftree-vect-loop-version -ftree-vrp
  63              	@ -funit-at-a-time -fvar-tracking -fvar-tracking-assignments -fverbose-asm
  64              	@ -fzero-initialized-in-bss -mlittle-endian -msched-prolog -mthumb
  65              	@ -munaligned-access -mvectorize-with-neon-quad
  66              	
  67              		.text
  68              	.Ltext0:
  69              		.cfi_sections	.debug_frame
  70              		.align	1
  71              		.global	TWB_SNSR_Complementary_Process
  72              		.thumb
  73              		.thumb_func
  74              		.type	TWB_SNSR_Complementary_Process, %function
  75              	TWB_SNSR_Complementary_Process:
  76              	.LFB117:
  77              		.file 1 ".\\src\\sensors\\fusion\\complementary.c"
   1:.\src\sensors\fusion/complementary.c **** /*
   2:.\src\sensors\fusion/complementary.c ****  * complementary.c
   3:.\src\sensors\fusion/complementary.c ****  *
   4:.\src\sensors\fusion/complementary.c ****  *  Created on: Jan 4, 2013
   5:.\src\sensors\fusion/complementary.c ****  *      Author: kevinw
   6:.\src\sensors\fusion/complementary.c ****  */
   7:.\src\sensors\fusion/complementary.c **** 
   8:.\src\sensors\fusion/complementary.c **** #include "sensors/fusion/complementary.h"
   9:.\src\sensors\fusion/complementary.c **** #include "common/twb_serial_eeprom.h"
  10:.\src\sensors\fusion/complementary.c **** #include "twb_eeprom.h"
  11:.\src\sensors\fusion/complementary.c **** #include "common/twb_debug.h"
  12:.\src\sensors\fusion/complementary.c **** #include "common/memory_mgmt.h"
  13:.\src\sensors\fusion/complementary.c **** #include "sensors/GPS.h"
  14:.\src\sensors\fusion/complementary.c **** #include "flight/autopilot.h"
  15:.\src\sensors\fusion/complementary.c **** 
  16:.\src\sensors\fusion/complementary.c **** SensorFusion_t *ComplementaryFilterConfig;
  17:.\src\sensors\fusion/complementary.c **** 
  18:.\src\sensors\fusion/complementary.c **** typedef struct {
  19:.\src\sensors\fusion/complementary.c **** 	int16_t Combined;
  20:.\src\sensors\fusion/complementary.c **** 	int16_t Sensor1;
  21:.\src\sensors\fusion/complementary.c **** 	int16_t Sensor2;
  22:.\src\sensors\fusion/complementary.c **** 	int16_t Sensor3;
  23:.\src\sensors\fusion/complementary.c **** 
  24:.\src\sensors\fusion/complementary.c **** 	SensorDevice_e DeviceType;
  25:.\src\sensors\fusion/complementary.c **** 
  26:.\src\sensors\fusion/complementary.c **** } SensorFusionMsg_t;
  27:.\src\sensors\fusion/complementary.c **** 
  28:.\src\sensors\fusion/complementary.c **** SensorFusionMsg_t *SensorFusionMsg;
  29:.\src\sensors\fusion/complementary.c **** 
  30:.\src\sensors\fusion/complementary.c **** CompFilter_t *CompFilterPitch;
  31:.\src\sensors\fusion/complementary.c **** CompFilter_t *CompFilterRoll;
  32:.\src\sensors\fusion/complementary.c **** CompFilter_t *CompFilterHeading;
  33:.\src\sensors\fusion/complementary.c **** CompFilter_t *CompFilterAltitude;
  34:.\src\sensors\fusion/complementary.c **** 
  35:.\src\sensors\fusion/complementary.c **** void __snsr_ResolveCompFilter(CompFilterValues_t value, CompFilter_t *filterSettings){
  36:.\src\sensors\fusion/complementary.c **** 	float timeConstant = 0.0f;
  37:.\src\sensors\fusion/complementary.c **** 
ARM GAS  C:\Users\Kevin\AppData\Local\Temp\ccw18vSb.s 			page 3


  38:.\src\sensors\fusion/complementary.c **** 	switch(value){
  39:.\src\sensors\fusion/complementary.c **** 		case CompFilter_1sec: timeConstant = 1.000; break;
  40:.\src\sensors\fusion/complementary.c **** 		case CompFilter_900Ms: timeConstant = 0.90; break;
  41:.\src\sensors\fusion/complementary.c **** 		case CompFilter_800Ms: timeConstant = 0.80; break;
  42:.\src\sensors\fusion/complementary.c **** 		case CompFilter_700Ms: timeConstant = 0.70; break;
  43:.\src\sensors\fusion/complementary.c **** 		case CompFilter_600Ms: timeConstant = 0.60; break;
  44:.\src\sensors\fusion/complementary.c **** 		case CompFilter_500Ms: timeConstant = 0.50; break;
  45:.\src\sensors\fusion/complementary.c **** 		case CompFilter_400Ms: timeConstant = 0.400; break;
  46:.\src\sensors\fusion/complementary.c **** 		case CompFilter_300Ms: timeConstant = 0.300; break;
  47:.\src\sensors\fusion/complementary.c **** 		case CompFilter_200Ms: timeConstant = 0.200; break;
  48:.\src\sensors\fusion/complementary.c **** 		case CompFilter_150Ms: timeConstant = 0.150; break;
  49:.\src\sensors\fusion/complementary.c **** 		case CompFilter_100Ms: timeConstant = 0.100; break;
  50:.\src\sensors\fusion/complementary.c **** 		case CompFilter_50Ms: timeConstant = 0.050; break;
  51:.\src\sensors\fusion/complementary.c **** 		case CompFilter_25Ms: timeConstant = 0.025; break;
  52:.\src\sensors\fusion/complementary.c **** 		case CompFilter_20Ms: timeConstant = 0.020; break;
  53:.\src\sensors\fusion/complementary.c **** 		case CompFilter_15Ms: timeConstant = 0.015; break;
  54:.\src\sensors\fusion/complementary.c **** 		case CompFilter_10Ms: timeConstant = 0.010; break;
  55:.\src\sensors\fusion/complementary.c **** 		case CompFilter_05Ms: timeConstant = 0.005; break;
  56:.\src\sensors\fusion/complementary.c **** 		case CompFilter_02Ms: timeConstant = 0.002; break;
  57:.\src\sensors\fusion/complementary.c **** 		case CompFilter_01Ms: timeConstant = 0.001; break;
  58:.\src\sensors\fusion/complementary.c **** 	}
  59:.\src\sensors\fusion/complementary.c **** 
  60:.\src\sensors\fusion/complementary.c **** 	float ms = TWB_Timer_GetMSFromSampleRate(ComplementaryFilterConfig->SampleRate) / 1000.0f;
  61:.\src\sensors\fusion/complementary.c **** 
  62:.\src\sensors\fusion/complementary.c ****     float alpha = timeConstant / (timeConstant + ms);
  63:.\src\sensors\fusion/complementary.c **** 
  64:.\src\sensors\fusion/complementary.c **** 	filterSettings->Period1 = alpha;;
  65:.\src\sensors\fusion/complementary.c **** 	filterSettings->Period2 = 1.0f - alpha;
  66:.\src\sensors\fusion/complementary.c **** }
  67:.\src\sensors\fusion/complementary.c **** 
  68:.\src\sensors\fusion/complementary.c **** void __snsr_compFilter_ResolveCompFilters(void){
  69:.\src\sensors\fusion/complementary.c **** 	__snsr_ResolveCompFilter(ComplementaryFilterConfig->TimeConstantPitch, CompFilterPitch);
  70:.\src\sensors\fusion/complementary.c **** 	__snsr_ResolveCompFilter(ComplementaryFilterConfig->TimeConstantRoll, CompFilterRoll);
  71:.\src\sensors\fusion/complementary.c **** 	__snsr_ResolveCompFilter(ComplementaryFilterConfig->TimeConstantHeading, CompFilterHeading);
  72:.\src\sensors\fusion/complementary.c **** 	__snsr_ResolveCompFilter(ComplementaryFilterConfig->TimeConstantAltitude, CompFilterAltitude);
  73:.\src\sensors\fusion/complementary.c **** }
  74:.\src\sensors\fusion/complementary.c **** 
  75:.\src\sensors\fusion/complementary.c **** Sensor_t *__snsr_compFilter_ResolveSensor(SensorDevice_e sensorType){
  76:.\src\sensors\fusion/complementary.c **** 	switch(sensorType){
  77:.\src\sensors\fusion/complementary.c **** 		case GyroITG3200: return GyroITG3200Sensor;
  78:.\src\sensors\fusion/complementary.c **** 		case GyroL3GD20: return GyroL3GD20Sensor;
  79:.\src\sensors\fusion/complementary.c **** 		case GyroMPU60x0: return GyroMPU60x0Sensor;
  80:.\src\sensors\fusion/complementary.c **** 
  81:.\src\sensors\fusion/complementary.c **** 		case AccLSM303: return AccLSM303Sensor;
  82:.\src\sensors\fusion/complementary.c **** 		case AccADXL345: return AccADXL345Sensor;
  83:.\src\sensors\fusion/complementary.c **** 		case AccMPU60x0: return AccMPU60x0Sensor;
  84:.\src\sensors\fusion/complementary.c **** 
  85:.\src\sensors\fusion/complementary.c **** 		case MagLSM303: return MagLSM303Sensor;
  86:.\src\sensors\fusion/complementary.c **** 		case MagHMS5883: return MagHMC5883Sensor;
  87:.\src\sensors\fusion/complementary.c **** 
  88:.\src\sensors\fusion/complementary.c **** 		case AltBMP085: return PressureBMP085Sensor;
  89:.\src\sensors\fusion/complementary.c **** 		case AltMS5611: return PressureMS5611Sensor;
  90:.\src\sensors\fusion/complementary.c **** 		case AltSonar: return SonarSensor;
  91:.\src\sensors\fusion/complementary.c **** 		case AltGPS: return GeoGPSSensor;
  92:.\src\sensors\fusion/complementary.c **** 
  93:.\src\sensors\fusion/complementary.c **** 		default: return SensorNone;
  94:.\src\sensors\fusion/complementary.c **** 	}
ARM GAS  C:\Users\Kevin\AppData\Local\Temp\ccw18vSb.s 			page 4


  95:.\src\sensors\fusion/complementary.c **** }
  96:.\src\sensors\fusion/complementary.c **** 
  97:.\src\sensors\fusion/complementary.c **** void __snsr_compFilter_ResolveSensors(void){
  98:.\src\sensors\fusion/complementary.c **** 	CompFilterPitch->Sensor1 = __snsr_compFilter_ResolveSensor(ComplementaryFilterConfig->Sensor1Pitch
  99:.\src\sensors\fusion/complementary.c **** 	CompFilterPitch->Sensor2 = __snsr_compFilter_ResolveSensor(ComplementaryFilterConfig->Sensor2Pitch
 100:.\src\sensors\fusion/complementary.c **** 	CompFilterPitch->Sensor3 = __snsr_compFilter_ResolveSensor(ComplementaryFilterConfig->Sensor3Pitch
 101:.\src\sensors\fusion/complementary.c **** 
 102:.\src\sensors\fusion/complementary.c **** 	CompFilterRoll->Sensor1 = __snsr_compFilter_ResolveSensor(ComplementaryFilterConfig->Sensor1Roll);
 103:.\src\sensors\fusion/complementary.c **** 	CompFilterRoll->Sensor2 = __snsr_compFilter_ResolveSensor(ComplementaryFilterConfig->Sensor2Roll);
 104:.\src\sensors\fusion/complementary.c **** 	CompFilterRoll->Sensor3 = __snsr_compFilter_ResolveSensor(ComplementaryFilterConfig->Sensor3Roll);
 105:.\src\sensors\fusion/complementary.c **** 
 106:.\src\sensors\fusion/complementary.c **** 	CompFilterHeading->Sensor1 = __snsr_compFilter_ResolveSensor(ComplementaryFilterConfig->Sensor1Hea
 107:.\src\sensors\fusion/complementary.c **** 	CompFilterHeading->Sensor2 = __snsr_compFilter_ResolveSensor(ComplementaryFilterConfig->Sensor2Hea
 108:.\src\sensors\fusion/complementary.c **** 	CompFilterHeading->Sensor3 = __snsr_compFilter_ResolveSensor(ComplementaryFilterConfig->Sensor3Hea
 109:.\src\sensors\fusion/complementary.c **** 
 110:.\src\sensors\fusion/complementary.c **** 	CompFilterAltitude->Sensor1 = __snsr_compFilter_ResolveSensor(ComplementaryFilterConfig->Sensor1Al
 111:.\src\sensors\fusion/complementary.c **** 	CompFilterAltitude->Sensor2 = __snsr_compFilter_ResolveSensor(ComplementaryFilterConfig->Sensor2Al
 112:.\src\sensors\fusion/complementary.c **** 	CompFilterAltitude->Sensor3 = __snsr_compFilter_ResolveSensor(ComplementaryFilterConfig->Sensor3Al
 113:.\src\sensors\fusion/complementary.c **** }
 114:.\src\sensors\fusion/complementary.c **** 
 115:.\src\sensors\fusion/complementary.c **** iOpResult_e TWB_SNSR_Complementary_Init(void){
 116:.\src\sensors\fusion/complementary.c **** 	assert_succeed(TWB_SE_ReadU8(COMPLEMENTARY_EEPROM_OFFSET + 0, &ComplementaryFilterConfig->Enabled)
 117:.\src\sensors\fusion/complementary.c **** 	assert_succeed(TWB_SE_ReadU8(COMPLEMENTARY_EEPROM_OFFSET + 1, &ComplementaryFilterConfig->SampleRa
 118:.\src\sensors\fusion/complementary.c **** 
 119:.\src\sensors\fusion/complementary.c **** 	assert_succeed(TWB_SE_ReadU8(COMPLEMENTARY_EEPROM_OFFSET + 2, &ComplementaryFilterConfig->FilterOp
 120:.\src\sensors\fusion/complementary.c **** 	assert_succeed(TWB_SE_ReadU8(COMPLEMENTARY_EEPROM_OFFSET + 3, &ComplementaryFilterConfig->FilterOp
 121:.\src\sensors\fusion/complementary.c **** 	assert_succeed(TWB_SE_ReadU8(COMPLEMENTARY_EEPROM_OFFSET + 4, &ComplementaryFilterConfig->FilterOp
 122:.\src\sensors\fusion/complementary.c **** 	assert_succeed(TWB_SE_ReadU8(COMPLEMENTARY_EEPROM_OFFSET + 5, &ComplementaryFilterConfig->FilterOp
 123:.\src\sensors\fusion/complementary.c **** 
 124:.\src\sensors\fusion/complementary.c **** 	assert_succeed(TWB_SE_ReadU8(COMPLEMENTARY_EEPROM_OFFSET + 6, &ComplementaryFilterConfig->TimeCons
 125:.\src\sensors\fusion/complementary.c **** 	assert_succeed(TWB_SE_ReadU8(COMPLEMENTARY_EEPROM_OFFSET + 7, &ComplementaryFilterConfig->TimeCons
 126:.\src\sensors\fusion/complementary.c **** 	assert_succeed(TWB_SE_ReadU8(COMPLEMENTARY_EEPROM_OFFSET + 8, &ComplementaryFilterConfig->TimeCons
 127:.\src\sensors\fusion/complementary.c **** 	assert_succeed(TWB_SE_ReadU8(COMPLEMENTARY_EEPROM_OFFSET + 9, &ComplementaryFilterConfig->TimeCons
 128:.\src\sensors\fusion/complementary.c **** 
 129:.\src\sensors\fusion/complementary.c **** 	assert_succeed(TWB_SE_ReadU8(COMPLEMENTARY_EEPROM_OFFSET + 10, &ComplementaryFilterConfig->Sensor1
 130:.\src\sensors\fusion/complementary.c **** 	assert_succeed(TWB_SE_ReadU8(COMPLEMENTARY_EEPROM_OFFSET + 11, &ComplementaryFilterConfig->Sensor2
 131:.\src\sensors\fusion/complementary.c **** 	assert_succeed(TWB_SE_ReadU8(COMPLEMENTARY_EEPROM_OFFSET + 12, &ComplementaryFilterConfig->Sensor3
 132:.\src\sensors\fusion/complementary.c **** 
 133:.\src\sensors\fusion/complementary.c **** 	assert_succeed(TWB_SE_ReadU8(COMPLEMENTARY_EEPROM_OFFSET + 13, &ComplementaryFilterConfig->Sensor1
 134:.\src\sensors\fusion/complementary.c **** 	assert_succeed(TWB_SE_ReadU8(COMPLEMENTARY_EEPROM_OFFSET + 14, &ComplementaryFilterConfig->Sensor2
 135:.\src\sensors\fusion/complementary.c **** 	assert_succeed(TWB_SE_ReadU8(COMPLEMENTARY_EEPROM_OFFSET + 15, &ComplementaryFilterConfig->Sensor3
 136:.\src\sensors\fusion/complementary.c **** 
 137:.\src\sensors\fusion/complementary.c **** 	assert_succeed(TWB_SE_ReadU8(COMPLEMENTARY_EEPROM_OFFSET + 16, &ComplementaryFilterConfig->Sensor1
 138:.\src\sensors\fusion/complementary.c **** 	assert_succeed(TWB_SE_ReadU8(COMPLEMENTARY_EEPROM_OFFSET + 17, &ComplementaryFilterConfig->Sensor2
 139:.\src\sensors\fusion/complementary.c **** 	assert_succeed(TWB_SE_ReadU8(COMPLEMENTARY_EEPROM_OFFSET + 18, &ComplementaryFilterConfig->Sensor3
 140:.\src\sensors\fusion/complementary.c **** 
 141:.\src\sensors\fusion/complementary.c **** 	assert_succeed(TWB_SE_ReadU8(COMPLEMENTARY_EEPROM_OFFSET + 19, &ComplementaryFilterConfig->Sensor1
 142:.\src\sensors\fusion/complementary.c **** 	assert_succeed(TWB_SE_ReadU8(COMPLEMENTARY_EEPROM_OFFSET + 20, &ComplementaryFilterConfig->Sensor2
 143:.\src\sensors\fusion/complementary.c **** 	assert_succeed(TWB_SE_ReadU8(COMPLEMENTARY_EEPROM_OFFSET + 21, &ComplementaryFilterConfig->Sensor3
 144:.\src\sensors\fusion/complementary.c **** 
 145:.\src\sensors\fusion/complementary.c **** 	SensorFusionMsg = pm_malloc(sizeof(SensorFusionMsg_t));
 146:.\src\sensors\fusion/complementary.c **** 
 147:.\src\sensors\fusion/complementary.c **** 	CompFilterPitch = pm_malloc(sizeof(CompFilter_t));
 148:.\src\sensors\fusion/complementary.c **** 	CompFilterPitch->Axis = PitchAxis;
 149:.\src\sensors\fusion/complementary.c **** 	CompFilterPitch->Filter = pm_malloc(sizeof(FilterFloat_t));
 150:.\src\sensors\fusion/complementary.c **** 	CompFilterPitch->Filter->FilterType = ComplementaryFilterConfig->FilterOptionPitch;
 151:.\src\sensors\fusion/complementary.c **** 	CompFilterPitch->Filter->IsInitialized = false;
ARM GAS  C:\Users\Kevin\AppData\Local\Temp\ccw18vSb.s 			page 5


 152:.\src\sensors\fusion/complementary.c **** 	CompFilterPitch->Filter->Current = 0.0f;
 153:.\src\sensors\fusion/complementary.c **** 	CompFilterPitch->Filter->CurrentSlot = 0;
 154:.\src\sensors\fusion/complementary.c **** 	CompFilterPitch->Filter->Previous = 0.0f;
 155:.\src\sensors\fusion/complementary.c **** 
 156:.\src\sensors\fusion/complementary.c **** 	CompFilterRoll = pm_malloc(sizeof(CompFilter_t));
 157:.\src\sensors\fusion/complementary.c **** 	CompFilterRoll->Axis = RollAxis;
 158:.\src\sensors\fusion/complementary.c **** 	CompFilterRoll->Filter = pm_malloc(sizeof(FilterFloat_t));
 159:.\src\sensors\fusion/complementary.c **** 	CompFilterRoll->Filter->FilterType = ComplementaryFilterConfig->FilterOptionRoll;
 160:.\src\sensors\fusion/complementary.c **** 	CompFilterRoll->Filter->IsInitialized = false;
 161:.\src\sensors\fusion/complementary.c **** 	CompFilterRoll->Filter->Current = 0.0f;
 162:.\src\sensors\fusion/complementary.c **** 	CompFilterRoll->Filter->CurrentSlot = 0;
 163:.\src\sensors\fusion/complementary.c **** 	CompFilterRoll->Filter->Previous = 0.0f;
 164:.\src\sensors\fusion/complementary.c **** 
 165:.\src\sensors\fusion/complementary.c **** 	CompFilterHeading = pm_malloc(sizeof(CompFilter_t));
 166:.\src\sensors\fusion/complementary.c **** 	CompFilterHeading->Axis = HeadingAxis;
 167:.\src\sensors\fusion/complementary.c **** 	CompFilterHeading->Filter = pm_malloc(sizeof(FilterFloat_t));
 168:.\src\sensors\fusion/complementary.c **** 	CompFilterHeading->Filter->FilterType = ComplementaryFilterConfig->FilterOptionHeading;
 169:.\src\sensors\fusion/complementary.c **** 	CompFilterHeading->Filter->IsInitialized = false;
 170:.\src\sensors\fusion/complementary.c **** 	CompFilterHeading->Filter->Current = 0.0f;
 171:.\src\sensors\fusion/complementary.c **** 	CompFilterHeading->Filter->CurrentSlot = 0;
 172:.\src\sensors\fusion/complementary.c **** 	CompFilterHeading->Filter->Previous = 0.0f;
 173:.\src\sensors\fusion/complementary.c **** 
 174:.\src\sensors\fusion/complementary.c **** 	CompFilterAltitude = pm_malloc(sizeof(CompFilter_t));
 175:.\src\sensors\fusion/complementary.c **** 	CompFilterAltitude->Axis = AltitudeAxis;
 176:.\src\sensors\fusion/complementary.c **** 	CompFilterAltitude->Filter = pm_malloc(sizeof(FilterFloat_t));
 177:.\src\sensors\fusion/complementary.c **** 	CompFilterAltitude->Filter->FilterType = ComplementaryFilterConfig->FilterOptionAltitude;
 178:.\src\sensors\fusion/complementary.c **** 	CompFilterAltitude->Filter->IsInitialized = false;
 179:.\src\sensors\fusion/complementary.c **** 	CompFilterAltitude->Filter->Current = 0.0f;
 180:.\src\sensors\fusion/complementary.c **** 	CompFilterAltitude->Filter->CurrentSlot = 0;
 181:.\src\sensors\fusion/complementary.c **** 	CompFilterAltitude->Filter->Previous = 0.0f;
 182:.\src\sensors\fusion/complementary.c **** 
 183:.\src\sensors\fusion/complementary.c **** 	ComplementarySnsrFusion->IsEnabled = ComplementaryFilterConfig->Enabled;
 184:.\src\sensors\fusion/complementary.c **** 	ComplementarySnsrFusion->SampleRate = ComplementaryFilterConfig->SampleRate;
 185:.\src\sensors\fusion/complementary.c **** 
 186:.\src\sensors\fusion/complementary.c **** 	ComplementarySnsrFusion->Read = &TWB_SNSR_Complementary_Process;
 187:.\src\sensors\fusion/complementary.c **** 
 188:.\src\sensors\fusion/complementary.c **** 	__snsr_compFilter_ResolveSensors();
 189:.\src\sensors\fusion/complementary.c **** 	__snsr_compFilter_ResolveCompFilters();
 190:.\src\sensors\fusion/complementary.c **** 
 191:.\src\sensors\fusion/complementary.c **** 	return OK;
 192:.\src\sensors\fusion/complementary.c **** }
 193:.\src\sensors\fusion/complementary.c **** 
 194:.\src\sensors\fusion/complementary.c **** iOpResult_e TWB_SNSR_Complementary_ResetDefaults(void) {
 195:.\src\sensors\fusion/complementary.c **** 	ComplementaryFilterConfig->Enabled = Enabled;
 196:.\src\sensors\fusion/complementary.c **** 	ComplementaryFilterConfig->SampleRate = SampleRate_200Hz;
 197:.\src\sensors\fusion/complementary.c **** 
 198:.\src\sensors\fusion/complementary.c **** 	ComplementaryFilterConfig->TimeConstantPitch = CompFilter_200Ms;
 199:.\src\sensors\fusion/complementary.c **** 	ComplementaryFilterConfig->TimeConstantRoll = CompFilter_200Ms;
 200:.\src\sensors\fusion/complementary.c **** 	ComplementaryFilterConfig->TimeConstantHeading = CompFilter_100Ms;
 201:.\src\sensors\fusion/complementary.c **** 	ComplementaryFilterConfig->TimeConstantAltitude = CompFilter_500Ms;
 202:.\src\sensors\fusion/complementary.c **** 
 203:.\src\sensors\fusion/complementary.c **** 	ComplementaryFilterConfig->FilterOptionPitch = FilterOption_None;
 204:.\src\sensors\fusion/complementary.c **** 	ComplementaryFilterConfig->FilterOptionRoll = FilterOption_None;
 205:.\src\sensors\fusion/complementary.c **** 	ComplementaryFilterConfig->FilterOptionHeading = FilterOption_None;
 206:.\src\sensors\fusion/complementary.c **** 	ComplementaryFilterConfig->FilterOptionAltitude = FilterOption_None;
 207:.\src\sensors\fusion/complementary.c **** 
 208:.\src\sensors\fusion/complementary.c **** 	ComplementaryFilterConfig->Sensor1Pitch = GyroL3GD20;
ARM GAS  C:\Users\Kevin\AppData\Local\Temp\ccw18vSb.s 			page 6


 209:.\src\sensors\fusion/complementary.c **** 	ComplementaryFilterConfig->Sensor2Pitch = AccLSM303;
 210:.\src\sensors\fusion/complementary.c **** 	ComplementaryFilterConfig->Sensor3Pitch = SensorNone;
 211:.\src\sensors\fusion/complementary.c **** 
 212:.\src\sensors\fusion/complementary.c **** 	ComplementaryFilterConfig->Sensor1Roll = GyroL3GD20;
 213:.\src\sensors\fusion/complementary.c **** 	ComplementaryFilterConfig->Sensor2Roll = AccLSM303;
 214:.\src\sensors\fusion/complementary.c **** 	ComplementaryFilterConfig->Sensor3Roll = SensorNone;
 215:.\src\sensors\fusion/complementary.c **** 
 216:.\src\sensors\fusion/complementary.c **** 	ComplementaryFilterConfig->Sensor1Heading = GyroL3GD20;
 217:.\src\sensors\fusion/complementary.c **** 	ComplementaryFilterConfig->Sensor2Heading = MagLSM303;
 218:.\src\sensors\fusion/complementary.c **** 	ComplementaryFilterConfig->Sensor3Heading = SensorNone;
 219:.\src\sensors\fusion/complementary.c **** 
 220:.\src\sensors\fusion/complementary.c **** 	ComplementaryFilterConfig->Sensor1Altitude = AltSonar;
 221:.\src\sensors\fusion/complementary.c **** 	ComplementaryFilterConfig->Sensor2Altitude = AltBMP085;
 222:.\src\sensors\fusion/complementary.c **** 	ComplementaryFilterConfig->Sensor3Altitude = SensorNone;
 223:.\src\sensors\fusion/complementary.c **** 
 224:.\src\sensors\fusion/complementary.c **** 	assert_succeed(TWB_SE_WriteU8Pause(COMPLEMENTARY_EEPROM_OFFSET + 0, ComplementaryFilterConfig->Ena
 225:.\src\sensors\fusion/complementary.c **** 	assert_succeed(TWB_SE_WriteU8Pause(COMPLEMENTARY_EEPROM_OFFSET + 1, ComplementaryFilterConfig->Sam
 226:.\src\sensors\fusion/complementary.c **** 
 227:.\src\sensors\fusion/complementary.c **** 	assert_succeed(TWB_SE_WriteU8Pause(COMPLEMENTARY_EEPROM_OFFSET + 2, ComplementaryFilterConfig->Fil
 228:.\src\sensors\fusion/complementary.c **** 	assert_succeed(TWB_SE_WriteU8Pause(COMPLEMENTARY_EEPROM_OFFSET + 3, ComplementaryFilterConfig->Fil
 229:.\src\sensors\fusion/complementary.c **** 	assert_succeed(TWB_SE_WriteU8Pause(COMPLEMENTARY_EEPROM_OFFSET + 4, ComplementaryFilterConfig->Fil
 230:.\src\sensors\fusion/complementary.c **** 	assert_succeed(TWB_SE_WriteU8Pause(COMPLEMENTARY_EEPROM_OFFSET + 5, ComplementaryFilterConfig->Fil
 231:.\src\sensors\fusion/complementary.c **** 
 232:.\src\sensors\fusion/complementary.c **** 	assert_succeed(TWB_SE_WriteU8Pause(COMPLEMENTARY_EEPROM_OFFSET + 6, ComplementaryFilterConfig->Tim
 233:.\src\sensors\fusion/complementary.c **** 	assert_succeed(TWB_SE_WriteU8Pause(COMPLEMENTARY_EEPROM_OFFSET + 7, ComplementaryFilterConfig->Tim
 234:.\src\sensors\fusion/complementary.c **** 	assert_succeed(TWB_SE_WriteU8Pause(COMPLEMENTARY_EEPROM_OFFSET + 8, ComplementaryFilterConfig->Tim
 235:.\src\sensors\fusion/complementary.c **** 	assert_succeed(TWB_SE_WriteU8Pause(COMPLEMENTARY_EEPROM_OFFSET + 9, ComplementaryFilterConfig->Tim
 236:.\src\sensors\fusion/complementary.c **** 
 237:.\src\sensors\fusion/complementary.c **** 	assert_succeed(TWB_SE_WriteU8Pause(COMPLEMENTARY_EEPROM_OFFSET + 10, ComplementaryFilterConfig->Se
 238:.\src\sensors\fusion/complementary.c **** 	assert_succeed(TWB_SE_WriteU8Pause(COMPLEMENTARY_EEPROM_OFFSET + 11, ComplementaryFilterConfig->Se
 239:.\src\sensors\fusion/complementary.c **** 	assert_succeed(TWB_SE_WriteU8Pause(COMPLEMENTARY_EEPROM_OFFSET + 12, ComplementaryFilterConfig->Se
 240:.\src\sensors\fusion/complementary.c **** 
 241:.\src\sensors\fusion/complementary.c **** 	assert_succeed(TWB_SE_WriteU8Pause(COMPLEMENTARY_EEPROM_OFFSET + 13, ComplementaryFilterConfig->Se
 242:.\src\sensors\fusion/complementary.c **** 	assert_succeed(TWB_SE_WriteU8Pause(COMPLEMENTARY_EEPROM_OFFSET + 14, ComplementaryFilterConfig->Se
 243:.\src\sensors\fusion/complementary.c **** 	assert_succeed(TWB_SE_WriteU8Pause(COMPLEMENTARY_EEPROM_OFFSET + 15, ComplementaryFilterConfig->Se
 244:.\src\sensors\fusion/complementary.c **** 
 245:.\src\sensors\fusion/complementary.c **** 	assert_succeed(TWB_SE_WriteU8Pause(COMPLEMENTARY_EEPROM_OFFSET + 16, ComplementaryFilterConfig->Se
 246:.\src\sensors\fusion/complementary.c **** 	assert_succeed(TWB_SE_WriteU8Pause(COMPLEMENTARY_EEPROM_OFFSET + 17, ComplementaryFilterConfig->Se
 247:.\src\sensors\fusion/complementary.c **** 	assert_succeed(TWB_SE_WriteU8Pause(COMPLEMENTARY_EEPROM_OFFSET + 18, ComplementaryFilterConfig->Se
 248:.\src\sensors\fusion/complementary.c **** 
 249:.\src\sensors\fusion/complementary.c **** 	assert_succeed(TWB_SE_WriteU8Pause(COMPLEMENTARY_EEPROM_OFFSET + 19, ComplementaryFilterConfig->Se
 250:.\src\sensors\fusion/complementary.c **** 	assert_succeed(TWB_SE_WriteU8Pause(COMPLEMENTARY_EEPROM_OFFSET + 20, ComplementaryFilterConfig->Se
 251:.\src\sensors\fusion/complementary.c **** 	assert_succeed(TWB_SE_WriteU8Pause(COMPLEMENTARY_EEPROM_OFFSET + 21, ComplementaryFilterConfig->Se
 252:.\src\sensors\fusion/complementary.c **** 
 253:.\src\sensors\fusion/complementary.c **** 	ComplementarySnsrFusion->IsEnabled = ComplementaryFilterConfig->Enabled;
 254:.\src\sensors\fusion/complementary.c **** 	ComplementarySnsrFusion->SampleRate = ComplementaryFilterConfig->SampleRate;
 255:.\src\sensors\fusion/complementary.c **** 
 256:.\src\sensors\fusion/complementary.c **** 	return OK;
 257:.\src\sensors\fusion/complementary.c **** }
 258:.\src\sensors\fusion/complementary.c **** 
 259:.\src\sensors\fusion/complementary.c **** iOpResult_e TWB_SNSR_Complementary_UpdateSettings(uint16_t addr, uint8_t value){
 260:.\src\sensors\fusion/complementary.c **** 	switch(addr){
 261:.\src\sensors\fusion/complementary.c **** 	case 0:
 262:.\src\sensors\fusion/complementary.c **** 		ComplementarySnsrFusion->IsEnabled = value;
 263:.\src\sensors\fusion/complementary.c **** 		ComplementaryFilterConfig->Enabled = value;
 264:.\src\sensors\fusion/complementary.c **** 
 265:.\src\sensors\fusion/complementary.c **** 		break;
ARM GAS  C:\Users\Kevin\AppData\Local\Temp\ccw18vSb.s 			page 7


 266:.\src\sensors\fusion/complementary.c **** 	case 1:
 267:.\src\sensors\fusion/complementary.c **** 		ComplementarySnsrFusion->SampleRate = value;
 268:.\src\sensors\fusion/complementary.c **** 		ComplementaryFilterConfig->SampleRate = value;
 269:.\src\sensors\fusion/complementary.c **** 		break;
 270:.\src\sensors\fusion/complementary.c **** 
 271:.\src\sensors\fusion/complementary.c **** 	case 2:
 272:.\src\sensors\fusion/complementary.c **** 		ComplementaryFilterConfig->FilterOptionPitch = value;
 273:.\src\sensors\fusion/complementary.c **** 		CompFilterPitch->Filter->FilterType = value;
 274:.\src\sensors\fusion/complementary.c **** 		CompFilterPitch->Filter->IsInitialized = false;
 275:.\src\sensors\fusion/complementary.c **** 		CompFilterPitch->Filter->CurrentSlot = 0;
 276:.\src\sensors\fusion/complementary.c **** 		CompFilterPitch->Filter->Previous = 0.0f;
 277:.\src\sensors\fusion/complementary.c **** 		break;
 278:.\src\sensors\fusion/complementary.c **** 
 279:.\src\sensors\fusion/complementary.c **** 	case 3:
 280:.\src\sensors\fusion/complementary.c **** 		ComplementaryFilterConfig->FilterOptionRoll = value;
 281:.\src\sensors\fusion/complementary.c **** 		CompFilterRoll->Filter->FilterType = value;
 282:.\src\sensors\fusion/complementary.c **** 		CompFilterRoll->Filter->IsInitialized = false;
 283:.\src\sensors\fusion/complementary.c **** 		CompFilterRoll->Filter->CurrentSlot = 0;
 284:.\src\sensors\fusion/complementary.c **** 		CompFilterRoll->Filter->Previous = 0.0f;
 285:.\src\sensors\fusion/complementary.c **** 
 286:.\src\sensors\fusion/complementary.c **** 		break;
 287:.\src\sensors\fusion/complementary.c **** 	case 4:
 288:.\src\sensors\fusion/complementary.c **** 		ComplementaryFilterConfig->FilterOptionHeading = value;
 289:.\src\sensors\fusion/complementary.c **** 		CompFilterHeading->Filter->FilterType = value;
 290:.\src\sensors\fusion/complementary.c **** 		CompFilterHeading->Filter->IsInitialized = false;
 291:.\src\sensors\fusion/complementary.c **** 		CompFilterHeading->Filter->CurrentSlot = 0;
 292:.\src\sensors\fusion/complementary.c **** 		CompFilterHeading->Filter->Previous = 0.0f;
 293:.\src\sensors\fusion/complementary.c **** 		break;
 294:.\src\sensors\fusion/complementary.c **** 	case 5:
 295:.\src\sensors\fusion/complementary.c **** 		ComplementaryFilterConfig->FilterOptionAltitude = value;
 296:.\src\sensors\fusion/complementary.c **** 		CompFilterAltitude->Filter->FilterType = value;
 297:.\src\sensors\fusion/complementary.c **** 		CompFilterAltitude->Filter->IsInitialized = false;
 298:.\src\sensors\fusion/complementary.c **** 		CompFilterAltitude->Filter->CurrentSlot = 0;
 299:.\src\sensors\fusion/complementary.c **** 		CompFilterAltitude->Filter->Previous = 0.0f;
 300:.\src\sensors\fusion/complementary.c **** 		break;
 301:.\src\sensors\fusion/complementary.c **** 
 302:.\src\sensors\fusion/complementary.c ****     /* Update the time constants for the comp filters */
 303:.\src\sensors\fusion/complementary.c **** 	case 6:
 304:.\src\sensors\fusion/complementary.c **** 		ComplementaryFilterConfig->TimeConstantPitch = value;
 305:.\src\sensors\fusion/complementary.c **** 		__snsr_ResolveCompFilter(ComplementaryFilterConfig->TimeConstantPitch, CompFilterPitch);
 306:.\src\sensors\fusion/complementary.c **** 		break;
 307:.\src\sensors\fusion/complementary.c **** 	case 7:
 308:.\src\sensors\fusion/complementary.c **** 		ComplementaryFilterConfig->TimeConstantRoll = value;
 309:.\src\sensors\fusion/complementary.c **** 		__snsr_ResolveCompFilter(ComplementaryFilterConfig->TimeConstantRoll, CompFilterRoll);
 310:.\src\sensors\fusion/complementary.c **** 		break;
 311:.\src\sensors\fusion/complementary.c **** 	case 8:
 312:.\src\sensors\fusion/complementary.c **** 		ComplementaryFilterConfig->TimeConstantHeading = value;
 313:.\src\sensors\fusion/complementary.c **** 		__snsr_ResolveCompFilter(ComplementaryFilterConfig->TimeConstantHeading, CompFilterHeading);
 314:.\src\sensors\fusion/complementary.c **** 		break;
 315:.\src\sensors\fusion/complementary.c **** 	case 9:
 316:.\src\sensors\fusion/complementary.c **** 		ComplementaryFilterConfig->TimeConstantAltitude = value;
 317:.\src\sensors\fusion/complementary.c **** 		__snsr_ResolveCompFilter(ComplementaryFilterConfig->TimeConstantAltitude, CompFilterAltitude);
 318:.\src\sensors\fusion/complementary.c **** 		break;
 319:.\src\sensors\fusion/complementary.c **** 
 320:.\src\sensors\fusion/complementary.c **** 
 321:.\src\sensors\fusion/complementary.c **** 	/* Update the filters for each axis */
 322:.\src\sensors\fusion/complementary.c **** 
ARM GAS  C:\Users\Kevin\AppData\Local\Temp\ccw18vSb.s 			page 8


 323:.\src\sensors\fusion/complementary.c **** 	case 10:
 324:.\src\sensors\fusion/complementary.c **** 		ComplementaryFilterConfig->Sensor1Pitch = value;
 325:.\src\sensors\fusion/complementary.c **** 		CompFilterPitch->Sensor1 = __snsr_compFilter_ResolveSensor(ComplementaryFilterConfig->Sensor1Pitc
 326:.\src\sensors\fusion/complementary.c **** 		break;
 327:.\src\sensors\fusion/complementary.c **** 	case 11:
 328:.\src\sensors\fusion/complementary.c **** 		ComplementaryFilterConfig->Sensor2Pitch = value;
 329:.\src\sensors\fusion/complementary.c **** 		CompFilterPitch->Sensor2 = __snsr_compFilter_ResolveSensor(ComplementaryFilterConfig->Sensor2Pitc
 330:.\src\sensors\fusion/complementary.c **** 		break;
 331:.\src\sensors\fusion/complementary.c **** 	case 12:
 332:.\src\sensors\fusion/complementary.c **** 		ComplementaryFilterConfig->Sensor3Pitch = value;
 333:.\src\sensors\fusion/complementary.c **** 		CompFilterPitch->Sensor3 = __snsr_compFilter_ResolveSensor(ComplementaryFilterConfig->Sensor3Pitc
 334:.\src\sensors\fusion/complementary.c **** 		break;
 335:.\src\sensors\fusion/complementary.c **** 	case 13:
 336:.\src\sensors\fusion/complementary.c **** 		ComplementaryFilterConfig->Sensor1Roll = value;
 337:.\src\sensors\fusion/complementary.c **** 		CompFilterRoll->Sensor1 = __snsr_compFilter_ResolveSensor(ComplementaryFilterConfig->Sensor1Roll)
 338:.\src\sensors\fusion/complementary.c **** 	break;
 339:.\src\sensors\fusion/complementary.c **** 	case 14:
 340:.\src\sensors\fusion/complementary.c **** 		ComplementaryFilterConfig->Sensor2Roll = value;
 341:.\src\sensors\fusion/complementary.c **** 		CompFilterRoll->Sensor2 = __snsr_compFilter_ResolveSensor(ComplementaryFilterConfig->Sensor2Roll)
 342:.\src\sensors\fusion/complementary.c **** 		break;
 343:.\src\sensors\fusion/complementary.c **** 	case 15:
 344:.\src\sensors\fusion/complementary.c **** 		ComplementaryFilterConfig->Sensor3Roll = value;
 345:.\src\sensors\fusion/complementary.c **** 		CompFilterRoll->Sensor3 = __snsr_compFilter_ResolveSensor(ComplementaryFilterConfig->Sensor3Roll)
 346:.\src\sensors\fusion/complementary.c **** 		break;
 347:.\src\sensors\fusion/complementary.c **** 	case 16:
 348:.\src\sensors\fusion/complementary.c **** 		ComplementaryFilterConfig->Sensor1Heading = value;
 349:.\src\sensors\fusion/complementary.c **** 		CompFilterHeading->Sensor1 = __snsr_compFilter_ResolveSensor(ComplementaryFilterConfig->Sensor1He
 350:.\src\sensors\fusion/complementary.c **** 		break;
 351:.\src\sensors\fusion/complementary.c **** 	case 17:
 352:.\src\sensors\fusion/complementary.c **** 		ComplementaryFilterConfig->Sensor2Heading = value;
 353:.\src\sensors\fusion/complementary.c **** 		CompFilterHeading->Sensor2 = __snsr_compFilter_ResolveSensor(ComplementaryFilterConfig->Sensor2He
 354:.\src\sensors\fusion/complementary.c **** 		break;
 355:.\src\sensors\fusion/complementary.c **** 	case 18:
 356:.\src\sensors\fusion/complementary.c **** 		ComplementaryFilterConfig->Sensor3Heading = value;
 357:.\src\sensors\fusion/complementary.c **** 		CompFilterHeading->Sensor3 = __snsr_compFilter_ResolveSensor(ComplementaryFilterConfig->Sensor3He
 358:.\src\sensors\fusion/complementary.c **** 		break;
 359:.\src\sensors\fusion/complementary.c **** 	case 19:
 360:.\src\sensors\fusion/complementary.c **** 		ComplementaryFilterConfig->Sensor1Altitude = value;
 361:.\src\sensors\fusion/complementary.c **** 		CompFilterAltitude->Sensor1 = __snsr_compFilter_ResolveSensor(ComplementaryFilterConfig->Sensor1A
 362:.\src\sensors\fusion/complementary.c **** 		break;
 363:.\src\sensors\fusion/complementary.c **** 	case 20:
 364:.\src\sensors\fusion/complementary.c **** 		ComplementaryFilterConfig->Sensor2Altitude = value;
 365:.\src\sensors\fusion/complementary.c **** 		CompFilterAltitude->Sensor2 = __snsr_compFilter_ResolveSensor(ComplementaryFilterConfig->Sensor2A
 366:.\src\sensors\fusion/complementary.c **** 		break;
 367:.\src\sensors\fusion/complementary.c **** 	case 21:
 368:.\src\sensors\fusion/complementary.c **** 		ComplementaryFilterConfig->Sensor3Altitude = value;
 369:.\src\sensors\fusion/complementary.c **** 		CompFilterAltitude->Sensor3 = __snsr_compFilter_ResolveSensor(ComplementaryFilterConfig->Sensor3A
 370:.\src\sensors\fusion/complementary.c **** 		break;
 371:.\src\sensors\fusion/complementary.c **** 	}
 372:.\src\sensors\fusion/complementary.c **** 	return OK;
 373:.\src\sensors\fusion/complementary.c **** }
 374:.\src\sensors\fusion/complementary.c **** 
 375:.\src\sensors\fusion/complementary.c **** iOpResult_e TWB_SNSR_Complementary_Process(float deltaT){
  78              		.loc 1 375 0
  79              		.cfi_startproc
  80              		@ args = 0, pretend = 0, frame = 0
  81              		@ frame_needed = 0, uses_anonymous_args = 0
ARM GAS  C:\Users\Kevin\AppData\Local\Temp\ccw18vSb.s 			page 9


  82              	.LVL0:
  83 0000 38B5     		push	{r3, r4, r5, lr}	@
  84              	.LCFI0:
  85              		.cfi_def_cfa_offset 16
  86              		.cfi_offset 3, -16
  87              		.cfi_offset 4, -12
  88              		.cfi_offset 5, -8
  89              		.cfi_offset 14, -4
 376:.\src\sensors\fusion/complementary.c **** 	//TODO: After complementary filter, we need to pump the angle back into the gyro, or pickup the de
 377:.\src\sensors\fusion/complementary.c **** 	if(ComplementaryFilterConfig->Sensor1Pitch != SensorNone){
  90              		.loc 1 377 0
  91 0002 534B     		ldr	r3, .L37	@ tmp281,
  92 0004 1B68     		ldr	r3, [r3, #0]	@ ComplementaryFilterConfig.20, ComplementaryFilterConfig
  93 0006 9A7A     		ldrb	r2, [r3, #10]	@ zero_extendqisi2	@ ComplementaryFilterConfig.20_1->Sensor1Pitch, Complementar
 375:.\src\sensors\fusion/complementary.c **** iOpResult_e TWB_SNSR_Complementary_Process(float deltaT){
  94              		.loc 1 375 0
  95 0008 2DED028B 		fstmfdd	sp!, {d8}	@,
  96              	.LCFI1:
  97              		.cfi_def_cfa_offset 24
  98              		.cfi_offset 80, -24
  99              		.loc 1 377 0
 100 000c 002A     		cmp	r2, #0	@ ComplementaryFilterConfig.20_1->Sensor1Pitch
 101 000e 2FD0     		beq	.L2	@
 378:.\src\sensors\fusion/complementary.c **** 		if(ComplementaryFilterConfig->Sensor2Pitch != SensorNone)
 102              		.loc 1 378 0
 103 0010 D97A     		ldrb	r1, [r3, #11]	@ zero_extendqisi2	@ ComplementaryFilterConfig.20_1->Sensor2Pitch, Complementar
 104 0012 504A     		ldr	r2, .L37+4	@ tmp475,
 105 0014 504B     		ldr	r3, .L37+8	@ tmp474,
 106 0016 91B1     		cbz	r1, .L3	@ ComplementaryFilterConfig.20_1->Sensor2Pitch,
 379:.\src\sensors\fusion/complementary.c **** 			InternalState->Pitch = (CompFilterPitch->Sensor1->X * CompFilterPitch->Period1) + (CompFilterPit
 107              		.loc 1 379 0
 108 0018 1B68     		ldr	r3, [r3, #0]	@ CompFilterPitch.22, CompFilterPitch
 109 001a 1168     		ldr	r1, [r2, #0]	@ InternalState, InternalState
 110 001c 1A69     		ldr	r2, [r3, #16]	@ CompFilterPitch.22_6->Sensor1, CompFilterPitch.22_6->Sensor1
 111 001e D2ED116A 		flds	s13, [r2, #68]	@ D.9408_7->X, D.9408_7->X
 112 0022 5A69     		ldr	r2, [r3, #20]	@ CompFilterPitch.22_6->Sensor2, CompFilterPitch.22_6->Sensor2
 113 0024 D3ED017A 		flds	s15, [r3, #4]	@ CompFilterPitch.22_6->Period2, CompFilterPitch.22_6->Period2
 114 0028 92ED116A 		flds	s12, [r2, #68]	@ D.9412_13->X, D.9412_13->X
 115 002c 93ED007A 		flds	s14, [r3, #0]	@ CompFilterPitch.22_6->Period1, CompFilterPitch.22_6->Period1
 116 0030 66EE277A 		fmuls	s15, s12, s15	@ tmp295, D.9412_13->X, CompFilterPitch.22_6->Period2
 117 0034 46EE877A 		fmacs	s15, s13, s14	@ tmp295, D.9408_7->X, CompFilterPitch.22_6->Period1
 118 0038 C1ED007A 		fsts	s15, [r1, #0]	@ tmp295, InternalState.21_5->Pitch
 119 003c 04E0     		b	.L4	@
 120              	.L3:
 380:.\src\sensors\fusion/complementary.c **** 		else
 381:.\src\sensors\fusion/complementary.c **** 			InternalState->Pitch = CompFilterPitch->Sensor1->X;
 121              		.loc 1 381 0
 122 003e 1B68     		ldr	r3, [r3, #0]	@ CompFilterPitch, CompFilterPitch
 123 0040 1268     		ldr	r2, [r2, #0]	@ InternalState, InternalState
 124 0042 1B69     		ldr	r3, [r3, #16]	@ CompFilterPitch.22_20->Sensor1, CompFilterPitch.22_20->Sensor1
 125 0044 5B6C     		ldr	r3, [r3, #68]	@ float	@ D.9408_21->X, D.9408_21->X
 126 0046 1360     		str	r3, [r2, #0]	@ float	@ D.9408_21->X, InternalState.21_19->Pitch
 127              	.L4:
 382:.\src\sensors\fusion/complementary.c **** 
 383:.\src\sensors\fusion/complementary.c **** 		TWB_Filter_Median_Apply_Float(CompFilterPitch->Filter, InternalState->Pitch);
 128              		.loc 1 383 0
 129 0048 434C     		ldr	r4, .L37+8	@ tmp303,
ARM GAS  C:\Users\Kevin\AppData\Local\Temp\ccw18vSb.s 			page 10


 130 004a 424D     		ldr	r5, .L37+4	@ tmp305,
 131 004c 2268     		ldr	r2, [r4, #0]	@ CompFilterPitch, CompFilterPitch
 132 004e 2B68     		ldr	r3, [r5, #0]	@ InternalState, InternalState
 133 0050 D068     		ldr	r0, [r2, #12]	@, CompFilterPitch.22_23->Filter
 134 0052 93ED000A 		flds	s0, [r3, #0]	@, InternalState.21_25->Pitch
 135              	.LVL1:
 136 0056 FFF7FEFF 		bl	TWB_Filter_Median_Apply_Float	@
 137              	.LVL2:
 384:.\src\sensors\fusion/complementary.c **** 
 385:.\src\sensors\fusion/complementary.c **** 		InternalState->Pitch = CompFilterPitch->Filter->Current;
 138              		.loc 1 385 0
 139 005a 2268     		ldr	r2, [r4, #0]	@ CompFilterPitch, CompFilterPitch
 140 005c 2B68     		ldr	r3, [r5, #0]	@ InternalState.21, InternalState
 141 005e D268     		ldr	r2, [r2, #12]	@ CompFilterPitch.22_28->Filter, CompFilterPitch.22_28->Filter
 142 0060 926A     		ldr	r2, [r2, #40]	@ float	@ D.9418_29->Current, D.9418_29->Current
 143 0062 1A60     		str	r2, [r3, #0]	@ float	@ D.9418_29->Current, InternalState.21_27->Pitch
 386:.\src\sensors\fusion/complementary.c **** 		InternalState->PitchRateDPS = ((GryoExtendedData_t *)CompFilterRoll->Sensor1->Extended)->RateXDPS
 144              		.loc 1 386 0
 145 0064 3D4A     		ldr	r2, .L37+12	@ tmp312,
 146 0066 1268     		ldr	r2, [r2, #0]	@ CompFilterRoll, CompFilterRoll
 147 0068 1269     		ldr	r2, [r2, #16]	@ CompFilterRoll.23_32->Sensor1, CompFilterRoll.23_32->Sensor1
 148 006a 126D     		ldr	r2, [r2, #80]	@ D.9422_33->Extended, D.9422_33->Extended
 149 006c 1268     		ldr	r2, [r2, #0]	@ float	@ MEM[(struct GryoExtendedData_t *)D.9423_34].RateXDPS, MEM[(struct GryoE
 150 006e 5A61     		str	r2, [r3, #20]	@ float	@ MEM[(struct GryoExtendedData_t *)D.9423_34].RateXDPS, InternalState.21
 151              	.L2:
 387:.\src\sensors\fusion/complementary.c **** 	}
 388:.\src\sensors\fusion/complementary.c **** 
 389:.\src\sensors\fusion/complementary.c **** 	if(ComplementaryFilterConfig->Sensor1Roll != SensorNone){
 152              		.loc 1 389 0
 153 0070 374B     		ldr	r3, .L37	@ tmp316,
 154 0072 1B68     		ldr	r3, [r3, #0]	@ ComplementaryFilterConfig.20, ComplementaryFilterConfig
 155 0074 5A7B     		ldrb	r2, [r3, #13]	@ zero_extendqisi2	@ ComplementaryFilterConfig.20_36->Sensor1Roll, Complementar
 156 0076 002A     		cmp	r2, #0	@ ComplementaryFilterConfig.20_36->Sensor1Roll
 157 0078 2DD0     		beq	.L5	@
 390:.\src\sensors\fusion/complementary.c **** 		if(ComplementaryFilterConfig->Sensor2Roll != SensorNone)
 158              		.loc 1 390 0
 159 007a 997B     		ldrb	r1, [r3, #14]	@ zero_extendqisi2	@ ComplementaryFilterConfig.20_36->Sensor2Roll, Complementar
 160 007c 354A     		ldr	r2, .L37+4	@ tmp477,
 161 007e 374B     		ldr	r3, .L37+12	@ tmp478,
 162 0080 91B1     		cbz	r1, .L6	@ ComplementaryFilterConfig.20_36->Sensor2Roll,
 391:.\src\sensors\fusion/complementary.c **** 			InternalState->Roll = (CompFilterRoll->Sensor1->Y * CompFilterRoll->Period1) + (CompFilterRoll->
 163              		.loc 1 391 0
 164 0082 1B68     		ldr	r3, [r3, #0]	@ CompFilterRoll.23, CompFilterRoll
 165 0084 1168     		ldr	r1, [r2, #0]	@ InternalState, InternalState
 166 0086 1A69     		ldr	r2, [r3, #16]	@ CompFilterRoll.23_41->Sensor1, CompFilterRoll.23_41->Sensor1
 167 0088 D2ED126A 		flds	s13, [r2, #72]	@ D.9422_42->Y, D.9422_42->Y
 168 008c 5A69     		ldr	r2, [r3, #20]	@ CompFilterRoll.23_41->Sensor2, CompFilterRoll.23_41->Sensor2
 169 008e D3ED017A 		flds	s15, [r3, #4]	@ CompFilterRoll.23_41->Period2, CompFilterRoll.23_41->Period2
 170 0092 92ED126A 		flds	s12, [r2, #72]	@ D.9434_48->Y, D.9434_48->Y
 171 0096 93ED007A 		flds	s14, [r3, #0]	@ CompFilterRoll.23_41->Period1, CompFilterRoll.23_41->Period1
 172 009a 66EE277A 		fmuls	s15, s12, s15	@ tmp330, D.9434_48->Y, CompFilterRoll.23_41->Period2
 173 009e 46EE877A 		fmacs	s15, s13, s14	@ tmp330, D.9422_42->Y, CompFilterRoll.23_41->Period1
 174 00a2 C1ED017A 		fsts	s15, [r1, #4]	@ tmp330, InternalState.21_40->Roll
 175 00a6 04E0     		b	.L7	@
 176              	.L6:
 392:.\src\sensors\fusion/complementary.c **** 		else
 393:.\src\sensors\fusion/complementary.c **** 			InternalState->Roll = CompFilterRoll->Sensor1->Y;
ARM GAS  C:\Users\Kevin\AppData\Local\Temp\ccw18vSb.s 			page 11


 177              		.loc 1 393 0
 178 00a8 1B68     		ldr	r3, [r3, #0]	@ CompFilterRoll, CompFilterRoll
 179 00aa 1268     		ldr	r2, [r2, #0]	@ InternalState, InternalState
 180 00ac 1B69     		ldr	r3, [r3, #16]	@ CompFilterRoll.23_55->Sensor1, CompFilterRoll.23_55->Sensor1
 181 00ae 9B6C     		ldr	r3, [r3, #72]	@ float	@ D.9422_56->Y, D.9422_56->Y
 182 00b0 5360     		str	r3, [r2, #4]	@ float	@ D.9422_56->Y, InternalState.21_54->Roll
 183              	.L7:
 394:.\src\sensors\fusion/complementary.c **** 
 395:.\src\sensors\fusion/complementary.c **** 		TWB_Filter_Median_Apply_Float(CompFilterRoll->Filter, InternalState->Roll);
 184              		.loc 1 395 0
 185 00b2 2A4C     		ldr	r4, .L37+12	@ tmp338,
 186 00b4 274D     		ldr	r5, .L37+4	@ tmp340,
 187 00b6 2268     		ldr	r2, [r4, #0]	@ CompFilterRoll, CompFilterRoll
 188 00b8 2B68     		ldr	r3, [r5, #0]	@ InternalState, InternalState
 189 00ba D068     		ldr	r0, [r2, #12]	@, CompFilterRoll.23_58->Filter
 190 00bc 93ED010A 		flds	s0, [r3, #4]	@, InternalState.21_60->Roll
 191 00c0 FFF7FEFF 		bl	TWB_Filter_Median_Apply_Float	@
 192              	.LVL3:
 396:.\src\sensors\fusion/complementary.c **** 
 397:.\src\sensors\fusion/complementary.c **** 		InternalState->Roll = CompFilterRoll->Filter->Current;
 193              		.loc 1 397 0
 194 00c4 2268     		ldr	r2, [r4, #0]	@ CompFilterRoll.23, CompFilterRoll
 195 00c6 2B68     		ldr	r3, [r5, #0]	@ InternalState.21, InternalState
 196 00c8 D168     		ldr	r1, [r2, #12]	@ CompFilterRoll.23_63->Filter, CompFilterRoll.23_63->Filter
 398:.\src\sensors\fusion/complementary.c **** 		InternalState->RollRateDPS = ((GryoExtendedData_t *)CompFilterRoll->Sensor1->Extended)->RateYDPS;
 197              		.loc 1 398 0
 198 00ca 1269     		ldr	r2, [r2, #16]	@ CompFilterRoll.23_63->Sensor1, CompFilterRoll.23_63->Sensor1
 397:.\src\sensors\fusion/complementary.c **** 		InternalState->Roll = CompFilterRoll->Filter->Current;
 199              		.loc 1 397 0
 200 00cc 896A     		ldr	r1, [r1, #40]	@ float	@ D.9440_64->Current, D.9440_64->Current
 201              		.loc 1 398 0
 202 00ce 126D     		ldr	r2, [r2, #80]	@ D.9422_68->Extended, D.9422_68->Extended
 397:.\src\sensors\fusion/complementary.c **** 		InternalState->Roll = CompFilterRoll->Filter->Current;
 203              		.loc 1 397 0
 204 00d0 5960     		str	r1, [r3, #4]	@ float	@ D.9440_64->Current, InternalState.21_62->Roll
 205              		.loc 1 398 0
 206 00d2 5268     		ldr	r2, [r2, #4]	@ float	@ MEM[(struct GryoExtendedData_t *)D.9423_69].RateYDPS, MEM[(struct GryoE
 207 00d4 9A61     		str	r2, [r3, #24]	@ float	@ MEM[(struct GryoExtendedData_t *)D.9423_69].RateYDPS, InternalState.21
 208              	.L5:
 399:.\src\sensors\fusion/complementary.c **** 	}
 400:.\src\sensors\fusion/complementary.c **** 
 401:.\src\sensors\fusion/complementary.c **** 	if(ComplementaryFilterConfig->Sensor1Heading != SensorNone){
 209              		.loc 1 401 0
 210 00d6 1E4B     		ldr	r3, .L37	@ tmp348,
 211 00d8 1B68     		ldr	r3, [r3, #0]	@ ComplementaryFilterConfig.20, ComplementaryFilterConfig
 212 00da 1A7C     		ldrb	r2, [r3, #16]	@ zero_extendqisi2	@ ComplementaryFilterConfig.20_71->Sensor1Heading, Complemen
 213 00dc B2EE048A 		fconsts	s16, #36	@ tmp476,
 214 00e0 002A     		cmp	r2, #0	@ ComplementaryFilterConfig.20_71->Sensor1Heading
 215 00e2 5BD0     		beq	.L8	@
 402:.\src\sensors\fusion/complementary.c **** 		if(ComplementaryFilterConfig->Sensor2Heading != SensorNone){
 216              		.loc 1 402 0
 217 00e4 5A7C     		ldrb	r2, [r3, #17]	@ zero_extendqisi2	@ ComplementaryFilterConfig.20_71->Sensor2Heading, Complemen
 218 00e6 1E4B     		ldr	r3, .L37+16	@ tmp479,
 219 00e8 002A     		cmp	r2, #0	@ ComplementaryFilterConfig.20_71->Sensor2Heading
 220 00ea 3DD0     		beq	.L9	@
 221              	.LBB2:
 403:.\src\sensors\fusion/complementary.c **** 			float sensor1 = CompFilterHeading->Sensor1->Z;
ARM GAS  C:\Users\Kevin\AppData\Local\Temp\ccw18vSb.s 			page 12


 222              		.loc 1 403 0
 223 00ec 1B68     		ldr	r3, [r3, #0]	@ CompFilterHeading.24, CompFilterHeading
 224 00ee 1A69     		ldr	r2, [r3, #16]	@ CompFilterHeading.24_75->Sensor1, CompFilterHeading.24_75->Sensor1
 404:.\src\sensors\fusion/complementary.c **** 			float sensor2 = CompFilterHeading->Sensor2->Z;
 405:.\src\sensors\fusion/complementary.c **** 
 406:.\src\sensors\fusion/complementary.c **** 			/* Need to be careful around 0 degrees */
 407:.\src\sensors\fusion/complementary.c **** 			if(sensor1 > 350.0f && sensor2 < 10.0f){
 225              		.loc 1 407 0
 226 00f0 DFED1C6A 		flds	s13, .L37+20	@ tmp354,
 403:.\src\sensors\fusion/complementary.c **** 			float sensor1 = CompFilterHeading->Sensor1->Z;
 227              		.loc 1 403 0
 228 00f4 92ED137A 		flds	s14, [r2, #76]	@ sensor1, D.9451_76->Z
 229              	.LVL4:
 404:.\src\sensors\fusion/complementary.c **** 			float sensor2 = CompFilterHeading->Sensor2->Z;
 230              		.loc 1 404 0
 231 00f8 5A69     		ldr	r2, [r3, #20]	@ CompFilterHeading.24_75->Sensor2, CompFilterHeading.24_75->Sensor2
 232              		.loc 1 407 0
 233 00fa B4EEE67A 		fcmpes	s14, s13	@ sensor1, tmp354
 234 00fe F1EE10FA 		fmstat
 404:.\src\sensors\fusion/complementary.c **** 			float sensor2 = CompFilterHeading->Sensor2->Z;
 235              		.loc 1 404 0
 236 0102 D2ED137A 		flds	s15, [r2, #76]	@ sensor2, D.9452_79->Z
 237              	.LVL5:
 238 0106 134A     		ldr	r2, .L37+4	@ tmp480,
 239              		.loc 1 407 0
 240 0108 06DD     		ble	.L10	@,
 241              		.loc 1 407 0 is_stmt 0 discriminator 1
 242 010a F4EEC87A 		fcmpes	s15, s16	@ sensor2, tmp476
 243 010e F1EE10FA 		fmstat
 244 0112 01D5     		bpl	.L10	@,
 245              	.LVL6:
 408:.\src\sensors\fusion/complementary.c **** 				sensor1 = sensor2;
 409:.\src\sensors\fusion/complementary.c **** 				InternalState->Heading = sensor1;
 246              		.loc 1 409 0 is_stmt 1
 247 0114 1368     		ldr	r3, [r2, #0]	@ InternalState, InternalState
 248 0116 0BE0     		b	.L36	@
 249              	.LVL7:
 250              	.L10:
 410:.\src\sensors\fusion/complementary.c **** 			}
 411:.\src\sensors\fusion/complementary.c **** 			else if(sensor1 < 10.0f && sensor2 > 350.f){
 251              		.loc 1 411 0
 252 0118 B4EEC87A 		fcmpes	s14, s16	@ sensor1, tmp476
 253 011c F1EE10FA 		fmstat
 254 0120 09D5     		bpl	.L14	@,
 255              		.loc 1 411 0 is_stmt 0 discriminator 1
 256 0122 F4EEE67A 		fcmpes	s15, s13	@ sensor2, tmp481
 257 0126 F1EE10FA 		fmstat
 258 012a 04DD     		ble	.L14	@,
 259              	.LVL8:
 412:.\src\sensors\fusion/complementary.c **** 				sensor1 = sensor2;
 413:.\src\sensors\fusion/complementary.c **** 				InternalState->Heading = sensor1;
 260              		.loc 1 413 0 is_stmt 1
 261 012c 094B     		ldr	r3, .L37+4	@ tmp361,
 262 012e 1B68     		ldr	r3, [r3, #0]	@ InternalState, InternalState
 263              	.L36:
 264 0130 C3ED027A 		fsts	s15, [r3, #8]	@ sensor2,
 265 0134 1EE0     		b	.L13	@
ARM GAS  C:\Users\Kevin\AppData\Local\Temp\ccw18vSb.s 			page 13


 266              	.LVL9:
 267              	.L14:
 414:.\src\sensors\fusion/complementary.c **** 			}
 415:.\src\sensors\fusion/complementary.c **** 			else
 416:.\src\sensors\fusion/complementary.c **** 				InternalState->Heading = (sensor1 * CompFilterHeading->Period1) + (sensor2 * CompFilterHeading-
 268              		.loc 1 416 0
 269 0136 93ED016A 		flds	s12, [r3, #4]	@ CompFilterHeading.24_75->Period2, CompFilterHeading.24_75->Period2
 270 013a D3ED006A 		flds	s13, [r3, #0]	@ CompFilterHeading.24_75->Period1, CompFilterHeading.24_75->Period1
 271 013e 67EE867A 		fmuls	s15, s15, s12	@ tmp368, sensor2, CompFilterHeading.24_75->Period2
 272              	.LVL10:
 273 0142 47EE267A 		fmacs	s15, s14, s13	@ tmp368, sensor1, CompFilterHeading.24_75->Period1
 274 0146 1268     		ldr	r2, [r2, #0]	@ InternalState, InternalState
 275 0148 C2ED027A 		fsts	s15, [r2, #8]	@ tmp368, InternalState.21_85->Heading
 276 014c 12E0     		b	.L13	@
 277              	.L38:
 278 014e 00BF     		.align	2
 279              	.L37:
 280 0150 00000000 		.word	ComplementaryFilterConfig
 281 0154 00000000 		.word	InternalState
 282 0158 00000000 		.word	CompFilterPitch
 283 015c 00000000 		.word	CompFilterRoll
 284 0160 00000000 		.word	CompFilterHeading
 285 0164 0000AF43 		.word	1135542272
 286              	.LVL11:
 287              	.L9:
 288              	.LBE2:
 417:.\src\sensors\fusion/complementary.c **** 		}
 418:.\src\sensors\fusion/complementary.c **** 		else
 419:.\src\sensors\fusion/complementary.c **** 			InternalState->Heading = CompFilterHeading->Sensor1->Z;
 289              		.loc 1 419 0
 290 0168 1B68     		ldr	r3, [r3, #0]	@ CompFilterHeading, CompFilterHeading
 291 016a 464A     		ldr	r2, .L39	@ tmp370,
 292 016c 1B69     		ldr	r3, [r3, #16]	@ CompFilterHeading.24_94->Sensor1, CompFilterHeading.24_94->Sensor1
 293 016e 1268     		ldr	r2, [r2, #0]	@ InternalState, InternalState
 294 0170 DB6C     		ldr	r3, [r3, #76]	@ float	@ D.9451_95->Z, D.9451_95->Z
 295 0172 9360     		str	r3, [r2, #8]	@ float	@ D.9451_95->Z, InternalState.21_93->Heading
 296              	.L13:
 420:.\src\sensors\fusion/complementary.c **** 
 421:.\src\sensors\fusion/complementary.c **** 		TWB_Filter_Median_Apply_Float(CompFilterHeading->Filter, InternalState->Heading);
 297              		.loc 1 421 0
 298 0174 444C     		ldr	r4, .L39+4	@ tmp376,
 299 0176 434D     		ldr	r5, .L39	@ tmp378,
 300 0178 2268     		ldr	r2, [r4, #0]	@ CompFilterHeading, CompFilterHeading
 301 017a 2B68     		ldr	r3, [r5, #0]	@ InternalState, InternalState
 302 017c D068     		ldr	r0, [r2, #12]	@, CompFilterHeading.24_97->Filter
 303 017e 93ED020A 		flds	s0, [r3, #8]	@, InternalState.21_99->Heading
 304 0182 FFF7FEFF 		bl	TWB_Filter_Median_Apply_Float	@
 305              	.LVL12:
 422:.\src\sensors\fusion/complementary.c **** 
 423:.\src\sensors\fusion/complementary.c **** 		InternalState->Heading = CompFilterHeading->Filter->Current;
 306              		.loc 1 423 0
 307 0186 2268     		ldr	r2, [r4, #0]	@ CompFilterHeading, CompFilterHeading
 308 0188 2B68     		ldr	r3, [r5, #0]	@ InternalState.21, InternalState
 309 018a D268     		ldr	r2, [r2, #12]	@ CompFilterHeading.24_102->Filter, CompFilterHeading.24_102->Filter
 310 018c 926A     		ldr	r2, [r2, #40]	@ float	@ D.9468_103->Current, D.9468_103->Current
 311 018e 9A60     		str	r2, [r3, #8]	@ float	@ D.9468_103->Current, InternalState.21_101->Heading
 424:.\src\sensors\fusion/complementary.c **** 		InternalState->YawRateDPS = ((GryoExtendedData_t *)CompFilterRoll->Sensor1->Extended)->RateZDPS;
ARM GAS  C:\Users\Kevin\AppData\Local\Temp\ccw18vSb.s 			page 14


 312              		.loc 1 424 0
 313 0190 3E4A     		ldr	r2, .L39+8	@ tmp385,
 314 0192 1268     		ldr	r2, [r2, #0]	@ CompFilterRoll, CompFilterRoll
 315 0194 1269     		ldr	r2, [r2, #16]	@ CompFilterRoll.23_106->Sensor1, CompFilterRoll.23_106->Sensor1
 316 0196 126D     		ldr	r2, [r2, #80]	@ D.9422_107->Extended, D.9422_107->Extended
 317 0198 9268     		ldr	r2, [r2, #8]	@ float	@ MEM[(struct GryoExtendedData_t *)D.9423_108].RateZDPS, MEM[(struct Gryo
 318 019a DA61     		str	r2, [r3, #28]	@ float	@ MEM[(struct GryoExtendedData_t *)D.9423_108].RateZDPS, InternalState.2
 319              	.L8:
 425:.\src\sensors\fusion/complementary.c **** 	}
 426:.\src\sensors\fusion/complementary.c **** 
 427:.\src\sensors\fusion/complementary.c **** 	TWB_Autopilot_DetermineAltitude(CompFilterAltitude);
 320              		.loc 1 427 0
 321 019c 3C4B     		ldr	r3, .L39+12	@ tmp389,
 322 019e 1868     		ldr	r0, [r3, #0]	@, CompFilterAltitude
 323 01a0 FFF7FEFF 		bl	TWB_Autopilot_DetermineAltitude	@
 324              	.LVL13:
 428:.\src\sensors\fusion/complementary.c **** 
 429:.\src\sensors\fusion/complementary.c **** 	/*Now update the gyro with the output of the complemenatary filter */
 430:.\src\sensors\fusion/complementary.c **** 	if(ComplementaryFilterConfig->Sensor1Pitch >= GyroITG3200 && ComplementaryFilterConfig->Sensor1Pit
 325              		.loc 1 430 0
 326 01a4 3B4B     		ldr	r3, .L39+16	@ tmp390,
 327 01a6 1B68     		ldr	r3, [r3, #0]	@ ComplementaryFilterConfig.20, ComplementaryFilterConfig
 328 01a8 9A7A     		ldrb	r2, [r3, #10]	@ zero_extendqisi2	@ ComplementaryFilterConfig.20_111->Sensor1Pitch, Complement
 329 01aa 203A     		subs	r2, r2, #32	@ tmp394, ComplementaryFilterConfig.20_111->Sensor1Pitch,
 330 01ac 022A     		cmp	r2, #2	@ tmp394,
 331 01ae 06D8     		bhi	.L17	@,
 431:.\src\sensors\fusion/complementary.c **** 		CompFilterPitch->Sensor1->X = InternalState->Pitch;
 332              		.loc 1 431 0
 333 01b0 394A     		ldr	r2, .L39+20	@ tmp396,
 334 01b2 3449     		ldr	r1, .L39	@ tmp399,
 335 01b4 1268     		ldr	r2, [r2, #0]	@ CompFilterPitch, CompFilterPitch
 336 01b6 0968     		ldr	r1, [r1, #0]	@ InternalState, InternalState
 337 01b8 1269     		ldr	r2, [r2, #16]	@ CompFilterPitch.22_114->Sensor1, CompFilterPitch.22_114->Sensor1
 338 01ba 0968     		ldr	r1, [r1, #0]	@ float	@ InternalState.21_116->Pitch, InternalState.21_116->Pitch
 339 01bc 5164     		str	r1, [r2, #68]	@ float	@ InternalState.21_116->Pitch, D.9408_115->X
 340              	.L17:
 432:.\src\sensors\fusion/complementary.c **** 
 433:.\src\sensors\fusion/complementary.c **** 	if(ComplementaryFilterConfig->Sensor2Pitch >= GyroITG3200 && ComplementaryFilterConfig->Sensor2Pit
 341              		.loc 1 433 0
 342 01be DA7A     		ldrb	r2, [r3, #11]	@ zero_extendqisi2	@ ComplementaryFilterConfig.20_111->Sensor2Pitch, Complement
 343 01c0 203A     		subs	r2, r2, #32	@ tmp404, ComplementaryFilterConfig.20_111->Sensor2Pitch,
 344 01c2 022A     		cmp	r2, #2	@ tmp404,
 345 01c4 06D8     		bhi	.L18	@,
 434:.\src\sensors\fusion/complementary.c **** 		CompFilterPitch->Sensor2->X = InternalState->Pitch;
 346              		.loc 1 434 0
 347 01c6 344A     		ldr	r2, .L39+20	@ tmp406,
 348 01c8 2E49     		ldr	r1, .L39	@ tmp409,
 349 01ca 1268     		ldr	r2, [r2, #0]	@ CompFilterPitch, CompFilterPitch
 350 01cc 0968     		ldr	r1, [r1, #0]	@ InternalState, InternalState
 351 01ce 5269     		ldr	r2, [r2, #20]	@ CompFilterPitch.22_121->Sensor2, CompFilterPitch.22_121->Sensor2
 352 01d0 0968     		ldr	r1, [r1, #0]	@ float	@ InternalState.21_123->Pitch, InternalState.21_123->Pitch
 353 01d2 5164     		str	r1, [r2, #68]	@ float	@ InternalState.21_123->Pitch, D.9412_122->X
 354              	.L18:
 435:.\src\sensors\fusion/complementary.c **** 
 436:.\src\sensors\fusion/complementary.c **** 	if(ComplementaryFilterConfig->Sensor1Roll >= GyroITG3200 && ComplementaryFilterConfig->Sensor1Roll
 355              		.loc 1 436 0
 356 01d4 5A7B     		ldrb	r2, [r3, #13]	@ zero_extendqisi2	@ ComplementaryFilterConfig.20_111->Sensor1Roll, Complementa
ARM GAS  C:\Users\Kevin\AppData\Local\Temp\ccw18vSb.s 			page 15


 357 01d6 203A     		subs	r2, r2, #32	@ tmp414, ComplementaryFilterConfig.20_111->Sensor1Roll,
 358 01d8 022A     		cmp	r2, #2	@ tmp414,
 359 01da 06D8     		bhi	.L19	@,
 437:.\src\sensors\fusion/complementary.c **** 		CompFilterPitch->Sensor1->Y = InternalState->Roll;
 360              		.loc 1 437 0
 361 01dc 2E4A     		ldr	r2, .L39+20	@ tmp416,
 362 01de 2949     		ldr	r1, .L39	@ tmp419,
 363 01e0 1268     		ldr	r2, [r2, #0]	@ CompFilterPitch, CompFilterPitch
 364 01e2 0968     		ldr	r1, [r1, #0]	@ InternalState, InternalState
 365 01e4 1269     		ldr	r2, [r2, #16]	@ CompFilterPitch.22_128->Sensor1, CompFilterPitch.22_128->Sensor1
 366 01e6 4968     		ldr	r1, [r1, #4]	@ float	@ InternalState.21_130->Roll, InternalState.21_130->Roll
 367 01e8 9164     		str	r1, [r2, #72]	@ float	@ InternalState.21_130->Roll, D.9408_129->Y
 368              	.L19:
 438:.\src\sensors\fusion/complementary.c **** 
 439:.\src\sensors\fusion/complementary.c **** 	if(ComplementaryFilterConfig->Sensor2Roll >= GyroITG3200 && ComplementaryFilterConfig->Sensor2Roll
 369              		.loc 1 439 0
 370 01ea 9A7B     		ldrb	r2, [r3, #14]	@ zero_extendqisi2	@ ComplementaryFilterConfig.20_111->Sensor2Roll, Complementa
 371 01ec 203A     		subs	r2, r2, #32	@ tmp424, ComplementaryFilterConfig.20_111->Sensor2Roll,
 372 01ee 022A     		cmp	r2, #2	@ tmp424,
 373 01f0 06D8     		bhi	.L20	@,
 440:.\src\sensors\fusion/complementary.c **** 		CompFilterPitch->Sensor2->Y = InternalState->Roll;
 374              		.loc 1 440 0
 375 01f2 294A     		ldr	r2, .L39+20	@ tmp426,
 376 01f4 2349     		ldr	r1, .L39	@ tmp429,
 377 01f6 1268     		ldr	r2, [r2, #0]	@ CompFilterPitch, CompFilterPitch
 378 01f8 0968     		ldr	r1, [r1, #0]	@ InternalState, InternalState
 379 01fa 5269     		ldr	r2, [r2, #20]	@ CompFilterPitch.22_135->Sensor2, CompFilterPitch.22_135->Sensor2
 380 01fc 4968     		ldr	r1, [r1, #4]	@ float	@ InternalState.21_137->Roll, InternalState.21_137->Roll
 381 01fe 9164     		str	r1, [r2, #72]	@ float	@ InternalState.21_137->Roll, D.9412_136->Y
 382              	.L20:
 441:.\src\sensors\fusion/complementary.c **** 
 442:.\src\sensors\fusion/complementary.c **** 	if(ComplementaryFilterConfig->Sensor1Heading >= GyroITG3200 && ComplementaryFilterConfig->Sensor1H
 383              		.loc 1 442 0
 384 0200 1A7C     		ldrb	r2, [r3, #16]	@ zero_extendqisi2	@ ComplementaryFilterConfig.20_111->Sensor1Heading, Compleme
 385 0202 203A     		subs	r2, r2, #32	@ tmp434, ComplementaryFilterConfig.20_111->Sensor1Heading,
 386 0204 022A     		cmp	r2, #2	@ tmp434,
 387 0206 06D8     		bhi	.L21	@,
 443:.\src\sensors\fusion/complementary.c **** 		CompFilterPitch->Sensor1->Z = InternalState->Heading;
 388              		.loc 1 443 0
 389 0208 234A     		ldr	r2, .L39+20	@ tmp436,
 390 020a 1E49     		ldr	r1, .L39	@ tmp439,
 391 020c 1268     		ldr	r2, [r2, #0]	@ CompFilterPitch, CompFilterPitch
 392 020e 0968     		ldr	r1, [r1, #0]	@ InternalState, InternalState
 393 0210 1269     		ldr	r2, [r2, #16]	@ CompFilterPitch.22_142->Sensor1, CompFilterPitch.22_142->Sensor1
 394 0212 8968     		ldr	r1, [r1, #8]	@ float	@ InternalState.21_144->Heading, InternalState.21_144->Heading
 395 0214 D164     		str	r1, [r2, #76]	@ float	@ InternalState.21_144->Heading, D.9408_143->Z
 396              	.L21:
 444:.\src\sensors\fusion/complementary.c **** 
 445:.\src\sensors\fusion/complementary.c **** 	if(ComplementaryFilterConfig->Sensor2Heading >= GyroITG3200 && ComplementaryFilterConfig->Sensor2H
 397              		.loc 1 445 0
 398 0216 5B7C     		ldrb	r3, [r3, #17]	@ zero_extendqisi2	@ ComplementaryFilterConfig.20_111->Sensor2Heading, Compleme
 399 0218 203B     		subs	r3, r3, #32	@ tmp444, ComplementaryFilterConfig.20_111->Sensor2Heading,
 400 021a 022B     		cmp	r3, #2	@ tmp444,
 401 021c 06D8     		bhi	.L22	@,
 446:.\src\sensors\fusion/complementary.c **** 		CompFilterPitch->Sensor2->Z = InternalState->Heading;
 402              		.loc 1 446 0
 403 021e 1E4B     		ldr	r3, .L39+20	@ tmp446,
ARM GAS  C:\Users\Kevin\AppData\Local\Temp\ccw18vSb.s 			page 16


 404 0220 184A     		ldr	r2, .L39	@ tmp449,
 405 0222 1B68     		ldr	r3, [r3, #0]	@ CompFilterPitch, CompFilterPitch
 406 0224 1268     		ldr	r2, [r2, #0]	@ InternalState, InternalState
 407 0226 5B69     		ldr	r3, [r3, #20]	@ CompFilterPitch.22_149->Sensor2, CompFilterPitch.22_149->Sensor2
 408 0228 9268     		ldr	r2, [r2, #8]	@ float	@ InternalState.21_151->Heading, InternalState.21_151->Heading
 409 022a DA64     		str	r2, [r3, #76]	@ float	@ InternalState.21_151->Heading, D.9412_150->Z
 410              	.L22:
 447:.\src\sensors\fusion/complementary.c **** 
 448:.\src\sensors\fusion/complementary.c **** 	SensorData->Pitch = (int16_t)(InternalState->Pitch * 10.0f);
 411              		.loc 1 448 0
 412 022c 154A     		ldr	r2, .L39	@ tmp452,
 413 022e 1B4B     		ldr	r3, .L39+24	@ tmp451,
 414 0230 1268     		ldr	r2, [r2, #0]	@ InternalState.21, InternalState
 415 0232 1B68     		ldr	r3, [r3, #0]	@ SensorData.26, SensorData
 416 0234 D2ED007A 		flds	s15, [r2, #0]	@ InternalState.21_154->Pitch, InternalState.21_154->Pitch
 417 0238 67EE887A 		fmuls	s15, s15, s16	@ tmp453, InternalState.21_154->Pitch, tmp476
 449:.\src\sensors\fusion/complementary.c **** 	SensorData->Roll = (int16_t)(InternalState->Roll * 10.0f);
 450:.\src\sensors\fusion/complementary.c **** 	SensorData->Heading = (uint16_t)(InternalState->Heading * 10.0f);
 451:.\src\sensors\fusion/complementary.c **** 	SensorData->AltitudeM = (int16_t)(InternalState->AltitudeM * 10.0f);
 452:.\src\sensors\fusion/complementary.c **** 
 453:.\src\sensors\fusion/complementary.c **** 	return OK;
 454:.\src\sensors\fusion/complementary.c **** }
 418              		.loc 1 454 0
 419 023c 0020     		movs	r0, #0	@,
 448:.\src\sensors\fusion/complementary.c **** 	SensorData->Pitch = (int16_t)(InternalState->Pitch * 10.0f);
 420              		.loc 1 448 0
 421 023e FDEEE77A 		ftosizs	s15, s15	@, tmp453
 422 0242 17EE901A 		fmrs	r1, s15	@ int	@ tmp456,
 449:.\src\sensors\fusion/complementary.c **** 	SensorData->Roll = (int16_t)(InternalState->Roll * 10.0f);
 423              		.loc 1 449 0
 424 0246 D2ED017A 		flds	s15, [r2, #4]	@ InternalState.21_154->Roll, InternalState.21_154->Roll
 425 024a 67EE887A 		fmuls	s15, s15, s16	@ tmp458, InternalState.21_154->Roll, tmp476
 448:.\src\sensors\fusion/complementary.c **** 	SensorData->Pitch = (int16_t)(InternalState->Pitch * 10.0f);
 426              		.loc 1 448 0
 427 024e 1980     		strh	r1, [r3, #0]	@ movhi	@ tmp456, SensorData.26_153->Pitch
 449:.\src\sensors\fusion/complementary.c **** 	SensorData->Roll = (int16_t)(InternalState->Roll * 10.0f);
 428              		.loc 1 449 0
 429 0250 FDEEE77A 		ftosizs	s15, s15	@, tmp458
 430 0254 17EE901A 		fmrs	r1, s15	@ int	@ tmp461,
 450:.\src\sensors\fusion/complementary.c **** 	SensorData->Heading = (uint16_t)(InternalState->Heading * 10.0f);
 431              		.loc 1 450 0
 432 0258 D2ED027A 		flds	s15, [r2, #8]	@ InternalState.21_154->Heading, InternalState.21_154->Heading
 433 025c 67EE887A 		fmuls	s15, s15, s16	@ tmp463, InternalState.21_154->Heading, tmp476
 449:.\src\sensors\fusion/complementary.c **** 	SensorData->Roll = (int16_t)(InternalState->Roll * 10.0f);
 434              		.loc 1 449 0
 435 0260 5980     		strh	r1, [r3, #2]	@ movhi	@ tmp461, SensorData.26_153->Roll
 450:.\src\sensors\fusion/complementary.c **** 	SensorData->Heading = (uint16_t)(InternalState->Heading * 10.0f);
 436              		.loc 1 450 0
 437 0262 FCEEE77A 		ftouizs	s15, s15	@, tmp463
 438 0266 17EE901A 		fmrs	r1, s15	@ int	@ tmp466,
 451:.\src\sensors\fusion/complementary.c **** 	SensorData->AltitudeM = (int16_t)(InternalState->AltitudeM * 10.0f);
 439              		.loc 1 451 0
 440 026a D2ED037A 		flds	s15, [r2, #12]	@ InternalState.21_154->AltitudeM, InternalState.21_154->AltitudeM
 441 026e 27EE888A 		fmuls	s16, s15, s16	@ tmp468, InternalState.21_154->AltitudeM, tmp476
 450:.\src\sensors\fusion/complementary.c **** 	SensorData->Heading = (uint16_t)(InternalState->Heading * 10.0f);
 442              		.loc 1 450 0
 443 0272 9980     		strh	r1, [r3, #4]	@ movhi	@ tmp466, SensorData.26_153->Heading
ARM GAS  C:\Users\Kevin\AppData\Local\Temp\ccw18vSb.s 			page 17


 451:.\src\sensors\fusion/complementary.c **** 	SensorData->AltitudeM = (int16_t)(InternalState->AltitudeM * 10.0f);
 444              		.loc 1 451 0
 445 0274 BDEEC88A 		ftosizs	s16, s16	@, tmp468
 446 0278 18EE102A 		fmrs	r2, s16	@ int	@ tmp471,
 447 027c DA80     		strh	r2, [r3, #6]	@ movhi	@ tmp471, SensorData.26_153->AltitudeM
 448              		.loc 1 454 0
 449 027e BDEC028B 		fldmfdd	sp!, {d8}
 450 0282 38BD     		pop	{r3, r4, r5, pc}
 451              	.L40:
 452              		.align	2
 453              	.L39:
 454 0284 00000000 		.word	InternalState
 455 0288 00000000 		.word	CompFilterHeading
 456 028c 00000000 		.word	CompFilterRoll
 457 0290 00000000 		.word	CompFilterAltitude
 458 0294 00000000 		.word	ComplementaryFilterConfig
 459 0298 00000000 		.word	CompFilterPitch
 460 029c 00000000 		.word	SensorData
 461              		.cfi_endproc
 462              	.LFE117:
 463              		.size	TWB_SNSR_Complementary_Process, .-TWB_SNSR_Complementary_Process
 464              		.align	1
 465              		.global	__snsr_ResolveCompFilter
 466              		.thumb
 467              		.thumb_func
 468              		.type	__snsr_ResolveCompFilter, %function
 469              	__snsr_ResolveCompFilter:
 470              	.LFB110:
  35:.\src\sensors\fusion/complementary.c **** void __snsr_ResolveCompFilter(CompFilterValues_t value, CompFilter_t *filterSettings){
 471              		.loc 1 35 0
 472              		.cfi_startproc
 473              		@ args = 0, pretend = 0, frame = 0
 474              		@ frame_needed = 0, uses_anonymous_args = 0
 475              	.LVL14:
 476 02a0 1228     		cmp	r0, #18	@ value,
 477 02a2 98BF     		it	ls
 478 02a4 144B     		ldrls	r3, .L44	@ tmp146,
 479 02a6 10B5     		push	{r4, lr}	@
 480              	.LCFI2:
 481              		.cfi_def_cfa_offset 8
 482              		.cfi_offset 4, -8
 483              		.cfi_offset 14, -4
 484 02a8 98BF     		it	ls
 485 02aa 03EB8000 		addls	r0, r3, r0, lsl #2	@, tmp148, tmp146, value,
 486              	.LVL15:
  60:.\src\sensors\fusion/complementary.c **** 	float ms = TWB_Timer_GetMSFromSampleRate(ComplementaryFilterConfig->SampleRate) / 1000.0f;
 487              		.loc 1 60 0
 488 02ae 134B     		ldr	r3, .L44+4	@ tmp150,
 489 02b0 1B68     		ldr	r3, [r3, #0]	@ ComplementaryFilterConfig, ComplementaryFilterConfig
  35:.\src\sensors\fusion/complementary.c **** void __snsr_ResolveCompFilter(CompFilterValues_t value, CompFilter_t *filterSettings){
 490              		.loc 1 35 0
 491 02b2 2DED028B 		fstmfdd	sp!, {d8}	@,
 492              	.LCFI3:
 493              		.cfi_def_cfa_offset 16
 494              		.cfi_offset 80, -16
 495 02b6 98BF     		it	ls
 496 02b8 90ED008A 		fldsls	s16, [r0, #0]	@ timeConstant, CSWTCH.60
ARM GAS  C:\Users\Kevin\AppData\Local\Temp\ccw18vSb.s 			page 18


  60:.\src\sensors\fusion/complementary.c **** 	float ms = TWB_Timer_GetMSFromSampleRate(ComplementaryFilterConfig->SampleRate) / 1000.0f;
 497              		.loc 1 60 0
 498 02bc 5878     		ldrb	r0, [r3, #1]	@ zero_extendqisi2	@, ComplementaryFilterConfig.56_24->SampleRate
  35:.\src\sensors\fusion/complementary.c **** void __snsr_ResolveCompFilter(CompFilterValues_t value, CompFilter_t *filterSettings){
 499              		.loc 1 35 0
 500 02be 0C46     		mov	r4, r1	@ filterSettings, filterSettings
 501 02c0 88BF     		it	hi
 502 02c2 9FED0F8A 		fldshi	s16, .L44+8	@ timeConstant,
 503              	.LVL16:
  60:.\src\sensors\fusion/complementary.c **** 	float ms = TWB_Timer_GetMSFromSampleRate(ComplementaryFilterConfig->SampleRate) / 1000.0f;
 504              		.loc 1 60 0
 505 02c6 FFF7FEFF 		bl	TWB_Timer_GetMSFromSampleRate	@
 506              	.LVL17:
 507 02ca 07EE900A 		fmsr	s15, r0	@ int	@,
 508 02ce B8EEE77A 		fsitos	s14, s15	@ tmp153,
 509 02d2 DFED0C7A 		flds	s15, .L44+12	@ tmp155,
 510 02d6 C7EE277A 		fdivs	s15, s14, s15	@ tmp154, tmp153, tmp155
  65:.\src\sensors\fusion/complementary.c **** 	filterSettings->Period2 = 1.0f - alpha;
 511              		.loc 1 65 0
 512 02da B7EE007A 		fconsts	s14, #112	@ tmp158,
  62:.\src\sensors\fusion/complementary.c ****     float alpha = timeConstant / (timeConstant + ms);
 513              		.loc 1 62 0
 514 02de 78EE277A 		fadds	s15, s16, s15	@ tmp156, timeConstant, tmp154
 515 02e2 C8EE277A 		fdivs	s15, s16, s15	@ alpha, timeConstant, tmp156
 516              	.LVL18:
  64:.\src\sensors\fusion/complementary.c **** 	filterSettings->Period1 = alpha;;
 517              		.loc 1 64 0
 518 02e6 C4ED007A 		fsts	s15, [r4, #0]	@ alpha, filterSettings_32(D)->Period1
  65:.\src\sensors\fusion/complementary.c **** 	filterSettings->Period2 = 1.0f - alpha;
 519              		.loc 1 65 0
 520 02ea 77EE677A 		fsubs	s15, s14, s15	@ tmp157, tmp158, alpha
 521              	.LVL19:
 522 02ee C4ED017A 		fsts	s15, [r4, #4]	@ tmp157, filterSettings_32(D)->Period2
  66:.\src\sensors\fusion/complementary.c **** }
 523              		.loc 1 66 0
 524 02f2 BDEC028B 		fldmfdd	sp!, {d8}
 525 02f6 10BD     		pop	{r4, pc}
 526              	.L45:
 527              		.align	2
 528              	.L44:
 529 02f8 00000000 		.word	.LANCHOR0
 530 02fc 00000000 		.word	ComplementaryFilterConfig
 531 0300 00000000 		.word	0
 532 0304 00007A44 		.word	1148846080
 533              		.cfi_endproc
 534              	.LFE110:
 535              		.size	__snsr_ResolveCompFilter, .-__snsr_ResolveCompFilter
 536              		.align	1
 537              		.global	__snsr_compFilter_ResolveCompFilters
 538              		.thumb
 539              		.thumb_func
 540              		.type	__snsr_compFilter_ResolveCompFilters, %function
 541              	__snsr_compFilter_ResolveCompFilters:
 542              	.LFB111:
  68:.\src\sensors\fusion/complementary.c **** void __snsr_compFilter_ResolveCompFilters(void){
 543              		.loc 1 68 0
 544              		.cfi_startproc
ARM GAS  C:\Users\Kevin\AppData\Local\Temp\ccw18vSb.s 			page 19


 545              		@ args = 0, pretend = 0, frame = 0
 546              		@ frame_needed = 0, uses_anonymous_args = 0
 547 0308 10B5     		push	{r4, lr}	@
 548              	.LCFI4:
 549              		.cfi_def_cfa_offset 8
 550              		.cfi_offset 4, -8
 551              		.cfi_offset 14, -4
  69:.\src\sensors\fusion/complementary.c **** 	__snsr_ResolveCompFilter(ComplementaryFilterConfig->TimeConstantPitch, CompFilterPitch);
 552              		.loc 1 69 0
 553 030a 0D4C     		ldr	r4, .L47	@ tmp147,
 554 030c 2368     		ldr	r3, [r4, #0]	@ ComplementaryFilterConfig, ComplementaryFilterConfig
 555 030e 9879     		ldrb	r0, [r3, #6]	@ zero_extendqisi2	@, ComplementaryFilterConfig.51_1->TimeConstantPitch
 556 0310 0C4B     		ldr	r3, .L47+4	@ tmp149,
 557 0312 1968     		ldr	r1, [r3, #0]	@, CompFilterPitch
 558 0314 FFF7FEFF 		bl	__snsr_ResolveCompFilter	@
 559              	.LVL20:
  70:.\src\sensors\fusion/complementary.c **** 	__snsr_ResolveCompFilter(ComplementaryFilterConfig->TimeConstantRoll, CompFilterRoll);
 560              		.loc 1 70 0
 561 0318 2368     		ldr	r3, [r4, #0]	@ ComplementaryFilterConfig, ComplementaryFilterConfig
 562 031a D879     		ldrb	r0, [r3, #7]	@ zero_extendqisi2	@, ComplementaryFilterConfig.51_4->TimeConstantRoll
 563 031c 0A4B     		ldr	r3, .L47+8	@ tmp153,
 564 031e 1968     		ldr	r1, [r3, #0]	@, CompFilterRoll
 565 0320 FFF7FEFF 		bl	__snsr_ResolveCompFilter	@
 566              	.LVL21:
  71:.\src\sensors\fusion/complementary.c **** 	__snsr_ResolveCompFilter(ComplementaryFilterConfig->TimeConstantHeading, CompFilterHeading);
 567              		.loc 1 71 0
 568 0324 2368     		ldr	r3, [r4, #0]	@ ComplementaryFilterConfig, ComplementaryFilterConfig
 569 0326 187A     		ldrb	r0, [r3, #8]	@ zero_extendqisi2	@, ComplementaryFilterConfig.51_7->TimeConstantHeading
 570 0328 084B     		ldr	r3, .L47+12	@ tmp157,
 571 032a 1968     		ldr	r1, [r3, #0]	@, CompFilterHeading
 572 032c FFF7FEFF 		bl	__snsr_ResolveCompFilter	@
 573              	.LVL22:
  72:.\src\sensors\fusion/complementary.c **** 	__snsr_ResolveCompFilter(ComplementaryFilterConfig->TimeConstantAltitude, CompFilterAltitude);
 574              		.loc 1 72 0
 575 0330 2368     		ldr	r3, [r4, #0]	@ ComplementaryFilterConfig, ComplementaryFilterConfig
 576 0332 587A     		ldrb	r0, [r3, #9]	@ zero_extendqisi2	@, ComplementaryFilterConfig.51_10->TimeConstantAltitude
 577 0334 064B     		ldr	r3, .L47+16	@ tmp161,
 578 0336 1968     		ldr	r1, [r3, #0]	@, CompFilterAltitude
  73:.\src\sensors\fusion/complementary.c **** }
 579              		.loc 1 73 0
 580 0338 BDE81040 		pop	{r4, lr}	@
  72:.\src\sensors\fusion/complementary.c **** 	__snsr_ResolveCompFilter(ComplementaryFilterConfig->TimeConstantAltitude, CompFilterAltitude);
 581              		.loc 1 72 0
 582 033c FFF7FEBF 		b	__snsr_ResolveCompFilter	@
 583              	.LVL23:
 584              	.L48:
 585              		.align	2
 586              	.L47:
 587 0340 00000000 		.word	ComplementaryFilterConfig
 588 0344 00000000 		.word	CompFilterPitch
 589 0348 00000000 		.word	CompFilterRoll
 590 034c 00000000 		.word	CompFilterHeading
 591 0350 00000000 		.word	CompFilterAltitude
 592              		.cfi_endproc
 593              	.LFE111:
 594              		.size	__snsr_compFilter_ResolveCompFilters, .-__snsr_compFilter_ResolveCompFilters
 595              		.align	1
ARM GAS  C:\Users\Kevin\AppData\Local\Temp\ccw18vSb.s 			page 20


 596              		.global	__snsr_compFilter_ResolveSensor
 597              		.thumb
 598              		.thumb_func
 599              		.type	__snsr_compFilter_ResolveSensor, %function
 600              	__snsr_compFilter_ResolveSensor:
 601              	.LFB112:
  75:.\src\sensors\fusion/complementary.c **** Sensor_t *__snsr_compFilter_ResolveSensor(SensorDevice_e sensorType){
 602              		.loc 1 75 0
 603              		.cfi_startproc
 604              		@ args = 0, pretend = 0, frame = 0
 605              		@ frame_needed = 0, uses_anonymous_args = 0
 606              		@ link register save eliminated.
 607              	.LVL24:
  76:.\src\sensors\fusion/complementary.c **** 	switch(sensorType){
 608              		.loc 1 76 0
 609 0354 4028     		cmp	r0, #64	@ sensorType,
 610 0356 28D0     		beq	.L57	@,
 611 0358 0ED8     		bhi	.L63	@,
 612 035a 3028     		cmp	r0, #48	@ sensorType,
 613 035c 1FD0     		beq	.L54	@,
 614 035e 06D8     		bhi	.L64	@,
 615 0360 2128     		cmp	r0, #33	@ sensorType,
 616 0362 1AD0     		beq	.L52	@,
 617 0364 2228     		cmp	r0, #34	@ sensorType,
 618 0366 16D0     		beq	.L53	@,
 619 0368 2028     		cmp	r0, #32	@ sensorType,
 620 036a 2BD1     		bne	.L66	@,
 621 036c 11E0     		b	.L51	@
 622              	.L64:
 623 036e 3128     		cmp	r0, #49	@ sensorType,
 624 0370 17D0     		beq	.L55	@,
 625 0372 3228     		cmp	r0, #50	@ sensorType,
 626 0374 26D1     		bne	.L66	@,
 627 0376 16E0     		b	.L56	@
 628              	.L63:
 629 0378 5128     		cmp	r0, #81	@ sensorType,
 630 037a 1ED0     		beq	.L60	@,
 631 037c 04D8     		bhi	.L65	@,
 632 037e 4128     		cmp	r0, #65	@ sensorType,
 633 0380 15D0     		beq	.L58	@,
 634 0382 5028     		cmp	r0, #80	@ sensorType,
 635 0384 1ED1     		bne	.L66	@,
 636 0386 14E0     		b	.L59	@
 637              	.L65:
 638 0388 5228     		cmp	r0, #82	@ sensorType,
 639 038a 18D0     		beq	.L61	@,
 640 038c 5328     		cmp	r0, #83	@ sensorType,
 641 038e 19D1     		bne	.L66	@,
 642 0390 11E0     		b	.L62	@
 643              	.L51:
  77:.\src\sensors\fusion/complementary.c **** 		case GyroITG3200: return GyroITG3200Sensor;
 644              		.loc 1 77 0
 645 0392 0D4B     		ldr	r3, .L68	@ tmp137,
 646 0394 14E0     		b	.L67	@
 647              	.L53:
  78:.\src\sensors\fusion/complementary.c **** 		case GyroL3GD20: return GyroL3GD20Sensor;
 648              		.loc 1 78 0
ARM GAS  C:\Users\Kevin\AppData\Local\Temp\ccw18vSb.s 			page 21


 649 0396 0D4B     		ldr	r3, .L68+4	@ tmp138,
 650 0398 12E0     		b	.L67	@
 651              	.L52:
  79:.\src\sensors\fusion/complementary.c **** 		case GyroMPU60x0: return GyroMPU60x0Sensor;
 652              		.loc 1 79 0
 653 039a 0D4B     		ldr	r3, .L68+8	@ tmp139,
 654 039c 10E0     		b	.L67	@
 655              	.L54:
  81:.\src\sensors\fusion/complementary.c **** 		case AccLSM303: return AccLSM303Sensor;
 656              		.loc 1 81 0
 657 039e 0D4B     		ldr	r3, .L68+12	@ tmp140,
 658 03a0 0EE0     		b	.L67	@
 659              	.L55:
  82:.\src\sensors\fusion/complementary.c **** 		case AccADXL345: return AccADXL345Sensor;
 660              		.loc 1 82 0
 661 03a2 0D4B     		ldr	r3, .L68+16	@ tmp141,
 662 03a4 0CE0     		b	.L67	@
 663              	.L56:
  83:.\src\sensors\fusion/complementary.c **** 		case AccMPU60x0: return AccMPU60x0Sensor;
 664              		.loc 1 83 0
 665 03a6 0D4B     		ldr	r3, .L68+20	@ tmp142,
 666 03a8 0AE0     		b	.L67	@
 667              	.L57:
  85:.\src\sensors\fusion/complementary.c **** 		case MagLSM303: return MagLSM303Sensor;
 668              		.loc 1 85 0
 669 03aa 0D4B     		ldr	r3, .L68+24	@ tmp143,
 670 03ac 08E0     		b	.L67	@
 671              	.L58:
  86:.\src\sensors\fusion/complementary.c **** 		case MagHMS5883: return MagHMC5883Sensor;
 672              		.loc 1 86 0
 673 03ae 0D4B     		ldr	r3, .L68+28	@ tmp144,
 674 03b0 06E0     		b	.L67	@
 675              	.L59:
  88:.\src\sensors\fusion/complementary.c **** 		case AltBMP085: return PressureBMP085Sensor;
 676              		.loc 1 88 0
 677 03b2 0D4B     		ldr	r3, .L68+32	@ tmp145,
 678 03b4 04E0     		b	.L67	@
 679              	.L62:
  89:.\src\sensors\fusion/complementary.c **** 		case AltMS5611: return PressureMS5611Sensor;
 680              		.loc 1 89 0
 681 03b6 0D4B     		ldr	r3, .L68+36	@ tmp146,
 682 03b8 02E0     		b	.L67	@
 683              	.L60:
  90:.\src\sensors\fusion/complementary.c **** 		case AltSonar: return SonarSensor;
 684              		.loc 1 90 0
 685 03ba 0D4B     		ldr	r3, .L68+40	@ tmp147,
 686 03bc 00E0     		b	.L67	@
 687              	.L61:
  91:.\src\sensors\fusion/complementary.c **** 		case AltGPS: return GeoGPSSensor;
 688              		.loc 1 91 0
 689 03be 0D4B     		ldr	r3, .L68+44	@ tmp148,
 690              	.L67:
 691 03c0 1868     		ldr	r0, [r3, #0]	@ D.9782,
 692              	.LVL25:
 693 03c2 7047     		bx	lr	@
 694              	.LVL26:
 695              	.L66:
ARM GAS  C:\Users\Kevin\AppData\Local\Temp\ccw18vSb.s 			page 22


  93:.\src\sensors\fusion/complementary.c **** 		default: return SensorNone;
 696              		.loc 1 93 0
 697 03c4 0020     		movs	r0, #0	@ D.9782,
 698              	.LVL27:
  95:.\src\sensors\fusion/complementary.c **** }
 699              		.loc 1 95 0
 700 03c6 7047     		bx	lr	@
 701              	.L69:
 702              		.align	2
 703              	.L68:
 704 03c8 00000000 		.word	GyroITG3200Sensor
 705 03cc 00000000 		.word	GyroL3GD20Sensor
 706 03d0 00000000 		.word	GyroMPU60x0Sensor
 707 03d4 00000000 		.word	AccLSM303Sensor
 708 03d8 00000000 		.word	AccADXL345Sensor
 709 03dc 00000000 		.word	AccMPU60x0Sensor
 710 03e0 00000000 		.word	MagLSM303Sensor
 711 03e4 00000000 		.word	MagHMC5883Sensor
 712 03e8 00000000 		.word	PressureBMP085Sensor
 713 03ec 00000000 		.word	PressureMS5611Sensor
 714 03f0 00000000 		.word	SonarSensor
 715 03f4 00000000 		.word	GeoGPSSensor
 716              		.cfi_endproc
 717              	.LFE112:
 718              		.size	__snsr_compFilter_ResolveSensor, .-__snsr_compFilter_ResolveSensor
 719              		.align	1
 720              		.global	__snsr_compFilter_ResolveSensors
 721              		.thumb
 722              		.thumb_func
 723              		.type	__snsr_compFilter_ResolveSensors, %function
 724              	__snsr_compFilter_ResolveSensors:
 725              	.LFB113:
  97:.\src\sensors\fusion/complementary.c **** void __snsr_compFilter_ResolveSensors(void){
 726              		.loc 1 97 0
 727              		.cfi_startproc
 728              		@ args = 0, pretend = 0, frame = 0
 729              		@ frame_needed = 0, uses_anonymous_args = 0
 730 03f8 38B5     		push	{r3, r4, r5, lr}	@
 731              	.LCFI5:
 732              		.cfi_def_cfa_offset 16
 733              		.cfi_offset 3, -16
 734              		.cfi_offset 4, -12
 735              		.cfi_offset 5, -8
 736              		.cfi_offset 14, -4
  98:.\src\sensors\fusion/complementary.c **** 	CompFilterPitch->Sensor1 = __snsr_compFilter_ResolveSensor(ComplementaryFilterConfig->Sensor1Pitch
 737              		.loc 1 98 0
 738 03fa 1D4B     		ldr	r3, .L71	@ tmp163,
 739 03fc 1D68     		ldr	r5, [r3, #0]	@ CompFilterPitch.46, CompFilterPitch
 740 03fe 1D4B     		ldr	r3, .L71+4	@ tmp164,
 741 0400 1C68     		ldr	r4, [r3, #0]	@ ComplementaryFilterConfig.47, ComplementaryFilterConfig
 742 0402 A07A     		ldrb	r0, [r4, #10]	@ zero_extendqisi2	@, ComplementaryFilterConfig.47_2->Sensor1Pitch
 743 0404 FFF7FEFF 		bl	__snsr_compFilter_ResolveSensor	@
 744              	.LVL28:
 745 0408 2861     		str	r0, [r5, #16]	@, CompFilterPitch.46_1->Sensor1
  99:.\src\sensors\fusion/complementary.c **** 	CompFilterPitch->Sensor2 = __snsr_compFilter_ResolveSensor(ComplementaryFilterConfig->Sensor2Pitch
 746              		.loc 1 99 0
 747 040a E07A     		ldrb	r0, [r4, #11]	@ zero_extendqisi2	@, ComplementaryFilterConfig.47_2->Sensor2Pitch
ARM GAS  C:\Users\Kevin\AppData\Local\Temp\ccw18vSb.s 			page 23


 748 040c FFF7FEFF 		bl	__snsr_compFilter_ResolveSensor	@
 749              	.LVL29:
 750 0410 6861     		str	r0, [r5, #20]	@, CompFilterPitch.46_1->Sensor2
 100:.\src\sensors\fusion/complementary.c **** 	CompFilterPitch->Sensor3 = __snsr_compFilter_ResolveSensor(ComplementaryFilterConfig->Sensor3Pitch
 751              		.loc 1 100 0
 752 0412 207B     		ldrb	r0, [r4, #12]	@ zero_extendqisi2	@, ComplementaryFilterConfig.47_2->Sensor3Pitch
 753 0414 FFF7FEFF 		bl	__snsr_compFilter_ResolveSensor	@
 754              	.LVL30:
 102:.\src\sensors\fusion/complementary.c **** 	CompFilterRoll->Sensor1 = __snsr_compFilter_ResolveSensor(ComplementaryFilterConfig->Sensor1Roll);
 755              		.loc 1 102 0
 756 0418 174B     		ldr	r3, .L71+8	@ tmp168,
 100:.\src\sensors\fusion/complementary.c **** 	CompFilterPitch->Sensor3 = __snsr_compFilter_ResolveSensor(ComplementaryFilterConfig->Sensor3Pitch
 757              		.loc 1 100 0
 758 041a A861     		str	r0, [r5, #24]	@, CompFilterPitch.46_1->Sensor3
 102:.\src\sensors\fusion/complementary.c **** 	CompFilterRoll->Sensor1 = __snsr_compFilter_ResolveSensor(ComplementaryFilterConfig->Sensor1Roll);
 759              		.loc 1 102 0
 760 041c 607B     		ldrb	r0, [r4, #13]	@ zero_extendqisi2	@, ComplementaryFilterConfig.47_2->Sensor1Roll
 761 041e 1D68     		ldr	r5, [r3, #0]	@ CompFilterRoll.48, CompFilterRoll
 762 0420 FFF7FEFF 		bl	__snsr_compFilter_ResolveSensor	@
 763              	.LVL31:
 764 0424 2861     		str	r0, [r5, #16]	@, CompFilterRoll.48_13->Sensor1
 103:.\src\sensors\fusion/complementary.c **** 	CompFilterRoll->Sensor2 = __snsr_compFilter_ResolveSensor(ComplementaryFilterConfig->Sensor2Roll);
 765              		.loc 1 103 0
 766 0426 A07B     		ldrb	r0, [r4, #14]	@ zero_extendqisi2	@, ComplementaryFilterConfig.47_2->Sensor2Roll
 767 0428 FFF7FEFF 		bl	__snsr_compFilter_ResolveSensor	@
 768              	.LVL32:
 769 042c 6861     		str	r0, [r5, #20]	@, CompFilterRoll.48_13->Sensor2
 104:.\src\sensors\fusion/complementary.c **** 	CompFilterRoll->Sensor3 = __snsr_compFilter_ResolveSensor(ComplementaryFilterConfig->Sensor3Roll);
 770              		.loc 1 104 0
 771 042e E07B     		ldrb	r0, [r4, #15]	@ zero_extendqisi2	@, ComplementaryFilterConfig.47_2->Sensor3Roll
 772 0430 FFF7FEFF 		bl	__snsr_compFilter_ResolveSensor	@
 773              	.LVL33:
 106:.\src\sensors\fusion/complementary.c **** 	CompFilterHeading->Sensor1 = __snsr_compFilter_ResolveSensor(ComplementaryFilterConfig->Sensor1Hea
 774              		.loc 1 106 0
 775 0434 114B     		ldr	r3, .L71+12	@ tmp172,
 104:.\src\sensors\fusion/complementary.c **** 	CompFilterRoll->Sensor3 = __snsr_compFilter_ResolveSensor(ComplementaryFilterConfig->Sensor3Roll);
 776              		.loc 1 104 0
 777 0436 A861     		str	r0, [r5, #24]	@, CompFilterRoll.48_13->Sensor3
 106:.\src\sensors\fusion/complementary.c **** 	CompFilterHeading->Sensor1 = __snsr_compFilter_ResolveSensor(ComplementaryFilterConfig->Sensor1Hea
 778              		.loc 1 106 0
 779 0438 207C     		ldrb	r0, [r4, #16]	@ zero_extendqisi2	@, ComplementaryFilterConfig.47_2->Sensor1Heading
 780 043a 1D68     		ldr	r5, [r3, #0]	@ CompFilterHeading.49, CompFilterHeading
 781 043c FFF7FEFF 		bl	__snsr_compFilter_ResolveSensor	@
 782              	.LVL34:
 783 0440 2861     		str	r0, [r5, #16]	@, CompFilterHeading.49_25->Sensor1
 107:.\src\sensors\fusion/complementary.c **** 	CompFilterHeading->Sensor2 = __snsr_compFilter_ResolveSensor(ComplementaryFilterConfig->Sensor2Hea
 784              		.loc 1 107 0
 785 0442 607C     		ldrb	r0, [r4, #17]	@ zero_extendqisi2	@, ComplementaryFilterConfig.47_2->Sensor2Heading
 786 0444 FFF7FEFF 		bl	__snsr_compFilter_ResolveSensor	@
 787              	.LVL35:
 788 0448 6861     		str	r0, [r5, #20]	@, CompFilterHeading.49_25->Sensor2
 108:.\src\sensors\fusion/complementary.c **** 	CompFilterHeading->Sensor3 = __snsr_compFilter_ResolveSensor(ComplementaryFilterConfig->Sensor3Hea
 789              		.loc 1 108 0
 790 044a A07C     		ldrb	r0, [r4, #18]	@ zero_extendqisi2	@, ComplementaryFilterConfig.47_2->Sensor3Heading
 791 044c FFF7FEFF 		bl	__snsr_compFilter_ResolveSensor	@
 792              	.LVL36:
 110:.\src\sensors\fusion/complementary.c **** 	CompFilterAltitude->Sensor1 = __snsr_compFilter_ResolveSensor(ComplementaryFilterConfig->Sensor1Al
ARM GAS  C:\Users\Kevin\AppData\Local\Temp\ccw18vSb.s 			page 24


 793              		.loc 1 110 0
 794 0450 0B4B     		ldr	r3, .L71+16	@ tmp176,
 108:.\src\sensors\fusion/complementary.c **** 	CompFilterHeading->Sensor3 = __snsr_compFilter_ResolveSensor(ComplementaryFilterConfig->Sensor3Hea
 795              		.loc 1 108 0
 796 0452 A861     		str	r0, [r5, #24]	@, CompFilterHeading.49_25->Sensor3
 110:.\src\sensors\fusion/complementary.c **** 	CompFilterAltitude->Sensor1 = __snsr_compFilter_ResolveSensor(ComplementaryFilterConfig->Sensor1Al
 797              		.loc 1 110 0
 798 0454 E07C     		ldrb	r0, [r4, #19]	@ zero_extendqisi2	@, ComplementaryFilterConfig.47_2->Sensor1Altitude
 799 0456 1D68     		ldr	r5, [r3, #0]	@ CompFilterAltitude.50, CompFilterAltitude
 800 0458 FFF7FEFF 		bl	__snsr_compFilter_ResolveSensor	@
 801              	.LVL37:
 802 045c 2861     		str	r0, [r5, #16]	@, CompFilterAltitude.50_37->Sensor1
 111:.\src\sensors\fusion/complementary.c **** 	CompFilterAltitude->Sensor2 = __snsr_compFilter_ResolveSensor(ComplementaryFilterConfig->Sensor2Al
 803              		.loc 1 111 0
 804 045e 207D     		ldrb	r0, [r4, #20]	@ zero_extendqisi2	@, ComplementaryFilterConfig.47_2->Sensor2Altitude
 805 0460 FFF7FEFF 		bl	__snsr_compFilter_ResolveSensor	@
 806              	.LVL38:
 807 0464 6861     		str	r0, [r5, #20]	@, CompFilterAltitude.50_37->Sensor2
 112:.\src\sensors\fusion/complementary.c **** 	CompFilterAltitude->Sensor3 = __snsr_compFilter_ResolveSensor(ComplementaryFilterConfig->Sensor3Al
 808              		.loc 1 112 0
 809 0466 607D     		ldrb	r0, [r4, #21]	@ zero_extendqisi2	@, ComplementaryFilterConfig.47_2->Sensor3Altitude
 810 0468 FFF7FEFF 		bl	__snsr_compFilter_ResolveSensor	@
 811              	.LVL39:
 812 046c A861     		str	r0, [r5, #24]	@, CompFilterAltitude.50_37->Sensor3
 813 046e 38BD     		pop	{r3, r4, r5, pc}	@
 814              	.L72:
 815              		.align	2
 816              	.L71:
 817 0470 00000000 		.word	CompFilterPitch
 818 0474 00000000 		.word	ComplementaryFilterConfig
 819 0478 00000000 		.word	CompFilterRoll
 820 047c 00000000 		.word	CompFilterHeading
 821 0480 00000000 		.word	CompFilterAltitude
 822              		.cfi_endproc
 823              	.LFE113:
 824              		.size	__snsr_compFilter_ResolveSensors, .-__snsr_compFilter_ResolveSensors
 825              		.align	1
 826              		.global	TWB_SNSR_Complementary_Init
 827              		.thumb
 828              		.thumb_func
 829              		.type	TWB_SNSR_Complementary_Init, %function
 830              	TWB_SNSR_Complementary_Init:
 831              	.LFB114:
 115:.\src\sensors\fusion/complementary.c **** iOpResult_e TWB_SNSR_Complementary_Init(void){
 832              		.loc 1 115 0
 833              		.cfi_startproc
 834              		@ args = 0, pretend = 0, frame = 0
 835              		@ frame_needed = 0, uses_anonymous_args = 0
 836 0484 2DE9F041 		push	{r4, r5, r6, r7, r8, lr}	@
 837              	.LCFI6:
 838              		.cfi_def_cfa_offset 24
 839              		.cfi_offset 4, -24
 840              		.cfi_offset 5, -20
 841              		.cfi_offset 6, -16
 842              		.cfi_offset 7, -12
 843              		.cfi_offset 8, -8
 844              		.cfi_offset 14, -4
ARM GAS  C:\Users\Kevin\AppData\Local\Temp\ccw18vSb.s 			page 25


 116:.\src\sensors\fusion/complementary.c **** 	assert_succeed(TWB_SE_ReadU8(COMPLEMENTARY_EEPROM_OFFSET + 0, &ComplementaryFilterConfig->Enabled)
 845              		.loc 1 116 0
 846 0488 7D4C     		ldr	r4, .L97	@ tmp282,
 847 048a 4FF47870 		mov	r0, #992	@,
 848 048e 2168     		ldr	r1, [r4, #0]	@, ComplementaryFilterConfig
 849 0490 FFF7FEFF 		bl	TWB_SE_ReadU8	@
 850              	.LVL40:
 851 0494 18B1     		cbz	r0, .L74	@,
 116:.\src\sensors\fusion/complementary.c **** 	assert_succeed(TWB_SE_ReadU8(COMPLEMENTARY_EEPROM_OFFSET + 0, &ComplementaryFilterConfig->Enabled)
 852              		.loc 1 116 0 is_stmt 0 discriminator 1
 853 0496 4FF47870 		mov	r0, #992	@,
 854 049a 2168     		ldr	r1, [r4, #0]	@, ComplementaryFilterConfig
 855 049c EBE0     		b	.L96	@
 856              	.L74:
 117:.\src\sensors\fusion/complementary.c **** 	assert_succeed(TWB_SE_ReadU8(COMPLEMENTARY_EEPROM_OFFSET + 1, &ComplementaryFilterConfig->SampleRa
 857              		.loc 1 117 0 is_stmt 1
 858 049e 2168     		ldr	r1, [r4, #0]	@ ComplementaryFilterConfig, ComplementaryFilterConfig
 859 04a0 40F2E130 		movw	r0, #993	@,
 860 04a4 0131     		adds	r1, r1, #1	@, ComplementaryFilterConfig,
 861 04a6 FFF7FEFF 		bl	TWB_SE_ReadU8	@
 862              	.LVL41:
 863 04aa 2168     		ldr	r1, [r4, #0]	@ ComplementaryFilterConfig, ComplementaryFilterConfig
 864 04ac 18B1     		cbz	r0, .L75	@,
 117:.\src\sensors\fusion/complementary.c **** 	assert_succeed(TWB_SE_ReadU8(COMPLEMENTARY_EEPROM_OFFSET + 1, &ComplementaryFilterConfig->SampleRa
 865              		.loc 1 117 0 is_stmt 0 discriminator 1
 866 04ae 40F2E130 		movw	r0, #993	@,
 867 04b2 0131     		adds	r1, r1, #1	@, ComplementaryFilterConfig,
 868 04b4 DFE0     		b	.L96	@
 869              	.L75:
 119:.\src\sensors\fusion/complementary.c **** 	assert_succeed(TWB_SE_ReadU8(COMPLEMENTARY_EEPROM_OFFSET + 2, &ComplementaryFilterConfig->FilterOp
 870              		.loc 1 119 0 is_stmt 1
 871 04b6 0231     		adds	r1, r1, #2	@, ComplementaryFilterConfig,
 872 04b8 40F2E230 		movw	r0, #994	@,
 873 04bc FFF7FEFF 		bl	TWB_SE_ReadU8	@
 874              	.LVL42:
 875 04c0 2168     		ldr	r1, [r4, #0]	@ ComplementaryFilterConfig, ComplementaryFilterConfig
 876 04c2 18B1     		cbz	r0, .L76	@,
 119:.\src\sensors\fusion/complementary.c **** 	assert_succeed(TWB_SE_ReadU8(COMPLEMENTARY_EEPROM_OFFSET + 2, &ComplementaryFilterConfig->FilterOp
 877              		.loc 1 119 0 is_stmt 0 discriminator 1
 878 04c4 40F2E230 		movw	r0, #994	@,
 879 04c8 0231     		adds	r1, r1, #2	@, ComplementaryFilterConfig,
 880 04ca D4E0     		b	.L96	@
 881              	.L76:
 120:.\src\sensors\fusion/complementary.c **** 	assert_succeed(TWB_SE_ReadU8(COMPLEMENTARY_EEPROM_OFFSET + 3, &ComplementaryFilterConfig->FilterOp
 882              		.loc 1 120 0 is_stmt 1
 883 04cc 0331     		adds	r1, r1, #3	@, ComplementaryFilterConfig,
 884 04ce 40F2E330 		movw	r0, #995	@,
 885 04d2 FFF7FEFF 		bl	TWB_SE_ReadU8	@
 886              	.LVL43:
 887 04d6 2168     		ldr	r1, [r4, #0]	@ ComplementaryFilterConfig, ComplementaryFilterConfig
 888 04d8 18B1     		cbz	r0, .L77	@,
 120:.\src\sensors\fusion/complementary.c **** 	assert_succeed(TWB_SE_ReadU8(COMPLEMENTARY_EEPROM_OFFSET + 3, &ComplementaryFilterConfig->FilterOp
 889              		.loc 1 120 0 is_stmt 0 discriminator 1
 890 04da 40F2E330 		movw	r0, #995	@,
 891 04de 0331     		adds	r1, r1, #3	@, ComplementaryFilterConfig,
 892 04e0 C9E0     		b	.L96	@
 893              	.L77:
ARM GAS  C:\Users\Kevin\AppData\Local\Temp\ccw18vSb.s 			page 26


 121:.\src\sensors\fusion/complementary.c **** 	assert_succeed(TWB_SE_ReadU8(COMPLEMENTARY_EEPROM_OFFSET + 4, &ComplementaryFilterConfig->FilterOp
 894              		.loc 1 121 0 is_stmt 1
 895 04e2 0431     		adds	r1, r1, #4	@, ComplementaryFilterConfig,
 896 04e4 4FF47970 		mov	r0, #996	@,
 897 04e8 FFF7FEFF 		bl	TWB_SE_ReadU8	@
 898              	.LVL44:
 899 04ec 2168     		ldr	r1, [r4, #0]	@ ComplementaryFilterConfig, ComplementaryFilterConfig
 900 04ee 18B1     		cbz	r0, .L78	@,
 121:.\src\sensors\fusion/complementary.c **** 	assert_succeed(TWB_SE_ReadU8(COMPLEMENTARY_EEPROM_OFFSET + 4, &ComplementaryFilterConfig->FilterOp
 901              		.loc 1 121 0 is_stmt 0 discriminator 1
 902 04f0 4FF47970 		mov	r0, #996	@,
 903 04f4 0431     		adds	r1, r1, #4	@, ComplementaryFilterConfig,
 904 04f6 BEE0     		b	.L96	@
 905              	.L78:
 122:.\src\sensors\fusion/complementary.c **** 	assert_succeed(TWB_SE_ReadU8(COMPLEMENTARY_EEPROM_OFFSET + 5, &ComplementaryFilterConfig->FilterOp
 906              		.loc 1 122 0 is_stmt 1
 907 04f8 0531     		adds	r1, r1, #5	@, ComplementaryFilterConfig,
 908 04fa 40F2E530 		movw	r0, #997	@,
 909 04fe FFF7FEFF 		bl	TWB_SE_ReadU8	@
 910              	.LVL45:
 911 0502 2168     		ldr	r1, [r4, #0]	@ ComplementaryFilterConfig, ComplementaryFilterConfig
 912 0504 18B1     		cbz	r0, .L79	@,
 122:.\src\sensors\fusion/complementary.c **** 	assert_succeed(TWB_SE_ReadU8(COMPLEMENTARY_EEPROM_OFFSET + 5, &ComplementaryFilterConfig->FilterOp
 913              		.loc 1 122 0 is_stmt 0 discriminator 1
 914 0506 40F2E530 		movw	r0, #997	@,
 915 050a 0531     		adds	r1, r1, #5	@, ComplementaryFilterConfig,
 916 050c B3E0     		b	.L96	@
 917              	.L79:
 124:.\src\sensors\fusion/complementary.c **** 	assert_succeed(TWB_SE_ReadU8(COMPLEMENTARY_EEPROM_OFFSET + 6, &ComplementaryFilterConfig->TimeCons
 918              		.loc 1 124 0 is_stmt 1
 919 050e 0631     		adds	r1, r1, #6	@, ComplementaryFilterConfig,
 920 0510 40F2E630 		movw	r0, #998	@,
 921 0514 FFF7FEFF 		bl	TWB_SE_ReadU8	@
 922              	.LVL46:
 923 0518 2168     		ldr	r1, [r4, #0]	@ ComplementaryFilterConfig, ComplementaryFilterConfig
 924 051a 18B1     		cbz	r0, .L80	@,
 124:.\src\sensors\fusion/complementary.c **** 	assert_succeed(TWB_SE_ReadU8(COMPLEMENTARY_EEPROM_OFFSET + 6, &ComplementaryFilterConfig->TimeCons
 925              		.loc 1 124 0 is_stmt 0 discriminator 1
 926 051c 40F2E630 		movw	r0, #998	@,
 927 0520 0631     		adds	r1, r1, #6	@, ComplementaryFilterConfig,
 928 0522 A8E0     		b	.L96	@
 929              	.L80:
 125:.\src\sensors\fusion/complementary.c **** 	assert_succeed(TWB_SE_ReadU8(COMPLEMENTARY_EEPROM_OFFSET + 7, &ComplementaryFilterConfig->TimeCons
 930              		.loc 1 125 0 is_stmt 1
 931 0524 0731     		adds	r1, r1, #7	@, ComplementaryFilterConfig,
 932 0526 40F2E730 		movw	r0, #999	@,
 933 052a FFF7FEFF 		bl	TWB_SE_ReadU8	@
 934              	.LVL47:
 935 052e 2168     		ldr	r1, [r4, #0]	@ ComplementaryFilterConfig, ComplementaryFilterConfig
 936 0530 18B1     		cbz	r0, .L81	@,
 125:.\src\sensors\fusion/complementary.c **** 	assert_succeed(TWB_SE_ReadU8(COMPLEMENTARY_EEPROM_OFFSET + 7, &ComplementaryFilterConfig->TimeCons
 937              		.loc 1 125 0 is_stmt 0 discriminator 1
 938 0532 40F2E730 		movw	r0, #999	@,
 939 0536 0731     		adds	r1, r1, #7	@, ComplementaryFilterConfig,
 940 0538 9DE0     		b	.L96	@
 941              	.L81:
 126:.\src\sensors\fusion/complementary.c **** 	assert_succeed(TWB_SE_ReadU8(COMPLEMENTARY_EEPROM_OFFSET + 8, &ComplementaryFilterConfig->TimeCons
ARM GAS  C:\Users\Kevin\AppData\Local\Temp\ccw18vSb.s 			page 27


 942              		.loc 1 126 0 is_stmt 1
 943 053a 0831     		adds	r1, r1, #8	@, ComplementaryFilterConfig,
 944 053c 4FF47A70 		mov	r0, #1000	@,
 945 0540 FFF7FEFF 		bl	TWB_SE_ReadU8	@
 946              	.LVL48:
 947 0544 2168     		ldr	r1, [r4, #0]	@ ComplementaryFilterConfig, ComplementaryFilterConfig
 948 0546 18B1     		cbz	r0, .L82	@,
 126:.\src\sensors\fusion/complementary.c **** 	assert_succeed(TWB_SE_ReadU8(COMPLEMENTARY_EEPROM_OFFSET + 8, &ComplementaryFilterConfig->TimeCons
 949              		.loc 1 126 0 is_stmt 0 discriminator 1
 950 0548 4FF47A70 		mov	r0, #1000	@,
 951 054c 0831     		adds	r1, r1, #8	@, ComplementaryFilterConfig,
 952 054e 92E0     		b	.L96	@
 953              	.L82:
 127:.\src\sensors\fusion/complementary.c **** 	assert_succeed(TWB_SE_ReadU8(COMPLEMENTARY_EEPROM_OFFSET + 9, &ComplementaryFilterConfig->TimeCons
 954              		.loc 1 127 0 is_stmt 1
 955 0550 40F2E930 		movw	r0, #1001	@,
 956 0554 0931     		adds	r1, r1, #9	@, ComplementaryFilterConfig,
 957 0556 FFF7FEFF 		bl	TWB_SE_ReadU8	@
 958              	.LVL49:
 959 055a 20B1     		cbz	r0, .L83	@,
 127:.\src\sensors\fusion/complementary.c **** 	assert_succeed(TWB_SE_ReadU8(COMPLEMENTARY_EEPROM_OFFSET + 9, &ComplementaryFilterConfig->TimeCons
 960              		.loc 1 127 0 is_stmt 0 discriminator 1
 961 055c 2168     		ldr	r1, [r4, #0]	@ ComplementaryFilterConfig, ComplementaryFilterConfig
 962 055e 40F2E930 		movw	r0, #1001	@,
 963 0562 0931     		adds	r1, r1, #9	@, ComplementaryFilterConfig,
 964 0564 87E0     		b	.L96	@
 965              	.L83:
 129:.\src\sensors\fusion/complementary.c **** 	assert_succeed(TWB_SE_ReadU8(COMPLEMENTARY_EEPROM_OFFSET + 10, &ComplementaryFilterConfig->Sensor1
 966              		.loc 1 129 0 is_stmt 1
 967 0566 2168     		ldr	r1, [r4, #0]	@ ComplementaryFilterConfig, ComplementaryFilterConfig
 968 0568 454D     		ldr	r5, .L97	@ tmp373,
 969 056a 0A31     		adds	r1, r1, #10	@, ComplementaryFilterConfig,
 970 056c 40F2EA30 		movw	r0, #1002	@,
 971 0570 FFF7FEFF 		bl	TWB_SE_ReadU8	@
 972              	.LVL50:
 973 0574 2968     		ldr	r1, [r5, #0]	@ ComplementaryFilterConfig, ComplementaryFilterConfig
 974 0576 18B1     		cbz	r0, .L84	@,
 129:.\src\sensors\fusion/complementary.c **** 	assert_succeed(TWB_SE_ReadU8(COMPLEMENTARY_EEPROM_OFFSET + 10, &ComplementaryFilterConfig->Sensor1
 975              		.loc 1 129 0 is_stmt 0 discriminator 1
 976 0578 40F2EA30 		movw	r0, #1002	@,
 977 057c 0A31     		adds	r1, r1, #10	@, ComplementaryFilterConfig,
 978 057e 7AE0     		b	.L96	@
 979              	.L84:
 130:.\src\sensors\fusion/complementary.c **** 	assert_succeed(TWB_SE_ReadU8(COMPLEMENTARY_EEPROM_OFFSET + 11, &ComplementaryFilterConfig->Sensor2
 980              		.loc 1 130 0 is_stmt 1
 981 0580 0B31     		adds	r1, r1, #11	@, ComplementaryFilterConfig,
 982 0582 40F2EB30 		movw	r0, #1003	@,
 983 0586 FFF7FEFF 		bl	TWB_SE_ReadU8	@
 984              	.LVL51:
 985 058a 2968     		ldr	r1, [r5, #0]	@ ComplementaryFilterConfig, ComplementaryFilterConfig
 986 058c 18B1     		cbz	r0, .L85	@,
 130:.\src\sensors\fusion/complementary.c **** 	assert_succeed(TWB_SE_ReadU8(COMPLEMENTARY_EEPROM_OFFSET + 11, &ComplementaryFilterConfig->Sensor2
 987              		.loc 1 130 0 is_stmt 0 discriminator 1
 988 058e 40F2EB30 		movw	r0, #1003	@,
 989 0592 0B31     		adds	r1, r1, #11	@, ComplementaryFilterConfig,
 990 0594 6FE0     		b	.L96	@
 991              	.L85:
ARM GAS  C:\Users\Kevin\AppData\Local\Temp\ccw18vSb.s 			page 28


 131:.\src\sensors\fusion/complementary.c **** 	assert_succeed(TWB_SE_ReadU8(COMPLEMENTARY_EEPROM_OFFSET + 12, &ComplementaryFilterConfig->Sensor3
 992              		.loc 1 131 0 is_stmt 1
 993 0596 0C31     		adds	r1, r1, #12	@, ComplementaryFilterConfig,
 994 0598 4FF47B70 		mov	r0, #1004	@,
 995 059c FFF7FEFF 		bl	TWB_SE_ReadU8	@
 996              	.LVL52:
 997 05a0 2968     		ldr	r1, [r5, #0]	@ ComplementaryFilterConfig, ComplementaryFilterConfig
 998 05a2 18B1     		cbz	r0, .L86	@,
 131:.\src\sensors\fusion/complementary.c **** 	assert_succeed(TWB_SE_ReadU8(COMPLEMENTARY_EEPROM_OFFSET + 12, &ComplementaryFilterConfig->Sensor3
 999              		.loc 1 131 0 is_stmt 0 discriminator 1
 1000 05a4 4FF47B70 		mov	r0, #1004	@,
 1001 05a8 0C31     		adds	r1, r1, #12	@, ComplementaryFilterConfig,
 1002 05aa 64E0     		b	.L96	@
 1003              	.L86:
 133:.\src\sensors\fusion/complementary.c **** 	assert_succeed(TWB_SE_ReadU8(COMPLEMENTARY_EEPROM_OFFSET + 13, &ComplementaryFilterConfig->Sensor1
 1004              		.loc 1 133 0 is_stmt 1
 1005 05ac 0D31     		adds	r1, r1, #13	@, ComplementaryFilterConfig,
 1006 05ae 40F2ED30 		movw	r0, #1005	@,
 1007 05b2 FFF7FEFF 		bl	TWB_SE_ReadU8	@
 1008              	.LVL53:
 1009 05b6 2968     		ldr	r1, [r5, #0]	@ ComplementaryFilterConfig, ComplementaryFilterConfig
 1010 05b8 18B1     		cbz	r0, .L87	@,
 133:.\src\sensors\fusion/complementary.c **** 	assert_succeed(TWB_SE_ReadU8(COMPLEMENTARY_EEPROM_OFFSET + 13, &ComplementaryFilterConfig->Sensor1
 1011              		.loc 1 133 0 is_stmt 0 discriminator 1
 1012 05ba 40F2ED30 		movw	r0, #1005	@,
 1013 05be 0D31     		adds	r1, r1, #13	@, ComplementaryFilterConfig,
 1014 05c0 59E0     		b	.L96	@
 1015              	.L87:
 134:.\src\sensors\fusion/complementary.c **** 	assert_succeed(TWB_SE_ReadU8(COMPLEMENTARY_EEPROM_OFFSET + 14, &ComplementaryFilterConfig->Sensor2
 1016              		.loc 1 134 0 is_stmt 1
 1017 05c2 0E31     		adds	r1, r1, #14	@, ComplementaryFilterConfig,
 1018 05c4 40F2EE30 		movw	r0, #1006	@,
 1019 05c8 FFF7FEFF 		bl	TWB_SE_ReadU8	@
 1020              	.LVL54:
 1021 05cc 2968     		ldr	r1, [r5, #0]	@ ComplementaryFilterConfig, ComplementaryFilterConfig
 1022 05ce 18B1     		cbz	r0, .L88	@,
 134:.\src\sensors\fusion/complementary.c **** 	assert_succeed(TWB_SE_ReadU8(COMPLEMENTARY_EEPROM_OFFSET + 14, &ComplementaryFilterConfig->Sensor2
 1023              		.loc 1 134 0 is_stmt 0 discriminator 1
 1024 05d0 40F2EE30 		movw	r0, #1006	@,
 1025 05d4 0E31     		adds	r1, r1, #14	@, ComplementaryFilterConfig,
 1026 05d6 4EE0     		b	.L96	@
 1027              	.L88:
 135:.\src\sensors\fusion/complementary.c **** 	assert_succeed(TWB_SE_ReadU8(COMPLEMENTARY_EEPROM_OFFSET + 15, &ComplementaryFilterConfig->Sensor3
 1028              		.loc 1 135 0 is_stmt 1
 1029 05d8 0F31     		adds	r1, r1, #15	@, ComplementaryFilterConfig,
 1030 05da 40F2EF30 		movw	r0, #1007	@,
 1031 05de FFF7FEFF 		bl	TWB_SE_ReadU8	@
 1032              	.LVL55:
 1033 05e2 2968     		ldr	r1, [r5, #0]	@ ComplementaryFilterConfig, ComplementaryFilterConfig
 1034 05e4 18B1     		cbz	r0, .L89	@,
 135:.\src\sensors\fusion/complementary.c **** 	assert_succeed(TWB_SE_ReadU8(COMPLEMENTARY_EEPROM_OFFSET + 15, &ComplementaryFilterConfig->Sensor3
 1035              		.loc 1 135 0 is_stmt 0 discriminator 1
 1036 05e6 40F2EF30 		movw	r0, #1007	@,
 1037 05ea 0F31     		adds	r1, r1, #15	@, ComplementaryFilterConfig,
 1038 05ec 43E0     		b	.L96	@
 1039              	.L89:
 137:.\src\sensors\fusion/complementary.c **** 	assert_succeed(TWB_SE_ReadU8(COMPLEMENTARY_EEPROM_OFFSET + 16, &ComplementaryFilterConfig->Sensor1
ARM GAS  C:\Users\Kevin\AppData\Local\Temp\ccw18vSb.s 			page 29


 1040              		.loc 1 137 0 is_stmt 1
 1041 05ee 1031     		adds	r1, r1, #16	@, ComplementaryFilterConfig,
 1042 05f0 4FF47C70 		mov	r0, #1008	@,
 1043 05f4 FFF7FEFF 		bl	TWB_SE_ReadU8	@
 1044              	.LVL56:
 1045 05f8 2968     		ldr	r1, [r5, #0]	@ ComplementaryFilterConfig, ComplementaryFilterConfig
 1046 05fa 18B1     		cbz	r0, .L90	@,
 137:.\src\sensors\fusion/complementary.c **** 	assert_succeed(TWB_SE_ReadU8(COMPLEMENTARY_EEPROM_OFFSET + 16, &ComplementaryFilterConfig->Sensor1
 1047              		.loc 1 137 0 is_stmt 0 discriminator 1
 1048 05fc 4FF47C70 		mov	r0, #1008	@,
 1049 0600 1031     		adds	r1, r1, #16	@, ComplementaryFilterConfig,
 1050 0602 38E0     		b	.L96	@
 1051              	.L90:
 138:.\src\sensors\fusion/complementary.c **** 	assert_succeed(TWB_SE_ReadU8(COMPLEMENTARY_EEPROM_OFFSET + 17, &ComplementaryFilterConfig->Sensor2
 1052              		.loc 1 138 0 is_stmt 1
 1053 0604 1131     		adds	r1, r1, #17	@, ComplementaryFilterConfig,
 1054 0606 40F2F130 		movw	r0, #1009	@,
 1055 060a FFF7FEFF 		bl	TWB_SE_ReadU8	@
 1056              	.LVL57:
 1057 060e 2968     		ldr	r1, [r5, #0]	@ ComplementaryFilterConfig, ComplementaryFilterConfig
 1058 0610 18B1     		cbz	r0, .L91	@,
 138:.\src\sensors\fusion/complementary.c **** 	assert_succeed(TWB_SE_ReadU8(COMPLEMENTARY_EEPROM_OFFSET + 17, &ComplementaryFilterConfig->Sensor2
 1059              		.loc 1 138 0 is_stmt 0 discriminator 1
 1060 0612 40F2F130 		movw	r0, #1009	@,
 1061 0616 1131     		adds	r1, r1, #17	@, ComplementaryFilterConfig,
 1062 0618 2DE0     		b	.L96	@
 1063              	.L91:
 139:.\src\sensors\fusion/complementary.c **** 	assert_succeed(TWB_SE_ReadU8(COMPLEMENTARY_EEPROM_OFFSET + 18, &ComplementaryFilterConfig->Sensor3
 1064              		.loc 1 139 0 is_stmt 1
 1065 061a 1231     		adds	r1, r1, #18	@, ComplementaryFilterConfig,
 1066 061c 40F2F230 		movw	r0, #1010	@,
 1067 0620 FFF7FEFF 		bl	TWB_SE_ReadU8	@
 1068              	.LVL58:
 1069 0624 2968     		ldr	r1, [r5, #0]	@ ComplementaryFilterConfig, ComplementaryFilterConfig
 1070 0626 18B1     		cbz	r0, .L92	@,
 139:.\src\sensors\fusion/complementary.c **** 	assert_succeed(TWB_SE_ReadU8(COMPLEMENTARY_EEPROM_OFFSET + 18, &ComplementaryFilterConfig->Sensor3
 1071              		.loc 1 139 0 is_stmt 0 discriminator 1
 1072 0628 40F2F230 		movw	r0, #1010	@,
 1073 062c 1231     		adds	r1, r1, #18	@, ComplementaryFilterConfig,
 1074 062e 22E0     		b	.L96	@
 1075              	.L92:
 141:.\src\sensors\fusion/complementary.c **** 	assert_succeed(TWB_SE_ReadU8(COMPLEMENTARY_EEPROM_OFFSET + 19, &ComplementaryFilterConfig->Sensor1
 1076              		.loc 1 141 0 is_stmt 1
 1077 0630 40F2F330 		movw	r0, #1011	@,
 1078 0634 1331     		adds	r1, r1, #19	@, ComplementaryFilterConfig,
 1079 0636 FFF7FEFF 		bl	TWB_SE_ReadU8	@
 1080              	.LVL59:
 1081 063a 20B1     		cbz	r0, .L93	@,
 141:.\src\sensors\fusion/complementary.c **** 	assert_succeed(TWB_SE_ReadU8(COMPLEMENTARY_EEPROM_OFFSET + 19, &ComplementaryFilterConfig->Sensor1
 1082              		.loc 1 141 0 is_stmt 0 discriminator 1
 1083 063c 2968     		ldr	r1, [r5, #0]	@ ComplementaryFilterConfig, ComplementaryFilterConfig
 1084 063e 40F2F330 		movw	r0, #1011	@,
 1085 0642 1331     		adds	r1, r1, #19	@, ComplementaryFilterConfig,
 1086 0644 17E0     		b	.L96	@
 1087              	.L93:
 142:.\src\sensors\fusion/complementary.c **** 	assert_succeed(TWB_SE_ReadU8(COMPLEMENTARY_EEPROM_OFFSET + 20, &ComplementaryFilterConfig->Sensor2
 1088              		.loc 1 142 0 is_stmt 1
ARM GAS  C:\Users\Kevin\AppData\Local\Temp\ccw18vSb.s 			page 30


 1089 0646 2968     		ldr	r1, [r5, #0]	@ ComplementaryFilterConfig, ComplementaryFilterConfig
 1090 0648 0D4E     		ldr	r6, .L97	@ tmp468,
 1091 064a 1431     		adds	r1, r1, #20	@, ComplementaryFilterConfig,
 1092 064c 4FF47D70 		mov	r0, #1012	@,
 1093 0650 FFF7FEFF 		bl	TWB_SE_ReadU8	@
 1094              	.LVL60:
 1095 0654 3168     		ldr	r1, [r6, #0]	@ ComplementaryFilterConfig, ComplementaryFilterConfig
 1096 0656 18B1     		cbz	r0, .L94	@,
 142:.\src\sensors\fusion/complementary.c **** 	assert_succeed(TWB_SE_ReadU8(COMPLEMENTARY_EEPROM_OFFSET + 20, &ComplementaryFilterConfig->Sensor2
 1097              		.loc 1 142 0 is_stmt 0 discriminator 1
 1098 0658 4FF47D70 		mov	r0, #1012	@,
 1099 065c 1431     		adds	r1, r1, #20	@, ComplementaryFilterConfig,
 1100 065e 0AE0     		b	.L96	@
 1101              	.L94:
 143:.\src\sensors\fusion/complementary.c **** 	assert_succeed(TWB_SE_ReadU8(COMPLEMENTARY_EEPROM_OFFSET + 21, &ComplementaryFilterConfig->Sensor3
 1102              		.loc 1 143 0 is_stmt 1
 1103 0660 40F2F530 		movw	r0, #1013	@,
 1104 0664 1531     		adds	r1, r1, #21	@, ComplementaryFilterConfig,
 1105 0666 FFF7FEFF 		bl	TWB_SE_ReadU8	@
 1106              	.LVL61:
 1107 066a 0446     		mov	r4, r0	@ tmp480,
 1108 066c 50B1     		cbz	r0, .L95	@ tmp480,
 143:.\src\sensors\fusion/complementary.c **** 	assert_succeed(TWB_SE_ReadU8(COMPLEMENTARY_EEPROM_OFFSET + 21, &ComplementaryFilterConfig->Sensor3
 1109              		.loc 1 143 0 is_stmt 0 discriminator 1
 1110 066e 3168     		ldr	r1, [r6, #0]	@ ComplementaryFilterConfig, ComplementaryFilterConfig
 1111 0670 40F2F530 		movw	r0, #1013	@,
 1112 0674 1531     		adds	r1, r1, #21	@, ComplementaryFilterConfig,
 1113              	.L96:
 192:.\src\sensors\fusion/complementary.c **** }
 1114              		.loc 1 192 0 is_stmt 1 discriminator 1
 1115 0676 BDE8F041 		pop	{r4, r5, r6, r7, r8, lr}	@
 143:.\src\sensors\fusion/complementary.c **** 	assert_succeed(TWB_SE_ReadU8(COMPLEMENTARY_EEPROM_OFFSET + 21, &ComplementaryFilterConfig->Sensor3
 1116              		.loc 1 143 0 discriminator 1
 1117 067a FFF7FEBF 		b	TWB_SE_ReadU8	@
 1118              	.LVL62:
 1119              	.L98:
 1120 067e 00BF     		.align	2
 1121              	.L97:
 1122 0680 00000000 		.word	ComplementaryFilterConfig
 1123              	.L95:
 145:.\src\sensors\fusion/complementary.c **** 	SensorFusionMsg = pm_malloc(sizeof(SensorFusionMsg_t));
 1124              		.loc 1 145 0
 1125 0684 0A20     		movs	r0, #10	@,
 1126 0686 FFF7FEFF 		bl	pm_malloc	@
 1127              	.LVL63:
 1128 068a 3D4B     		ldr	r3, .L99	@ tmp486,
 147:.\src\sensors\fusion/complementary.c **** 	CompFilterPitch = pm_malloc(sizeof(CompFilter_t));
 1129              		.loc 1 147 0
 1130 068c 3D4F     		ldr	r7, .L99+4	@ tmp487,
 145:.\src\sensors\fusion/complementary.c **** 	SensorFusionMsg = pm_malloc(sizeof(SensorFusionMsg_t));
 1131              		.loc 1 145 0
 1132 068e 1860     		str	r0, [r3, #0]	@, SensorFusionMsg
 147:.\src\sensors\fusion/complementary.c **** 	CompFilterPitch = pm_malloc(sizeof(CompFilter_t));
 1133              		.loc 1 147 0
 1134 0690 1C20     		movs	r0, #28	@,
 1135 0692 FFF7FEFF 		bl	pm_malloc	@
 1136              	.LVL64:
ARM GAS  C:\Users\Kevin\AppData\Local\Temp\ccw18vSb.s 			page 31


 148:.\src\sensors\fusion/complementary.c **** 	CompFilterPitch->Axis = PitchAxis;
 1137              		.loc 1 148 0
 1138 0696 0A23     		movs	r3, #10	@ tmp488,
 147:.\src\sensors\fusion/complementary.c **** 	CompFilterPitch = pm_malloc(sizeof(CompFilter_t));
 1139              		.loc 1 147 0
 1140 0698 0546     		mov	r5, r0	@ CompFilterPitch.37,
 1141 069a 3860     		str	r0, [r7, #0]	@ CompFilterPitch.37, CompFilterPitch
 148:.\src\sensors\fusion/complementary.c **** 	CompFilterPitch->Axis = PitchAxis;
 1142              		.loc 1 148 0
 1143 069c 0372     		strb	r3, [r0, #8]	@ tmp488, MEM[(struct CompFilter_t *)CompFilterPitch.37_135].Axis
 149:.\src\sensors\fusion/complementary.c **** 	CompFilterPitch->Filter = pm_malloc(sizeof(FilterFloat_t));
 1144              		.loc 1 149 0
 1145 069e 3420     		movs	r0, #52	@,
 1146 06a0 FFF7FEFF 		bl	pm_malloc	@
 1147              	.LVL65:
 150:.\src\sensors\fusion/complementary.c **** 	CompFilterPitch->Filter->FilterType = ComplementaryFilterConfig->FilterOptionPitch;
 1148              		.loc 1 150 0
 1149 06a4 3B68     		ldr	r3, [r7, #0]	@ CompFilterPitch.38, CompFilterPitch
 149:.\src\sensors\fusion/complementary.c **** 	CompFilterPitch->Filter = pm_malloc(sizeof(FilterFloat_t));
 1150              		.loc 1 149 0
 1151 06a6 E860     		str	r0, [r5, #12]	@, MEM[(struct CompFilter_t *)CompFilterPitch.37_135].Filter
 150:.\src\sensors\fusion/complementary.c **** 	CompFilterPitch->Filter->FilterType = ComplementaryFilterConfig->FilterOptionPitch;
 1152              		.loc 1 150 0
 1153 06a8 3168     		ldr	r1, [r6, #0]	@ ComplementaryFilterConfig, ComplementaryFilterConfig
 1154 06aa DA68     		ldr	r2, [r3, #12]	@ D.9731, CompFilterPitch.38_139->Filter
 1155 06ac 8978     		ldrb	r1, [r1, #2]	@ zero_extendqisi2	@ ComplementaryFilterConfig.35_141->FilterOptionPitch, Comple
 151:.\src\sensors\fusion/complementary.c **** 	CompFilterPitch->Filter->IsInitialized = false;
 1156              		.loc 1 151 0
 1157 06ae 82F83040 		strb	r4, [r2, #48]	@ tmp480, D.9731_140->IsInitialized
 150:.\src\sensors\fusion/complementary.c **** 	CompFilterPitch->Filter->FilterType = ComplementaryFilterConfig->FilterOptionPitch;
 1158              		.loc 1 150 0
 1159 06b2 5170     		strb	r1, [r2, #1]	@ ComplementaryFilterConfig.35_141->FilterOptionPitch, D.9731_140->FilterType
 152:.\src\sensors\fusion/complementary.c **** 	CompFilterPitch->Filter->Current = 0.0f;
 1160              		.loc 1 152 0
 1161 06b4 DA68     		ldr	r2, [r3, #12]	@ D.9731, CompFilterPitch.38_139->Filter
 156:.\src\sensors\fusion/complementary.c **** 	CompFilterRoll = pm_malloc(sizeof(CompFilter_t));
 1162              		.loc 1 156 0
 1163 06b6 DFF8D880 		ldr	r8, .L99+16	@ tmp502,
 153:.\src\sensors\fusion/complementary.c **** 	CompFilterPitch->Filter->CurrentSlot = 0;
 1164              		.loc 1 153 0
 1165 06ba 1470     		strb	r4, [r2, #0]	@ tmp480, D.9731_146->CurrentSlot
 154:.\src\sensors\fusion/complementary.c **** 	CompFilterPitch->Filter->Previous = 0.0f;
 1166              		.loc 1 154 0
 1167 06bc DB68     		ldr	r3, [r3, #12]	@ CompFilterPitch.38_139->Filter, CompFilterPitch.38_139->Filter
 152:.\src\sensors\fusion/complementary.c **** 	CompFilterPitch->Filter->Current = 0.0f;
 1168              		.loc 1 152 0
 1169 06be 0025     		movs	r5, #0	@ tmp497,
 1170 06c0 9562     		str	r5, [r2, #40]	@ float	@ tmp497, D.9731_146->Current
 154:.\src\sensors\fusion/complementary.c **** 	CompFilterPitch->Filter->Previous = 0.0f;
 1171              		.loc 1 154 0
 1172 06c2 DD62     		str	r5, [r3, #44]	@ float	@ tmp497, D.9731_150->Previous
 156:.\src\sensors\fusion/complementary.c **** 	CompFilterRoll = pm_malloc(sizeof(CompFilter_t));
 1173              		.loc 1 156 0
 1174 06c4 1C20     		movs	r0, #28	@,
 1175 06c6 FFF7FEFF 		bl	pm_malloc	@
 1176              	.LVL66:
 157:.\src\sensors\fusion/complementary.c **** 	CompFilterRoll->Axis = RollAxis;
ARM GAS  C:\Users\Kevin\AppData\Local\Temp\ccw18vSb.s 			page 32


 1177              		.loc 1 157 0
 1178 06ca 0B23     		movs	r3, #11	@ tmp503,
 156:.\src\sensors\fusion/complementary.c **** 	CompFilterRoll = pm_malloc(sizeof(CompFilter_t));
 1179              		.loc 1 156 0
 1180 06cc 0746     		mov	r7, r0	@ CompFilterRoll.39,
 1181 06ce C8F80000 		str	r0, [r8, #0]	@ CompFilterRoll.39, CompFilterRoll
 157:.\src\sensors\fusion/complementary.c **** 	CompFilterRoll->Axis = RollAxis;
 1182              		.loc 1 157 0
 1183 06d2 0372     		strb	r3, [r0, #8]	@ tmp503, MEM[(struct CompFilter_t *)CompFilterRoll.39_151].Axis
 158:.\src\sensors\fusion/complementary.c **** 	CompFilterRoll->Filter = pm_malloc(sizeof(FilterFloat_t));
 1184              		.loc 1 158 0
 1185 06d4 3420     		movs	r0, #52	@,
 1186 06d6 FFF7FEFF 		bl	pm_malloc	@
 1187              	.LVL67:
 159:.\src\sensors\fusion/complementary.c **** 	CompFilterRoll->Filter->FilterType = ComplementaryFilterConfig->FilterOptionRoll;
 1188              		.loc 1 159 0
 1189 06da D8F80030 		ldr	r3, [r8, #0]	@ CompFilterRoll.40, CompFilterRoll
 158:.\src\sensors\fusion/complementary.c **** 	CompFilterRoll->Filter = pm_malloc(sizeof(FilterFloat_t));
 1190              		.loc 1 158 0
 1191 06de F860     		str	r0, [r7, #12]	@, MEM[(struct CompFilter_t *)CompFilterRoll.39_151].Filter
 159:.\src\sensors\fusion/complementary.c **** 	CompFilterRoll->Filter->FilterType = ComplementaryFilterConfig->FilterOptionRoll;
 1192              		.loc 1 159 0
 1193 06e0 3168     		ldr	r1, [r6, #0]	@ ComplementaryFilterConfig, ComplementaryFilterConfig
 1194 06e2 DA68     		ldr	r2, [r3, #12]	@ D.9736, CompFilterRoll.40_155->Filter
 1195 06e4 C978     		ldrb	r1, [r1, #3]	@ zero_extendqisi2	@ ComplementaryFilterConfig.35_157->FilterOptionRoll, Complem
 160:.\src\sensors\fusion/complementary.c **** 	CompFilterRoll->Filter->IsInitialized = false;
 1196              		.loc 1 160 0
 1197 06e6 82F83040 		strb	r4, [r2, #48]	@ tmp480, D.9736_156->IsInitialized
 159:.\src\sensors\fusion/complementary.c **** 	CompFilterRoll->Filter->FilterType = ComplementaryFilterConfig->FilterOptionRoll;
 1198              		.loc 1 159 0
 1199 06ea 5170     		strb	r1, [r2, #1]	@ ComplementaryFilterConfig.35_157->FilterOptionRoll, D.9736_156->FilterType
 161:.\src\sensors\fusion/complementary.c **** 	CompFilterRoll->Filter->Current = 0.0f;
 1200              		.loc 1 161 0
 1201 06ec DA68     		ldr	r2, [r3, #12]	@ D.9736, CompFilterRoll.40_155->Filter
 165:.\src\sensors\fusion/complementary.c **** 	CompFilterHeading = pm_malloc(sizeof(CompFilter_t));
 1202              		.loc 1 165 0
 1203 06ee DFF8A480 		ldr	r8, .L99+20	@ tmp517,
 162:.\src\sensors\fusion/complementary.c **** 	CompFilterRoll->Filter->CurrentSlot = 0;
 1204              		.loc 1 162 0
 1205 06f2 1470     		strb	r4, [r2, #0]	@ tmp480, D.9736_162->CurrentSlot
 163:.\src\sensors\fusion/complementary.c **** 	CompFilterRoll->Filter->Previous = 0.0f;
 1206              		.loc 1 163 0
 1207 06f4 DB68     		ldr	r3, [r3, #12]	@ CompFilterRoll.40_155->Filter, CompFilterRoll.40_155->Filter
 161:.\src\sensors\fusion/complementary.c **** 	CompFilterRoll->Filter->Current = 0.0f;
 1208              		.loc 1 161 0
 1209 06f6 9562     		str	r5, [r2, #40]	@ float	@ tmp497, D.9736_162->Current
 163:.\src\sensors\fusion/complementary.c **** 	CompFilterRoll->Filter->Previous = 0.0f;
 1210              		.loc 1 163 0
 1211 06f8 DD62     		str	r5, [r3, #44]	@ float	@ tmp497, D.9736_166->Previous
 165:.\src\sensors\fusion/complementary.c **** 	CompFilterHeading = pm_malloc(sizeof(CompFilter_t));
 1212              		.loc 1 165 0
 1213 06fa 1C20     		movs	r0, #28	@,
 1214 06fc FFF7FEFF 		bl	pm_malloc	@
 1215              	.LVL68:
 166:.\src\sensors\fusion/complementary.c **** 	CompFilterHeading->Axis = HeadingAxis;
 1216              		.loc 1 166 0
 1217 0700 0C23     		movs	r3, #12	@ tmp518,
ARM GAS  C:\Users\Kevin\AppData\Local\Temp\ccw18vSb.s 			page 33


 165:.\src\sensors\fusion/complementary.c **** 	CompFilterHeading = pm_malloc(sizeof(CompFilter_t));
 1218              		.loc 1 165 0
 1219 0702 0746     		mov	r7, r0	@ CompFilterHeading.41,
 1220 0704 C8F80000 		str	r0, [r8, #0]	@ CompFilterHeading.41, CompFilterHeading
 166:.\src\sensors\fusion/complementary.c **** 	CompFilterHeading->Axis = HeadingAxis;
 1221              		.loc 1 166 0
 1222 0708 0372     		strb	r3, [r0, #8]	@ tmp518, MEM[(struct CompFilter_t *)CompFilterHeading.41_167].Axis
 167:.\src\sensors\fusion/complementary.c **** 	CompFilterHeading->Filter = pm_malloc(sizeof(FilterFloat_t));
 1223              		.loc 1 167 0
 1224 070a 3420     		movs	r0, #52	@,
 1225 070c FFF7FEFF 		bl	pm_malloc	@
 1226              	.LVL69:
 168:.\src\sensors\fusion/complementary.c **** 	CompFilterHeading->Filter->FilterType = ComplementaryFilterConfig->FilterOptionHeading;
 1227              		.loc 1 168 0
 1228 0710 D8F80030 		ldr	r3, [r8, #0]	@ CompFilterHeading.42, CompFilterHeading
 167:.\src\sensors\fusion/complementary.c **** 	CompFilterHeading->Filter = pm_malloc(sizeof(FilterFloat_t));
 1229              		.loc 1 167 0
 1230 0714 F860     		str	r0, [r7, #12]	@, MEM[(struct CompFilter_t *)CompFilterHeading.41_167].Filter
 168:.\src\sensors\fusion/complementary.c **** 	CompFilterHeading->Filter->FilterType = ComplementaryFilterConfig->FilterOptionHeading;
 1231              		.loc 1 168 0
 1232 0716 3168     		ldr	r1, [r6, #0]	@ ComplementaryFilterConfig, ComplementaryFilterConfig
 1233 0718 DA68     		ldr	r2, [r3, #12]	@ D.9741, CompFilterHeading.42_171->Filter
 1234 071a 0979     		ldrb	r1, [r1, #4]	@ zero_extendqisi2	@ ComplementaryFilterConfig.35_173->FilterOptionHeading, Comp
 169:.\src\sensors\fusion/complementary.c **** 	CompFilterHeading->Filter->IsInitialized = false;
 1235              		.loc 1 169 0
 1236 071c 82F83040 		strb	r4, [r2, #48]	@ tmp480, D.9741_172->IsInitialized
 168:.\src\sensors\fusion/complementary.c **** 	CompFilterHeading->Filter->FilterType = ComplementaryFilterConfig->FilterOptionHeading;
 1237              		.loc 1 168 0
 1238 0720 5170     		strb	r1, [r2, #1]	@ ComplementaryFilterConfig.35_173->FilterOptionHeading, D.9741_172->FilterType
 170:.\src\sensors\fusion/complementary.c **** 	CompFilterHeading->Filter->Current = 0.0f;
 1239              		.loc 1 170 0
 1240 0722 DA68     		ldr	r2, [r3, #12]	@ D.9741, CompFilterHeading.42_171->Filter
 174:.\src\sensors\fusion/complementary.c **** 	CompFilterAltitude = pm_malloc(sizeof(CompFilter_t));
 1241              		.loc 1 174 0
 1242 0724 DFF87080 		ldr	r8, .L99+24	@ tmp532,
 171:.\src\sensors\fusion/complementary.c **** 	CompFilterHeading->Filter->CurrentSlot = 0;
 1243              		.loc 1 171 0
 1244 0728 1470     		strb	r4, [r2, #0]	@ tmp480, D.9741_178->CurrentSlot
 172:.\src\sensors\fusion/complementary.c **** 	CompFilterHeading->Filter->Previous = 0.0f;
 1245              		.loc 1 172 0
 1246 072a DB68     		ldr	r3, [r3, #12]	@ CompFilterHeading.42_171->Filter, CompFilterHeading.42_171->Filter
 170:.\src\sensors\fusion/complementary.c **** 	CompFilterHeading->Filter->Current = 0.0f;
 1247              		.loc 1 170 0
 1248 072c 9562     		str	r5, [r2, #40]	@ float	@ tmp497, D.9741_178->Current
 172:.\src\sensors\fusion/complementary.c **** 	CompFilterHeading->Filter->Previous = 0.0f;
 1249              		.loc 1 172 0
 1250 072e DD62     		str	r5, [r3, #44]	@ float	@ tmp497, D.9741_182->Previous
 174:.\src\sensors\fusion/complementary.c **** 	CompFilterAltitude = pm_malloc(sizeof(CompFilter_t));
 1251              		.loc 1 174 0
 1252 0730 1C20     		movs	r0, #28	@,
 1253 0732 FFF7FEFF 		bl	pm_malloc	@
 1254              	.LVL70:
 175:.\src\sensors\fusion/complementary.c **** 	CompFilterAltitude->Axis = AltitudeAxis;
 1255              		.loc 1 175 0
 1256 0736 0D23     		movs	r3, #13	@ tmp533,
 174:.\src\sensors\fusion/complementary.c **** 	CompFilterAltitude = pm_malloc(sizeof(CompFilter_t));
 1257              		.loc 1 174 0
ARM GAS  C:\Users\Kevin\AppData\Local\Temp\ccw18vSb.s 			page 34


 1258 0738 0746     		mov	r7, r0	@ CompFilterAltitude.43,
 1259 073a C8F80000 		str	r0, [r8, #0]	@ CompFilterAltitude.43, CompFilterAltitude
 175:.\src\sensors\fusion/complementary.c **** 	CompFilterAltitude->Axis = AltitudeAxis;
 1260              		.loc 1 175 0
 1261 073e 0372     		strb	r3, [r0, #8]	@ tmp533, MEM[(struct CompFilter_t *)CompFilterAltitude.43_183].Axis
 176:.\src\sensors\fusion/complementary.c **** 	CompFilterAltitude->Filter = pm_malloc(sizeof(FilterFloat_t));
 1262              		.loc 1 176 0
 1263 0740 3420     		movs	r0, #52	@,
 1264 0742 FFF7FEFF 		bl	pm_malloc	@
 1265              	.LVL71:
 177:.\src\sensors\fusion/complementary.c **** 	CompFilterAltitude->Filter->FilterType = ComplementaryFilterConfig->FilterOptionAltitude;
 1266              		.loc 1 177 0
 1267 0746 D8F80030 		ldr	r3, [r8, #0]	@ CompFilterAltitude.44, CompFilterAltitude
 176:.\src\sensors\fusion/complementary.c **** 	CompFilterAltitude->Filter = pm_malloc(sizeof(FilterFloat_t));
 1268              		.loc 1 176 0
 1269 074a F860     		str	r0, [r7, #12]	@, MEM[(struct CompFilter_t *)CompFilterAltitude.43_183].Filter
 177:.\src\sensors\fusion/complementary.c **** 	CompFilterAltitude->Filter->FilterType = ComplementaryFilterConfig->FilterOptionAltitude;
 1270              		.loc 1 177 0
 1271 074c 3268     		ldr	r2, [r6, #0]	@ ComplementaryFilterConfig.35, ComplementaryFilterConfig
 1272 074e D968     		ldr	r1, [r3, #12]	@ D.9746, CompFilterAltitude.44_187->Filter
 1273 0750 5079     		ldrb	r0, [r2, #5]	@ zero_extendqisi2	@ ComplementaryFilterConfig.35_189->FilterOptionAltitude, Com
 178:.\src\sensors\fusion/complementary.c **** 	CompFilterAltitude->Filter->IsInitialized = false;
 1274              		.loc 1 178 0
 1275 0752 81F83040 		strb	r4, [r1, #48]	@ tmp480, D.9746_188->IsInitialized
 177:.\src\sensors\fusion/complementary.c **** 	CompFilterAltitude->Filter->FilterType = ComplementaryFilterConfig->FilterOptionAltitude;
 1276              		.loc 1 177 0
 1277 0756 4870     		strb	r0, [r1, #1]	@ ComplementaryFilterConfig.35_189->FilterOptionAltitude, D.9746_188->FilterType
 179:.\src\sensors\fusion/complementary.c **** 	CompFilterAltitude->Filter->Current = 0.0f;
 1278              		.loc 1 179 0
 1279 0758 D968     		ldr	r1, [r3, #12]	@ D.9746, CompFilterAltitude.44_187->Filter
 180:.\src\sensors\fusion/complementary.c **** 	CompFilterAltitude->Filter->CurrentSlot = 0;
 1280              		.loc 1 180 0
 1281 075a 0C70     		strb	r4, [r1, #0]	@ tmp480, D.9746_194->CurrentSlot
 181:.\src\sensors\fusion/complementary.c **** 	CompFilterAltitude->Filter->Previous = 0.0f;
 1282              		.loc 1 181 0
 1283 075c DB68     		ldr	r3, [r3, #12]	@ CompFilterAltitude.44_187->Filter, CompFilterAltitude.44_187->Filter
 179:.\src\sensors\fusion/complementary.c **** 	CompFilterAltitude->Filter->Current = 0.0f;
 1284              		.loc 1 179 0
 1285 075e 8D62     		str	r5, [r1, #40]	@ float	@ tmp497, D.9746_194->Current
 181:.\src\sensors\fusion/complementary.c **** 	CompFilterAltitude->Filter->Previous = 0.0f;
 1286              		.loc 1 181 0
 1287 0760 DD62     		str	r5, [r3, #44]	@ float	@ tmp497, D.9746_198->Previous
 183:.\src\sensors\fusion/complementary.c **** 	ComplementarySnsrFusion->IsEnabled = ComplementaryFilterConfig->Enabled;
 1288              		.loc 1 183 0
 1289 0762 094B     		ldr	r3, .L99+8	@ tmp546,
 1290 0764 1178     		ldrb	r1, [r2, #0]	@ zero_extendqisi2	@ ComplementaryFilterConfig.35_189->Enabled, ComplementaryFil
 1291 0766 1B68     		ldr	r3, [r3, #0]	@ ComplementarySnsrFusion.45, ComplementarySnsrFusion
 184:.\src\sensors\fusion/complementary.c **** 	ComplementarySnsrFusion->SampleRate = ComplementaryFilterConfig->SampleRate;
 1292              		.loc 1 184 0
 1293 0768 5278     		ldrb	r2, [r2, #1]	@ zero_extendqisi2	@ ComplementaryFilterConfig.35_189->SampleRate, Complementary
 183:.\src\sensors\fusion/complementary.c **** 	ComplementarySnsrFusion->IsEnabled = ComplementaryFilterConfig->Enabled;
 1294              		.loc 1 183 0
 1295 076a 5971     		strb	r1, [r3, #5]	@ ComplementaryFilterConfig.35_189->Enabled, ComplementarySnsrFusion.45_199->IsE
 184:.\src\sensors\fusion/complementary.c **** 	ComplementarySnsrFusion->SampleRate = ComplementaryFilterConfig->SampleRate;
 1296              		.loc 1 184 0
 1297 076c 5A73     		strb	r2, [r3, #13]	@ ComplementaryFilterConfig.35_189->SampleRate, ComplementarySnsrFusion.45_199-
 186:.\src\sensors\fusion/complementary.c **** 	ComplementarySnsrFusion->Read = &TWB_SNSR_Complementary_Process;
ARM GAS  C:\Users\Kevin\AppData\Local\Temp\ccw18vSb.s 			page 35


 1298              		.loc 1 186 0
 1299 076e 074A     		ldr	r2, .L99+12	@ tmp551,
 1300 0770 9A62     		str	r2, [r3, #40]	@ tmp551, ComplementarySnsrFusion.45_199->Read
 188:.\src\sensors\fusion/complementary.c **** 	__snsr_compFilter_ResolveSensors();
 1301              		.loc 1 188 0
 1302 0772 FFF7FEFF 		bl	__snsr_compFilter_ResolveSensors	@
 1303              	.LVL72:
 189:.\src\sensors\fusion/complementary.c **** 	__snsr_compFilter_ResolveCompFilters();
 1304              		.loc 1 189 0
 1305 0776 FFF7FEFF 		bl	__snsr_compFilter_ResolveCompFilters	@
 1306              	.LVL73:
 192:.\src\sensors\fusion/complementary.c **** }
 1307              		.loc 1 192 0
 1308 077a 2046     		mov	r0, r4	@, tmp480
 1309 077c BDE8F081 		pop	{r4, r5, r6, r7, r8, pc}	@
 1310              	.L100:
 1311              		.align	2
 1312              	.L99:
 1313 0780 00000000 		.word	SensorFusionMsg
 1314 0784 00000000 		.word	CompFilterPitch
 1315 0788 00000000 		.word	ComplementarySnsrFusion
 1316 078c 00000000 		.word	TWB_SNSR_Complementary_Process
 1317 0790 00000000 		.word	CompFilterRoll
 1318 0794 00000000 		.word	CompFilterHeading
 1319 0798 00000000 		.word	CompFilterAltitude
 1320              		.cfi_endproc
 1321              	.LFE114:
 1322              		.size	TWB_SNSR_Complementary_Init, .-TWB_SNSR_Complementary_Init
 1323              		.align	1
 1324              		.global	TWB_SNSR_Complementary_ResetDefaults
 1325              		.thumb
 1326              		.thumb_func
 1327              		.type	TWB_SNSR_Complementary_ResetDefaults, %function
 1328              	TWB_SNSR_Complementary_ResetDefaults:
 1329              	.LFB115:
 194:.\src\sensors\fusion/complementary.c **** iOpResult_e TWB_SNSR_Complementary_ResetDefaults(void) {
 1330              		.loc 1 194 0
 1331              		.cfi_startproc
 1332              		@ args = 0, pretend = 0, frame = 0
 1333              		@ frame_needed = 0, uses_anonymous_args = 0
 1334 079c 38B5     		push	{r3, r4, r5, lr}	@
 1335              	.LCFI7:
 1336              		.cfi_def_cfa_offset 16
 1337              		.cfi_offset 3, -16
 1338              		.cfi_offset 4, -12
 1339              		.cfi_offset 5, -8
 1340              		.cfi_offset 14, -4
 195:.\src\sensors\fusion/complementary.c **** 	ComplementaryFilterConfig->Enabled = Enabled;
 1341              		.loc 1 195 0
 1342 079e 914C     		ldr	r4, .L125	@ tmp249,
 1343 07a0 2368     		ldr	r3, [r4, #0]	@ ComplementaryFilterConfig.33, ComplementaryFilterConfig
 196:.\src\sensors\fusion/complementary.c **** 	ComplementaryFilterConfig->SampleRate = SampleRate_200Hz;
 1344              		.loc 1 196 0
 1345 07a2 0222     		movs	r2, #2	@ tmp252,
 208:.\src\sensors\fusion/complementary.c **** 	ComplementaryFilterConfig->Sensor1Pitch = GyroL3GD20;
 1346              		.loc 1 208 0
 1347 07a4 2220     		movs	r0, #34	@ tmp270,
ARM GAS  C:\Users\Kevin\AppData\Local\Temp\ccw18vSb.s 			page 36


 196:.\src\sensors\fusion/complementary.c **** 	ComplementaryFilterConfig->SampleRate = SampleRate_200Hz;
 1348              		.loc 1 196 0
 1349 07a6 5A70     		strb	r2, [r3, #1]	@ tmp252, ComplementaryFilterConfig.33_2->SampleRate
 198:.\src\sensors\fusion/complementary.c **** 	ComplementaryFilterConfig->TimeConstantPitch = CompFilter_200Ms;
 1350              		.loc 1 198 0
 1351 07a8 0822     		movs	r2, #8	@ tmp254,
 1352 07aa 9A71     		strb	r2, [r3, #6]	@ tmp254, ComplementaryFilterConfig.33_2->TimeConstantPitch
 199:.\src\sensors\fusion/complementary.c **** 	ComplementaryFilterConfig->TimeConstantRoll = CompFilter_200Ms;
 1353              		.loc 1 199 0
 1354 07ac DA71     		strb	r2, [r3, #7]	@ tmp254, ComplementaryFilterConfig.33_2->TimeConstantRoll
 208:.\src\sensors\fusion/complementary.c **** 	ComplementaryFilterConfig->Sensor1Pitch = GyroL3GD20;
 1355              		.loc 1 208 0
 1356 07ae 9872     		strb	r0, [r3, #10]	@ tmp270, ComplementaryFilterConfig.33_2->Sensor1Pitch
 212:.\src\sensors\fusion/complementary.c **** 	ComplementaryFilterConfig->Sensor1Roll = GyroL3GD20;
 1357              		.loc 1 212 0
 1358 07b0 5873     		strb	r0, [r3, #13]	@ tmp270, ComplementaryFilterConfig.33_2->Sensor1Roll
 216:.\src\sensors\fusion/complementary.c **** 	ComplementaryFilterConfig->Sensor1Heading = GyroL3GD20;
 1359              		.loc 1 216 0
 1360 07b2 1874     		strb	r0, [r3, #16]	@ tmp270, ComplementaryFilterConfig.33_2->Sensor1Heading
 200:.\src\sensors\fusion/complementary.c **** 	ComplementaryFilterConfig->TimeConstantHeading = CompFilter_100Ms;
 1361              		.loc 1 200 0
 1362 07b4 0A22     		movs	r2, #10	@ tmp258,
 217:.\src\sensors\fusion/complementary.c **** 	ComplementaryFilterConfig->Sensor2Heading = MagLSM303;
 1363              		.loc 1 217 0
 1364 07b6 4020     		movs	r0, #64	@ tmp284,
 200:.\src\sensors\fusion/complementary.c **** 	ComplementaryFilterConfig->TimeConstantHeading = CompFilter_100Ms;
 1365              		.loc 1 200 0
 1366 07b8 1A72     		strb	r2, [r3, #8]	@ tmp258, ComplementaryFilterConfig.33_2->TimeConstantHeading
 217:.\src\sensors\fusion/complementary.c **** 	ComplementaryFilterConfig->Sensor2Heading = MagLSM303;
 1367              		.loc 1 217 0
 1368 07ba 5874     		strb	r0, [r3, #17]	@ tmp284, ComplementaryFilterConfig.33_2->Sensor2Heading
 201:.\src\sensors\fusion/complementary.c **** 	ComplementaryFilterConfig->TimeConstantAltitude = CompFilter_500Ms;
 1369              		.loc 1 201 0
 1370 07bc 0522     		movs	r2, #5	@ tmp260,
 220:.\src\sensors\fusion/complementary.c **** 	ComplementaryFilterConfig->Sensor1Altitude = AltSonar;
 1371              		.loc 1 220 0
 1372 07be 5120     		movs	r0, #81	@ tmp288,
 201:.\src\sensors\fusion/complementary.c **** 	ComplementaryFilterConfig->TimeConstantAltitude = CompFilter_500Ms;
 1373              		.loc 1 201 0
 1374 07c0 5A72     		strb	r2, [r3, #9]	@ tmp260, ComplementaryFilterConfig.33_2->TimeConstantAltitude
 220:.\src\sensors\fusion/complementary.c **** 	ComplementaryFilterConfig->Sensor1Altitude = AltSonar;
 1375              		.loc 1 220 0
 1376 07c2 D874     		strb	r0, [r3, #19]	@ tmp288, ComplementaryFilterConfig.33_2->Sensor1Altitude
 203:.\src\sensors\fusion/complementary.c **** 	ComplementaryFilterConfig->FilterOptionPitch = FilterOption_None;
 1377              		.loc 1 203 0
 1378 07c4 0022     		movs	r2, #0	@ tmp262,
 195:.\src\sensors\fusion/complementary.c **** 	ComplementaryFilterConfig->Enabled = Enabled;
 1379              		.loc 1 195 0
 1380 07c6 FF21     		movs	r1, #255	@ tmp250,
 209:.\src\sensors\fusion/complementary.c **** 	ComplementaryFilterConfig->Sensor2Pitch = AccLSM303;
 1381              		.loc 1 209 0
 1382 07c8 3025     		movs	r5, #48	@ tmp272,
 221:.\src\sensors\fusion/complementary.c **** 	ComplementaryFilterConfig->Sensor2Altitude = AltBMP085;
 1383              		.loc 1 221 0
 1384 07ca 5020     		movs	r0, #80	@ tmp290,
 1385 07cc 1875     		strb	r0, [r3, #20]	@ tmp290, ComplementaryFilterConfig.33_2->Sensor2Altitude
 195:.\src\sensors\fusion/complementary.c **** 	ComplementaryFilterConfig->Enabled = Enabled;
ARM GAS  C:\Users\Kevin\AppData\Local\Temp\ccw18vSb.s 			page 37


 1386              		.loc 1 195 0
 1387 07ce 1970     		strb	r1, [r3, #0]	@ tmp250, ComplementaryFilterConfig.33_2->Enabled
 203:.\src\sensors\fusion/complementary.c **** 	ComplementaryFilterConfig->FilterOptionPitch = FilterOption_None;
 1388              		.loc 1 203 0
 1389 07d0 9A70     		strb	r2, [r3, #2]	@ tmp262, ComplementaryFilterConfig.33_2->FilterOptionPitch
 204:.\src\sensors\fusion/complementary.c **** 	ComplementaryFilterConfig->FilterOptionRoll = FilterOption_None;
 1390              		.loc 1 204 0
 1391 07d2 DA70     		strb	r2, [r3, #3]	@ tmp262, ComplementaryFilterConfig.33_2->FilterOptionRoll
 205:.\src\sensors\fusion/complementary.c **** 	ComplementaryFilterConfig->FilterOptionHeading = FilterOption_None;
 1392              		.loc 1 205 0
 1393 07d4 1A71     		strb	r2, [r3, #4]	@ tmp262, ComplementaryFilterConfig.33_2->FilterOptionHeading
 206:.\src\sensors\fusion/complementary.c **** 	ComplementaryFilterConfig->FilterOptionAltitude = FilterOption_None;
 1394              		.loc 1 206 0
 1395 07d6 5A71     		strb	r2, [r3, #5]	@ tmp262, ComplementaryFilterConfig.33_2->FilterOptionAltitude
 209:.\src\sensors\fusion/complementary.c **** 	ComplementaryFilterConfig->Sensor2Pitch = AccLSM303;
 1396              		.loc 1 209 0
 1397 07d8 DD72     		strb	r5, [r3, #11]	@ tmp272, ComplementaryFilterConfig.33_2->Sensor2Pitch
 210:.\src\sensors\fusion/complementary.c **** 	ComplementaryFilterConfig->Sensor3Pitch = SensorNone;
 1398              		.loc 1 210 0
 1399 07da 1A73     		strb	r2, [r3, #12]	@ tmp262, ComplementaryFilterConfig.33_2->Sensor3Pitch
 213:.\src\sensors\fusion/complementary.c **** 	ComplementaryFilterConfig->Sensor2Roll = AccLSM303;
 1400              		.loc 1 213 0
 1401 07dc 9D73     		strb	r5, [r3, #14]	@ tmp272, ComplementaryFilterConfig.33_2->Sensor2Roll
 214:.\src\sensors\fusion/complementary.c **** 	ComplementaryFilterConfig->Sensor3Roll = SensorNone;
 1402              		.loc 1 214 0
 1403 07de DA73     		strb	r2, [r3, #15]	@ tmp262, ComplementaryFilterConfig.33_2->Sensor3Roll
 218:.\src\sensors\fusion/complementary.c **** 	ComplementaryFilterConfig->Sensor3Heading = SensorNone;
 1404              		.loc 1 218 0
 1405 07e0 9A74     		strb	r2, [r3, #18]	@ tmp262, ComplementaryFilterConfig.33_2->Sensor3Heading
 222:.\src\sensors\fusion/complementary.c **** 	ComplementaryFilterConfig->Sensor3Altitude = SensorNone;
 1406              		.loc 1 222 0
 1407 07e2 5A75     		strb	r2, [r3, #21]	@ tmp262, ComplementaryFilterConfig.33_2->Sensor3Altitude
 224:.\src\sensors\fusion/complementary.c **** 	assert_succeed(TWB_SE_WriteU8Pause(COMPLEMENTARY_EEPROM_OFFSET + 0, ComplementaryFilterConfig->Ena
 1408              		.loc 1 224 0
 1409 07e4 4FF47870 		mov	r0, #992	@,
 1410 07e8 FFF7FEFF 		bl	TWB_SE_WriteU8Pause	@
 1411              	.LVL74:
 1412 07ec 2368     		ldr	r3, [r4, #0]	@ ComplementaryFilterConfig, ComplementaryFilterConfig
 1413 07ee 18B1     		cbz	r0, .L102	@,
 224:.\src\sensors\fusion/complementary.c **** 	assert_succeed(TWB_SE_WriteU8Pause(COMPLEMENTARY_EEPROM_OFFSET + 0, ComplementaryFilterConfig->Ena
 1414              		.loc 1 224 0 is_stmt 0 discriminator 1
 1415 07f0 4FF47870 		mov	r0, #992	@,
 1416 07f4 1978     		ldrb	r1, [r3, #0]	@ zero_extendqisi2	@, ComplementaryFilterConfig.33_27->Enabled
 1417 07f6 E9E0     		b	.L124	@
 1418              	.L102:
 225:.\src\sensors\fusion/complementary.c **** 	assert_succeed(TWB_SE_WriteU8Pause(COMPLEMENTARY_EEPROM_OFFSET + 1, ComplementaryFilterConfig->Sam
 1419              		.loc 1 225 0 is_stmt 1
 1420 07f8 5978     		ldrb	r1, [r3, #1]	@ zero_extendqisi2	@, ComplementaryFilterConfig.33_30->SampleRate
 1421 07fa 40F2E130 		movw	r0, #993	@,
 1422 07fe FFF7FEFF 		bl	TWB_SE_WriteU8Pause	@
 1423              	.LVL75:
 1424 0802 2368     		ldr	r3, [r4, #0]	@ ComplementaryFilterConfig, ComplementaryFilterConfig
 1425 0804 18B1     		cbz	r0, .L103	@,
 225:.\src\sensors\fusion/complementary.c **** 	assert_succeed(TWB_SE_WriteU8Pause(COMPLEMENTARY_EEPROM_OFFSET + 1, ComplementaryFilterConfig->Sam
 1426              		.loc 1 225 0 is_stmt 0 discriminator 1
 1427 0806 40F2E130 		movw	r0, #993	@,
 1428 080a 5978     		ldrb	r1, [r3, #1]	@ zero_extendqisi2	@, ComplementaryFilterConfig.33_33->SampleRate
ARM GAS  C:\Users\Kevin\AppData\Local\Temp\ccw18vSb.s 			page 38


 1429 080c DEE0     		b	.L124	@
 1430              	.L103:
 227:.\src\sensors\fusion/complementary.c **** 	assert_succeed(TWB_SE_WriteU8Pause(COMPLEMENTARY_EEPROM_OFFSET + 2, ComplementaryFilterConfig->Fil
 1431              		.loc 1 227 0 is_stmt 1
 1432 080e 9978     		ldrb	r1, [r3, #2]	@ zero_extendqisi2	@, ComplementaryFilterConfig.33_36->FilterOptionPitch
 1433 0810 40F2E230 		movw	r0, #994	@,
 1434 0814 FFF7FEFF 		bl	TWB_SE_WriteU8Pause	@
 1435              	.LVL76:
 1436 0818 2368     		ldr	r3, [r4, #0]	@ ComplementaryFilterConfig, ComplementaryFilterConfig
 1437 081a 18B1     		cbz	r0, .L104	@,
 227:.\src\sensors\fusion/complementary.c **** 	assert_succeed(TWB_SE_WriteU8Pause(COMPLEMENTARY_EEPROM_OFFSET + 2, ComplementaryFilterConfig->Fil
 1438              		.loc 1 227 0 is_stmt 0 discriminator 1
 1439 081c 40F2E230 		movw	r0, #994	@,
 1440 0820 9978     		ldrb	r1, [r3, #2]	@ zero_extendqisi2	@, ComplementaryFilterConfig.33_39->FilterOptionPitch
 1441 0822 D3E0     		b	.L124	@
 1442              	.L104:
 228:.\src\sensors\fusion/complementary.c **** 	assert_succeed(TWB_SE_WriteU8Pause(COMPLEMENTARY_EEPROM_OFFSET + 3, ComplementaryFilterConfig->Fil
 1443              		.loc 1 228 0 is_stmt 1
 1444 0824 D978     		ldrb	r1, [r3, #3]	@ zero_extendqisi2	@, ComplementaryFilterConfig.33_42->FilterOptionRoll
 1445 0826 40F2E330 		movw	r0, #995	@,
 1446 082a FFF7FEFF 		bl	TWB_SE_WriteU8Pause	@
 1447              	.LVL77:
 1448 082e 2368     		ldr	r3, [r4, #0]	@ ComplementaryFilterConfig, ComplementaryFilterConfig
 1449 0830 18B1     		cbz	r0, .L105	@,
 228:.\src\sensors\fusion/complementary.c **** 	assert_succeed(TWB_SE_WriteU8Pause(COMPLEMENTARY_EEPROM_OFFSET + 3, ComplementaryFilterConfig->Fil
 1450              		.loc 1 228 0 is_stmt 0 discriminator 1
 1451 0832 40F2E330 		movw	r0, #995	@,
 1452 0836 D978     		ldrb	r1, [r3, #3]	@ zero_extendqisi2	@, ComplementaryFilterConfig.33_45->FilterOptionRoll
 1453 0838 C8E0     		b	.L124	@
 1454              	.L105:
 229:.\src\sensors\fusion/complementary.c **** 	assert_succeed(TWB_SE_WriteU8Pause(COMPLEMENTARY_EEPROM_OFFSET + 4, ComplementaryFilterConfig->Fil
 1455              		.loc 1 229 0 is_stmt 1
 1456 083a 1979     		ldrb	r1, [r3, #4]	@ zero_extendqisi2	@, ComplementaryFilterConfig.33_48->FilterOptionHeading
 1457 083c 4FF47970 		mov	r0, #996	@,
 1458 0840 FFF7FEFF 		bl	TWB_SE_WriteU8Pause	@
 1459              	.LVL78:
 1460 0844 2368     		ldr	r3, [r4, #0]	@ ComplementaryFilterConfig, ComplementaryFilterConfig
 1461 0846 18B1     		cbz	r0, .L106	@,
 229:.\src\sensors\fusion/complementary.c **** 	assert_succeed(TWB_SE_WriteU8Pause(COMPLEMENTARY_EEPROM_OFFSET + 4, ComplementaryFilterConfig->Fil
 1462              		.loc 1 229 0 is_stmt 0 discriminator 1
 1463 0848 4FF47970 		mov	r0, #996	@,
 1464 084c 1979     		ldrb	r1, [r3, #4]	@ zero_extendqisi2	@, ComplementaryFilterConfig.33_51->FilterOptionHeading
 1465 084e BDE0     		b	.L124	@
 1466              	.L106:
 230:.\src\sensors\fusion/complementary.c **** 	assert_succeed(TWB_SE_WriteU8Pause(COMPLEMENTARY_EEPROM_OFFSET + 5, ComplementaryFilterConfig->Fil
 1467              		.loc 1 230 0 is_stmt 1
 1468 0850 5979     		ldrb	r1, [r3, #5]	@ zero_extendqisi2	@, ComplementaryFilterConfig.33_54->FilterOptionAltitude
 1469 0852 40F2E530 		movw	r0, #997	@,
 1470 0856 FFF7FEFF 		bl	TWB_SE_WriteU8Pause	@
 1471              	.LVL79:
 1472 085a 2368     		ldr	r3, [r4, #0]	@ ComplementaryFilterConfig, ComplementaryFilterConfig
 1473 085c 18B1     		cbz	r0, .L107	@,
 230:.\src\sensors\fusion/complementary.c **** 	assert_succeed(TWB_SE_WriteU8Pause(COMPLEMENTARY_EEPROM_OFFSET + 5, ComplementaryFilterConfig->Fil
 1474              		.loc 1 230 0 is_stmt 0 discriminator 1
 1475 085e 40F2E530 		movw	r0, #997	@,
 1476 0862 5979     		ldrb	r1, [r3, #5]	@ zero_extendqisi2	@, ComplementaryFilterConfig.33_57->FilterOptionAltitude
 1477 0864 B2E0     		b	.L124	@
ARM GAS  C:\Users\Kevin\AppData\Local\Temp\ccw18vSb.s 			page 39


 1478              	.L107:
 232:.\src\sensors\fusion/complementary.c **** 	assert_succeed(TWB_SE_WriteU8Pause(COMPLEMENTARY_EEPROM_OFFSET + 6, ComplementaryFilterConfig->Tim
 1479              		.loc 1 232 0 is_stmt 1
 1480 0866 9979     		ldrb	r1, [r3, #6]	@ zero_extendqisi2	@, ComplementaryFilterConfig.33_60->TimeConstantPitch
 1481 0868 40F2E630 		movw	r0, #998	@,
 1482 086c FFF7FEFF 		bl	TWB_SE_WriteU8Pause	@
 1483              	.LVL80:
 1484 0870 2368     		ldr	r3, [r4, #0]	@ ComplementaryFilterConfig, ComplementaryFilterConfig
 1485 0872 18B1     		cbz	r0, .L108	@,
 232:.\src\sensors\fusion/complementary.c **** 	assert_succeed(TWB_SE_WriteU8Pause(COMPLEMENTARY_EEPROM_OFFSET + 6, ComplementaryFilterConfig->Tim
 1486              		.loc 1 232 0 is_stmt 0 discriminator 1
 1487 0874 40F2E630 		movw	r0, #998	@,
 1488 0878 9979     		ldrb	r1, [r3, #6]	@ zero_extendqisi2	@, ComplementaryFilterConfig.33_63->TimeConstantPitch
 1489 087a A7E0     		b	.L124	@
 1490              	.L108:
 233:.\src\sensors\fusion/complementary.c **** 	assert_succeed(TWB_SE_WriteU8Pause(COMPLEMENTARY_EEPROM_OFFSET + 7, ComplementaryFilterConfig->Tim
 1491              		.loc 1 233 0 is_stmt 1
 1492 087c D979     		ldrb	r1, [r3, #7]	@ zero_extendqisi2	@, ComplementaryFilterConfig.33_66->TimeConstantRoll
 1493 087e 40F2E730 		movw	r0, #999	@,
 1494 0882 FFF7FEFF 		bl	TWB_SE_WriteU8Pause	@
 1495              	.LVL81:
 1496 0886 2368     		ldr	r3, [r4, #0]	@ ComplementaryFilterConfig, ComplementaryFilterConfig
 1497 0888 18B1     		cbz	r0, .L109	@,
 233:.\src\sensors\fusion/complementary.c **** 	assert_succeed(TWB_SE_WriteU8Pause(COMPLEMENTARY_EEPROM_OFFSET + 7, ComplementaryFilterConfig->Tim
 1498              		.loc 1 233 0 is_stmt 0 discriminator 1
 1499 088a 40F2E730 		movw	r0, #999	@,
 1500 088e D979     		ldrb	r1, [r3, #7]	@ zero_extendqisi2	@, ComplementaryFilterConfig.33_69->TimeConstantRoll
 1501 0890 9CE0     		b	.L124	@
 1502              	.L109:
 234:.\src\sensors\fusion/complementary.c **** 	assert_succeed(TWB_SE_WriteU8Pause(COMPLEMENTARY_EEPROM_OFFSET + 8, ComplementaryFilterConfig->Tim
 1503              		.loc 1 234 0 is_stmt 1
 1504 0892 197A     		ldrb	r1, [r3, #8]	@ zero_extendqisi2	@, ComplementaryFilterConfig.33_72->TimeConstantHeading
 1505 0894 4FF47A70 		mov	r0, #1000	@,
 1506 0898 FFF7FEFF 		bl	TWB_SE_WriteU8Pause	@
 1507              	.LVL82:
 1508 089c 2368     		ldr	r3, [r4, #0]	@ ComplementaryFilterConfig, ComplementaryFilterConfig
 1509 089e 18B1     		cbz	r0, .L110	@,
 234:.\src\sensors\fusion/complementary.c **** 	assert_succeed(TWB_SE_WriteU8Pause(COMPLEMENTARY_EEPROM_OFFSET + 8, ComplementaryFilterConfig->Tim
 1510              		.loc 1 234 0 is_stmt 0 discriminator 1
 1511 08a0 4FF47A70 		mov	r0, #1000	@,
 1512 08a4 197A     		ldrb	r1, [r3, #8]	@ zero_extendqisi2	@, ComplementaryFilterConfig.33_75->TimeConstantHeading
 1513 08a6 91E0     		b	.L124	@
 1514              	.L110:
 235:.\src\sensors\fusion/complementary.c **** 	assert_succeed(TWB_SE_WriteU8Pause(COMPLEMENTARY_EEPROM_OFFSET + 9, ComplementaryFilterConfig->Tim
 1515              		.loc 1 235 0 is_stmt 1
 1516 08a8 40F2E930 		movw	r0, #1001	@,
 1517 08ac 597A     		ldrb	r1, [r3, #9]	@ zero_extendqisi2	@, ComplementaryFilterConfig.33_78->TimeConstantAltitude
 1518 08ae FFF7FEFF 		bl	TWB_SE_WriteU8Pause	@
 1519              	.LVL83:
 1520 08b2 20B1     		cbz	r0, .L111	@,
 235:.\src\sensors\fusion/complementary.c **** 	assert_succeed(TWB_SE_WriteU8Pause(COMPLEMENTARY_EEPROM_OFFSET + 9, ComplementaryFilterConfig->Tim
 1521              		.loc 1 235 0 is_stmt 0 discriminator 1
 1522 08b4 2368     		ldr	r3, [r4, #0]	@ ComplementaryFilterConfig, ComplementaryFilterConfig
 1523 08b6 40F2E930 		movw	r0, #1001	@,
 1524 08ba 597A     		ldrb	r1, [r3, #9]	@ zero_extendqisi2	@, ComplementaryFilterConfig.33_81->TimeConstantAltitude
 1525 08bc 86E0     		b	.L124	@
 1526              	.L111:
ARM GAS  C:\Users\Kevin\AppData\Local\Temp\ccw18vSb.s 			page 40


 237:.\src\sensors\fusion/complementary.c **** 	assert_succeed(TWB_SE_WriteU8Pause(COMPLEMENTARY_EEPROM_OFFSET + 10, ComplementaryFilterConfig->Se
 1527              		.loc 1 237 0 is_stmt 1
 1528 08be 2368     		ldr	r3, [r4, #0]	@ ComplementaryFilterConfig, ComplementaryFilterConfig
 1529 08c0 484D     		ldr	r5, .L125	@ tmp387,
 1530 08c2 997A     		ldrb	r1, [r3, #10]	@ zero_extendqisi2	@, ComplementaryFilterConfig.33_84->Sensor1Pitch
 1531 08c4 40F2EA30 		movw	r0, #1002	@,
 1532 08c8 FFF7FEFF 		bl	TWB_SE_WriteU8Pause	@
 1533              	.LVL84:
 1534 08cc 2B68     		ldr	r3, [r5, #0]	@ ComplementaryFilterConfig, ComplementaryFilterConfig
 1535 08ce 18B1     		cbz	r0, .L112	@,
 237:.\src\sensors\fusion/complementary.c **** 	assert_succeed(TWB_SE_WriteU8Pause(COMPLEMENTARY_EEPROM_OFFSET + 10, ComplementaryFilterConfig->Se
 1536              		.loc 1 237 0 is_stmt 0 discriminator 1
 1537 08d0 40F2EA30 		movw	r0, #1002	@,
 1538 08d4 997A     		ldrb	r1, [r3, #10]	@ zero_extendqisi2	@, ComplementaryFilterConfig.33_87->Sensor1Pitch
 1539 08d6 79E0     		b	.L124	@
 1540              	.L112:
 238:.\src\sensors\fusion/complementary.c **** 	assert_succeed(TWB_SE_WriteU8Pause(COMPLEMENTARY_EEPROM_OFFSET + 11, ComplementaryFilterConfig->Se
 1541              		.loc 1 238 0 is_stmt 1
 1542 08d8 D97A     		ldrb	r1, [r3, #11]	@ zero_extendqisi2	@, ComplementaryFilterConfig.33_90->Sensor2Pitch
 1543 08da 40F2EB30 		movw	r0, #1003	@,
 1544 08de FFF7FEFF 		bl	TWB_SE_WriteU8Pause	@
 1545              	.LVL85:
 1546 08e2 2B68     		ldr	r3, [r5, #0]	@ ComplementaryFilterConfig, ComplementaryFilterConfig
 1547 08e4 18B1     		cbz	r0, .L113	@,
 238:.\src\sensors\fusion/complementary.c **** 	assert_succeed(TWB_SE_WriteU8Pause(COMPLEMENTARY_EEPROM_OFFSET + 11, ComplementaryFilterConfig->Se
 1548              		.loc 1 238 0 is_stmt 0 discriminator 1
 1549 08e6 40F2EB30 		movw	r0, #1003	@,
 1550 08ea D97A     		ldrb	r1, [r3, #11]	@ zero_extendqisi2	@, ComplementaryFilterConfig.33_93->Sensor2Pitch
 1551 08ec 6EE0     		b	.L124	@
 1552              	.L113:
 239:.\src\sensors\fusion/complementary.c **** 	assert_succeed(TWB_SE_WriteU8Pause(COMPLEMENTARY_EEPROM_OFFSET + 12, ComplementaryFilterConfig->Se
 1553              		.loc 1 239 0 is_stmt 1
 1554 08ee 197B     		ldrb	r1, [r3, #12]	@ zero_extendqisi2	@, ComplementaryFilterConfig.33_96->Sensor3Pitch
 1555 08f0 4FF47B70 		mov	r0, #1004	@,
 1556 08f4 FFF7FEFF 		bl	TWB_SE_WriteU8Pause	@
 1557              	.LVL86:
 1558 08f8 2B68     		ldr	r3, [r5, #0]	@ ComplementaryFilterConfig, ComplementaryFilterConfig
 1559 08fa 18B1     		cbz	r0, .L114	@,
 239:.\src\sensors\fusion/complementary.c **** 	assert_succeed(TWB_SE_WriteU8Pause(COMPLEMENTARY_EEPROM_OFFSET + 12, ComplementaryFilterConfig->Se
 1560              		.loc 1 239 0 is_stmt 0 discriminator 1
 1561 08fc 4FF47B70 		mov	r0, #1004	@,
 1562 0900 197B     		ldrb	r1, [r3, #12]	@ zero_extendqisi2	@, ComplementaryFilterConfig.33_99->Sensor3Pitch
 1563 0902 63E0     		b	.L124	@
 1564              	.L114:
 241:.\src\sensors\fusion/complementary.c **** 	assert_succeed(TWB_SE_WriteU8Pause(COMPLEMENTARY_EEPROM_OFFSET + 13, ComplementaryFilterConfig->Se
 1565              		.loc 1 241 0 is_stmt 1
 1566 0904 597B     		ldrb	r1, [r3, #13]	@ zero_extendqisi2	@, ComplementaryFilterConfig.33_102->Sensor1Roll
 1567 0906 40F2ED30 		movw	r0, #1005	@,
 1568 090a FFF7FEFF 		bl	TWB_SE_WriteU8Pause	@
 1569              	.LVL87:
 1570 090e 2B68     		ldr	r3, [r5, #0]	@ ComplementaryFilterConfig, ComplementaryFilterConfig
 1571 0910 18B1     		cbz	r0, .L115	@,
 241:.\src\sensors\fusion/complementary.c **** 	assert_succeed(TWB_SE_WriteU8Pause(COMPLEMENTARY_EEPROM_OFFSET + 13, ComplementaryFilterConfig->Se
 1572              		.loc 1 241 0 is_stmt 0 discriminator 1
 1573 0912 40F2ED30 		movw	r0, #1005	@,
 1574 0916 597B     		ldrb	r1, [r3, #13]	@ zero_extendqisi2	@, ComplementaryFilterConfig.33_105->Sensor1Roll
 1575 0918 58E0     		b	.L124	@
ARM GAS  C:\Users\Kevin\AppData\Local\Temp\ccw18vSb.s 			page 41


 1576              	.L115:
 242:.\src\sensors\fusion/complementary.c **** 	assert_succeed(TWB_SE_WriteU8Pause(COMPLEMENTARY_EEPROM_OFFSET + 14, ComplementaryFilterConfig->Se
 1577              		.loc 1 242 0 is_stmt 1
 1578 091a 997B     		ldrb	r1, [r3, #14]	@ zero_extendqisi2	@, ComplementaryFilterConfig.33_108->Sensor2Roll
 1579 091c 40F2EE30 		movw	r0, #1006	@,
 1580 0920 FFF7FEFF 		bl	TWB_SE_WriteU8Pause	@
 1581              	.LVL88:
 1582 0924 2B68     		ldr	r3, [r5, #0]	@ ComplementaryFilterConfig, ComplementaryFilterConfig
 1583 0926 18B1     		cbz	r0, .L116	@,
 242:.\src\sensors\fusion/complementary.c **** 	assert_succeed(TWB_SE_WriteU8Pause(COMPLEMENTARY_EEPROM_OFFSET + 14, ComplementaryFilterConfig->Se
 1584              		.loc 1 242 0 is_stmt 0 discriminator 1
 1585 0928 40F2EE30 		movw	r0, #1006	@,
 1586 092c 997B     		ldrb	r1, [r3, #14]	@ zero_extendqisi2	@, ComplementaryFilterConfig.33_111->Sensor2Roll
 1587 092e 4DE0     		b	.L124	@
 1588              	.L116:
 243:.\src\sensors\fusion/complementary.c **** 	assert_succeed(TWB_SE_WriteU8Pause(COMPLEMENTARY_EEPROM_OFFSET + 15, ComplementaryFilterConfig->Se
 1589              		.loc 1 243 0 is_stmt 1
 1590 0930 D97B     		ldrb	r1, [r3, #15]	@ zero_extendqisi2	@, ComplementaryFilterConfig.33_114->Sensor3Roll
 1591 0932 40F2EF30 		movw	r0, #1007	@,
 1592 0936 FFF7FEFF 		bl	TWB_SE_WriteU8Pause	@
 1593              	.LVL89:
 1594 093a 2B68     		ldr	r3, [r5, #0]	@ ComplementaryFilterConfig, ComplementaryFilterConfig
 1595 093c 18B1     		cbz	r0, .L117	@,
 243:.\src\sensors\fusion/complementary.c **** 	assert_succeed(TWB_SE_WriteU8Pause(COMPLEMENTARY_EEPROM_OFFSET + 15, ComplementaryFilterConfig->Se
 1596              		.loc 1 243 0 is_stmt 0 discriminator 1
 1597 093e 40F2EF30 		movw	r0, #1007	@,
 1598 0942 D97B     		ldrb	r1, [r3, #15]	@ zero_extendqisi2	@, ComplementaryFilterConfig.33_117->Sensor3Roll
 1599 0944 42E0     		b	.L124	@
 1600              	.L117:
 245:.\src\sensors\fusion/complementary.c **** 	assert_succeed(TWB_SE_WriteU8Pause(COMPLEMENTARY_EEPROM_OFFSET + 16, ComplementaryFilterConfig->Se
 1601              		.loc 1 245 0 is_stmt 1
 1602 0946 197C     		ldrb	r1, [r3, #16]	@ zero_extendqisi2	@, ComplementaryFilterConfig.33_120->Sensor1Heading
 1603 0948 4FF47C70 		mov	r0, #1008	@,
 1604 094c FFF7FEFF 		bl	TWB_SE_WriteU8Pause	@
 1605              	.LVL90:
 1606 0950 2B68     		ldr	r3, [r5, #0]	@ ComplementaryFilterConfig, ComplementaryFilterConfig
 1607 0952 18B1     		cbz	r0, .L118	@,
 245:.\src\sensors\fusion/complementary.c **** 	assert_succeed(TWB_SE_WriteU8Pause(COMPLEMENTARY_EEPROM_OFFSET + 16, ComplementaryFilterConfig->Se
 1608              		.loc 1 245 0 is_stmt 0 discriminator 1
 1609 0954 4FF47C70 		mov	r0, #1008	@,
 1610 0958 197C     		ldrb	r1, [r3, #16]	@ zero_extendqisi2	@, ComplementaryFilterConfig.33_123->Sensor1Heading
 1611 095a 37E0     		b	.L124	@
 1612              	.L118:
 246:.\src\sensors\fusion/complementary.c **** 	assert_succeed(TWB_SE_WriteU8Pause(COMPLEMENTARY_EEPROM_OFFSET + 17, ComplementaryFilterConfig->Se
 1613              		.loc 1 246 0 is_stmt 1
 1614 095c 597C     		ldrb	r1, [r3, #17]	@ zero_extendqisi2	@, ComplementaryFilterConfig.33_126->Sensor2Heading
 1615 095e 40F2F130 		movw	r0, #1009	@,
 1616 0962 FFF7FEFF 		bl	TWB_SE_WriteU8Pause	@
 1617              	.LVL91:
 1618 0966 2B68     		ldr	r3, [r5, #0]	@ ComplementaryFilterConfig, ComplementaryFilterConfig
 1619 0968 18B1     		cbz	r0, .L119	@,
 246:.\src\sensors\fusion/complementary.c **** 	assert_succeed(TWB_SE_WriteU8Pause(COMPLEMENTARY_EEPROM_OFFSET + 17, ComplementaryFilterConfig->Se
 1620              		.loc 1 246 0 is_stmt 0 discriminator 1
 1621 096a 40F2F130 		movw	r0, #1009	@,
 1622 096e 597C     		ldrb	r1, [r3, #17]	@ zero_extendqisi2	@, ComplementaryFilterConfig.33_129->Sensor2Heading
 1623 0970 2CE0     		b	.L124	@
 1624              	.L119:
ARM GAS  C:\Users\Kevin\AppData\Local\Temp\ccw18vSb.s 			page 42


 247:.\src\sensors\fusion/complementary.c **** 	assert_succeed(TWB_SE_WriteU8Pause(COMPLEMENTARY_EEPROM_OFFSET + 18, ComplementaryFilterConfig->Se
 1625              		.loc 1 247 0 is_stmt 1
 1626 0972 997C     		ldrb	r1, [r3, #18]	@ zero_extendqisi2	@, ComplementaryFilterConfig.33_132->Sensor3Heading
 1627 0974 40F2F230 		movw	r0, #1010	@,
 1628 0978 FFF7FEFF 		bl	TWB_SE_WriteU8Pause	@
 1629              	.LVL92:
 1630 097c 2B68     		ldr	r3, [r5, #0]	@ ComplementaryFilterConfig, ComplementaryFilterConfig
 1631 097e 18B1     		cbz	r0, .L120	@,
 247:.\src\sensors\fusion/complementary.c **** 	assert_succeed(TWB_SE_WriteU8Pause(COMPLEMENTARY_EEPROM_OFFSET + 18, ComplementaryFilterConfig->Se
 1632              		.loc 1 247 0 is_stmt 0 discriminator 1
 1633 0980 40F2F230 		movw	r0, #1010	@,
 1634 0984 997C     		ldrb	r1, [r3, #18]	@ zero_extendqisi2	@, ComplementaryFilterConfig.33_135->Sensor3Heading
 1635 0986 21E0     		b	.L124	@
 1636              	.L120:
 249:.\src\sensors\fusion/complementary.c **** 	assert_succeed(TWB_SE_WriteU8Pause(COMPLEMENTARY_EEPROM_OFFSET + 19, ComplementaryFilterConfig->Se
 1637              		.loc 1 249 0 is_stmt 1
 1638 0988 40F2F330 		movw	r0, #1011	@,
 1639 098c D97C     		ldrb	r1, [r3, #19]	@ zero_extendqisi2	@, ComplementaryFilterConfig.33_138->Sensor1Altitude
 1640 098e FFF7FEFF 		bl	TWB_SE_WriteU8Pause	@
 1641              	.LVL93:
 1642 0992 20B1     		cbz	r0, .L121	@,
 249:.\src\sensors\fusion/complementary.c **** 	assert_succeed(TWB_SE_WriteU8Pause(COMPLEMENTARY_EEPROM_OFFSET + 19, ComplementaryFilterConfig->Se
 1643              		.loc 1 249 0 is_stmt 0 discriminator 1
 1644 0994 2B68     		ldr	r3, [r5, #0]	@ ComplementaryFilterConfig, ComplementaryFilterConfig
 1645 0996 40F2F330 		movw	r0, #1011	@,
 1646 099a D97C     		ldrb	r1, [r3, #19]	@ zero_extendqisi2	@, ComplementaryFilterConfig.33_141->Sensor1Altitude
 1647 099c 16E0     		b	.L124	@
 1648              	.L121:
 250:.\src\sensors\fusion/complementary.c **** 	assert_succeed(TWB_SE_WriteU8Pause(COMPLEMENTARY_EEPROM_OFFSET + 20, ComplementaryFilterConfig->Se
 1649              		.loc 1 250 0 is_stmt 1
 1650 099e 2B68     		ldr	r3, [r5, #0]	@ ComplementaryFilterConfig, ComplementaryFilterConfig
 1651 09a0 104C     		ldr	r4, .L125	@ tmp482,
 1652 09a2 197D     		ldrb	r1, [r3, #20]	@ zero_extendqisi2	@, ComplementaryFilterConfig.33_144->Sensor2Altitude
 1653 09a4 4FF47D70 		mov	r0, #1012	@,
 1654 09a8 FFF7FEFF 		bl	TWB_SE_WriteU8Pause	@
 1655              	.LVL94:
 1656 09ac 2368     		ldr	r3, [r4, #0]	@ ComplementaryFilterConfig, ComplementaryFilterConfig
 1657 09ae 18B1     		cbz	r0, .L122	@,
 250:.\src\sensors\fusion/complementary.c **** 	assert_succeed(TWB_SE_WriteU8Pause(COMPLEMENTARY_EEPROM_OFFSET + 20, ComplementaryFilterConfig->Se
 1658              		.loc 1 250 0 is_stmt 0 discriminator 1
 1659 09b0 4FF47D70 		mov	r0, #1012	@,
 1660 09b4 197D     		ldrb	r1, [r3, #20]	@ zero_extendqisi2	@, ComplementaryFilterConfig.33_147->Sensor2Altitude
 1661 09b6 09E0     		b	.L124	@
 1662              	.L122:
 251:.\src\sensors\fusion/complementary.c **** 	assert_succeed(TWB_SE_WriteU8Pause(COMPLEMENTARY_EEPROM_OFFSET + 21, ComplementaryFilterConfig->Se
 1663              		.loc 1 251 0 is_stmt 1
 1664 09b8 40F2F530 		movw	r0, #1013	@,
 1665 09bc 597D     		ldrb	r1, [r3, #21]	@ zero_extendqisi2	@, ComplementaryFilterConfig.33_150->Sensor3Altitude
 1666 09be FFF7FEFF 		bl	TWB_SE_WriteU8Pause	@
 1667              	.LVL95:
 1668 09c2 38B1     		cbz	r0, .L123	@,
 251:.\src\sensors\fusion/complementary.c **** 	assert_succeed(TWB_SE_WriteU8Pause(COMPLEMENTARY_EEPROM_OFFSET + 21, ComplementaryFilterConfig->Se
 1669              		.loc 1 251 0 is_stmt 0 discriminator 1
 1670 09c4 2368     		ldr	r3, [r4, #0]	@ ComplementaryFilterConfig, ComplementaryFilterConfig
 1671 09c6 597D     		ldrb	r1, [r3, #21]	@ zero_extendqisi2	@, ComplementaryFilterConfig.33_153->Sensor3Altitude
 1672 09c8 40F2F530 		movw	r0, #1013	@,
 1673              	.L124:
ARM GAS  C:\Users\Kevin\AppData\Local\Temp\ccw18vSb.s 			page 43


 257:.\src\sensors\fusion/complementary.c **** }
 1674              		.loc 1 257 0 is_stmt 1 discriminator 1
 1675 09cc BDE83840 		pop	{r3, r4, r5, lr}	@
 251:.\src\sensors\fusion/complementary.c **** 	assert_succeed(TWB_SE_WriteU8Pause(COMPLEMENTARY_EEPROM_OFFSET + 21, ComplementaryFilterConfig->Se
 1676              		.loc 1 251 0 discriminator 1
 1677 09d0 FFF7FEBF 		b	TWB_SE_WriteU8Pause	@
 1678              	.LVL96:
 1679              	.L123:
 253:.\src\sensors\fusion/complementary.c **** 	ComplementarySnsrFusion->IsEnabled = ComplementaryFilterConfig->Enabled;
 1680              		.loc 1 253 0
 1681 09d4 2268     		ldr	r2, [r4, #0]	@ ComplementaryFilterConfig.33, ComplementaryFilterConfig
 1682 09d6 044B     		ldr	r3, .L125+4	@ tmp499,
 1683 09d8 1178     		ldrb	r1, [r2, #0]	@ zero_extendqisi2	@ ComplementaryFilterConfig.33_157->Enabled, ComplementaryFil
 1684 09da 1B68     		ldr	r3, [r3, #0]	@ ComplementarySnsrFusion.34, ComplementarySnsrFusion
 254:.\src\sensors\fusion/complementary.c **** 	ComplementarySnsrFusion->SampleRate = ComplementaryFilterConfig->SampleRate;
 1685              		.loc 1 254 0
 1686 09dc 5278     		ldrb	r2, [r2, #1]	@ zero_extendqisi2	@ ComplementaryFilterConfig.33_157->SampleRate, Complementary
 253:.\src\sensors\fusion/complementary.c **** 	ComplementarySnsrFusion->IsEnabled = ComplementaryFilterConfig->Enabled;
 1687              		.loc 1 253 0
 1688 09de 5971     		strb	r1, [r3, #5]	@ ComplementaryFilterConfig.33_157->Enabled, ComplementarySnsrFusion.34_156->IsE
 254:.\src\sensors\fusion/complementary.c **** 	ComplementarySnsrFusion->SampleRate = ComplementaryFilterConfig->SampleRate;
 1689              		.loc 1 254 0
 1690 09e0 5A73     		strb	r2, [r3, #13]	@ ComplementaryFilterConfig.33_157->SampleRate, ComplementarySnsrFusion.34_156-
 257:.\src\sensors\fusion/complementary.c **** }
 1691              		.loc 1 257 0
 1692 09e2 38BD     		pop	{r3, r4, r5, pc}	@
 1693              	.L126:
 1694              		.align	2
 1695              	.L125:
 1696 09e4 00000000 		.word	ComplementaryFilterConfig
 1697 09e8 00000000 		.word	ComplementarySnsrFusion
 1698              		.cfi_endproc
 1699              	.LFE115:
 1700              		.size	TWB_SNSR_Complementary_ResetDefaults, .-TWB_SNSR_Complementary_ResetDefaults
 1701              		.align	1
 1702              		.global	TWB_SNSR_Complementary_UpdateSettings
 1703              		.thumb
 1704              		.thumb_func
 1705              		.type	TWB_SNSR_Complementary_UpdateSettings, %function
 1706              	TWB_SNSR_Complementary_UpdateSettings:
 1707              	.LFB116:
 259:.\src\sensors\fusion/complementary.c **** iOpResult_e TWB_SNSR_Complementary_UpdateSettings(uint16_t addr, uint8_t value){
 1708              		.loc 1 259 0
 1709              		.cfi_startproc
 1710              		@ args = 0, pretend = 0, frame = 0
 1711              		@ frame_needed = 0, uses_anonymous_args = 0
 1712              	.LVL97:
 1713 09ec 10B5     		push	{r4, lr}	@
 1714              	.LCFI8:
 1715              		.cfi_def_cfa_offset 8
 1716              		.cfi_offset 4, -8
 1717              		.cfi_offset 14, -4
 260:.\src\sensors\fusion/complementary.c **** 	switch(addr){
 1718              		.loc 1 260 0
 1719 09ee 1528     		cmp	r0, #21	@ addr,
 1720 09f0 00F29F80 		bhi	.L128	@
 1721 09f4 DFE800F0 		tbb	[pc, r0]	@ addr
ARM GAS  C:\Users\Kevin\AppData\Local\Temp\ccw18vSb.s 			page 44


 1722              	.L151:
 1723 09f8 0B       		.byte	(.L129-.L151)/2
 1724 09f9 12       		.byte	(.L130-.L151)/2
 1725 09fa 19       		.byte	(.L131-.L151)/2
 1726 09fb 1E       		.byte	(.L132-.L151)/2
 1727 09fc 2E       		.byte	(.L133-.L151)/2
 1728 09fd 33       		.byte	(.L134-.L151)/2
 1729 09fe 38       		.byte	(.L135-.L151)/2
 1730 09ff 3E       		.byte	(.L136-.L151)/2
 1731 0a00 44       		.byte	(.L137-.L151)/2
 1732 0a01 4A       		.byte	(.L138-.L151)/2
 1733 0a02 53       		.byte	(.L139-.L151)/2
 1734 0a03 58       		.byte	(.L140-.L151)/2
 1735 0a04 5D       		.byte	(.L141-.L151)/2
 1736 0a05 62       		.byte	(.L142-.L151)/2
 1737 0a06 67       		.byte	(.L143-.L151)/2
 1738 0a07 6C       		.byte	(.L144-.L151)/2
 1739 0a08 71       		.byte	(.L145-.L151)/2
 1740 0a09 76       		.byte	(.L146-.L151)/2
 1741 0a0a 7B       		.byte	(.L147-.L151)/2
 1742 0a0b 80       		.byte	(.L148-.L151)/2
 1743 0a0c 8A       		.byte	(.L149-.L151)/2
 1744 0a0d 94       		.byte	(.L150-.L151)/2
 1745              		.align	1
 1746              	.L129:
 262:.\src\sensors\fusion/complementary.c **** 		ComplementarySnsrFusion->IsEnabled = value;
 1747              		.loc 1 262 0
 1748 0a0e 4A4B     		ldr	r3, .L157	@ tmp206,
 1749 0a10 1B68     		ldr	r3, [r3, #0]	@ ComplementarySnsrFusion, ComplementarySnsrFusion
 1750 0a12 5971     		strb	r1, [r3, #5]	@ value, ComplementarySnsrFusion.27_3->IsEnabled
 263:.\src\sensors\fusion/complementary.c **** 		ComplementaryFilterConfig->Enabled = value;
 1751              		.loc 1 263 0
 1752 0a14 494B     		ldr	r3, .L157+4	@ tmp209,
 1753 0a16 1B68     		ldr	r3, [r3, #0]	@ ComplementaryFilterConfig, ComplementaryFilterConfig
 1754 0a18 1970     		strb	r1, [r3, #0]	@ value, ComplementaryFilterConfig.28_5->Enabled
 265:.\src\sensors\fusion/complementary.c **** 		break;
 1755              		.loc 1 265 0
 1756 0a1a 8AE0     		b	.L128	@
 1757              	.L130:
 267:.\src\sensors\fusion/complementary.c **** 		ComplementarySnsrFusion->SampleRate = value;
 1758              		.loc 1 267 0
 1759 0a1c 464B     		ldr	r3, .L157	@ tmp212,
 1760 0a1e 1B68     		ldr	r3, [r3, #0]	@ ComplementarySnsrFusion, ComplementarySnsrFusion
 1761 0a20 5973     		strb	r1, [r3, #13]	@ value, ComplementarySnsrFusion.27_6->SampleRate
 268:.\src\sensors\fusion/complementary.c **** 		ComplementaryFilterConfig->SampleRate = value;
 1762              		.loc 1 268 0
 1763 0a22 464B     		ldr	r3, .L157+4	@ tmp215,
 1764 0a24 1B68     		ldr	r3, [r3, #0]	@ ComplementaryFilterConfig, ComplementaryFilterConfig
 1765 0a26 5970     		strb	r1, [r3, #1]	@ value, ComplementaryFilterConfig.28_7->SampleRate
 269:.\src\sensors\fusion/complementary.c **** 		break;
 1766              		.loc 1 269 0
 1767 0a28 83E0     		b	.L128	@
 1768              	.L131:
 272:.\src\sensors\fusion/complementary.c **** 		ComplementaryFilterConfig->FilterOptionPitch = value;
 1769              		.loc 1 272 0
 1770 0a2a 444B     		ldr	r3, .L157+4	@ tmp218,
 1771 0a2c 1B68     		ldr	r3, [r3, #0]	@ ComplementaryFilterConfig, ComplementaryFilterConfig
ARM GAS  C:\Users\Kevin\AppData\Local\Temp\ccw18vSb.s 			page 45


 1772 0a2e 9970     		strb	r1, [r3, #2]	@ value, ComplementaryFilterConfig.28_8->FilterOptionPitch
 273:.\src\sensors\fusion/complementary.c **** 		CompFilterPitch->Filter->FilterType = value;
 1773              		.loc 1 273 0
 1774 0a30 434B     		ldr	r3, .L157+8	@ tmp220,
 1775 0a32 03E0     		b	.L152	@
 1776              	.L132:
 280:.\src\sensors\fusion/complementary.c **** 		ComplementaryFilterConfig->FilterOptionRoll = value;
 1777              		.loc 1 280 0
 1778 0a34 414B     		ldr	r3, .L157+4	@ tmp229,
 1779 0a36 1B68     		ldr	r3, [r3, #0]	@ ComplementaryFilterConfig, ComplementaryFilterConfig
 1780 0a38 D970     		strb	r1, [r3, #3]	@ value, ComplementaryFilterConfig.28_17->FilterOptionRoll
 281:.\src\sensors\fusion/complementary.c **** 		CompFilterRoll->Filter->FilterType = value;
 1781              		.loc 1 281 0
 1782 0a3a 424B     		ldr	r3, .L157+12	@ tmp231,
 1783              	.L152:
 1784 0a3c 1B68     		ldr	r3, [r3, #0]	@ CompFilterRoll.30,
 1785 0a3e D868     		ldr	r0, [r3, #12]	@ D.9509,
 1786              	.LVL98:
 282:.\src\sensors\fusion/complementary.c **** 		CompFilterRoll->Filter->IsInitialized = false;
 1787              		.loc 1 282 0
 1788 0a40 0022     		movs	r2, #0	@ tmp233,
 1789 0a42 80F83020 		strb	r2, [r0, #48]	@ tmp233,
 281:.\src\sensors\fusion/complementary.c **** 		CompFilterRoll->Filter->FilterType = value;
 1790              		.loc 1 281 0
 1791 0a46 4170     		strb	r1, [r0, #1]	@ value,
 283:.\src\sensors\fusion/complementary.c **** 		CompFilterRoll->Filter->CurrentSlot = 0;
 1792              		.loc 1 283 0
 1793 0a48 D968     		ldr	r1, [r3, #12]	@ D.9509,
 1794              	.LVL99:
 1795 0a4a 0A70     		strb	r2, [r1, #0]	@ tmp233,* D.9509
 284:.\src\sensors\fusion/complementary.c **** 		CompFilterRoll->Filter->Previous = 0.0f;
 1796              		.loc 1 284 0
 1797 0a4c DB68     		ldr	r3, [r3, #12]	@ CompFilterRoll.30_18->Filter,
 1798 0a4e 0022     		movs	r2, #0	@ tmp238,
 1799 0a50 DA62     		str	r2, [r3, #44]	@ float	@ tmp238,
 286:.\src\sensors\fusion/complementary.c **** 		break;
 1800              		.loc 1 286 0
 1801 0a52 6EE0     		b	.L128	@
 1802              	.LVL100:
 1803              	.L133:
 288:.\src\sensors\fusion/complementary.c **** 		ComplementaryFilterConfig->FilterOptionHeading = value;
 1804              		.loc 1 288 0
 1805 0a54 394B     		ldr	r3, .L157+4	@ tmp240,
 1806 0a56 1B68     		ldr	r3, [r3, #0]	@ ComplementaryFilterConfig, ComplementaryFilterConfig
 1807 0a58 1971     		strb	r1, [r3, #4]	@ value, ComplementaryFilterConfig.28_26->FilterOptionHeading
 289:.\src\sensors\fusion/complementary.c **** 		CompFilterHeading->Filter->FilterType = value;
 1808              		.loc 1 289 0
 1809 0a5a 3B4B     		ldr	r3, .L157+16	@ tmp242,
 1810 0a5c EEE7     		b	.L152	@
 1811              	.L134:
 295:.\src\sensors\fusion/complementary.c **** 		ComplementaryFilterConfig->FilterOptionAltitude = value;
 1812              		.loc 1 295 0
 1813 0a5e 374B     		ldr	r3, .L157+4	@ tmp251,
 1814 0a60 1B68     		ldr	r3, [r3, #0]	@ ComplementaryFilterConfig, ComplementaryFilterConfig
 1815 0a62 5971     		strb	r1, [r3, #5]	@ value, ComplementaryFilterConfig.28_35->FilterOptionAltitude
 296:.\src\sensors\fusion/complementary.c **** 		CompFilterAltitude->Filter->FilterType = value;
 1816              		.loc 1 296 0
ARM GAS  C:\Users\Kevin\AppData\Local\Temp\ccw18vSb.s 			page 46


 1817 0a64 394B     		ldr	r3, .L157+20	@ tmp253,
 1818 0a66 E9E7     		b	.L152	@
 1819              	.L135:
 304:.\src\sensors\fusion/complementary.c **** 		ComplementaryFilterConfig->TimeConstantPitch = value;
 1820              		.loc 1 304 0
 1821 0a68 344B     		ldr	r3, .L157+4	@ tmp262,
 1822 0a6a 1B68     		ldr	r3, [r3, #0]	@ ComplementaryFilterConfig, ComplementaryFilterConfig
 305:.\src\sensors\fusion/complementary.c **** 		__snsr_ResolveCompFilter(ComplementaryFilterConfig->TimeConstantPitch, CompFilterPitch);
 1823              		.loc 1 305 0
 1824 0a6c 0846     		mov	r0, r1	@, value
 1825              	.LVL101:
 304:.\src\sensors\fusion/complementary.c **** 		ComplementaryFilterConfig->TimeConstantPitch = value;
 1826              		.loc 1 304 0
 1827 0a6e 9971     		strb	r1, [r3, #6]	@ value, ComplementaryFilterConfig.28_44->TimeConstantPitch
 305:.\src\sensors\fusion/complementary.c **** 		__snsr_ResolveCompFilter(ComplementaryFilterConfig->TimeConstantPitch, CompFilterPitch);
 1828              		.loc 1 305 0
 1829 0a70 334B     		ldr	r3, .L157+8	@ tmp264,
 1830 0a72 10E0     		b	.L156	@
 1831              	.LVL102:
 1832              	.L136:
 308:.\src\sensors\fusion/complementary.c **** 		ComplementaryFilterConfig->TimeConstantRoll = value;
 1833              		.loc 1 308 0
 1834 0a74 314B     		ldr	r3, .L157+4	@ tmp266,
 1835 0a76 1B68     		ldr	r3, [r3, #0]	@ ComplementaryFilterConfig, ComplementaryFilterConfig
 309:.\src\sensors\fusion/complementary.c **** 		__snsr_ResolveCompFilter(ComplementaryFilterConfig->TimeConstantRoll, CompFilterRoll);
 1836              		.loc 1 309 0
 1837 0a78 0846     		mov	r0, r1	@, value
 1838              	.LVL103:
 308:.\src\sensors\fusion/complementary.c **** 		ComplementaryFilterConfig->TimeConstantRoll = value;
 1839              		.loc 1 308 0
 1840 0a7a D971     		strb	r1, [r3, #7]	@ value, ComplementaryFilterConfig.28_48->TimeConstantRoll
 309:.\src\sensors\fusion/complementary.c **** 		__snsr_ResolveCompFilter(ComplementaryFilterConfig->TimeConstantRoll, CompFilterRoll);
 1841              		.loc 1 309 0
 1842 0a7c 314B     		ldr	r3, .L157+12	@ tmp268,
 1843 0a7e 0AE0     		b	.L156	@
 1844              	.LVL104:
 1845              	.L137:
 312:.\src\sensors\fusion/complementary.c **** 		ComplementaryFilterConfig->TimeConstantHeading = value;
 1846              		.loc 1 312 0
 1847 0a80 2E4B     		ldr	r3, .L157+4	@ tmp270,
 1848 0a82 1B68     		ldr	r3, [r3, #0]	@ ComplementaryFilterConfig, ComplementaryFilterConfig
 313:.\src\sensors\fusion/complementary.c **** 		__snsr_ResolveCompFilter(ComplementaryFilterConfig->TimeConstantHeading, CompFilterHeading);
 1849              		.loc 1 313 0
 1850 0a84 0846     		mov	r0, r1	@, value
 1851              	.LVL105:
 312:.\src\sensors\fusion/complementary.c **** 		ComplementaryFilterConfig->TimeConstantHeading = value;
 1852              		.loc 1 312 0
 1853 0a86 1972     		strb	r1, [r3, #8]	@ value, ComplementaryFilterConfig.28_52->TimeConstantHeading
 313:.\src\sensors\fusion/complementary.c **** 		__snsr_ResolveCompFilter(ComplementaryFilterConfig->TimeConstantHeading, CompFilterHeading);
 1854              		.loc 1 313 0
 1855 0a88 2F4B     		ldr	r3, .L157+16	@ tmp272,
 1856 0a8a 04E0     		b	.L156	@
 1857              	.LVL106:
 1858              	.L138:
 316:.\src\sensors\fusion/complementary.c **** 		ComplementaryFilterConfig->TimeConstantAltitude = value;
 1859              		.loc 1 316 0
 1860 0a8c 2B4B     		ldr	r3, .L157+4	@ tmp274,
ARM GAS  C:\Users\Kevin\AppData\Local\Temp\ccw18vSb.s 			page 47


 1861 0a8e 1B68     		ldr	r3, [r3, #0]	@ ComplementaryFilterConfig, ComplementaryFilterConfig
 1862 0a90 5972     		strb	r1, [r3, #9]	@ value, ComplementaryFilterConfig.28_56->TimeConstantAltitude
 317:.\src\sensors\fusion/complementary.c **** 		__snsr_ResolveCompFilter(ComplementaryFilterConfig->TimeConstantAltitude, CompFilterAltitude);
 1863              		.loc 1 317 0
 1864 0a92 2E4B     		ldr	r3, .L157+20	@ tmp276,
 1865 0a94 0846     		mov	r0, r1	@, value
 1866              	.LVL107:
 1867              	.L156:
 1868 0a96 1968     		ldr	r1, [r3, #0]	@,
 1869              	.LVL108:
 1870 0a98 FFF7FEFF 		bl	__snsr_ResolveCompFilter	@
 1871              	.LVL109:
 318:.\src\sensors\fusion/complementary.c **** 		break;
 1872              		.loc 1 318 0
 1873 0a9c 49E0     		b	.L128	@
 1874              	.LVL110:
 1875              	.L139:
 324:.\src\sensors\fusion/complementary.c **** 		ComplementaryFilterConfig->Sensor1Pitch = value;
 1876              		.loc 1 324 0
 1877 0a9e 274B     		ldr	r3, .L157+4	@ tmp278,
 1878 0aa0 1B68     		ldr	r3, [r3, #0]	@ ComplementaryFilterConfig, ComplementaryFilterConfig
 1879 0aa2 9972     		strb	r1, [r3, #10]	@ value, ComplementaryFilterConfig.28_60->Sensor1Pitch
 325:.\src\sensors\fusion/complementary.c **** 		CompFilterPitch->Sensor1 = __snsr_compFilter_ResolveSensor(ComplementaryFilterConfig->Sensor1Pitc
 1880              		.loc 1 325 0
 1881 0aa4 264B     		ldr	r3, .L157+8	@ tmp280,
 1882 0aa6 2BE0     		b	.L155	@
 1883              	.L140:
 328:.\src\sensors\fusion/complementary.c **** 		ComplementaryFilterConfig->Sensor2Pitch = value;
 1884              		.loc 1 328 0
 1885 0aa8 244B     		ldr	r3, .L157+4	@ tmp282,
 1886 0aaa 1B68     		ldr	r3, [r3, #0]	@ ComplementaryFilterConfig, ComplementaryFilterConfig
 1887 0aac D972     		strb	r1, [r3, #11]	@ value, ComplementaryFilterConfig.28_65->Sensor2Pitch
 329:.\src\sensors\fusion/complementary.c **** 		CompFilterPitch->Sensor2 = __snsr_compFilter_ResolveSensor(ComplementaryFilterConfig->Sensor2Pitc
 1888              		.loc 1 329 0
 1889 0aae 244B     		ldr	r3, .L157+8	@ tmp284,
 1890 0ab0 30E0     		b	.L154	@
 1891              	.L141:
 332:.\src\sensors\fusion/complementary.c **** 		ComplementaryFilterConfig->Sensor3Pitch = value;
 1892              		.loc 1 332 0
 1893 0ab2 224B     		ldr	r3, .L157+4	@ tmp286,
 1894 0ab4 1B68     		ldr	r3, [r3, #0]	@ ComplementaryFilterConfig, ComplementaryFilterConfig
 1895 0ab6 1973     		strb	r1, [r3, #12]	@ value, ComplementaryFilterConfig.28_70->Sensor3Pitch
 333:.\src\sensors\fusion/complementary.c **** 		CompFilterPitch->Sensor3 = __snsr_compFilter_ResolveSensor(ComplementaryFilterConfig->Sensor3Pitc
 1896              		.loc 1 333 0
 1897 0ab8 214B     		ldr	r3, .L157+8	@ tmp288,
 1898 0aba 35E0     		b	.L153	@
 1899              	.L142:
 336:.\src\sensors\fusion/complementary.c **** 		ComplementaryFilterConfig->Sensor1Roll = value;
 1900              		.loc 1 336 0
 1901 0abc 1F4B     		ldr	r3, .L157+4	@ tmp290,
 1902 0abe 1B68     		ldr	r3, [r3, #0]	@ ComplementaryFilterConfig, ComplementaryFilterConfig
 1903 0ac0 5973     		strb	r1, [r3, #13]	@ value, ComplementaryFilterConfig.28_75->Sensor1Roll
 337:.\src\sensors\fusion/complementary.c **** 		CompFilterRoll->Sensor1 = __snsr_compFilter_ResolveSensor(ComplementaryFilterConfig->Sensor1Roll)
 1904              		.loc 1 337 0
 1905 0ac2 204B     		ldr	r3, .L157+12	@ tmp292,
 1906 0ac4 1CE0     		b	.L155	@
 1907              	.L143:
ARM GAS  C:\Users\Kevin\AppData\Local\Temp\ccw18vSb.s 			page 48


 340:.\src\sensors\fusion/complementary.c **** 		ComplementaryFilterConfig->Sensor2Roll = value;
 1908              		.loc 1 340 0
 1909 0ac6 1D4B     		ldr	r3, .L157+4	@ tmp294,
 1910 0ac8 1B68     		ldr	r3, [r3, #0]	@ ComplementaryFilterConfig, ComplementaryFilterConfig
 1911 0aca 9973     		strb	r1, [r3, #14]	@ value, ComplementaryFilterConfig.28_80->Sensor2Roll
 341:.\src\sensors\fusion/complementary.c **** 		CompFilterRoll->Sensor2 = __snsr_compFilter_ResolveSensor(ComplementaryFilterConfig->Sensor2Roll)
 1912              		.loc 1 341 0
 1913 0acc 1D4B     		ldr	r3, .L157+12	@ tmp296,
 1914 0ace 21E0     		b	.L154	@
 1915              	.L144:
 344:.\src\sensors\fusion/complementary.c **** 		ComplementaryFilterConfig->Sensor3Roll = value;
 1916              		.loc 1 344 0
 1917 0ad0 1A4B     		ldr	r3, .L157+4	@ tmp298,
 1918 0ad2 1B68     		ldr	r3, [r3, #0]	@ ComplementaryFilterConfig, ComplementaryFilterConfig
 1919 0ad4 D973     		strb	r1, [r3, #15]	@ value, ComplementaryFilterConfig.28_85->Sensor3Roll
 345:.\src\sensors\fusion/complementary.c **** 		CompFilterRoll->Sensor3 = __snsr_compFilter_ResolveSensor(ComplementaryFilterConfig->Sensor3Roll)
 1920              		.loc 1 345 0
 1921 0ad6 1B4B     		ldr	r3, .L157+12	@ tmp300,
 1922 0ad8 26E0     		b	.L153	@
 1923              	.L145:
 348:.\src\sensors\fusion/complementary.c **** 		ComplementaryFilterConfig->Sensor1Heading = value;
 1924              		.loc 1 348 0
 1925 0ada 184B     		ldr	r3, .L157+4	@ tmp302,
 1926 0adc 1B68     		ldr	r3, [r3, #0]	@ ComplementaryFilterConfig, ComplementaryFilterConfig
 1927 0ade 1974     		strb	r1, [r3, #16]	@ value, ComplementaryFilterConfig.28_90->Sensor1Heading
 349:.\src\sensors\fusion/complementary.c **** 		CompFilterHeading->Sensor1 = __snsr_compFilter_ResolveSensor(ComplementaryFilterConfig->Sensor1He
 1928              		.loc 1 349 0
 1929 0ae0 194B     		ldr	r3, .L157+16	@ tmp304,
 1930 0ae2 0DE0     		b	.L155	@
 1931              	.L146:
 352:.\src\sensors\fusion/complementary.c **** 		ComplementaryFilterConfig->Sensor2Heading = value;
 1932              		.loc 1 352 0
 1933 0ae4 154B     		ldr	r3, .L157+4	@ tmp306,
 1934 0ae6 1B68     		ldr	r3, [r3, #0]	@ ComplementaryFilterConfig, ComplementaryFilterConfig
 1935 0ae8 5974     		strb	r1, [r3, #17]	@ value, ComplementaryFilterConfig.28_95->Sensor2Heading
 353:.\src\sensors\fusion/complementary.c **** 		CompFilterHeading->Sensor2 = __snsr_compFilter_ResolveSensor(ComplementaryFilterConfig->Sensor2He
 1936              		.loc 1 353 0
 1937 0aea 174B     		ldr	r3, .L157+16	@ tmp308,
 1938 0aec 12E0     		b	.L154	@
 1939              	.L147:
 356:.\src\sensors\fusion/complementary.c **** 		ComplementaryFilterConfig->Sensor3Heading = value;
 1940              		.loc 1 356 0
 1941 0aee 134B     		ldr	r3, .L157+4	@ tmp310,
 1942 0af0 1B68     		ldr	r3, [r3, #0]	@ ComplementaryFilterConfig, ComplementaryFilterConfig
 1943 0af2 9974     		strb	r1, [r3, #18]	@ value, ComplementaryFilterConfig.28_100->Sensor3Heading
 357:.\src\sensors\fusion/complementary.c **** 		CompFilterHeading->Sensor3 = __snsr_compFilter_ResolveSensor(ComplementaryFilterConfig->Sensor3He
 1944              		.loc 1 357 0
 1945 0af4 144B     		ldr	r3, .L157+16	@ tmp312,
 1946 0af6 17E0     		b	.L153	@
 1947              	.L148:
 360:.\src\sensors\fusion/complementary.c **** 		ComplementaryFilterConfig->Sensor1Altitude = value;
 1948              		.loc 1 360 0
 1949 0af8 104B     		ldr	r3, .L157+4	@ tmp314,
 1950 0afa 1B68     		ldr	r3, [r3, #0]	@ ComplementaryFilterConfig, ComplementaryFilterConfig
 1951 0afc D974     		strb	r1, [r3, #19]	@ value, ComplementaryFilterConfig.28_105->Sensor1Altitude
 361:.\src\sensors\fusion/complementary.c **** 		CompFilterAltitude->Sensor1 = __snsr_compFilter_ResolveSensor(ComplementaryFilterConfig->Sensor1A
 1952              		.loc 1 361 0
ARM GAS  C:\Users\Kevin\AppData\Local\Temp\ccw18vSb.s 			page 49


 1953 0afe 134B     		ldr	r3, .L157+20	@ tmp316,
 1954              	.L155:
 1955 0b00 0846     		mov	r0, r1	@, value
 1956              	.LVL111:
 1957 0b02 1C68     		ldr	r4, [r3, #0]	@ CompFilterAltitude.32,
 1958 0b04 FFF7FEFF 		bl	__snsr_compFilter_ResolveSensor	@
 1959              	.LVL112:
 1960 0b08 2061     		str	r0, [r4, #16]	@,
 362:.\src\sensors\fusion/complementary.c **** 		break;
 1961              		.loc 1 362 0
 1962 0b0a 12E0     		b	.L128	@
 1963              	.LVL113:
 1964              	.L149:
 364:.\src\sensors\fusion/complementary.c **** 		ComplementaryFilterConfig->Sensor2Altitude = value;
 1965              		.loc 1 364 0
 1966 0b0c 0B4B     		ldr	r3, .L157+4	@ tmp318,
 1967 0b0e 1B68     		ldr	r3, [r3, #0]	@ ComplementaryFilterConfig, ComplementaryFilterConfig
 1968 0b10 1975     		strb	r1, [r3, #20]	@ value, ComplementaryFilterConfig.28_110->Sensor2Altitude
 365:.\src\sensors\fusion/complementary.c **** 		CompFilterAltitude->Sensor2 = __snsr_compFilter_ResolveSensor(ComplementaryFilterConfig->Sensor2A
 1969              		.loc 1 365 0
 1970 0b12 0E4B     		ldr	r3, .L157+20	@ tmp320,
 1971              	.L154:
 1972 0b14 0846     		mov	r0, r1	@, value
 1973              	.LVL114:
 1974 0b16 1C68     		ldr	r4, [r3, #0]	@ CompFilterAltitude.32,
 1975 0b18 FFF7FEFF 		bl	__snsr_compFilter_ResolveSensor	@
 1976              	.LVL115:
 1977 0b1c 6061     		str	r0, [r4, #20]	@,
 366:.\src\sensors\fusion/complementary.c **** 		break;
 1978              		.loc 1 366 0
 1979 0b1e 08E0     		b	.L128	@
 1980              	.LVL116:
 1981              	.L150:
 368:.\src\sensors\fusion/complementary.c **** 		ComplementaryFilterConfig->Sensor3Altitude = value;
 1982              		.loc 1 368 0
 1983 0b20 064B     		ldr	r3, .L157+4	@ tmp322,
 1984 0b22 1B68     		ldr	r3, [r3, #0]	@ ComplementaryFilterConfig, ComplementaryFilterConfig
 1985 0b24 5975     		strb	r1, [r3, #21]	@ value, ComplementaryFilterConfig.28_115->Sensor3Altitude
 369:.\src\sensors\fusion/complementary.c **** 		CompFilterAltitude->Sensor3 = __snsr_compFilter_ResolveSensor(ComplementaryFilterConfig->Sensor3A
 1986              		.loc 1 369 0
 1987 0b26 094B     		ldr	r3, .L157+20	@ tmp324,
 1988              	.L153:
 1989 0b28 0846     		mov	r0, r1	@, value
 1990              	.LVL117:
 1991 0b2a 1C68     		ldr	r4, [r3, #0]	@ CompFilterAltitude.32,
 1992 0b2c FFF7FEFF 		bl	__snsr_compFilter_ResolveSensor	@
 1993              	.LVL118:
 1994 0b30 A061     		str	r0, [r4, #24]	@,
 1995              	.L128:
 373:.\src\sensors\fusion/complementary.c **** }
 1996              		.loc 1 373 0
 1997 0b32 0020     		movs	r0, #0	@,
 1998 0b34 10BD     		pop	{r4, pc}	@
 1999              	.L158:
 2000 0b36 00BF     		.align	2
 2001              	.L157:
 2002 0b38 00000000 		.word	ComplementarySnsrFusion
ARM GAS  C:\Users\Kevin\AppData\Local\Temp\ccw18vSb.s 			page 50


 2003 0b3c 00000000 		.word	ComplementaryFilterConfig
 2004 0b40 00000000 		.word	CompFilterPitch
 2005 0b44 00000000 		.word	CompFilterRoll
 2006 0b48 00000000 		.word	CompFilterHeading
 2007 0b4c 00000000 		.word	CompFilterAltitude
 2008              		.cfi_endproc
 2009              	.LFE116:
 2010              		.size	TWB_SNSR_Complementary_UpdateSettings, .-TWB_SNSR_Complementary_UpdateSettings
 2011              		.align	1
 2012              		.global	TWB_SNSR_Complementary_SendDiag
 2013              		.thumb
 2014              		.thumb_func
 2015              		.type	TWB_SNSR_Complementary_SendDiag, %function
 2016              	TWB_SNSR_Complementary_SendDiag:
 2017              	.LFB118:
 455:.\src\sensors\fusion/complementary.c **** 
 456:.\src\sensors\fusion/complementary.c **** 
 457:.\src\sensors\fusion/complementary.c **** void TWB_SNSR_Complementary_SendDiag(void){
 2018              		.loc 1 457 0
 2019              		.cfi_startproc
 2020              		@ args = 0, pretend = 0, frame = 0
 2021              		@ frame_needed = 0, uses_anonymous_args = 0
 2022              		@ link register save eliminated.
 458:.\src\sensors\fusion/complementary.c **** 	switch(SystemStatus->SnsrState){
 2023              		.loc 1 458 0
 2024 0b50 754B     		ldr	r3, .L192	@ tmp234,
 2025 0b52 1B68     		ldr	r3, [r3, #0]	@ SystemStatus, SystemStatus
 2026 0b54 1A79     		ldrb	r2, [r3, #4]	@ zero_extendqisi2	@ SystemStatus.0_13->SnsrState, SystemStatus.0_13->SnsrState
 2027 0b56 754B     		ldr	r3, .L192+4	@ tmp396,
 2028 0b58 783A     		subs	r2, r2, #120	@ tmp236, SystemStatus.0_13->SnsrState,
 2029 0b5a 032A     		cmp	r2, #3	@ tmp236,
 2030 0b5c 00F2DA80 		bhi	.L160	@
 2031 0b60 DFE802F0 		tbb	[pc, r2]	@ tmp236
 2032              	.L165:
 2033 0b64 02       		.byte	(.L161-.L165)/2
 2034 0b65 38       		.byte	(.L162-.L165)/2
 2035 0b66 6D       		.byte	(.L163-.L165)/2
 2036 0b67 9E       		.byte	(.L164-.L165)/2
 2037              		.align	1
 2038              	.L161:
 459:.\src\sensors\fusion/complementary.c **** 		case SensorAppState_SnsrFusionPitch:
 460:.\src\sensors\fusion/complementary.c **** 			SensorFusionMsg->Combined = (int16_t)(InternalState->Pitch * 10.0f);
 2039              		.loc 1 460 0
 2040 0b68 714A     		ldr	r2, .L192+8	@ tmp239,
 2041 0b6a 1B68     		ldr	r3, [r3, #0]	@ SensorFusionMsg.1, SensorFusionMsg
 2042 0b6c 1268     		ldr	r2, [r2, #0]	@ InternalState, InternalState
 2043 0b6e 92ED007A 		flds	s14, [r2, #0]	@ InternalState.2_17->Pitch, InternalState.2_17->Pitch
 2044 0b72 F2EE047A 		fconsts	s15, #36	@ tmp242,
 2045 0b76 27EE277A 		fmuls	s14, s14, s15	@ tmp240, InternalState.2_17->Pitch, tmp242
 2046 0b7a BDEEC77A 		ftosizs	s14, s14	@, tmp240
 2047 0b7e 17EE102A 		fmrs	r2, s14	@ int	@ tmp243,
 2048 0b82 1A80     		strh	r2, [r3, #0]	@ movhi	@ tmp243, SensorFusionMsg.1_16->Combined
 461:.\src\sensors\fusion/complementary.c **** 
 462:.\src\sensors\fusion/complementary.c **** 			SensorFusionMsg->Sensor1 = ComplementaryFilterConfig->Sensor1Pitch == SensorNone ? 0 :(int16_t)(
 2049              		.loc 1 462 0
 2050 0b84 6B4A     		ldr	r2, .L192+12	@ tmp245,
 2051 0b86 1268     		ldr	r2, [r2, #0]	@ ComplementaryFilterConfig.4, ComplementaryFilterConfig
ARM GAS  C:\Users\Kevin\AppData\Local\Temp\ccw18vSb.s 			page 51


 2052 0b88 917A     		ldrb	r1, [r2, #10]	@ zero_extendqisi2	@ ComplementaryFilterConfig.4_22->Sensor1Pitch, Complementar
 2053 0b8a 51B1     		cbz	r1, .L166	@ ComplementaryFilterConfig.4_22->Sensor1Pitch,
 2054              		.loc 1 462 0 is_stmt 0 discriminator 1
 2055 0b8c 6A49     		ldr	r1, .L192+16	@ tmp248,
 2056 0b8e 0968     		ldr	r1, [r1, #0]	@ CompFilterPitch, CompFilterPitch
 2057 0b90 0969     		ldr	r1, [r1, #16]	@ CompFilterPitch.5_24->Sensor1, CompFilterPitch.5_24->Sensor1
 2058 0b92 91ED117A 		flds	s14, [r1, #68]	@ D.9294_25->X, D.9294_25->X
 2059 0b96 27EE277A 		fmuls	s14, s14, s15	@ tmp250, D.9294_25->X, tmp400
 2060 0b9a BDEEC77A 		ftosizs	s14, s14	@, tmp250
 2061 0b9e 17EE101A 		fmrs	r1, s14	@ int	@,
 2062              	.L166:
 2063              		.loc 1 462 0 discriminator 3
 2064 0ba2 5980     		strh	r1, [r3, #2]	@ movhi	@ iftmp.3, SensorFusionMsg.1_16->Sensor1
 463:.\src\sensors\fusion/complementary.c **** 			SensorFusionMsg->Sensor2 = ComplementaryFilterConfig->Sensor2Pitch == SensorNone ? 0 :(int16_t)(
 2065              		.loc 1 463 0 is_stmt 1 discriminator 3
 2066 0ba4 D17A     		ldrb	r1, [r2, #11]	@ zero_extendqisi2	@ ComplementaryFilterConfig.4_22->Sensor2Pitch, Complementar
 2067 0ba6 51B1     		cbz	r1, .L167	@ ComplementaryFilterConfig.4_22->Sensor2Pitch,
 2068              		.loc 1 463 0 is_stmt 0 discriminator 1
 2069 0ba8 6349     		ldr	r1, .L192+16	@ tmp258,
 2070 0baa 0968     		ldr	r1, [r1, #0]	@ CompFilterPitch, CompFilterPitch
 2071 0bac 4969     		ldr	r1, [r1, #20]	@ CompFilterPitch.5_33->Sensor2, CompFilterPitch.5_33->Sensor2
 2072 0bae 91ED117A 		flds	s14, [r1, #68]	@ D.9302_34->X, D.9302_34->X
 2073 0bb2 27EE277A 		fmuls	s14, s14, s15	@ tmp260, D.9302_34->X, tmp400
 2074 0bb6 BDEEC77A 		ftosizs	s14, s14	@, tmp260
 2075 0bba 17EE101A 		fmrs	r1, s14	@ int	@,
 2076              	.L167:
 464:.\src\sensors\fusion/complementary.c **** 			SensorFusionMsg->Sensor3 = ComplementaryFilterConfig->Sensor3Pitch == SensorNone ? 0 :(int16_t)(
 2077              		.loc 1 464 0 is_stmt 1 discriminator 3
 2078 0bbe 127B     		ldrb	r2, [r2, #12]	@ zero_extendqisi2	@ ComplementaryFilterConfig.4_22->Sensor3Pitch, Complementar
 463:.\src\sensors\fusion/complementary.c **** 			SensorFusionMsg->Sensor2 = ComplementaryFilterConfig->Sensor2Pitch == SensorNone ? 0 :(int16_t)(
 2079              		.loc 1 463 0 discriminator 3
 2080 0bc0 9980     		strh	r1, [r3, #4]	@ movhi	@ iftmp.6, SensorFusionMsg.1_16->Sensor2
 2081              		.loc 1 464 0 discriminator 3
 2082 0bc2 002A     		cmp	r2, #0	@ ComplementaryFilterConfig.4_22->Sensor3Pitch
 2083 0bc4 00F0A580 		beq	.L177	@
 2084              		.loc 1 464 0 is_stmt 0 discriminator 1
 2085 0bc8 5B4A     		ldr	r2, .L192+16	@ tmp268,
 2086 0bca 1268     		ldr	r2, [r2, #0]	@ CompFilterPitch, CompFilterPitch
 2087 0bcc 9269     		ldr	r2, [r2, #24]	@ CompFilterPitch.5_42->Sensor3, CompFilterPitch.5_42->Sensor3
 2088 0bce 92ED117A 		flds	s14, [r2, #68]	@ D.9310_43->X, D.9310_43->X
 2089 0bd2 98E0     		b	.L190	@
 2090              	.L162:
 465:.\src\sensors\fusion/complementary.c **** 
 466:.\src\sensors\fusion/complementary.c **** 			break;
 467:.\src\sensors\fusion/complementary.c **** 		case SensorAppState_SnsrFusionRoll:
 468:.\src\sensors\fusion/complementary.c **** 			SensorFusionMsg->Combined = (int16_t)(InternalState->Roll * 10.0f);
 2091              		.loc 1 468 0 is_stmt 1
 2092 0bd4 564A     		ldr	r2, .L192+8	@ tmp278,
 2093 0bd6 1B68     		ldr	r3, [r3, #0]	@ SensorFusionMsg.1, SensorFusionMsg
 2094 0bd8 1268     		ldr	r2, [r2, #0]	@ InternalState, InternalState
 2095 0bda 92ED017A 		flds	s14, [r2, #4]	@ InternalState.2_49->Roll, InternalState.2_49->Roll
 2096 0bde F2EE047A 		fconsts	s15, #36	@ tmp281,
 2097 0be2 27EE277A 		fmuls	s14, s14, s15	@ tmp279, InternalState.2_49->Roll, tmp281
 2098 0be6 BDEEC77A 		ftosizs	s14, s14	@, tmp279
 2099 0bea 17EE102A 		fmrs	r2, s14	@ int	@ tmp282,
 2100 0bee 1A80     		strh	r2, [r3, #0]	@ movhi	@ tmp282, SensorFusionMsg.1_48->Combined
 469:.\src\sensors\fusion/complementary.c **** 
ARM GAS  C:\Users\Kevin\AppData\Local\Temp\ccw18vSb.s 			page 52


 470:.\src\sensors\fusion/complementary.c **** 			SensorFusionMsg->Sensor1 = ComplementaryFilterConfig->Sensor1Roll == SensorNone ? 0 : (int16_t)(
 2101              		.loc 1 470 0
 2102 0bf0 504A     		ldr	r2, .L192+12	@ tmp284,
 2103 0bf2 1268     		ldr	r2, [r2, #0]	@ ComplementaryFilterConfig.4, ComplementaryFilterConfig
 2104 0bf4 517B     		ldrb	r1, [r2, #13]	@ zero_extendqisi2	@ ComplementaryFilterConfig.4_54->Sensor1Roll, Complementary
 2105 0bf6 51B1     		cbz	r1, .L169	@ ComplementaryFilterConfig.4_54->Sensor1Roll,
 2106              		.loc 1 470 0 is_stmt 0 discriminator 1
 2107 0bf8 5049     		ldr	r1, .L192+20	@ tmp287,
 2108 0bfa 0968     		ldr	r1, [r1, #0]	@ CompFilterRoll, CompFilterRoll
 2109 0bfc 0969     		ldr	r1, [r1, #16]	@ CompFilterRoll.9_56->Sensor1, CompFilterRoll.9_56->Sensor1
 2110 0bfe 91ED127A 		flds	s14, [r1, #72]	@ D.9322_57->Y, D.9322_57->Y
 2111 0c02 27EE277A 		fmuls	s14, s14, s15	@ tmp289, D.9322_57->Y, tmp399
 2112 0c06 BDEEC77A 		ftosizs	s14, s14	@, tmp289
 2113 0c0a 17EE101A 		fmrs	r1, s14	@ int	@,
 2114              	.L169:
 2115              		.loc 1 470 0 discriminator 3
 2116 0c0e 5980     		strh	r1, [r3, #2]	@ movhi	@ iftmp.8, SensorFusionMsg.1_48->Sensor1
 471:.\src\sensors\fusion/complementary.c **** 			SensorFusionMsg->Sensor2 = ComplementaryFilterConfig->Sensor2Roll == SensorNone ? 0 : (int16_t)(
 2117              		.loc 1 471 0 is_stmt 1 discriminator 3
 2118 0c10 917B     		ldrb	r1, [r2, #14]	@ zero_extendqisi2	@ ComplementaryFilterConfig.4_54->Sensor2Roll, Complementary
 2119 0c12 51B1     		cbz	r1, .L170	@ ComplementaryFilterConfig.4_54->Sensor2Roll,
 2120              		.loc 1 471 0 is_stmt 0 discriminator 1
 2121 0c14 4949     		ldr	r1, .L192+20	@ tmp297,
 2122 0c16 0968     		ldr	r1, [r1, #0]	@ CompFilterRoll, CompFilterRoll
 2123 0c18 4969     		ldr	r1, [r1, #20]	@ CompFilterRoll.9_65->Sensor2, CompFilterRoll.9_65->Sensor2
 2124 0c1a 91ED127A 		flds	s14, [r1, #72]	@ D.9330_66->Y, D.9330_66->Y
 2125 0c1e 27EE277A 		fmuls	s14, s14, s15	@ tmp299, D.9330_66->Y, tmp399
 2126 0c22 BDEEC77A 		ftosizs	s14, s14	@, tmp299
 2127 0c26 17EE101A 		fmrs	r1, s14	@ int	@,
 2128              	.L170:
 472:.\src\sensors\fusion/complementary.c **** 			SensorFusionMsg->Sensor3 = ComplementaryFilterConfig->Sensor3Roll == SensorNone ? 0 : (int16_t)(
 2129              		.loc 1 472 0 is_stmt 1 discriminator 3
 2130 0c2a D27B     		ldrb	r2, [r2, #15]	@ zero_extendqisi2	@ ComplementaryFilterConfig.4_54->Sensor3Roll, Complementary
 471:.\src\sensors\fusion/complementary.c **** 			SensorFusionMsg->Sensor2 = ComplementaryFilterConfig->Sensor2Roll == SensorNone ? 0 : (int16_t)(
 2131              		.loc 1 471 0 discriminator 3
 2132 0c2c 9980     		strh	r1, [r3, #4]	@ movhi	@ iftmp.10, SensorFusionMsg.1_48->Sensor2
 2133              		.loc 1 472 0 discriminator 3
 2134 0c2e 002A     		cmp	r2, #0	@ ComplementaryFilterConfig.4_54->Sensor3Roll
 2135 0c30 6FD0     		beq	.L177	@
 2136              		.loc 1 472 0 is_stmt 0 discriminator 1
 2137 0c32 424A     		ldr	r2, .L192+20	@ tmp307,
 2138 0c34 1268     		ldr	r2, [r2, #0]	@ CompFilterRoll, CompFilterRoll
 2139 0c36 9269     		ldr	r2, [r2, #24]	@ CompFilterRoll.9_74->Sensor3, CompFilterRoll.9_74->Sensor3
 2140 0c38 92ED127A 		flds	s14, [r2, #72]	@ D.9338_75->Y, D.9338_75->Y
 2141 0c3c 63E0     		b	.L190	@
 2142              	.L163:
 473:.\src\sensors\fusion/complementary.c **** 
 474:.\src\sensors\fusion/complementary.c **** 			break;
 475:.\src\sensors\fusion/complementary.c **** 		case SensorAppState_SnsrFusionHeading:
 476:.\src\sensors\fusion/complementary.c **** 			SensorFusionMsg->Combined = (int16_t)(InternalState->Heading * 10.0f);
 2143              		.loc 1 476 0 is_stmt 1
 2144 0c3e 3C4A     		ldr	r2, .L192+8	@ tmp317,
 2145 0c40 1B68     		ldr	r3, [r3, #0]	@ SensorFusionMsg.1, SensorFusionMsg
 2146 0c42 1268     		ldr	r2, [r2, #0]	@ InternalState, InternalState
 2147 0c44 92ED027A 		flds	s14, [r2, #8]	@ InternalState.2_81->Heading, InternalState.2_81->Heading
 2148 0c48 F2EE047A 		fconsts	s15, #36	@ tmp320,
 2149 0c4c 27EE277A 		fmuls	s14, s14, s15	@ tmp318, InternalState.2_81->Heading, tmp320
ARM GAS  C:\Users\Kevin\AppData\Local\Temp\ccw18vSb.s 			page 53


 2150 0c50 BDEEC77A 		ftosizs	s14, s14	@, tmp318
 2151 0c54 17EE102A 		fmrs	r2, s14	@ int	@ tmp321,
 2152 0c58 1A80     		strh	r2, [r3, #0]	@ movhi	@ tmp321, SensorFusionMsg.1_80->Combined
 477:.\src\sensors\fusion/complementary.c **** 
 478:.\src\sensors\fusion/complementary.c **** 			SensorFusionMsg->Sensor1 = ComplementaryFilterConfig->Sensor1Heading == SensorNone ? 0 : (int16_
 2153              		.loc 1 478 0
 2154 0c5a 364A     		ldr	r2, .L192+12	@ tmp323,
 2155 0c5c 1268     		ldr	r2, [r2, #0]	@ ComplementaryFilterConfig.4, ComplementaryFilterConfig
 2156 0c5e 117C     		ldrb	r1, [r2, #16]	@ zero_extendqisi2	@ ComplementaryFilterConfig.4_86->Sensor1Heading, Complement
 2157 0c60 51B1     		cbz	r1, .L172	@ ComplementaryFilterConfig.4_86->Sensor1Heading,
 2158              		.loc 1 478 0 is_stmt 0 discriminator 1
 2159 0c62 3749     		ldr	r1, .L192+24	@ tmp326,
 2160 0c64 0968     		ldr	r1, [r1, #0]	@ CompFilterHeading, CompFilterHeading
 2161 0c66 0969     		ldr	r1, [r1, #16]	@ CompFilterHeading.13_88->Sensor1, CompFilterHeading.13_88->Sensor1
 2162 0c68 91ED137A 		flds	s14, [r1, #76]	@ D.9350_89->Z, D.9350_89->Z
 2163 0c6c 27EE277A 		fmuls	s14, s14, s15	@ tmp328, D.9350_89->Z, tmp398
 2164 0c70 BDEEC77A 		ftosizs	s14, s14	@, tmp328
 2165 0c74 17EE101A 		fmrs	r1, s14	@ int	@,
 2166              	.L172:
 2167              		.loc 1 478 0 discriminator 3
 2168 0c78 5980     		strh	r1, [r3, #2]	@ movhi	@ iftmp.12, SensorFusionMsg.1_80->Sensor1
 479:.\src\sensors\fusion/complementary.c **** 			SensorFusionMsg->Sensor2 = ComplementaryFilterConfig->Sensor2Heading == SensorNone ? 0 : (int16_
 2169              		.loc 1 479 0 is_stmt 1 discriminator 3
 2170 0c7a 517C     		ldrb	r1, [r2, #17]	@ zero_extendqisi2	@ ComplementaryFilterConfig.4_86->Sensor2Heading, Complement
 2171 0c7c 51B1     		cbz	r1, .L173	@ ComplementaryFilterConfig.4_86->Sensor2Heading,
 2172              		.loc 1 479 0 is_stmt 0 discriminator 1
 2173 0c7e 3049     		ldr	r1, .L192+24	@ tmp336,
 2174 0c80 0968     		ldr	r1, [r1, #0]	@ CompFilterHeading, CompFilterHeading
 2175 0c82 4969     		ldr	r1, [r1, #20]	@ CompFilterHeading.13_97->Sensor2, CompFilterHeading.13_97->Sensor2
 2176 0c84 91ED137A 		flds	s14, [r1, #76]	@ D.9358_98->Z, D.9358_98->Z
 2177 0c88 27EE277A 		fmuls	s14, s14, s15	@ tmp338, D.9358_98->Z, tmp398
 2178 0c8c BDEEC77A 		ftosizs	s14, s14	@, tmp338
 2179 0c90 17EE101A 		fmrs	r1, s14	@ int	@,
 2180              	.L173:
 480:.\src\sensors\fusion/complementary.c **** 			SensorFusionMsg->Sensor3 = ComplementaryFilterConfig->Sensor3Heading == SensorNone ? 0 : (int16_
 2181              		.loc 1 480 0 is_stmt 1 discriminator 3
 2182 0c94 927C     		ldrb	r2, [r2, #18]	@ zero_extendqisi2	@ ComplementaryFilterConfig.4_86->Sensor3Heading, Complement
 479:.\src\sensors\fusion/complementary.c **** 			SensorFusionMsg->Sensor2 = ComplementaryFilterConfig->Sensor2Heading == SensorNone ? 0 : (int16_
 2183              		.loc 1 479 0 discriminator 3
 2184 0c96 9980     		strh	r1, [r3, #4]	@ movhi	@ iftmp.14, SensorFusionMsg.1_80->Sensor2
 2185              		.loc 1 480 0 discriminator 3
 2186 0c98 002A     		cmp	r2, #0	@ ComplementaryFilterConfig.4_86->Sensor3Heading
 2187 0c9a 3AD0     		beq	.L177	@
 2188              		.loc 1 480 0 is_stmt 0 discriminator 1
 2189 0c9c 284A     		ldr	r2, .L192+24	@ tmp346,
 2190 0c9e 2EE0     		b	.L191	@
 2191              	.L164:
 481:.\src\sensors\fusion/complementary.c **** 
 482:.\src\sensors\fusion/complementary.c **** 			break;
 483:.\src\sensors\fusion/complementary.c **** 		case SensorAppState_SnsrFusionAltitude:
 484:.\src\sensors\fusion/complementary.c **** 			SensorFusionMsg->Combined = (int16_t)(InternalState->AltitudeM * 10.0f);
 2192              		.loc 1 484 0 is_stmt 1
 2193 0ca0 234A     		ldr	r2, .L192+8	@ tmp356,
 2194 0ca2 1B68     		ldr	r3, [r3, #0]	@ SensorFusionMsg.1, SensorFusionMsg
 2195 0ca4 1268     		ldr	r2, [r2, #0]	@ InternalState, InternalState
 2196 0ca6 92ED037A 		flds	s14, [r2, #12]	@ InternalState.2_113->AltitudeM, InternalState.2_113->AltitudeM
 2197 0caa F2EE047A 		fconsts	s15, #36	@ tmp359,
ARM GAS  C:\Users\Kevin\AppData\Local\Temp\ccw18vSb.s 			page 54


 2198 0cae 27EE277A 		fmuls	s14, s14, s15	@ tmp357, InternalState.2_113->AltitudeM, tmp359
 2199 0cb2 BDEEC77A 		ftosizs	s14, s14	@, tmp357
 2200 0cb6 17EE102A 		fmrs	r2, s14	@ int	@ tmp360,
 2201 0cba 1A80     		strh	r2, [r3, #0]	@ movhi	@ tmp360, SensorFusionMsg.1_112->Combined
 485:.\src\sensors\fusion/complementary.c **** 
 486:.\src\sensors\fusion/complementary.c **** 			SensorFusionMsg->Sensor1 = ComplementaryFilterConfig->Sensor1Altitude == SensorNone ? 0 : (int16
 2202              		.loc 1 486 0
 2203 0cbc 1D4A     		ldr	r2, .L192+12	@ tmp362,
 2204 0cbe 1268     		ldr	r2, [r2, #0]	@ ComplementaryFilterConfig.4, ComplementaryFilterConfig
 2205 0cc0 D17C     		ldrb	r1, [r2, #19]	@ zero_extendqisi2	@ ComplementaryFilterConfig.4_118->Sensor1Altitude, Compleme
 2206 0cc2 51B1     		cbz	r1, .L175	@ ComplementaryFilterConfig.4_118->Sensor1Altitude,
 2207              		.loc 1 486 0 is_stmt 0 discriminator 1
 2208 0cc4 1F49     		ldr	r1, .L192+28	@ tmp365,
 2209 0cc6 0968     		ldr	r1, [r1, #0]	@ CompFilterAltitude, CompFilterAltitude
 2210 0cc8 0969     		ldr	r1, [r1, #16]	@ CompFilterAltitude.17_120->Sensor1, CompFilterAltitude.17_120->Sensor1
 2211 0cca 91ED137A 		flds	s14, [r1, #76]	@ D.9378_121->Z, D.9378_121->Z
 2212 0cce 27EE277A 		fmuls	s14, s14, s15	@ tmp367, D.9378_121->Z, tmp397
 2213 0cd2 BDEEC77A 		ftosizs	s14, s14	@, tmp367
 2214 0cd6 17EE101A 		fmrs	r1, s14	@ int	@,
 2215              	.L175:
 2216              		.loc 1 486 0 discriminator 3
 2217 0cda 5980     		strh	r1, [r3, #2]	@ movhi	@ iftmp.16, SensorFusionMsg.1_112->Sensor1
 487:.\src\sensors\fusion/complementary.c **** 			SensorFusionMsg->Sensor2 = ComplementaryFilterConfig->Sensor2Altitude == SensorNone ? 0 : (int16
 2218              		.loc 1 487 0 is_stmt 1 discriminator 3
 2219 0cdc 117D     		ldrb	r1, [r2, #20]	@ zero_extendqisi2	@ ComplementaryFilterConfig.4_118->Sensor2Altitude, Compleme
 2220 0cde 51B1     		cbz	r1, .L176	@ ComplementaryFilterConfig.4_118->Sensor2Altitude,
 2221              		.loc 1 487 0 is_stmt 0 discriminator 1
 2222 0ce0 1849     		ldr	r1, .L192+28	@ tmp375,
 2223 0ce2 0968     		ldr	r1, [r1, #0]	@ CompFilterAltitude, CompFilterAltitude
 2224 0ce4 4969     		ldr	r1, [r1, #20]	@ CompFilterAltitude.17_129->Sensor2, CompFilterAltitude.17_129->Sensor2
 2225 0ce6 91ED137A 		flds	s14, [r1, #76]	@ D.9386_130->Z, D.9386_130->Z
 2226 0cea 27EE277A 		fmuls	s14, s14, s15	@ tmp377, D.9386_130->Z, tmp397
 2227 0cee BDEEC77A 		ftosizs	s14, s14	@, tmp377
 2228 0cf2 17EE101A 		fmrs	r1, s14	@ int	@,
 2229              	.L176:
 488:.\src\sensors\fusion/complementary.c **** 			SensorFusionMsg->Sensor3 = ComplementaryFilterConfig->Sensor3Altitude == SensorNone ? 0 : (int16
 2230              		.loc 1 488 0 is_stmt 1 discriminator 3
 2231 0cf6 527D     		ldrb	r2, [r2, #21]	@ zero_extendqisi2	@ ComplementaryFilterConfig.4_118->Sensor3Altitude, Compleme
 487:.\src\sensors\fusion/complementary.c **** 			SensorFusionMsg->Sensor2 = ComplementaryFilterConfig->Sensor2Altitude == SensorNone ? 0 : (int16
 2232              		.loc 1 487 0 discriminator 3
 2233 0cf8 9980     		strh	r1, [r3, #4]	@ movhi	@ iftmp.18, SensorFusionMsg.1_112->Sensor2
 2234              		.loc 1 488 0 discriminator 3
 2235 0cfa 52B1     		cbz	r2, .L177	@ ComplementaryFilterConfig.4_118->Sensor3Altitude,
 2236              		.loc 1 488 0 is_stmt 0 discriminator 1
 2237 0cfc 114A     		ldr	r2, .L192+28	@ tmp385,
 2238              	.L191:
 2239 0cfe 1268     		ldr	r2, [r2, #0]	@ CompFilterAltitude,
 2240 0d00 9269     		ldr	r2, [r2, #24]	@ CompFilterAltitude.17_138->Sensor3,
 2241 0d02 92ED137A 		flds	s14, [r2, #76]	@ D.9394_139->Z,
 2242              	.L190:
 2243 0d06 67EE277A 		fmuls	s15, s14, s15	@ tmp387, D.9394_139->Z, tmp397
 2244 0d0a FDEEE77A 		ftosizs	s15, s15	@, tmp387
 2245 0d0e 17EE902A 		fmrs	r2, s15	@ int	@,
 2246              	.L177:
 2247              		.loc 1 488 0 discriminator 3
 2248 0d12 DA80     		strh	r2, [r3, #6]	@ movhi	@ iftmp.19,
 2249              	.L160:
ARM GAS  C:\Users\Kevin\AppData\Local\Temp\ccw18vSb.s 			page 55


 489:.\src\sensors\fusion/complementary.c **** 			break;
 490:.\src\sensors\fusion/complementary.c **** 		default: break;
 491:.\src\sensors\fusion/complementary.c **** 	}
 492:.\src\sensors\fusion/complementary.c **** 
 493:.\src\sensors\fusion/complementary.c **** 
 494:.\src\sensors\fusion/complementary.c **** 	SensorFusionMsg->DeviceType = SnsrFusionComplementary;
 2250              		.loc 1 494 0 is_stmt 1
 2251 0d14 054B     		ldr	r3, .L192+4	@ tmp393,
 2252 0d16 1A68     		ldr	r2, [r3, #0]	@ SensorFusionMsg.1, SensorFusionMsg
 2253 0d18 8023     		movs	r3, #128	@ tmp394,
 2254 0d1a 1372     		strb	r3, [r2, #8]	@ tmp394, SensorFusionMsg.1_144->DeviceType
 495:.\src\sensors\fusion/complementary.c **** 
 496:.\src\sensors\fusion/complementary.c **** 	TWB_Commo_SendMessage(MOD_Sensor, MSG_SnsrFusion, (uint8_t *)SensorFusionMsg, sizeof(SensorFusionM
 2255              		.loc 1 496 0
 2256 0d1c 4620     		movs	r0, #70	@,
 2257 0d1e 3321     		movs	r1, #51	@,
 2258 0d20 0A23     		movs	r3, #10	@,
 497:.\src\sensors\fusion/complementary.c **** }
 2259              		.loc 1 497 0
 496:.\src\sensors\fusion/complementary.c **** 	TWB_Commo_SendMessage(MOD_Sensor, MSG_SnsrFusion, (uint8_t *)SensorFusionMsg, sizeof(SensorFusionM
 2260              		.loc 1 496 0
 2261 0d22 FFF7FEBF 		b	TWB_Commo_SendMessage	@
 2262              	.LVL119:
 2263              	.L193:
 2264 0d26 00BF     		.align	2
 2265              	.L192:
 2266 0d28 00000000 		.word	SystemStatus
 2267 0d2c 00000000 		.word	SensorFusionMsg
 2268 0d30 00000000 		.word	InternalState
 2269 0d34 00000000 		.word	ComplementaryFilterConfig
 2270 0d38 00000000 		.word	CompFilterPitch
 2271 0d3c 00000000 		.word	CompFilterRoll
 2272 0d40 00000000 		.word	CompFilterHeading
 2273 0d44 00000000 		.word	CompFilterAltitude
 2274              		.cfi_endproc
 2275              	.LFE118:
 2276              		.size	TWB_SNSR_Complementary_SendDiag, .-TWB_SNSR_Complementary_SendDiag
 2277              		.comm	CompFilterAltitude,4,4
 2278              		.comm	CompFilterHeading,4,4
 2279              		.comm	CompFilterRoll,4,4
 2280              		.comm	CompFilterPitch,4,4
 2281              		.comm	SensorFusionMsg,4,4
 2282              		.comm	ComplementaryFilterConfig,4,4
 2283              		.comm	I2CZeroJob,4,4
 2284              		.section	.rodata
 2285              		.align	2
 2286              		.set	.LANCHOR0,. + 0
 2287              		.type	CSWTCH.60, %object
 2288              		.size	CSWTCH.60, 76
 2289              	CSWTCH.60:
 2290 0000 0000803F 		.word	1065353216
 2291 0004 6666663F 		.word	1063675494
 2292 0008 CDCC4C3F 		.word	1061997773
 2293 000c 3333333F 		.word	1060320051
 2294 0010 9A99193F 		.word	1058642330
 2295 0014 0000003F 		.word	1056964608
 2296 0018 CDCCCC3E 		.word	1053609165
ARM GAS  C:\Users\Kevin\AppData\Local\Temp\ccw18vSb.s 			page 56


 2297 001c 9A99993E 		.word	1050253722
 2298 0020 CDCC4C3E 		.word	1045220557
 2299 0024 9A99193E 		.word	1041865114
 2300 0028 CDCCCC3D 		.word	1036831949
 2301 002c CDCC4C3D 		.word	1028443341
 2302 0030 CDCCCC3C 		.word	1020054733
 2303 0034 0AD7A33C 		.word	1017370378
 2304 0038 8FC2753C 		.word	1014350479
 2305 003c 0AD7233C 		.word	1008981770
 2306 0040 0AD7A33B 		.word	1000593162
 2307 0044 6F12033B 		.word	990057071
 2308 0048 6F12833A 		.word	981668463
 2309              		.text
 2310              	.Letext0:
 2311              		.file 2 "k:\\electronics\\gcc\\bin\\../lib/gcc/arm-none-eabi/4.7.2/../../../../arm-none-eabi/inclu
 2312              		.file 3 ".\\inc/twb_config.h"
 2313              		.file 4 ".\\inc/common/twb_common.h"
 2314              		.file 5 ".\\inc/filters/filter.h"
 2315              		.file 6 ".\\inc/common/twb_i2c.h"
 2316              		.file 7 ".\\inc/commo/message_ids.h"
 2317              		.file 8 ".\\inc/sensors/snsr_main.h"
 2318              		.file 9 ".\\inc/sensors/fusion/complementary.h"
 2319              		.file 10 ".\\inc/core_cm4.h"
 2320              		.file 11 ".\\inc/flight/autopilot.h"
 2321              		.file 12 ".\\inc/common/twb_timer.h"
 2322              		.file 13 ".\\inc/common/twb_serial_eeprom.h"
 2323              		.file 14 ".\\inc/common/memory_mgmt.h"
 2324              		.file 15 ".\\inc/commo/commo.h"
 2325              		.section	.debug_info,"",%progbits
 2326              	.Ldebug_info0:
 2327 0000 EA180000 		.4byte	0x18ea
 2328 0004 0200     		.2byte	0x2
 2329 0006 00000000 		.4byte	.Ldebug_abbrev0
 2330 000a 04       		.byte	0x4
 2331 000b 01       		.uleb128 0x1
 2332 000c C4040000 		.4byte	.LASF378
 2333 0010 01       		.byte	0x1
 2334 0011 460B0000 		.4byte	.LASF379
 2335 0015 460C0000 		.4byte	.LASF380
 2336 0019 00000000 		.4byte	.Ltext0
 2337 001d 480D0000 		.4byte	.Letext0
 2338 0021 00000000 		.4byte	.Ldebug_line0
 2339 0025 02       		.uleb128 0x2
 2340 0026 04       		.byte	0x4
 2341 0027 04       		.byte	0x4
 2342 0028 89120000 		.4byte	.LASF0
 2343 002c 03       		.uleb128 0x3
 2344 002d 04       		.byte	0x4
 2345 002e 05       		.byte	0x5
 2346 002f 696E7400 		.ascii	"int\000"
 2347 0033 02       		.uleb128 0x2
 2348 0034 01       		.byte	0x1
 2349 0035 06       		.byte	0x6
 2350 0036 24150000 		.4byte	.LASF1
 2351 003a 04       		.uleb128 0x4
 2352 003b 010A0000 		.4byte	.LASF3
 2353 003f 02       		.byte	0x2
ARM GAS  C:\Users\Kevin\AppData\Local\Temp\ccw18vSb.s 			page 57


 2354 0040 2A       		.byte	0x2a
 2355 0041 45000000 		.4byte	0x45
 2356 0045 02       		.uleb128 0x2
 2357 0046 01       		.byte	0x1
 2358 0047 08       		.byte	0x8
 2359 0048 30130000 		.4byte	.LASF2
 2360 004c 04       		.uleb128 0x4
 2361 004d 66050000 		.4byte	.LASF4
 2362 0051 02       		.byte	0x2
 2363 0052 35       		.byte	0x35
 2364 0053 57000000 		.4byte	0x57
 2365 0057 02       		.uleb128 0x2
 2366 0058 02       		.byte	0x2
 2367 0059 05       		.byte	0x5
 2368 005a A10C0000 		.4byte	.LASF5
 2369 005e 04       		.uleb128 0x4
 2370 005f D90D0000 		.4byte	.LASF6
 2371 0063 02       		.byte	0x2
 2372 0064 36       		.byte	0x36
 2373 0065 69000000 		.4byte	0x69
 2374 0069 02       		.uleb128 0x2
 2375 006a 02       		.byte	0x2
 2376 006b 07       		.byte	0x7
 2377 006c 3C150000 		.4byte	.LASF7
 2378 0070 04       		.uleb128 0x4
 2379 0071 9E120000 		.4byte	.LASF8
 2380 0075 02       		.byte	0x2
 2381 0076 4F       		.byte	0x4f
 2382 0077 7B000000 		.4byte	0x7b
 2383 007b 02       		.uleb128 0x2
 2384 007c 04       		.byte	0x4
 2385 007d 05       		.byte	0x5
 2386 007e 9A0F0000 		.4byte	.LASF9
 2387 0082 02       		.uleb128 0x2
 2388 0083 04       		.byte	0x4
 2389 0084 07       		.byte	0x7
 2390 0085 30120000 		.4byte	.LASF10
 2391 0089 02       		.uleb128 0x2
 2392 008a 08       		.byte	0x8
 2393 008b 05       		.byte	0x5
 2394 008c E60A0000 		.4byte	.LASF11
 2395 0090 02       		.uleb128 0x2
 2396 0091 08       		.byte	0x8
 2397 0092 07       		.byte	0x7
 2398 0093 93050000 		.4byte	.LASF12
 2399 0097 02       		.uleb128 0x2
 2400 0098 04       		.byte	0x4
 2401 0099 07       		.byte	0x7
 2402 009a C0010000 		.4byte	.LASF13
 2403 009e 02       		.uleb128 0x2
 2404 009f 04       		.byte	0x4
 2405 00a0 07       		.byte	0x7
 2406 00a1 08120000 		.4byte	.LASF14
 2407 00a5 05       		.uleb128 0x5
 2408 00a6 70000000 		.4byte	0x70
 2409 00aa 06       		.uleb128 0x6
 2410 00ab 04       		.byte	0x4
ARM GAS  C:\Users\Kevin\AppData\Local\Temp\ccw18vSb.s 			page 58


 2411 00ac 07       		.uleb128 0x7
 2412 00ad 01       		.byte	0x1
 2413 00ae 08       		.uleb128 0x8
 2414 00af 04       		.byte	0x4
 2415 00b0 AC000000 		.4byte	0xac
 2416 00b4 08       		.uleb128 0x8
 2417 00b5 04       		.byte	0x4
 2418 00b6 BA000000 		.4byte	0xba
 2419 00ba 02       		.uleb128 0x2
 2420 00bb 01       		.byte	0x1
 2421 00bc 08       		.byte	0x8
 2422 00bd 81000000 		.4byte	.LASF15
 2423 00c1 02       		.uleb128 0x2
 2424 00c2 08       		.byte	0x8
 2425 00c3 04       		.byte	0x4
 2426 00c4 DB150000 		.4byte	.LASF16
 2427 00c8 02       		.uleb128 0x2
 2428 00c9 08       		.byte	0x8
 2429 00ca 04       		.byte	0x4
 2430 00cb B80D0000 		.4byte	.LASF17
 2431 00cf 08       		.uleb128 0x8
 2432 00d0 04       		.byte	0x4
 2433 00d1 3A000000 		.4byte	0x3a
 2434 00d5 09       		.uleb128 0x9
 2435 00d6 3F080000 		.4byte	.LASF259
 2436 00da 06       		.byte	0x6
 2437 00db 03       		.byte	0x3
 2438 00dc 21       		.byte	0x21
 2439 00dd 06010000 		.4byte	0x106
 2440 00e1 0A       		.uleb128 0xa
 2441 00e2 7800     		.ascii	"x\000"
 2442 00e4 03       		.byte	0x3
 2443 00e5 22       		.byte	0x22
 2444 00e6 5E000000 		.4byte	0x5e
 2445 00ea 02       		.byte	0x2
 2446 00eb 23       		.byte	0x23
 2447 00ec 00       		.uleb128 0
 2448 00ed 0A       		.uleb128 0xa
 2449 00ee 7900     		.ascii	"y\000"
 2450 00f0 03       		.byte	0x3
 2451 00f1 22       		.byte	0x22
 2452 00f2 5E000000 		.4byte	0x5e
 2453 00f6 02       		.byte	0x2
 2454 00f7 23       		.byte	0x23
 2455 00f8 02       		.uleb128 0x2
 2456 00f9 0A       		.uleb128 0xa
 2457 00fa 7A00     		.ascii	"z\000"
 2458 00fc 03       		.byte	0x3
 2459 00fd 22       		.byte	0x22
 2460 00fe 5E000000 		.4byte	0x5e
 2461 0102 02       		.byte	0x2
 2462 0103 23       		.byte	0x23
 2463 0104 04       		.uleb128 0x4
 2464 0105 00       		.byte	0
 2465 0106 04       		.uleb128 0x4
 2466 0107 E3090000 		.4byte	.LASF18
 2467 010b 03       		.byte	0x3
ARM GAS  C:\Users\Kevin\AppData\Local\Temp\ccw18vSb.s 			page 59


 2468 010c 23       		.byte	0x23
 2469 010d D5000000 		.4byte	0xd5
 2470 0111 0B       		.uleb128 0xb
 2471 0112 01       		.byte	0x1
 2472 0113 03       		.byte	0x3
 2473 0114 2E       		.byte	0x2e
 2474 0115 45010000 		.4byte	0x145
 2475 0119 0C       		.uleb128 0xc
 2476 011a F6160000 		.4byte	.LASF19
 2477 011e 01       		.sleb128 1
 2478 011f 0C       		.uleb128 0xc
 2479 0120 2D140000 		.4byte	.LASF20
 2480 0124 0A       		.sleb128 10
 2481 0125 0C       		.uleb128 0xc
 2482 0126 8D040000 		.4byte	.LASF21
 2483 012a 0B       		.sleb128 11
 2484 012b 0C       		.uleb128 0xc
 2485 012c 9E040000 		.4byte	.LASF22
 2486 0130 14       		.sleb128 20
 2487 0131 0C       		.uleb128 0xc
 2488 0132 63090000 		.4byte	.LASF23
 2489 0136 1E       		.sleb128 30
 2490 0137 0C       		.uleb128 0xc
 2491 0138 EF080000 		.4byte	.LASF24
 2492 013c E400     		.sleb128 100
 2493 013e 0C       		.uleb128 0xc
 2494 013f B60A0000 		.4byte	.LASF25
 2495 0143 00       		.sleb128 0
 2496 0144 00       		.byte	0
 2497 0145 04       		.uleb128 0x4
 2498 0146 0A0D0000 		.4byte	.LASF26
 2499 014a 03       		.byte	0x3
 2500 014b 36       		.byte	0x36
 2501 014c 11010000 		.4byte	0x111
 2502 0150 0B       		.uleb128 0xb
 2503 0151 01       		.byte	0x1
 2504 0152 03       		.byte	0x3
 2505 0153 39       		.byte	0x39
 2506 0154 FC010000 		.4byte	0x1fc
 2507 0158 0C       		.uleb128 0xc
 2508 0159 42120000 		.4byte	.LASF27
 2509 015d 00       		.sleb128 0
 2510 015e 0C       		.uleb128 0xc
 2511 015f 110A0000 		.4byte	.LASF28
 2512 0163 01       		.sleb128 1
 2513 0164 0C       		.uleb128 0xc
 2514 0165 850F0000 		.4byte	.LASF29
 2515 0169 02       		.sleb128 2
 2516 016a 0C       		.uleb128 0xc
 2517 016b B9100000 		.4byte	.LASF30
 2518 016f 0B       		.sleb128 11
 2519 0170 0C       		.uleb128 0xc
 2520 0171 2C010000 		.4byte	.LASF31
 2521 0175 E400     		.sleb128 100
 2522 0177 0C       		.uleb128 0xc
 2523 0178 BE110000 		.4byte	.LASF32
 2524 017c E500     		.sleb128 101
ARM GAS  C:\Users\Kevin\AppData\Local\Temp\ccw18vSb.s 			page 60


 2525 017e 0C       		.uleb128 0xc
 2526 017f AC040000 		.4byte	.LASF33
 2527 0183 E600     		.sleb128 102
 2528 0185 0C       		.uleb128 0xc
 2529 0186 EF050000 		.4byte	.LASF34
 2530 018a E700     		.sleb128 103
 2531 018c 0C       		.uleb128 0xc
 2532 018d 15140000 		.4byte	.LASF35
 2533 0191 E800     		.sleb128 104
 2534 0193 0C       		.uleb128 0xc
 2535 0194 CA160000 		.4byte	.LASF36
 2536 0198 E900     		.sleb128 105
 2537 019a 0C       		.uleb128 0xc
 2538 019b 76080000 		.4byte	.LASF37
 2539 019f EA00     		.sleb128 106
 2540 01a1 0C       		.uleb128 0xc
 2541 01a2 5C150000 		.4byte	.LASF38
 2542 01a6 EB00     		.sleb128 107
 2543 01a8 0C       		.uleb128 0xc
 2544 01a9 E6000000 		.4byte	.LASF39
 2545 01ad EC00     		.sleb128 108
 2546 01af 0C       		.uleb128 0xc
 2547 01b0 00000000 		.4byte	.LASF40
 2548 01b4 01       		.sleb128 1
 2549 01b5 0C       		.uleb128 0xc
 2550 01b6 C40A0000 		.4byte	.LASF41
 2551 01ba EE00     		.sleb128 110
 2552 01bc 0C       		.uleb128 0xc
 2553 01bd 55020000 		.4byte	.LASF42
 2554 01c1 EF00     		.sleb128 111
 2555 01c3 0C       		.uleb128 0xc
 2556 01c4 07150000 		.4byte	.LASF43
 2557 01c8 F000     		.sleb128 112
 2558 01ca 0C       		.uleb128 0xc
 2559 01cb AD060000 		.4byte	.LASF44
 2560 01cf F800     		.sleb128 120
 2561 01d1 0C       		.uleb128 0xc
 2562 01d2 240E0000 		.4byte	.LASF45
 2563 01d6 F900     		.sleb128 121
 2564 01d8 0C       		.uleb128 0xc
 2565 01d9 EE010000 		.4byte	.LASF46
 2566 01dd FA00     		.sleb128 122
 2567 01df 0C       		.uleb128 0xc
 2568 01e0 A0020000 		.4byte	.LASF47
 2569 01e4 FB00     		.sleb128 123
 2570 01e6 0C       		.uleb128 0xc
 2571 01e7 2F090000 		.4byte	.LASF48
 2572 01eb 8C01     		.sleb128 140
 2573 01ed 0C       		.uleb128 0xc
 2574 01ee 13160000 		.4byte	.LASF49
 2575 01f2 8E01     		.sleb128 142
 2576 01f4 0C       		.uleb128 0xc
 2577 01f5 9A0B0000 		.4byte	.LASF50
 2578 01f9 9601     		.sleb128 150
 2579 01fb 00       		.byte	0
 2580 01fc 04       		.uleb128 0x4
 2581 01fd BE120000 		.4byte	.LASF51
ARM GAS  C:\Users\Kevin\AppData\Local\Temp\ccw18vSb.s 			page 61


 2582 0201 03       		.byte	0x3
 2583 0202 5E       		.byte	0x5e
 2584 0203 50010000 		.4byte	0x150
 2585 0207 0B       		.uleb128 0xb
 2586 0208 01       		.byte	0x1
 2587 0209 03       		.byte	0x3
 2588 020a 60       		.byte	0x60
 2589 020b 1C020000 		.4byte	0x21c
 2590 020f 0C       		.uleb128 0xc
 2591 0210 340B0000 		.4byte	.LASF52
 2592 0214 0A       		.sleb128 10
 2593 0215 0C       		.uleb128 0xc
 2594 0216 01010000 		.4byte	.LASF53
 2595 021a 14       		.sleb128 20
 2596 021b 00       		.byte	0
 2597 021c 04       		.uleb128 0x4
 2598 021d 6C010000 		.4byte	.LASF54
 2599 0221 03       		.byte	0x3
 2600 0222 63       		.byte	0x63
 2601 0223 07020000 		.4byte	0x207
 2602 0227 0B       		.uleb128 0xb
 2603 0228 01       		.byte	0x1
 2604 0229 03       		.byte	0x3
 2605 022a 6A       		.byte	0x6a
 2606 022b 7E020000 		.4byte	0x27e
 2607 022f 0C       		.uleb128 0xc
 2608 0230 B2090000 		.4byte	.LASF55
 2609 0234 00       		.sleb128 0
 2610 0235 0C       		.uleb128 0xc
 2611 0236 B80E0000 		.4byte	.LASF56
 2612 023a 32       		.sleb128 50
 2613 023b 0C       		.uleb128 0xc
 2614 023c 1B0F0000 		.4byte	.LASF57
 2615 0240 33       		.sleb128 51
 2616 0241 0C       		.uleb128 0xc
 2617 0242 89010000 		.4byte	.LASF58
 2618 0246 34       		.sleb128 52
 2619 0247 0C       		.uleb128 0xc
 2620 0248 1A090000 		.4byte	.LASF59
 2621 024c 35       		.sleb128 53
 2622 024d 0C       		.uleb128 0xc
 2623 024e 55130000 		.4byte	.LASF60
 2624 0252 3C       		.sleb128 60
 2625 0253 0C       		.uleb128 0xc
 2626 0254 96070000 		.4byte	.LASF61
 2627 0258 E400     		.sleb128 100
 2628 025a 0C       		.uleb128 0xc
 2629 025b 37160000 		.4byte	.LASF62
 2630 025f EE00     		.sleb128 110
 2631 0261 0C       		.uleb128 0xc
 2632 0262 760A0000 		.4byte	.LASF63
 2633 0266 F800     		.sleb128 120
 2634 0268 0C       		.uleb128 0xc
 2635 0269 87130000 		.4byte	.LASF64
 2636 026d A001     		.sleb128 160
 2637 026f 0C       		.uleb128 0xc
 2638 0270 780C0000 		.4byte	.LASF65
ARM GAS  C:\Users\Kevin\AppData\Local\Temp\ccw18vSb.s 			page 62


 2639 0274 A101     		.sleb128 161
 2640 0276 0C       		.uleb128 0xc
 2641 0277 840E0000 		.4byte	.LASF66
 2642 027b A201     		.sleb128 162
 2643 027d 00       		.byte	0
 2644 027e 04       		.uleb128 0x4
 2645 027f 8D020000 		.4byte	.LASF67
 2646 0283 03       		.byte	0x3
 2647 0284 77       		.byte	0x77
 2648 0285 27020000 		.4byte	0x227
 2649 0289 0B       		.uleb128 0xb
 2650 028a 01       		.byte	0x1
 2651 028b 03       		.byte	0x3
 2652 028c 81       		.byte	0x81
 2653 028d 9E020000 		.4byte	0x29e
 2654 0291 0C       		.uleb128 0xc
 2655 0292 21170000 		.4byte	.LASF68
 2656 0296 00       		.sleb128 0
 2657 0297 0C       		.uleb128 0xc
 2658 0298 A5140000 		.4byte	.LASF69
 2659 029c 01       		.sleb128 1
 2660 029d 00       		.byte	0
 2661 029e 04       		.uleb128 0x4
 2662 029f FC0F0000 		.4byte	.LASF70
 2663 02a3 03       		.byte	0x3
 2664 02a4 84       		.byte	0x84
 2665 02a5 89020000 		.4byte	0x289
 2666 02a9 0B       		.uleb128 0xb
 2667 02aa 01       		.byte	0x1
 2668 02ab 03       		.byte	0x3
 2669 02ac 86       		.byte	0x86
 2670 02ad BE020000 		.4byte	0x2be
 2671 02b1 0C       		.uleb128 0xc
 2672 02b2 EB0B0000 		.4byte	.LASF71
 2673 02b6 00       		.sleb128 0
 2674 02b7 0C       		.uleb128 0xc
 2675 02b8 8F120000 		.4byte	.LASF72
 2676 02bc 01       		.sleb128 1
 2677 02bd 00       		.byte	0
 2678 02be 04       		.uleb128 0x4
 2679 02bf 89110000 		.4byte	.LASF73
 2680 02c3 03       		.byte	0x3
 2681 02c4 89       		.byte	0x89
 2682 02c5 A9020000 		.4byte	0x2a9
 2683 02c9 0B       		.uleb128 0xb
 2684 02ca 01       		.byte	0x1
 2685 02cb 03       		.byte	0x3
 2686 02cc 8C       		.byte	0x8c
 2687 02cd DF020000 		.4byte	0x2df
 2688 02d1 0C       		.uleb128 0xc
 2689 02d2 86000000 		.4byte	.LASF74
 2690 02d6 FF01     		.sleb128 255
 2691 02d8 0C       		.uleb128 0xc
 2692 02d9 98100000 		.4byte	.LASF75
 2693 02dd 00       		.sleb128 0
 2694 02de 00       		.byte	0
 2695 02df 04       		.uleb128 0x4
ARM GAS  C:\Users\Kevin\AppData\Local\Temp\ccw18vSb.s 			page 63


 2696 02e0 82150000 		.4byte	.LASF76
 2697 02e4 03       		.byte	0x3
 2698 02e5 8F       		.byte	0x8f
 2699 02e6 C9020000 		.4byte	0x2c9
 2700 02ea 0B       		.uleb128 0xb
 2701 02eb 01       		.byte	0x1
 2702 02ec 03       		.byte	0x3
 2703 02ed 92       		.byte	0x92
 2704 02ee 05030000 		.4byte	0x305
 2705 02f2 0C       		.uleb128 0xc
 2706 02f3 37150000 		.4byte	.LASF77
 2707 02f7 00       		.sleb128 0
 2708 02f8 0C       		.uleb128 0xc
 2709 02f9 75030000 		.4byte	.LASF78
 2710 02fd 14       		.sleb128 20
 2711 02fe 0C       		.uleb128 0xc
 2712 02ff 4F150000 		.4byte	.LASF79
 2713 0303 28       		.sleb128 40
 2714 0304 00       		.byte	0
 2715 0305 04       		.uleb128 0x4
 2716 0306 6B0B0000 		.4byte	.LASF80
 2717 030a 03       		.byte	0x3
 2718 030b 96       		.byte	0x96
 2719 030c EA020000 		.4byte	0x2ea
 2720 0310 0B       		.uleb128 0xb
 2721 0311 01       		.byte	0x1
 2722 0312 03       		.byte	0x3
 2723 0313 BE       		.byte	0xbe
 2724 0314 26030000 		.4byte	0x326
 2725 0318 0C       		.uleb128 0xc
 2726 0319 7A060000 		.4byte	.LASF81
 2727 031d FF01     		.sleb128 255
 2728 031f 0C       		.uleb128 0xc
 2729 0320 F40A0000 		.4byte	.LASF82
 2730 0324 00       		.sleb128 0
 2731 0325 00       		.byte	0
 2732 0326 04       		.uleb128 0x4
 2733 0327 0F020000 		.4byte	.LASF83
 2734 032b 03       		.byte	0x3
 2735 032c C1       		.byte	0xc1
 2736 032d 10030000 		.4byte	0x310
 2737 0331 0B       		.uleb128 0xb
 2738 0332 01       		.byte	0x1
 2739 0333 03       		.byte	0x3
 2740 0334 C3       		.byte	0xc3
 2741 0335 83030000 		.4byte	0x383
 2742 0339 0C       		.uleb128 0xc
 2743 033a FD0D0000 		.4byte	.LASF84
 2744 033e 00       		.sleb128 0
 2745 033f 0C       		.uleb128 0xc
 2746 0340 50160000 		.4byte	.LASF85
 2747 0344 01       		.sleb128 1
 2748 0345 0C       		.uleb128 0xc
 2749 0346 39050000 		.4byte	.LASF86
 2750 034a 02       		.sleb128 2
 2751 034b 0C       		.uleb128 0xc
 2752 034c 460A0000 		.4byte	.LASF87
ARM GAS  C:\Users\Kevin\AppData\Local\Temp\ccw18vSb.s 			page 64


 2753 0350 03       		.sleb128 3
 2754 0351 0C       		.uleb128 0xc
 2755 0352 CB0C0000 		.4byte	.LASF88
 2756 0356 04       		.sleb128 4
 2757 0357 0C       		.uleb128 0xc
 2758 0358 0D0E0000 		.4byte	.LASF89
 2759 035c 05       		.sleb128 5
 2760 035d 0C       		.uleb128 0xc
 2761 035e 95140000 		.4byte	.LASF90
 2762 0362 06       		.sleb128 6
 2763 0363 0C       		.uleb128 0xc
 2764 0364 E3140000 		.4byte	.LASF91
 2765 0368 07       		.sleb128 7
 2766 0369 0C       		.uleb128 0xc
 2767 036a E4070000 		.4byte	.LASF92
 2768 036e 08       		.sleb128 8
 2769 036f 0C       		.uleb128 0xc
 2770 0370 E9110000 		.4byte	.LASF93
 2771 0374 09       		.sleb128 9
 2772 0375 0C       		.uleb128 0xc
 2773 0376 50040000 		.4byte	.LASF94
 2774 037a 0A       		.sleb128 10
 2775 037b 0C       		.uleb128 0xc
 2776 037c E0080000 		.4byte	.LASF95
 2777 0380 FF01     		.sleb128 255
 2778 0382 00       		.byte	0
 2779 0383 04       		.uleb128 0x4
 2780 0384 F0030000 		.4byte	.LASF96
 2781 0388 03       		.byte	0x3
 2782 0389 D0       		.byte	0xd0
 2783 038a 31030000 		.4byte	0x331
 2784 038e 0B       		.uleb128 0xb
 2785 038f 01       		.byte	0x1
 2786 0390 03       		.byte	0x3
 2787 0391 E1       		.byte	0xe1
 2788 0392 A3030000 		.4byte	0x3a3
 2789 0396 0C       		.uleb128 0xc
 2790 0397 FD030000 		.4byte	.LASF97
 2791 039b 00       		.sleb128 0
 2792 039c 0C       		.uleb128 0xc
 2793 039d 72150000 		.4byte	.LASF98
 2794 03a1 01       		.sleb128 1
 2795 03a2 00       		.byte	0
 2796 03a3 04       		.uleb128 0x4
 2797 03a4 61160000 		.4byte	.LASF99
 2798 03a8 03       		.byte	0x3
 2799 03a9 E4       		.byte	0xe4
 2800 03aa 8E030000 		.4byte	0x38e
 2801 03ae 0D       		.uleb128 0xd
 2802 03af 0C       		.byte	0xc
 2803 03b0 03       		.byte	0x3
 2804 03b1 E6       		.byte	0xe6
 2805 03b2 43040000 		.4byte	0x443
 2806 03b6 0E       		.uleb128 0xe
 2807 03b7 BA160000 		.4byte	.LASF100
 2808 03bb 03       		.byte	0x3
 2809 03bc E7       		.byte	0xe7
ARM GAS  C:\Users\Kevin\AppData\Local\Temp\ccw18vSb.s 			page 65


 2810 03bd 5E000000 		.4byte	0x5e
 2811 03c1 02       		.byte	0x2
 2812 03c2 23       		.byte	0x23
 2813 03c3 00       		.uleb128 0
 2814 03c4 0E       		.uleb128 0xe
 2815 03c5 890B0000 		.4byte	.LASF101
 2816 03c9 03       		.byte	0x3
 2817 03ca E8       		.byte	0xe8
 2818 03cb 3A000000 		.4byte	0x3a
 2819 03cf 02       		.byte	0x2
 2820 03d0 23       		.byte	0x23
 2821 03d1 02       		.uleb128 0x2
 2822 03d2 0E       		.uleb128 0xe
 2823 03d3 AD100000 		.4byte	.LASF102
 2824 03d7 03       		.byte	0x3
 2825 03d8 E9       		.byte	0xe9
 2826 03d9 45010000 		.4byte	0x145
 2827 03dd 02       		.byte	0x2
 2828 03de 23       		.byte	0x23
 2829 03df 03       		.uleb128 0x3
 2830 03e0 0E       		.uleb128 0xe
 2831 03e1 C5030000 		.4byte	.LASF103
 2832 03e5 03       		.byte	0x3
 2833 03e6 EA       		.byte	0xea
 2834 03e7 FC010000 		.4byte	0x1fc
 2835 03eb 02       		.byte	0x2
 2836 03ec 23       		.byte	0x23
 2837 03ed 04       		.uleb128 0x4
 2838 03ee 0E       		.uleb128 0xe
 2839 03ef 13050000 		.4byte	.LASF104
 2840 03f3 03       		.byte	0x3
 2841 03f4 EB       		.byte	0xeb
 2842 03f5 7E020000 		.4byte	0x27e
 2843 03f9 02       		.byte	0x2
 2844 03fa 23       		.byte	0x23
 2845 03fb 05       		.uleb128 0x5
 2846 03fc 0E       		.uleb128 0xe
 2847 03fd 0C0C0000 		.4byte	.LASF105
 2848 0401 03       		.byte	0x3
 2849 0402 EC       		.byte	0xec
 2850 0403 DF020000 		.4byte	0x2df
 2851 0407 02       		.byte	0x2
 2852 0408 23       		.byte	0x23
 2853 0409 06       		.uleb128 0x6
 2854 040a 0E       		.uleb128 0xe
 2855 040b E2030000 		.4byte	.LASF106
 2856 040f 03       		.byte	0x3
 2857 0410 ED       		.byte	0xed
 2858 0411 05030000 		.4byte	0x305
 2859 0415 02       		.byte	0x2
 2860 0416 23       		.byte	0x23
 2861 0417 07       		.uleb128 0x7
 2862 0418 0E       		.uleb128 0xe
 2863 0419 25080000 		.4byte	.LASF107
 2864 041d 03       		.byte	0x3
 2865 041e EE       		.byte	0xee
 2866 041f 26030000 		.4byte	0x326
ARM GAS  C:\Users\Kevin\AppData\Local\Temp\ccw18vSb.s 			page 66


 2867 0423 02       		.byte	0x2
 2868 0424 23       		.byte	0x23
 2869 0425 08       		.uleb128 0x8
 2870 0426 0E       		.uleb128 0xe
 2871 0427 3C070000 		.4byte	.LASF108
 2872 042b 03       		.byte	0x3
 2873 042c EF       		.byte	0xef
 2874 042d 1C020000 		.4byte	0x21c
 2875 0431 02       		.byte	0x2
 2876 0432 23       		.byte	0x23
 2877 0433 09       		.uleb128 0x9
 2878 0434 0E       		.uleb128 0xe
 2879 0435 C2000000 		.4byte	.LASF109
 2880 0439 03       		.byte	0x3
 2881 043a F0       		.byte	0xf0
 2882 043b A3030000 		.4byte	0x3a3
 2883 043f 02       		.byte	0x2
 2884 0440 23       		.byte	0x23
 2885 0441 0A       		.uleb128 0xa
 2886 0442 00       		.byte	0
 2887 0443 04       		.uleb128 0x4
 2888 0444 720D0000 		.4byte	.LASF110
 2889 0448 03       		.byte	0x3
 2890 0449 F2       		.byte	0xf2
 2891 044a AE030000 		.4byte	0x3ae
 2892 044e 0F       		.uleb128 0xf
 2893 044f 08       		.byte	0x8
 2894 0450 03       		.byte	0x3
 2895 0451 0801     		.2byte	0x108
 2896 0453 94040000 		.4byte	0x494
 2897 0457 10       		.uleb128 0x10
 2898 0458 A2160000 		.4byte	.LASF111
 2899 045c 03       		.byte	0x3
 2900 045d 0901     		.2byte	0x109
 2901 045f 4C000000 		.4byte	0x4c
 2902 0463 02       		.byte	0x2
 2903 0464 23       		.byte	0x23
 2904 0465 00       		.uleb128 0
 2905 0466 10       		.uleb128 0x10
 2906 0467 7D020000 		.4byte	.LASF112
 2907 046b 03       		.byte	0x3
 2908 046c 0A01     		.2byte	0x10a
 2909 046e 4C000000 		.4byte	0x4c
 2910 0472 02       		.byte	0x2
 2911 0473 23       		.byte	0x23
 2912 0474 02       		.uleb128 0x2
 2913 0475 10       		.uleb128 0x10
 2914 0476 6F0E0000 		.4byte	.LASF113
 2915 047a 03       		.byte	0x3
 2916 047b 0B01     		.2byte	0x10b
 2917 047d 5E000000 		.4byte	0x5e
 2918 0481 02       		.byte	0x2
 2919 0482 23       		.byte	0x23
 2920 0483 04       		.uleb128 0x4
 2921 0484 10       		.uleb128 0x10
 2922 0485 C40B0000 		.4byte	.LASF114
 2923 0489 03       		.byte	0x3
ARM GAS  C:\Users\Kevin\AppData\Local\Temp\ccw18vSb.s 			page 67


 2924 048a 0C01     		.2byte	0x10c
 2925 048c 4C000000 		.4byte	0x4c
 2926 0490 02       		.byte	0x2
 2927 0491 23       		.byte	0x23
 2928 0492 06       		.uleb128 0x6
 2929 0493 00       		.byte	0
 2930 0494 11       		.uleb128 0x11
 2931 0495 6A130000 		.4byte	.LASF115
 2932 0499 03       		.byte	0x3
 2933 049a 0E01     		.2byte	0x10e
 2934 049c 4E040000 		.4byte	0x44e
 2935 04a0 0F       		.uleb128 0xf
 2936 04a1 60       		.byte	0x60
 2937 04a2 03       		.byte	0x3
 2938 04a3 2901     		.2byte	0x129
 2939 04a5 12060000 		.4byte	0x612
 2940 04a9 10       		.uleb128 0x10
 2941 04aa A2160000 		.4byte	.LASF111
 2942 04ae 03       		.byte	0x3
 2943 04af 2A01     		.2byte	0x12a
 2944 04b1 25000000 		.4byte	0x25
 2945 04b5 02       		.byte	0x2
 2946 04b6 23       		.byte	0x23
 2947 04b7 00       		.uleb128 0
 2948 04b8 10       		.uleb128 0x10
 2949 04b9 7D020000 		.4byte	.LASF112
 2950 04bd 03       		.byte	0x3
 2951 04be 2C01     		.2byte	0x12c
 2952 04c0 25000000 		.4byte	0x25
 2953 04c4 02       		.byte	0x2
 2954 04c5 23       		.byte	0x23
 2955 04c6 04       		.uleb128 0x4
 2956 04c7 10       		.uleb128 0x10
 2957 04c8 6F0E0000 		.4byte	.LASF113
 2958 04cc 03       		.byte	0x3
 2959 04cd 2E01     		.2byte	0x12e
 2960 04cf 25000000 		.4byte	0x25
 2961 04d3 02       		.byte	0x2
 2962 04d4 23       		.byte	0x23
 2963 04d5 08       		.uleb128 0x8
 2964 04d6 10       		.uleb128 0x10
 2965 04d7 C40B0000 		.4byte	.LASF114
 2966 04db 03       		.byte	0x3
 2967 04dc 3001     		.2byte	0x130
 2968 04de 25000000 		.4byte	0x25
 2969 04e2 02       		.byte	0x2
 2970 04e3 23       		.byte	0x23
 2971 04e4 0C       		.uleb128 0xc
 2972 04e5 10       		.uleb128 0x10
 2973 04e6 BF140000 		.4byte	.LASF116
 2974 04ea 03       		.byte	0x3
 2975 04eb 3201     		.2byte	0x132
 2976 04ed 25000000 		.4byte	0x25
 2977 04f1 02       		.byte	0x2
 2978 04f2 23       		.byte	0x23
 2979 04f3 10       		.uleb128 0x10
 2980 04f4 10       		.uleb128 0x10
ARM GAS  C:\Users\Kevin\AppData\Local\Temp\ccw18vSb.s 			page 68


 2981 04f5 21060000 		.4byte	.LASF117
 2982 04f9 03       		.byte	0x3
 2983 04fa 3401     		.2byte	0x134
 2984 04fc 25000000 		.4byte	0x25
 2985 0500 02       		.byte	0x2
 2986 0501 23       		.byte	0x23
 2987 0502 14       		.uleb128 0x14
 2988 0503 10       		.uleb128 0x10
 2989 0504 F70B0000 		.4byte	.LASF118
 2990 0508 03       		.byte	0x3
 2991 0509 3501     		.2byte	0x135
 2992 050b 25000000 		.4byte	0x25
 2993 050f 02       		.byte	0x2
 2994 0510 23       		.byte	0x23
 2995 0511 18       		.uleb128 0x18
 2996 0512 10       		.uleb128 0x10
 2997 0513 4F000000 		.4byte	.LASF119
 2998 0517 03       		.byte	0x3
 2999 0518 3601     		.2byte	0x136
 3000 051a 25000000 		.4byte	0x25
 3001 051e 02       		.byte	0x2
 3002 051f 23       		.byte	0x23
 3003 0520 1C       		.uleb128 0x1c
 3004 0521 10       		.uleb128 0x10
 3005 0522 48020000 		.4byte	.LASF120
 3006 0526 03       		.byte	0x3
 3007 0527 3701     		.2byte	0x137
 3008 0529 25000000 		.4byte	0x25
 3009 052d 02       		.byte	0x2
 3010 052e 23       		.byte	0x23
 3011 052f 20       		.uleb128 0x20
 3012 0530 10       		.uleb128 0x10
 3013 0531 BC0F0000 		.4byte	.LASF121
 3014 0535 03       		.byte	0x3
 3015 0536 3901     		.2byte	0x139
 3016 0538 25000000 		.4byte	0x25
 3017 053c 02       		.byte	0x2
 3018 053d 23       		.byte	0x23
 3019 053e 24       		.uleb128 0x24
 3020 053f 10       		.uleb128 0x10
 3021 0540 8F0D0000 		.4byte	.LASF122
 3022 0544 03       		.byte	0x3
 3023 0545 3A01     		.2byte	0x13a
 3024 0547 25000000 		.4byte	0x25
 3025 054b 02       		.byte	0x2
 3026 054c 23       		.byte	0x23
 3027 054d 28       		.uleb128 0x28
 3028 054e 10       		.uleb128 0x10
 3029 054f D7080000 		.4byte	.LASF123
 3030 0553 03       		.byte	0x3
 3031 0554 3C01     		.2byte	0x13c
 3032 0556 25000000 		.4byte	0x25
 3033 055a 02       		.byte	0x2
 3034 055b 23       		.byte	0x23
 3035 055c 2C       		.uleb128 0x2c
 3036 055d 10       		.uleb128 0x10
 3037 055e 87050000 		.4byte	.LASF124
ARM GAS  C:\Users\Kevin\AppData\Local\Temp\ccw18vSb.s 			page 69


 3038 0562 03       		.byte	0x3
 3039 0563 3E01     		.2byte	0x13e
 3040 0565 25000000 		.4byte	0x25
 3041 0569 02       		.byte	0x2
 3042 056a 23       		.byte	0x23
 3043 056b 30       		.uleb128 0x30
 3044 056c 10       		.uleb128 0x10
 3045 056d DB000000 		.4byte	.LASF125
 3046 0571 03       		.byte	0x3
 3047 0572 3F01     		.2byte	0x13f
 3048 0574 25000000 		.4byte	0x25
 3049 0578 02       		.byte	0x2
 3050 0579 23       		.byte	0x23
 3051 057a 34       		.uleb128 0x34
 3052 057b 10       		.uleb128 0x10
 3053 057c 1E010000 		.4byte	.LASF126
 3054 0580 03       		.byte	0x3
 3055 0581 4001     		.2byte	0x140
 3056 0583 25000000 		.4byte	0x25
 3057 0587 02       		.byte	0x2
 3058 0588 23       		.byte	0x23
 3059 0589 38       		.uleb128 0x38
 3060 058a 10       		.uleb128 0x10
 3061 058b A90E0000 		.4byte	.LASF127
 3062 058f 03       		.byte	0x3
 3063 0590 4101     		.2byte	0x141
 3064 0592 25000000 		.4byte	0x25
 3065 0596 02       		.byte	0x2
 3066 0597 23       		.byte	0x23
 3067 0598 3C       		.uleb128 0x3c
 3068 0599 10       		.uleb128 0x10
 3069 059a 580E0000 		.4byte	.LASF128
 3070 059e 03       		.byte	0x3
 3071 059f 4301     		.2byte	0x143
 3072 05a1 25000000 		.4byte	0x25
 3073 05a5 02       		.byte	0x2
 3074 05a6 23       		.byte	0x23
 3075 05a7 40       		.uleb128 0x40
 3076 05a8 10       		.uleb128 0x10
 3077 05a9 7A010000 		.4byte	.LASF129
 3078 05ad 03       		.byte	0x3
 3079 05ae 4401     		.2byte	0x144
 3080 05b0 25000000 		.4byte	0x25
 3081 05b4 02       		.byte	0x2
 3082 05b5 23       		.byte	0x23
 3083 05b6 44       		.uleb128 0x44
 3084 05b7 10       		.uleb128 0x10
 3085 05b8 A8160000 		.4byte	.LASF130
 3086 05bc 03       		.byte	0x3
 3087 05bd 4501     		.2byte	0x145
 3088 05bf 25000000 		.4byte	0x25
 3089 05c3 02       		.byte	0x2
 3090 05c4 23       		.byte	0x23
 3091 05c5 48       		.uleb128 0x48
 3092 05c6 10       		.uleb128 0x10
 3093 05c7 00050000 		.4byte	.LASF131
 3094 05cb 03       		.byte	0x3
ARM GAS  C:\Users\Kevin\AppData\Local\Temp\ccw18vSb.s 			page 70


 3095 05cc 4601     		.2byte	0x146
 3096 05ce 25000000 		.4byte	0x25
 3097 05d2 02       		.byte	0x2
 3098 05d3 23       		.byte	0x23
 3099 05d4 4C       		.uleb128 0x4c
 3100 05d5 10       		.uleb128 0x10
 3101 05d6 F30D0000 		.4byte	.LASF132
 3102 05da 03       		.byte	0x3
 3103 05db 4801     		.2byte	0x148
 3104 05dd 25000000 		.4byte	0x25
 3105 05e1 02       		.byte	0x2
 3106 05e2 23       		.byte	0x23
 3107 05e3 50       		.uleb128 0x50
 3108 05e4 10       		.uleb128 0x10
 3109 05e5 A1000000 		.4byte	.LASF133
 3110 05e9 03       		.byte	0x3
 3111 05ea 4901     		.2byte	0x149
 3112 05ec 25000000 		.4byte	0x25
 3113 05f0 02       		.byte	0x2
 3114 05f1 23       		.byte	0x23
 3115 05f2 54       		.uleb128 0x54
 3116 05f3 10       		.uleb128 0x10
 3117 05f4 D80A0000 		.4byte	.LASF134
 3118 05f8 03       		.byte	0x3
 3119 05f9 4A01     		.2byte	0x14a
 3120 05fb 25000000 		.4byte	0x25
 3121 05ff 02       		.byte	0x2
 3122 0600 23       		.byte	0x23
 3123 0601 58       		.uleb128 0x58
 3124 0602 10       		.uleb128 0x10
 3125 0603 C2020000 		.4byte	.LASF135
 3126 0607 03       		.byte	0x3
 3127 0608 4B01     		.2byte	0x14b
 3128 060a 25000000 		.4byte	0x25
 3129 060e 02       		.byte	0x2
 3130 060f 23       		.byte	0x23
 3131 0610 5C       		.uleb128 0x5c
 3132 0611 00       		.byte	0
 3133 0612 11       		.uleb128 0x11
 3134 0613 EE120000 		.4byte	.LASF136
 3135 0617 03       		.byte	0x3
 3136 0618 4C01     		.2byte	0x14c
 3137 061a A0040000 		.4byte	0x4a0
 3138 061e 12       		.uleb128 0x12
 3139 061f 01       		.byte	0x1
 3140 0620 03       		.byte	0x3
 3141 0621 CB01     		.2byte	0x1cb
 3142 0623 AD060000 		.4byte	0x6ad
 3143 0627 0C       		.uleb128 0xc
 3144 0628 1D130000 		.4byte	.LASF137
 3145 062c 00       		.sleb128 0
 3146 062d 0C       		.uleb128 0xc
 3147 062e 1E0B0000 		.4byte	.LASF138
 3148 0632 20       		.sleb128 32
 3149 0633 0C       		.uleb128 0xc
 3150 0634 3C020000 		.4byte	.LASF139
 3151 0638 21       		.sleb128 33
ARM GAS  C:\Users\Kevin\AppData\Local\Temp\ccw18vSb.s 			page 71


 3152 0639 0C       		.uleb128 0xc
 3153 063a 050F0000 		.4byte	.LASF140
 3154 063e 22       		.sleb128 34
 3155 063f 0C       		.uleb128 0xc
 3156 0640 B4120000 		.4byte	.LASF141
 3157 0644 30       		.sleb128 48
 3158 0645 0C       		.uleb128 0xc
 3159 0646 8B070000 		.4byte	.LASF142
 3160 064a 31       		.sleb128 49
 3161 064b 0C       		.uleb128 0xc
 3162 064c E3010000 		.4byte	.LASF143
 3163 0650 32       		.sleb128 50
 3164 0651 0C       		.uleb128 0xc
 3165 0652 3E0D0000 		.4byte	.LASF144
 3166 0656 C000     		.sleb128 64
 3167 0658 0C       		.uleb128 0xc
 3168 0659 CF030000 		.4byte	.LASF145
 3169 065d C100     		.sleb128 65
 3170 065f 0C       		.uleb128 0xc
 3171 0660 6E050000 		.4byte	.LASF146
 3172 0664 C200     		.sleb128 66
 3173 0666 0C       		.uleb128 0xc
 3174 0667 BB070000 		.4byte	.LASF147
 3175 066b D000     		.sleb128 80
 3176 066d 0C       		.uleb128 0xc
 3177 066e 59120000 		.4byte	.LASF148
 3178 0672 D100     		.sleb128 81
 3179 0674 0C       		.uleb128 0xc
 3180 0675 60000000 		.4byte	.LASF149
 3181 0679 D200     		.sleb128 82
 3182 067b 0C       		.uleb128 0xc
 3183 067c 2A0B0000 		.4byte	.LASF150
 3184 0680 D300     		.sleb128 83
 3185 0682 0C       		.uleb128 0xc
 3186 0683 E30B0000 		.4byte	.LASF151
 3187 0687 E000     		.sleb128 96
 3188 0689 0C       		.uleb128 0xc
 3189 068a 3E130000 		.4byte	.LASF152
 3190 068e F000     		.sleb128 112
 3191 0690 0C       		.uleb128 0xc
 3192 0691 AA000000 		.4byte	.LASF153
 3193 0695 8001     		.sleb128 128
 3194 0697 0C       		.uleb128 0xc
 3195 0698 350A0000 		.4byte	.LASF154
 3196 069c 8101     		.sleb128 129
 3197 069e 0C       		.uleb128 0xc
 3198 069f 34000000 		.4byte	.LASF155
 3199 06a3 9001     		.sleb128 144
 3200 06a5 0C       		.uleb128 0xc
 3201 06a6 67000000 		.4byte	.LASF156
 3202 06aa A001     		.sleb128 160
 3203 06ac 00       		.byte	0
 3204 06ad 11       		.uleb128 0x11
 3205 06ae 93160000 		.4byte	.LASF157
 3206 06b2 03       		.byte	0x3
 3207 06b3 E801     		.2byte	0x1e8
 3208 06b5 1E060000 		.4byte	0x61e
ARM GAS  C:\Users\Kevin\AppData\Local\Temp\ccw18vSb.s 			page 72


 3209 06b9 12       		.uleb128 0x12
 3210 06ba 01       		.byte	0x1
 3211 06bb 03       		.byte	0x3
 3212 06bc 0402     		.2byte	0x204
 3213 06be 35070000 		.4byte	0x735
 3214 06c2 0C       		.uleb128 0xc
 3215 06c3 E7130000 		.4byte	.LASF158
 3216 06c7 00       		.sleb128 0
 3217 06c8 0C       		.uleb128 0xc
 3218 06c9 36110000 		.4byte	.LASF159
 3219 06cd 01       		.sleb128 1
 3220 06ce 0C       		.uleb128 0xc
 3221 06cf 6C020000 		.4byte	.LASF160
 3222 06d3 02       		.sleb128 2
 3223 06d4 0C       		.uleb128 0xc
 3224 06d5 F0090000 		.4byte	.LASF161
 3225 06d9 03       		.sleb128 3
 3226 06da 0C       		.uleb128 0xc
 3227 06db C8140000 		.4byte	.LASF162
 3228 06df 04       		.sleb128 4
 3229 06e0 0C       		.uleb128 0xc
 3230 06e1 B4050000 		.4byte	.LASF163
 3231 06e5 05       		.sleb128 5
 3232 06e6 0C       		.uleb128 0xc
 3233 06e7 550D0000 		.4byte	.LASF164
 3234 06eb 06       		.sleb128 6
 3235 06ec 0C       		.uleb128 0xc
 3236 06ed E2150000 		.4byte	.LASF165
 3237 06f1 07       		.sleb128 7
 3238 06f2 0C       		.uleb128 0xc
 3239 06f3 1D070000 		.4byte	.LASF166
 3240 06f7 08       		.sleb128 8
 3241 06f8 0C       		.uleb128 0xc
 3242 06f9 B30B0000 		.4byte	.LASF167
 3243 06fd 09       		.sleb128 9
 3244 06fe 0C       		.uleb128 0xc
 3245 06ff 420E0000 		.4byte	.LASF168
 3246 0703 0A       		.sleb128 10
 3247 0704 0C       		.uleb128 0xc
 3248 0705 71000000 		.4byte	.LASF169
 3249 0709 0B       		.sleb128 11
 3250 070a 0C       		.uleb128 0xc
 3251 070b D5060000 		.4byte	.LASF170
 3252 070f 0C       		.sleb128 12
 3253 0710 0C       		.uleb128 0xc
 3254 0711 77130000 		.4byte	.LASF171
 3255 0715 0D       		.sleb128 13
 3256 0716 0C       		.uleb128 0xc
 3257 0717 1C100000 		.4byte	.LASF172
 3258 071b 0E       		.sleb128 14
 3259 071c 0C       		.uleb128 0xc
 3260 071d 9D100000 		.4byte	.LASF173
 3261 0721 0F       		.sleb128 15
 3262 0722 0C       		.uleb128 0xc
 3263 0723 04030000 		.4byte	.LASF174
 3264 0727 10       		.sleb128 16
 3265 0728 0C       		.uleb128 0xc
ARM GAS  C:\Users\Kevin\AppData\Local\Temp\ccw18vSb.s 			page 73


 3266 0729 BB150000 		.4byte	.LASF175
 3267 072d 11       		.sleb128 17
 3268 072e 0C       		.uleb128 0xc
 3269 072f D30B0000 		.4byte	.LASF176
 3270 0733 12       		.sleb128 18
 3271 0734 00       		.byte	0
 3272 0735 11       		.uleb128 0x11
 3273 0736 84030000 		.4byte	.LASF177
 3274 073a 03       		.byte	0x3
 3275 073b 1802     		.2byte	0x218
 3276 073d B9060000 		.4byte	0x6b9
 3277 0741 12       		.uleb128 0x12
 3278 0742 01       		.byte	0x1
 3279 0743 03       		.byte	0x3
 3280 0744 1B02     		.2byte	0x21b
 3281 0746 CF070000 		.4byte	0x7cf
 3282 074a 0C       		.uleb128 0xc
 3283 074b D5130000 		.4byte	.LASF178
 3284 074f 00       		.sleb128 0
 3285 0750 0C       		.uleb128 0xc
 3286 0751 D2050000 		.4byte	.LASF179
 3287 0755 01       		.sleb128 1
 3288 0756 0C       		.uleb128 0xc
 3289 0757 5B170000 		.4byte	.LASF180
 3290 075b 02       		.sleb128 2
 3291 075c 0C       		.uleb128 0xc
 3292 075d 47110000 		.4byte	.LASF181
 3293 0761 03       		.sleb128 3
 3294 0762 0C       		.uleb128 0xc
 3295 0763 98080000 		.4byte	.LASF182
 3296 0767 04       		.sleb128 4
 3297 0768 0C       		.uleb128 0xc
 3298 0769 58070000 		.4byte	.LASF183
 3299 076d 10       		.sleb128 16
 3300 076e 0C       		.uleb128 0xc
 3301 076f AB0C0000 		.4byte	.LASF184
 3302 0773 20       		.sleb128 32
 3303 0774 0C       		.uleb128 0xc
 3304 0775 2C100000 		.4byte	.LASF185
 3305 0779 30       		.sleb128 48
 3306 077a 0C       		.uleb128 0xc
 3307 077b 4A100000 		.4byte	.LASF186
 3308 077f C000     		.sleb128 64
 3309 0781 0C       		.uleb128 0xc
 3310 0782 B7130000 		.4byte	.LASF187
 3311 0786 D000     		.sleb128 80
 3312 0788 0C       		.uleb128 0xc
 3313 0789 DA100000 		.4byte	.LASF188
 3314 078d E000     		.sleb128 96
 3315 078f 0C       		.uleb128 0xc
 3316 0790 05110000 		.4byte	.LASF189
 3317 0794 F000     		.sleb128 112
 3318 0796 0C       		.uleb128 0xc
 3319 0797 93150000 		.4byte	.LASF190
 3320 079b 8001     		.sleb128 128
 3321 079d 0C       		.uleb128 0xc
 3322 079e 3C170000 		.4byte	.LASF191
ARM GAS  C:\Users\Kevin\AppData\Local\Temp\ccw18vSb.s 			page 74


 3323 07a2 9001     		.sleb128 144
 3324 07a4 0C       		.uleb128 0xc
 3325 07a5 4D010000 		.4byte	.LASF192
 3326 07a9 A001     		.sleb128 160
 3327 07ab 0C       		.uleb128 0xc
 3328 07ac 14030000 		.4byte	.LASF193
 3329 07b0 B001     		.sleb128 176
 3330 07b2 0C       		.uleb128 0xc
 3331 07b3 5F040000 		.4byte	.LASF194
 3332 07b7 C001     		.sleb128 192
 3333 07b9 0C       		.uleb128 0xc
 3334 07ba 11120000 		.4byte	.LASF195
 3335 07be D001     		.sleb128 208
 3336 07c0 0C       		.uleb128 0xc
 3337 07c1 C5070000 		.4byte	.LASF196
 3338 07c5 E001     		.sleb128 224
 3339 07c7 0C       		.uleb128 0xc
 3340 07c8 FB080000 		.4byte	.LASF197
 3341 07cc F001     		.sleb128 240
 3342 07ce 00       		.byte	0
 3343 07cf 11       		.uleb128 0x11
 3344 07d0 F8110000 		.4byte	.LASF198
 3345 07d4 03       		.byte	0x3
 3346 07d5 3002     		.2byte	0x230
 3347 07d7 41070000 		.4byte	0x741
 3348 07db 12       		.uleb128 0x12
 3349 07dc 01       		.byte	0x1
 3350 07dd 03       		.byte	0x3
 3351 07de 3202     		.2byte	0x232
 3352 07e0 F2070000 		.4byte	0x7f2
 3353 07e4 0C       		.uleb128 0xc
 3354 07e5 28130000 		.4byte	.LASF199
 3355 07e9 FF01     		.sleb128 255
 3356 07eb 0C       		.uleb128 0xc
 3357 07ec EC0E0000 		.4byte	.LASF200
 3358 07f0 00       		.sleb128 0
 3359 07f1 00       		.byte	0
 3360 07f2 11       		.uleb128 0x11
 3361 07f3 53140000 		.4byte	.LASF201
 3362 07f7 03       		.byte	0x3
 3363 07f8 3502     		.2byte	0x235
 3364 07fa DB070000 		.4byte	0x7db
 3365 07fe 0F       		.uleb128 0xf
 3366 07ff 16       		.byte	0x16
 3367 0800 03       		.byte	0x3
 3368 0801 9B02     		.2byte	0x29b
 3369 0803 52090000 		.4byte	0x952
 3370 0807 10       		.uleb128 0x10
 3371 0808 28130000 		.4byte	.LASF199
 3372 080c 03       		.byte	0x3
 3373 080d 9C02     		.2byte	0x29c
 3374 080f F2070000 		.4byte	0x7f2
 3375 0813 02       		.byte	0x2
 3376 0814 23       		.byte	0x23
 3377 0815 00       		.uleb128 0
 3378 0816 10       		.uleb128 0x10
 3379 0817 6B0A0000 		.4byte	.LASF202
ARM GAS  C:\Users\Kevin\AppData\Local\Temp\ccw18vSb.s 			page 75


 3380 081b 03       		.byte	0x3
 3381 081c 9D02     		.2byte	0x29d
 3382 081e 83030000 		.4byte	0x383
 3383 0822 02       		.byte	0x2
 3384 0823 23       		.byte	0x23
 3385 0824 01       		.uleb128 0x1
 3386 0825 10       		.uleb128 0x10
 3387 0826 75050000 		.4byte	.LASF203
 3388 082a 03       		.byte	0x3
 3389 082b 9F02     		.2byte	0x29f
 3390 082d CF070000 		.4byte	0x7cf
 3391 0831 02       		.byte	0x2
 3392 0832 23       		.byte	0x23
 3393 0833 02       		.uleb128 0x2
 3394 0834 10       		.uleb128 0x10
 3395 0835 14080000 		.4byte	.LASF204
 3396 0839 03       		.byte	0x3
 3397 083a A002     		.2byte	0x2a0
 3398 083c CF070000 		.4byte	0x7cf
 3399 0840 02       		.byte	0x2
 3400 0841 23       		.byte	0x23
 3401 0842 03       		.uleb128 0x3
 3402 0843 10       		.uleb128 0x10
 3403 0844 F4070000 		.4byte	.LASF205
 3404 0848 03       		.byte	0x3
 3405 0849 A102     		.2byte	0x2a1
 3406 084b CF070000 		.4byte	0x7cf
 3407 084f 02       		.byte	0x2
 3408 0850 23       		.byte	0x23
 3409 0851 04       		.uleb128 0x4
 3410 0852 10       		.uleb128 0x10
 3411 0853 CD120000 		.4byte	.LASF206
 3412 0857 03       		.byte	0x3
 3413 0858 A202     		.2byte	0x2a2
 3414 085a CF070000 		.4byte	0x7cf
 3415 085e 02       		.byte	0x2
 3416 085f 23       		.byte	0x23
 3417 0860 05       		.uleb128 0x5
 3418 0861 10       		.uleb128 0x10
 3419 0862 79070000 		.4byte	.LASF207
 3420 0866 03       		.byte	0x3
 3421 0867 A402     		.2byte	0x2a4
 3422 0869 35070000 		.4byte	0x735
 3423 086d 02       		.byte	0x2
 3424 086e 23       		.byte	0x23
 3425 086f 06       		.uleb128 0x6
 3426 0870 10       		.uleb128 0x10
 3427 0871 2B170000 		.4byte	.LASF208
 3428 0875 03       		.byte	0x3
 3429 0876 A502     		.2byte	0x2a5
 3430 0878 35070000 		.4byte	0x735
 3431 087c 02       		.byte	0x2
 3432 087d 23       		.byte	0x23
 3433 087e 07       		.uleb128 0x7
 3434 087f 10       		.uleb128 0x10
 3435 0880 DB040000 		.4byte	.LASF209
 3436 0884 03       		.byte	0x3
ARM GAS  C:\Users\Kevin\AppData\Local\Temp\ccw18vSb.s 			page 76


 3437 0885 A602     		.2byte	0x2a6
 3438 0887 35070000 		.4byte	0x735
 3439 088b 02       		.byte	0x2
 3440 088c 23       		.byte	0x23
 3441 088d 08       		.uleb128 0x8
 3442 088e 10       		.uleb128 0x10
 3443 088f C40D0000 		.4byte	.LASF210
 3444 0893 03       		.byte	0x3
 3445 0894 A702     		.2byte	0x2a7
 3446 0896 35070000 		.4byte	0x735
 3447 089a 02       		.byte	0x2
 3448 089b 23       		.byte	0x23
 3449 089c 09       		.uleb128 0x9
 3450 089d 10       		.uleb128 0x10
 3451 089e 8B100000 		.4byte	.LASF211
 3452 08a2 03       		.byte	0x3
 3453 08a3 A902     		.2byte	0x2a9
 3454 08a5 AD060000 		.4byte	0x6ad
 3455 08a9 02       		.byte	0x2
 3456 08aa 23       		.byte	0x23
 3457 08ab 0A       		.uleb128 0xa
 3458 08ac 10       		.uleb128 0x10
 3459 08ad 32080000 		.4byte	.LASF212
 3460 08b1 03       		.byte	0x3
 3461 08b2 AA02     		.2byte	0x2aa
 3462 08b4 AD060000 		.4byte	0x6ad
 3463 08b8 02       		.byte	0x2
 3464 08b9 23       		.byte	0x23
 3465 08ba 0B       		.uleb128 0xb
 3466 08bb 10       		.uleb128 0x10
 3467 08bc 770E0000 		.4byte	.LASF213
 3468 08c0 03       		.byte	0x3
 3469 08c1 AB02     		.2byte	0x2ab
 3470 08c3 AD060000 		.4byte	0x6ad
 3471 08c7 02       		.byte	0x2
 3472 08c8 23       		.byte	0x23
 3473 08c9 0C       		.uleb128 0xc
 3474 08ca 10       		.uleb128 0x10
 3475 08cb A5030000 		.4byte	.LASF214
 3476 08cf 03       		.byte	0x3
 3477 08d0 AD02     		.2byte	0x2ad
 3478 08d2 AD060000 		.4byte	0x6ad
 3479 08d6 02       		.byte	0x2
 3480 08d7 23       		.byte	0x23
 3481 08d8 0D       		.uleb128 0xd
 3482 08d9 10       		.uleb128 0x10
 3483 08da E2120000 		.4byte	.LASF215
 3484 08de 03       		.byte	0x3
 3485 08df AE02     		.2byte	0x2ae
 3486 08e1 AD060000 		.4byte	0x6ad
 3487 08e5 02       		.byte	0x2
 3488 08e6 23       		.byte	0x23
 3489 08e7 0E       		.uleb128 0xe
 3490 08e8 10       		.uleb128 0x10
 3491 08e9 5F0A0000 		.4byte	.LASF216
 3492 08ed 03       		.byte	0x3
 3493 08ee AF02     		.2byte	0x2af
ARM GAS  C:\Users\Kevin\AppData\Local\Temp\ccw18vSb.s 			page 77


 3494 08f0 AD060000 		.4byte	0x6ad
 3495 08f4 02       		.byte	0x2
 3496 08f5 23       		.byte	0x23
 3497 08f6 0F       		.uleb128 0xf
 3498 08f7 10       		.uleb128 0x10
 3499 08f8 C8080000 		.4byte	.LASF217
 3500 08fc 03       		.byte	0x3
 3501 08fd B102     		.2byte	0x2b1
 3502 08ff AD060000 		.4byte	0x6ad
 3503 0903 02       		.byte	0x2
 3504 0904 23       		.byte	0x23
 3505 0905 10       		.uleb128 0x10
 3506 0906 10       		.uleb128 0x10
 3507 0907 9E110000 		.4byte	.LASF218
 3508 090b 03       		.byte	0x3
 3509 090c B202     		.2byte	0x2b2
 3510 090e AD060000 		.4byte	0x6ad
 3511 0912 02       		.byte	0x2
 3512 0913 23       		.byte	0x23
 3513 0914 11       		.uleb128 0x11
 3514 0915 10       		.uleb128 0x10
 3515 0916 33030000 		.4byte	.LASF219
 3516 091a 03       		.byte	0x3
 3517 091b B302     		.2byte	0x2b3
 3518 091d AD060000 		.4byte	0x6ad
 3519 0921 02       		.byte	0x2
 3520 0922 23       		.byte	0x23
 3521 0923 12       		.uleb128 0x12
 3522 0924 10       		.uleb128 0x10
 3523 0925 9D060000 		.4byte	.LASF220
 3524 0929 03       		.byte	0x3
 3525 092a B502     		.2byte	0x2b5
 3526 092c AD060000 		.4byte	0x6ad
 3527 0930 02       		.byte	0x2
 3528 0931 23       		.byte	0x23
 3529 0932 13       		.uleb128 0x13
 3530 0933 10       		.uleb128 0x10
 3531 0934 360C0000 		.4byte	.LASF221
 3532 0938 03       		.byte	0x3
 3533 0939 B602     		.2byte	0x2b6
 3534 093b AD060000 		.4byte	0x6ad
 3535 093f 02       		.byte	0x2
 3536 0940 23       		.byte	0x23
 3537 0941 14       		.uleb128 0x14
 3538 0942 10       		.uleb128 0x10
 3539 0943 A7130000 		.4byte	.LASF222
 3540 0947 03       		.byte	0x3
 3541 0948 B702     		.2byte	0x2b7
 3542 094a AD060000 		.4byte	0x6ad
 3543 094e 02       		.byte	0x2
 3544 094f 23       		.byte	0x23
 3545 0950 15       		.uleb128 0x15
 3546 0951 00       		.byte	0
 3547 0952 11       		.uleb128 0x11
 3548 0953 7E040000 		.4byte	.LASF223
 3549 0957 03       		.byte	0x3
 3550 0958 B902     		.2byte	0x2b9
ARM GAS  C:\Users\Kevin\AppData\Local\Temp\ccw18vSb.s 			page 78


 3551 095a FE070000 		.4byte	0x7fe
 3552 095e 0B       		.uleb128 0xb
 3553 095f 01       		.byte	0x1
 3554 0960 04       		.byte	0x4
 3555 0961 1E       		.byte	0x1e
 3556 0962 B4090000 		.4byte	0x9b4
 3557 0966 13       		.uleb128 0x13
 3558 0967 4F4B00   		.ascii	"OK\000"
 3559 096a 00       		.sleb128 0
 3560 096b 0C       		.uleb128 0xc
 3561 096c 660D0000 		.4byte	.LASF224
 3562 0970 01       		.sleb128 1
 3563 0971 0C       		.uleb128 0xc
 3564 0972 DA030000 		.4byte	.LASF225
 3565 0976 02       		.sleb128 2
 3566 0977 0C       		.uleb128 0xc
 3567 0978 530E0000 		.4byte	.LASF226
 3568 097c 03       		.sleb128 3
 3569 097d 0C       		.uleb128 0xc
 3570 097e 6B0C0000 		.4byte	.LASF227
 3571 0982 04       		.sleb128 4
 3572 0983 0C       		.uleb128 0xc
 3573 0984 E1020000 		.4byte	.LASF228
 3574 0988 05       		.sleb128 5
 3575 0989 0C       		.uleb128 0xc
 3576 098a E1160000 		.4byte	.LASF229
 3577 098e 06       		.sleb128 6
 3578 098f 0C       		.uleb128 0xc
 3579 0990 F9100000 		.4byte	.LASF230
 3580 0994 07       		.sleb128 7
 3581 0995 0C       		.uleb128 0xc
 3582 0996 08080000 		.4byte	.LASF231
 3583 099a 08       		.sleb128 8
 3584 099b 0C       		.uleb128 0xc
 3585 099c 21000000 		.4byte	.LASF232
 3586 09a0 09       		.sleb128 9
 3587 09a1 0C       		.uleb128 0xc
 3588 09a2 23040000 		.4byte	.LASF233
 3589 09a6 0A       		.sleb128 10
 3590 09a7 0C       		.uleb128 0xc
 3591 09a8 5D140000 		.4byte	.LASF234
 3592 09ac 0B       		.sleb128 11
 3593 09ad 0C       		.uleb128 0xc
 3594 09ae F1020000 		.4byte	.LASF235
 3595 09b2 0C       		.sleb128 12
 3596 09b3 00       		.byte	0
 3597 09b4 04       		.uleb128 0x4
 3598 09b5 8C000000 		.4byte	.LASF236
 3599 09b9 04       		.byte	0x4
 3600 09ba 2C       		.byte	0x2c
 3601 09bb 5E090000 		.4byte	0x95e
 3602 09bf 0D       		.uleb128 0xd
 3603 09c0 34       		.byte	0x34
 3604 09c1 05       		.byte	0x5
 3605 09c2 1D       		.byte	0x1d
 3606 09c3 1C0A0000 		.4byte	0xa1c
 3607 09c7 0E       		.uleb128 0xe
ARM GAS  C:\Users\Kevin\AppData\Local\Temp\ccw18vSb.s 			page 79


 3608 09c8 68100000 		.4byte	.LASF237
 3609 09cc 05       		.byte	0x5
 3610 09cd 1E       		.byte	0x1e
 3611 09ce 3A000000 		.4byte	0x3a
 3612 09d2 02       		.byte	0x2
 3613 09d3 23       		.byte	0x23
 3614 09d4 00       		.uleb128 0
 3615 09d5 0E       		.uleb128 0xe
 3616 09d6 D0040000 		.4byte	.LASF238
 3617 09da 05       		.byte	0x5
 3618 09db 1F       		.byte	0x1f
 3619 09dc CF070000 		.4byte	0x7cf
 3620 09e0 02       		.byte	0x2
 3621 09e1 23       		.byte	0x23
 3622 09e2 01       		.uleb128 0x1
 3623 09e3 0E       		.uleb128 0xe
 3624 09e4 74100000 		.4byte	.LASF239
 3625 09e8 05       		.byte	0x5
 3626 09e9 20       		.byte	0x20
 3627 09ea 1C0A0000 		.4byte	0xa1c
 3628 09ee 02       		.byte	0x2
 3629 09ef 23       		.byte	0x23
 3630 09f0 04       		.uleb128 0x4
 3631 09f1 0E       		.uleb128 0xe
 3632 09f2 D8110000 		.4byte	.LASF240
 3633 09f6 05       		.byte	0x5
 3634 09f7 21       		.byte	0x21
 3635 09f8 25000000 		.4byte	0x25
 3636 09fc 02       		.byte	0x2
 3637 09fd 23       		.byte	0x23
 3638 09fe 28       		.uleb128 0x28
 3639 09ff 0E       		.uleb128 0xe
 3640 0a00 980A0000 		.4byte	.LASF241
 3641 0a04 05       		.byte	0x5
 3642 0a05 22       		.byte	0x22
 3643 0a06 25000000 		.4byte	0x25
 3644 0a0a 02       		.byte	0x2
 3645 0a0b 23       		.byte	0x23
 3646 0a0c 2C       		.uleb128 0x2c
 3647 0a0d 0E       		.uleb128 0xe
 3648 0a0e A6120000 		.4byte	.LASF242
 3649 0a12 05       		.byte	0x5
 3650 0a13 23       		.byte	0x23
 3651 0a14 3A000000 		.4byte	0x3a
 3652 0a18 02       		.byte	0x2
 3653 0a19 23       		.byte	0x23
 3654 0a1a 30       		.uleb128 0x30
 3655 0a1b 00       		.byte	0
 3656 0a1c 14       		.uleb128 0x14
 3657 0a1d 25000000 		.4byte	0x25
 3658 0a21 2C0A0000 		.4byte	0xa2c
 3659 0a25 15       		.uleb128 0x15
 3660 0a26 9E000000 		.4byte	0x9e
 3661 0a2a 08       		.byte	0x8
 3662 0a2b 00       		.byte	0
 3663 0a2c 04       		.uleb128 0x4
 3664 0a2d CD000000 		.4byte	.LASF243
ARM GAS  C:\Users\Kevin\AppData\Local\Temp\ccw18vSb.s 			page 80


 3665 0a31 05       		.byte	0x5
 3666 0a32 24       		.byte	0x24
 3667 0a33 BF090000 		.4byte	0x9bf
 3668 0a37 0B       		.uleb128 0xb
 3669 0a38 01       		.byte	0x1
 3670 0a39 06       		.byte	0x6
 3671 0a3a 29       		.byte	0x29
 3672 0a3b 820A0000 		.4byte	0xa82
 3673 0a3f 0C       		.uleb128 0xc
 3674 0a40 920B0000 		.4byte	.LASF244
 3675 0a44 01       		.sleb128 1
 3676 0a45 0C       		.uleb128 0xc
 3677 0a46 CE0B0000 		.4byte	.LASF245
 3678 0a4a 02       		.sleb128 2
 3679 0a4b 0C       		.uleb128 0xc
 3680 0a4c 0B070000 		.4byte	.LASF246
 3681 0a50 03       		.sleb128 3
 3682 0a51 0C       		.uleb128 0xc
 3683 0a52 DC0C0000 		.4byte	.LASF247
 3684 0a56 04       		.sleb128 4
 3685 0a57 0C       		.uleb128 0xc
 3686 0a58 7C100000 		.4byte	.LASF248
 3687 0a5c 05       		.sleb128 5
 3688 0a5d 0C       		.uleb128 0xc
 3689 0a5e D4010000 		.4byte	.LASF249
 3690 0a62 06       		.sleb128 6
 3691 0a63 0C       		.uleb128 0xc
 3692 0a64 B1030000 		.4byte	.LASF250
 3693 0a68 07       		.sleb128 7
 3694 0a69 0C       		.uleb128 0xc
 3695 0a6a C5050000 		.4byte	.LASF251
 3696 0a6e 08       		.sleb128 8
 3697 0a6f 0C       		.uleb128 0xc
 3698 0a70 FD0C0000 		.4byte	.LASF252
 3699 0a74 09       		.sleb128 9
 3700 0a75 0C       		.uleb128 0xc
 3701 0a76 930C0000 		.4byte	.LASF253
 3702 0a7a 10       		.sleb128 16
 3703 0a7b 0C       		.uleb128 0xc
 3704 0a7c 82020000 		.4byte	.LASF254
 3705 0a80 11       		.sleb128 17
 3706 0a81 00       		.byte	0
 3707 0a82 04       		.uleb128 0x4
 3708 0a83 A30F0000 		.4byte	.LASF255
 3709 0a87 06       		.byte	0x6
 3710 0a88 38       		.byte	0x38
 3711 0a89 370A0000 		.4byte	0xa37
 3712 0a8d 0B       		.uleb128 0xb
 3713 0a8e 01       		.byte	0x1
 3714 0a8f 06       		.byte	0x6
 3715 0a90 3B       		.byte	0x3b
 3716 0a91 A20A0000 		.4byte	0xaa2
 3717 0a95 0C       		.uleb128 0xc
 3718 0a96 4D090000 		.4byte	.LASF256
 3719 0a9a 00       		.sleb128 0
 3720 0a9b 0C       		.uleb128 0xc
 3721 0a9c 8D080000 		.4byte	.LASF257
ARM GAS  C:\Users\Kevin\AppData\Local\Temp\ccw18vSb.s 			page 81


 3722 0aa0 01       		.sleb128 1
 3723 0aa1 00       		.byte	0
 3724 0aa2 04       		.uleb128 0x4
 3725 0aa3 B7010000 		.4byte	.LASF258
 3726 0aa7 06       		.byte	0x6
 3727 0aa8 3E       		.byte	0x3e
 3728 0aa9 8D0A0000 		.4byte	0xa8d
 3729 0aad 09       		.uleb128 0x9
 3730 0aae 680E0000 		.4byte	.LASF260
 3731 0ab2 18       		.byte	0x18
 3732 0ab3 06       		.byte	0x6
 3733 0ab4 41       		.byte	0x41
 3734 0ab5 540B0000 		.4byte	0xb54
 3735 0ab9 0E       		.uleb128 0xe
 3736 0aba 780F0000 		.4byte	.LASF261
 3737 0abe 06       		.byte	0x6
 3738 0abf 42       		.byte	0x42
 3739 0ac0 A20A0000 		.4byte	0xaa2
 3740 0ac4 02       		.byte	0x2
 3741 0ac5 23       		.byte	0x23
 3742 0ac6 00       		.uleb128 0
 3743 0ac7 0E       		.uleb128 0xe
 3744 0ac8 F3150000 		.4byte	.LASF262
 3745 0acc 06       		.byte	0x6
 3746 0acd 43       		.byte	0x43
 3747 0ace 3A000000 		.4byte	0x3a
 3748 0ad2 02       		.byte	0x2
 3749 0ad3 23       		.byte	0x23
 3750 0ad4 01       		.uleb128 0x1
 3751 0ad5 0E       		.uleb128 0xe
 3752 0ad6 06160000 		.4byte	.LASF263
 3753 0ada 06       		.byte	0x6
 3754 0adb 44       		.byte	0x44
 3755 0adc 3A000000 		.4byte	0x3a
 3756 0ae0 02       		.byte	0x2
 3757 0ae1 23       		.byte	0x23
 3758 0ae2 02       		.uleb128 0x2
 3759 0ae3 0E       		.uleb128 0xe
 3760 0ae4 D9140000 		.4byte	.LASF264
 3761 0ae8 06       		.byte	0x6
 3762 0ae9 45       		.byte	0x45
 3763 0aea 3A000000 		.4byte	0x3a
 3764 0aee 02       		.byte	0x2
 3765 0aef 23       		.byte	0x23
 3766 0af0 03       		.uleb128 0x3
 3767 0af1 0E       		.uleb128 0xe
 3768 0af2 EF0C0000 		.4byte	.LASF265
 3769 0af6 06       		.byte	0x6
 3770 0af7 46       		.byte	0x46
 3771 0af8 3A000000 		.4byte	0x3a
 3772 0afc 02       		.byte	0x2
 3773 0afd 23       		.byte	0x23
 3774 0afe 04       		.uleb128 0x4
 3775 0aff 0E       		.uleb128 0xe
 3776 0b00 A8070000 		.4byte	.LASF266
 3777 0b04 06       		.byte	0x6
 3778 0b05 47       		.byte	0x47
ARM GAS  C:\Users\Kevin\AppData\Local\Temp\ccw18vSb.s 			page 82


 3779 0b06 3A000000 		.4byte	0x3a
 3780 0b0a 02       		.byte	0x2
 3781 0b0b 23       		.byte	0x23
 3782 0b0c 05       		.uleb128 0x5
 3783 0b0d 0E       		.uleb128 0xe
 3784 0b0e FC130000 		.4byte	.LASF267
 3785 0b12 06       		.byte	0x6
 3786 0b13 48       		.byte	0x48
 3787 0b14 B4090000 		.4byte	0x9b4
 3788 0b18 02       		.byte	0x2
 3789 0b19 23       		.byte	0x23
 3790 0b1a 06       		.uleb128 0x6
 3791 0b1b 0E       		.uleb128 0xe
 3792 0b1c 800B0000 		.4byte	.LASF268
 3793 0b20 06       		.byte	0x6
 3794 0b21 4A       		.byte	0x4a
 3795 0b22 CF000000 		.4byte	0xcf
 3796 0b26 02       		.byte	0x2
 3797 0b27 23       		.byte	0x23
 3798 0b28 08       		.uleb128 0x8
 3799 0b29 0E       		.uleb128 0xe
 3800 0b2a D7020000 		.4byte	.LASF269
 3801 0b2e 06       		.byte	0x6
 3802 0b2f 4B       		.byte	0x4b
 3803 0b30 CF000000 		.4byte	0xcf
 3804 0b34 02       		.byte	0x2
 3805 0b35 23       		.byte	0x23
 3806 0b36 0C       		.uleb128 0xc
 3807 0b37 0E       		.uleb128 0xe
 3808 0b38 42030000 		.4byte	.LASF270
 3809 0b3c 06       		.byte	0x6
 3810 0b3d 4C       		.byte	0x4c
 3811 0b3e 820A0000 		.4byte	0xa82
 3812 0b42 02       		.byte	0x2
 3813 0b43 23       		.byte	0x23
 3814 0b44 10       		.uleb128 0x10
 3815 0b45 0E       		.uleb128 0xe
 3816 0b46 33070000 		.4byte	.LASF271
 3817 0b4a 06       		.byte	0x6
 3818 0b4b 4D       		.byte	0x4d
 3819 0b4c 600B0000 		.4byte	0xb60
 3820 0b50 02       		.byte	0x2
 3821 0b51 23       		.byte	0x23
 3822 0b52 14       		.uleb128 0x14
 3823 0b53 00       		.byte	0
 3824 0b54 16       		.uleb128 0x16
 3825 0b55 01       		.byte	0x1
 3826 0b56 600B0000 		.4byte	0xb60
 3827 0b5a 17       		.uleb128 0x17
 3828 0b5b AA000000 		.4byte	0xaa
 3829 0b5f 00       		.byte	0
 3830 0b60 08       		.uleb128 0x8
 3831 0b61 04       		.byte	0x4
 3832 0b62 540B0000 		.4byte	0xb54
 3833 0b66 04       		.uleb128 0x4
 3834 0b67 B2150000 		.4byte	.LASF272
 3835 0b6b 06       		.byte	0x6
ARM GAS  C:\Users\Kevin\AppData\Local\Temp\ccw18vSb.s 			page 83


 3836 0b6c 4E       		.byte	0x4e
 3837 0b6d AD0A0000 		.4byte	0xaad
 3838 0b71 0B       		.uleb128 0xb
 3839 0b72 01       		.byte	0x1
 3840 0b73 07       		.byte	0x7
 3841 0b74 0C       		.byte	0xc
 3842 0b75 960B0000 		.4byte	0xb96
 3843 0b79 0C       		.uleb128 0xc
 3844 0b7a 59080000 		.4byte	.LASF273
 3845 0b7e C600     		.sleb128 70
 3846 0b80 0C       		.uleb128 0xc
 3847 0b81 C7090000 		.4byte	.LASF274
 3848 0b85 D000     		.sleb128 80
 3849 0b87 0C       		.uleb128 0xc
 3850 0b88 E0110000 		.4byte	.LASF275
 3851 0b8c DA00     		.sleb128 90
 3852 0b8e 0C       		.uleb128 0xc
 3853 0b8f 600C0000 		.4byte	.LASF276
 3854 0b93 E400     		.sleb128 100
 3855 0b95 00       		.byte	0
 3856 0b96 0D       		.uleb128 0xd
 3857 0b97 1C       		.byte	0x1c
 3858 0b98 08       		.byte	0x8
 3859 0b99 20       		.byte	0x20
 3860 0b9a 010C0000 		.4byte	0xc01
 3861 0b9e 0E       		.uleb128 0xe
 3862 0b9f 5A090000 		.4byte	.LASF277
 3863 0ba3 08       		.byte	0x8
 3864 0ba4 22       		.byte	0x22
 3865 0ba5 25000000 		.4byte	0x25
 3866 0ba9 02       		.byte	0x2
 3867 0baa 23       		.byte	0x23
 3868 0bab 00       		.uleb128 0
 3869 0bac 0E       		.uleb128 0xe
 3870 0bad 80120000 		.4byte	.LASF278
 3871 0bb1 08       		.byte	0x8
 3872 0bb2 23       		.byte	0x23
 3873 0bb3 25000000 		.4byte	0x25
 3874 0bb7 02       		.byte	0x2
 3875 0bb8 23       		.byte	0x23
 3876 0bb9 04       		.uleb128 0x4
 3877 0bba 0E       		.uleb128 0xe
 3878 0bbb 030C0000 		.4byte	.LASF279
 3879 0bbf 08       		.byte	0x8
 3880 0bc0 24       		.byte	0x24
 3881 0bc1 25000000 		.4byte	0x25
 3882 0bc5 02       		.byte	0x2
 3883 0bc6 23       		.byte	0x23
 3884 0bc7 08       		.uleb128 0x8
 3885 0bc8 0E       		.uleb128 0xe
 3886 0bc9 5A060000 		.4byte	.LASF280
 3887 0bcd 08       		.byte	0x8
 3888 0bce 2A       		.byte	0x2a
 3889 0bcf 25000000 		.4byte	0x25
 3890 0bd3 02       		.byte	0x2
 3891 0bd4 23       		.byte	0x23
 3892 0bd5 0C       		.uleb128 0xc
ARM GAS  C:\Users\Kevin\AppData\Local\Temp\ccw18vSb.s 			page 84


 3893 0bd6 0E       		.uleb128 0xe
 3894 0bd7 A20E0000 		.4byte	.LASF281
 3895 0bdb 08       		.byte	0x8
 3896 0bdc 2B       		.byte	0x2b
 3897 0bdd 25000000 		.4byte	0x25
 3898 0be1 02       		.byte	0x2
 3899 0be2 23       		.byte	0x23
 3900 0be3 10       		.uleb128 0x10
 3901 0be4 0E       		.uleb128 0xe
 3902 0be5 73060000 		.4byte	.LASF282
 3903 0be9 08       		.byte	0x8
 3904 0bea 2C       		.byte	0x2c
 3905 0beb 25000000 		.4byte	0x25
 3906 0bef 02       		.byte	0x2
 3907 0bf0 23       		.byte	0x23
 3908 0bf1 14       		.uleb128 0x14
 3909 0bf2 0E       		.uleb128 0xe
 3910 0bf3 3D060000 		.4byte	.LASF283
 3911 0bf7 08       		.byte	0x8
 3912 0bf8 31       		.byte	0x31
 3913 0bf9 25000000 		.4byte	0x25
 3914 0bfd 02       		.byte	0x2
 3915 0bfe 23       		.byte	0x23
 3916 0bff 18       		.uleb128 0x18
 3917 0c00 00       		.byte	0
 3918 0c01 04       		.uleb128 0x4
 3919 0c02 B5080000 		.4byte	.LASF284
 3920 0c06 08       		.byte	0x8
 3921 0c07 33       		.byte	0x33
 3922 0c08 960B0000 		.4byte	0xb96
 3923 0c0c 0B       		.uleb128 0xb
 3924 0c0d 01       		.byte	0x1
 3925 0c0e 08       		.byte	0x8
 3926 0c0f 35       		.byte	0x35
 3927 0c10 330C0000 		.4byte	0xc33
 3928 0c14 0C       		.uleb128 0xc
 3929 0c15 24110000 		.4byte	.LASF285
 3930 0c19 00       		.sleb128 0
 3931 0c1a 0C       		.uleb128 0xc
 3932 0c1b 5F030000 		.4byte	.LASF286
 3933 0c1f 01       		.sleb128 1
 3934 0c20 0C       		.uleb128 0xc
 3935 0c21 9B0D0000 		.4byte	.LASF287
 3936 0c25 02       		.sleb128 2
 3937 0c26 0C       		.uleb128 0xc
 3938 0c27 9E090000 		.4byte	.LASF288
 3939 0c2b 03       		.sleb128 3
 3940 0c2c 0C       		.uleb128 0xc
 3941 0c2d A10A0000 		.4byte	.LASF289
 3942 0c31 04       		.sleb128 4
 3943 0c32 00       		.byte	0
 3944 0c33 04       		.uleb128 0x4
 3945 0c34 0F010000 		.4byte	.LASF290
 3946 0c38 08       		.byte	0x8
 3947 0c39 3B       		.byte	0x3b
 3948 0c3a 0C0C0000 		.4byte	0xc0c
 3949 0c3e 0D       		.uleb128 0xd
ARM GAS  C:\Users\Kevin\AppData\Local\Temp\ccw18vSb.s 			page 85


 3950 0c3f 58       		.byte	0x58
 3951 0c40 08       		.byte	0x8
 3952 0c41 3D       		.byte	0x3d
 3953 0c42 CA0D0000 		.4byte	0xdca
 3954 0c46 0E       		.uleb128 0xe
 3955 0c47 2E070000 		.4byte	.LASF291
 3956 0c4b 08       		.byte	0x8
 3957 0c4c 3E       		.byte	0x3e
 3958 0c4d B4000000 		.4byte	0xb4
 3959 0c51 02       		.byte	0x2
 3960 0c52 23       		.byte	0x23
 3961 0c53 00       		.uleb128 0
 3962 0c54 0E       		.uleb128 0xe
 3963 0c55 810D0000 		.4byte	.LASF292
 3964 0c59 08       		.byte	0x8
 3965 0c5a 3F       		.byte	0x3f
 3966 0c5b AD060000 		.4byte	0x6ad
 3967 0c5f 02       		.byte	0x2
 3968 0c60 23       		.byte	0x23
 3969 0c61 04       		.uleb128 0x4
 3970 0c62 0E       		.uleb128 0xe
 3971 0c63 AA050000 		.4byte	.LASF293
 3972 0c67 08       		.byte	0x8
 3973 0c68 45       		.byte	0x45
 3974 0c69 F2070000 		.4byte	0x7f2
 3975 0c6d 02       		.byte	0x2
 3976 0c6e 23       		.byte	0x23
 3977 0c6f 05       		.uleb128 0x5
 3978 0c70 0E       		.uleb128 0xe
 3979 0c71 12060000 		.4byte	.LASF294
 3980 0c75 08       		.byte	0x8
 3981 0c76 4F       		.byte	0x4f
 3982 0c77 5E000000 		.4byte	0x5e
 3983 0c7b 02       		.byte	0x2
 3984 0c7c 23       		.byte	0x23
 3985 0c7d 06       		.uleb128 0x6
 3986 0c7e 0E       		.uleb128 0xe
 3987 0c7f FB150000 		.4byte	.LASF295
 3988 0c83 08       		.byte	0x8
 3989 0c84 58       		.byte	0x58
 3990 0c85 5E000000 		.4byte	0x5e
 3991 0c89 02       		.byte	0x2
 3992 0c8a 23       		.byte	0x23
 3993 0c8b 08       		.uleb128 0x8
 3994 0c8c 0E       		.uleb128 0xe
 3995 0c8d EB0B0000 		.4byte	.LASF71
 3996 0c91 08       		.byte	0x8
 3997 0c92 6B       		.byte	0x6b
 3998 0c93 BE020000 		.4byte	0x2be
 3999 0c97 02       		.byte	0x2
 4000 0c98 23       		.byte	0x23
 4001 0c99 0A       		.uleb128 0xa
 4002 0c9a 0E       		.uleb128 0xe
 4003 0c9b 21170000 		.4byte	.LASF68
 4004 0c9f 08       		.byte	0x8
 4005 0ca0 78       		.byte	0x78
 4006 0ca1 9E020000 		.4byte	0x29e
ARM GAS  C:\Users\Kevin\AppData\Local\Temp\ccw18vSb.s 			page 86


 4007 0ca5 02       		.byte	0x2
 4008 0ca6 23       		.byte	0x23
 4009 0ca7 0B       		.uleb128 0xb
 4010 0ca8 0E       		.uleb128 0xe
 4011 0ca9 CD010000 		.4byte	.LASF296
 4012 0cad 08       		.byte	0x8
 4013 0cae 7B       		.byte	0x7b
 4014 0caf 330C0000 		.4byte	0xc33
 4015 0cb3 02       		.byte	0x2
 4016 0cb4 23       		.byte	0x23
 4017 0cb5 0C       		.uleb128 0xc
 4018 0cb6 0E       		.uleb128 0xe
 4019 0cb7 6B0A0000 		.4byte	.LASF202
 4020 0cbb 08       		.byte	0x8
 4021 0cbc 82       		.byte	0x82
 4022 0cbd 83030000 		.4byte	0x383
 4023 0cc1 02       		.byte	0x2
 4024 0cc2 23       		.byte	0x23
 4025 0cc3 0D       		.uleb128 0xd
 4026 0cc4 0E       		.uleb128 0xe
 4027 0cc5 7E140000 		.4byte	.LASF297
 4028 0cc9 08       		.byte	0x8
 4029 0cca 8A       		.byte	0x8a
 4030 0ccb B4090000 		.4byte	0x9b4
 4031 0ccf 02       		.byte	0x2
 4032 0cd0 23       		.byte	0x23
 4033 0cd1 0E       		.uleb128 0xe
 4034 0cd2 0E       		.uleb128 0xe
 4035 0cd3 B6070000 		.4byte	.LASF298
 4036 0cd7 08       		.byte	0x8
 4037 0cd8 92       		.byte	0x92
 4038 0cd9 D00D0000 		.4byte	0xdd0
 4039 0cdd 02       		.byte	0x2
 4040 0cde 23       		.byte	0x23
 4041 0cdf 10       		.uleb128 0x10
 4042 0ce0 0E       		.uleb128 0xe
 4043 0ce1 0E100000 		.4byte	.LASF299
 4044 0ce5 08       		.byte	0x8
 4045 0ce6 98       		.byte	0x98
 4046 0ce7 D00D0000 		.4byte	0xdd0
 4047 0ceb 02       		.byte	0x2
 4048 0cec 23       		.byte	0x23
 4049 0ced 14       		.uleb128 0x14
 4050 0cee 0E       		.uleb128 0xe
 4051 0cef 5A000000 		.4byte	.LASF300
 4052 0cf3 08       		.byte	0x8
 4053 0cf4 A2       		.byte	0xa2
 4054 0cf5 D00D0000 		.4byte	0xdd0
 4055 0cf9 02       		.byte	0x2
 4056 0cfa 23       		.byte	0x23
 4057 0cfb 18       		.uleb128 0x18
 4058 0cfc 0E       		.uleb128 0xe
 4059 0cfd D5150000 		.4byte	.LASF301
 4060 0d01 08       		.byte	0x8
 4061 0d02 A3       		.byte	0xa3
 4062 0d03 D00D0000 		.4byte	0xdd0
 4063 0d07 02       		.byte	0x2
ARM GAS  C:\Users\Kevin\AppData\Local\Temp\ccw18vSb.s 			page 87


 4064 0d08 23       		.byte	0x23
 4065 0d09 1C       		.uleb128 0x1c
 4066 0d0a 0E       		.uleb128 0xe
 4067 0d0b 30150000 		.4byte	.LASF302
 4068 0d0f 08       		.byte	0x8
 4069 0d10 A4       		.byte	0xa4
 4070 0d11 D00D0000 		.4byte	0xdd0
 4071 0d15 02       		.byte	0x2
 4072 0d16 23       		.byte	0x23
 4073 0d17 20       		.uleb128 0x20
 4074 0d18 0E       		.uleb128 0xe
 4075 0d19 F7130000 		.4byte	.LASF303
 4076 0d1d 08       		.byte	0x8
 4077 0d1e A5       		.byte	0xa5
 4078 0d1f D00D0000 		.4byte	0xdd0
 4079 0d23 02       		.byte	0x2
 4080 0d24 23       		.byte	0x23
 4081 0d25 24       		.uleb128 0x24
 4082 0d26 0E       		.uleb128 0xe
 4083 0d27 55090000 		.4byte	.LASF304
 4084 0d2b 08       		.byte	0x8
 4085 0d2c B9       		.byte	0xb9
 4086 0d2d E60D0000 		.4byte	0xde6
 4087 0d31 02       		.byte	0x2
 4088 0d32 23       		.byte	0x23
 4089 0d33 28       		.uleb128 0x28
 4090 0d34 0E       		.uleb128 0xe
 4091 0d35 CB020000 		.4byte	.LASF305
 4092 0d39 08       		.byte	0x8
 4093 0d3a C4       		.byte	0xc4
 4094 0d3b D00D0000 		.4byte	0xdd0
 4095 0d3f 02       		.byte	0x2
 4096 0d40 23       		.byte	0x23
 4097 0d41 2C       		.uleb128 0x2c
 4098 0d42 0E       		.uleb128 0xe
 4099 0d43 49140000 		.4byte	.LASF306
 4100 0d47 08       		.byte	0x8
 4101 0d48 C9       		.byte	0xc9
 4102 0d49 D00D0000 		.4byte	0xdd0
 4103 0d4d 02       		.byte	0x2
 4104 0d4e 23       		.byte	0x23
 4105 0d4f 30       		.uleb128 0x30
 4106 0d50 0E       		.uleb128 0xe
 4107 0d51 CB150000 		.4byte	.LASF307
 4108 0d55 08       		.byte	0x8
 4109 0d56 D5       		.byte	0xd5
 4110 0d57 010E0000 		.4byte	0xe01
 4111 0d5b 02       		.byte	0x2
 4112 0d5c 23       		.byte	0x23
 4113 0d5d 34       		.uleb128 0x34
 4114 0d5e 0E       		.uleb128 0xe
 4115 0d5f 480D0000 		.4byte	.LASF308
 4116 0d63 08       		.byte	0x8
 4117 0d64 DC       		.byte	0xdc
 4118 0d65 1D0E0000 		.4byte	0xe1d
 4119 0d69 02       		.byte	0x2
 4120 0d6a 23       		.byte	0x23
ARM GAS  C:\Users\Kevin\AppData\Local\Temp\ccw18vSb.s 			page 88


 4121 0d6b 38       		.uleb128 0x38
 4122 0d6c 0E       		.uleb128 0xe
 4123 0d6d 1D050000 		.4byte	.LASF309
 4124 0d71 08       		.byte	0x8
 4125 0d72 E6       		.byte	0xe6
 4126 0d73 380E0000 		.4byte	0xe38
 4127 0d77 02       		.byte	0x2
 4128 0d78 23       		.byte	0x23
 4129 0d79 3C       		.uleb128 0x3c
 4130 0d7a 0E       		.uleb128 0xe
 4131 0d7b 98000000 		.4byte	.LASF310
 4132 0d7f 08       		.byte	0x8
 4133 0d80 EC       		.byte	0xec
 4134 0d81 AE000000 		.4byte	0xae
 4135 0d85 02       		.byte	0x2
 4136 0d86 23       		.byte	0x23
 4137 0d87 40       		.uleb128 0x40
 4138 0d88 0A       		.uleb128 0xa
 4139 0d89 5800     		.ascii	"X\000"
 4140 0d8b 08       		.byte	0x8
 4141 0d8c F1       		.byte	0xf1
 4142 0d8d 25000000 		.4byte	0x25
 4143 0d91 02       		.byte	0x2
 4144 0d92 23       		.byte	0x23
 4145 0d93 44       		.uleb128 0x44
 4146 0d94 0A       		.uleb128 0xa
 4147 0d95 5900     		.ascii	"Y\000"
 4148 0d97 08       		.byte	0x8
 4149 0d98 F2       		.byte	0xf2
 4150 0d99 25000000 		.4byte	0x25
 4151 0d9d 02       		.byte	0x2
 4152 0d9e 23       		.byte	0x23
 4153 0d9f 48       		.uleb128 0x48
 4154 0da0 0A       		.uleb128 0xa
 4155 0da1 5A00     		.ascii	"Z\000"
 4156 0da3 08       		.byte	0x8
 4157 0da4 F3       		.byte	0xf3
 4158 0da5 25000000 		.4byte	0x25
 4159 0da9 02       		.byte	0x2
 4160 0daa 23       		.byte	0x23
 4161 0dab 4C       		.uleb128 0x4c
 4162 0dac 0E       		.uleb128 0xe
 4163 0dad CC060000 		.4byte	.LASF311
 4164 0db1 08       		.byte	0x8
 4165 0db2 FB       		.byte	0xfb
 4166 0db3 AA000000 		.4byte	0xaa
 4167 0db7 02       		.byte	0x2
 4168 0db8 23       		.byte	0x23
 4169 0db9 50       		.uleb128 0x50
 4170 0dba 10       		.uleb128 0x10
 4171 0dbb 8A0D0000 		.4byte	.LASF312
 4172 0dbf 08       		.byte	0x8
 4173 0dc0 0101     		.2byte	0x101
 4174 0dc2 AA000000 		.4byte	0xaa
 4175 0dc6 02       		.byte	0x2
 4176 0dc7 23       		.byte	0x23
 4177 0dc8 54       		.uleb128 0x54
ARM GAS  C:\Users\Kevin\AppData\Local\Temp\ccw18vSb.s 			page 89


 4178 0dc9 00       		.byte	0
 4179 0dca 18       		.uleb128 0x18
 4180 0dcb 01       		.byte	0x1
 4181 0dcc B4090000 		.4byte	0x9b4
 4182 0dd0 08       		.uleb128 0x8
 4183 0dd1 04       		.byte	0x4
 4184 0dd2 CA0D0000 		.4byte	0xdca
 4185 0dd6 19       		.uleb128 0x19
 4186 0dd7 01       		.byte	0x1
 4187 0dd8 B4090000 		.4byte	0x9b4
 4188 0ddc E60D0000 		.4byte	0xde6
 4189 0de0 17       		.uleb128 0x17
 4190 0de1 25000000 		.4byte	0x25
 4191 0de5 00       		.byte	0
 4192 0de6 08       		.uleb128 0x8
 4193 0de7 04       		.byte	0x4
 4194 0de8 D60D0000 		.4byte	0xdd6
 4195 0dec 19       		.uleb128 0x19
 4196 0ded 01       		.byte	0x1
 4197 0dee 45000000 		.4byte	0x45
 4198 0df2 010E0000 		.4byte	0xe01
 4199 0df6 17       		.uleb128 0x17
 4200 0df7 3A000000 		.4byte	0x3a
 4201 0dfb 17       		.uleb128 0x17
 4202 0dfc 25000000 		.4byte	0x25
 4203 0e00 00       		.byte	0
 4204 0e01 08       		.uleb128 0x8
 4205 0e02 04       		.byte	0x4
 4206 0e03 EC0D0000 		.4byte	0xdec
 4207 0e07 19       		.uleb128 0x19
 4208 0e08 01       		.byte	0x1
 4209 0e09 B4090000 		.4byte	0x9b4
 4210 0e0d 170E0000 		.4byte	0xe17
 4211 0e11 17       		.uleb128 0x17
 4212 0e12 170E0000 		.4byte	0xe17
 4213 0e16 00       		.byte	0
 4214 0e17 08       		.uleb128 0x8
 4215 0e18 04       		.byte	0x4
 4216 0e19 06010000 		.4byte	0x106
 4217 0e1d 08       		.uleb128 0x8
 4218 0e1e 04       		.byte	0x4
 4219 0e1f 070E0000 		.4byte	0xe07
 4220 0e23 19       		.uleb128 0x19
 4221 0e24 01       		.byte	0x1
 4222 0e25 B4090000 		.4byte	0x9b4
 4223 0e29 380E0000 		.4byte	0xe38
 4224 0e2d 17       		.uleb128 0x17
 4225 0e2e 5E000000 		.4byte	0x5e
 4226 0e32 17       		.uleb128 0x17
 4227 0e33 3A000000 		.4byte	0x3a
 4228 0e37 00       		.byte	0
 4229 0e38 08       		.uleb128 0x8
 4230 0e39 04       		.byte	0x4
 4231 0e3a 230E0000 		.4byte	0xe23
 4232 0e3e 11       		.uleb128 0x11
 4233 0e3f 44010000 		.4byte	.LASF313
 4234 0e43 08       		.byte	0x8
ARM GAS  C:\Users\Kevin\AppData\Local\Temp\ccw18vSb.s 			page 90


 4235 0e44 0401     		.2byte	0x104
 4236 0e46 3E0C0000 		.4byte	0xc3e
 4237 0e4a 0B       		.uleb128 0xb
 4238 0e4b 01       		.byte	0x1
 4239 0e4c 09       		.byte	0x9
 4240 0e4d 0F       		.byte	0xf
 4241 0e4e 710E0000 		.4byte	0xe71
 4242 0e52 0C       		.uleb128 0xc
 4243 0e53 0F040000 		.4byte	.LASF314
 4244 0e57 00       		.sleb128 0
 4245 0e58 0C       		.uleb128 0xc
 4246 0e59 AE0D0000 		.4byte	.LASF315
 4247 0e5d 0A       		.sleb128 10
 4248 0e5e 0C       		.uleb128 0xc
 4249 0e5f 07170000 		.4byte	.LASF316
 4250 0e63 0B       		.sleb128 11
 4251 0e64 0C       		.uleb128 0xc
 4252 0e65 74120000 		.4byte	.LASF317
 4253 0e69 0C       		.sleb128 12
 4254 0e6a 0C       		.uleb128 0xc
 4255 0e6b EF0F0000 		.4byte	.LASF318
 4256 0e6f 0D       		.sleb128 13
 4257 0e70 00       		.byte	0
 4258 0e71 04       		.uleb128 0x4
 4259 0e72 6B0D0000 		.4byte	.LASF319
 4260 0e76 09       		.byte	0x9
 4261 0e77 15       		.byte	0x15
 4262 0e78 4A0E0000 		.4byte	0xe4a
 4263 0e7c 0D       		.uleb128 0xd
 4264 0e7d 1C       		.byte	0x1c
 4265 0e7e 09       		.byte	0x9
 4266 0e7f 17       		.byte	0x17
 4267 0e80 E70E0000 		.4byte	0xee7
 4268 0e84 0E       		.uleb128 0xe
 4269 0e85 7D0F0000 		.4byte	.LASF320
 4270 0e89 09       		.byte	0x9
 4271 0e8a 18       		.byte	0x18
 4272 0e8b 25000000 		.4byte	0x25
 4273 0e8f 02       		.byte	0x2
 4274 0e90 23       		.byte	0x23
 4275 0e91 00       		.uleb128 0
 4276 0e92 0E       		.uleb128 0xe
 4277 0e93 48040000 		.4byte	.LASF321
 4278 0e97 09       		.byte	0x9
 4279 0e98 19       		.byte	0x19
 4280 0e99 25000000 		.4byte	0x25
 4281 0e9d 02       		.byte	0x2
 4282 0e9e 23       		.byte	0x23
 4283 0e9f 04       		.uleb128 0x4
 4284 0ea0 0E       		.uleb128 0xe
 4285 0ea1 320F0000 		.4byte	.LASF322
 4286 0ea5 09       		.byte	0x9
 4287 0ea6 1A       		.byte	0x1a
 4288 0ea7 710E0000 		.4byte	0xe71
 4289 0eab 02       		.byte	0x2
 4290 0eac 23       		.byte	0x23
 4291 0ead 08       		.uleb128 0x8
ARM GAS  C:\Users\Kevin\AppData\Local\Temp\ccw18vSb.s 			page 91


 4292 0eae 0E       		.uleb128 0xe
 4293 0eaf 58030000 		.4byte	.LASF323
 4294 0eb3 09       		.byte	0x9
 4295 0eb4 1B       		.byte	0x1b
 4296 0eb5 E70E0000 		.4byte	0xee7
 4297 0eb9 02       		.byte	0x2
 4298 0eba 23       		.byte	0x23
 4299 0ebb 0C       		.uleb128 0xc
 4300 0ebc 0E       		.uleb128 0xe
 4301 0ebd 090A0000 		.4byte	.LASF324
 4302 0ec1 09       		.byte	0x9
 4303 0ec2 1C       		.byte	0x1c
 4304 0ec3 ED0E0000 		.4byte	0xeed
 4305 0ec7 02       		.byte	0x2
 4306 0ec8 23       		.byte	0x23
 4307 0ec9 10       		.uleb128 0x10
 4308 0eca 0E       		.uleb128 0xe
 4309 0ecb 570A0000 		.4byte	.LASF325
 4310 0ecf 09       		.byte	0x9
 4311 0ed0 1D       		.byte	0x1d
 4312 0ed1 ED0E0000 		.4byte	0xeed
 4313 0ed5 02       		.byte	0x2
 4314 0ed6 23       		.byte	0x23
 4315 0ed7 14       		.uleb128 0x14
 4316 0ed8 0E       		.uleb128 0xe
 4317 0ed9 2D0A0000 		.4byte	.LASF326
 4318 0edd 09       		.byte	0x9
 4319 0ede 1E       		.byte	0x1e
 4320 0edf ED0E0000 		.4byte	0xeed
 4321 0ee3 02       		.byte	0x2
 4322 0ee4 23       		.byte	0x23
 4323 0ee5 18       		.uleb128 0x18
 4324 0ee6 00       		.byte	0
 4325 0ee7 08       		.uleb128 0x8
 4326 0ee8 04       		.byte	0x4
 4327 0ee9 2C0A0000 		.4byte	0xa2c
 4328 0eed 08       		.uleb128 0x8
 4329 0eee 04       		.byte	0x4
 4330 0eef 3E0E0000 		.4byte	0xe3e
 4331 0ef3 04       		.uleb128 0x4
 4332 0ef4 05060000 		.4byte	.LASF327
 4333 0ef8 09       		.byte	0x9
 4334 0ef9 1F       		.byte	0x1f
 4335 0efa 7C0E0000 		.4byte	0xe7c
 4336 0efe 0D       		.uleb128 0xd
 4337 0eff 0A       		.byte	0xa
 4338 0f00 01       		.byte	0x1
 4339 0f01 12       		.byte	0x12
 4340 0f02 4D0F0000 		.4byte	0xf4d
 4341 0f06 0E       		.uleb128 0xe
 4342 0f07 DA090000 		.4byte	.LASF328
 4343 0f0b 01       		.byte	0x1
 4344 0f0c 13       		.byte	0x13
 4345 0f0d 4C000000 		.4byte	0x4c
 4346 0f11 02       		.byte	0x2
 4347 0f12 23       		.byte	0x23
 4348 0f13 00       		.uleb128 0
ARM GAS  C:\Users\Kevin\AppData\Local\Temp\ccw18vSb.s 			page 92


 4349 0f14 0E       		.uleb128 0xe
 4350 0f15 090A0000 		.4byte	.LASF324
 4351 0f19 01       		.byte	0x1
 4352 0f1a 14       		.byte	0x14
 4353 0f1b 4C000000 		.4byte	0x4c
 4354 0f1f 02       		.byte	0x2
 4355 0f20 23       		.byte	0x23
 4356 0f21 02       		.uleb128 0x2
 4357 0f22 0E       		.uleb128 0xe
 4358 0f23 570A0000 		.4byte	.LASF325
 4359 0f27 01       		.byte	0x1
 4360 0f28 15       		.byte	0x15
 4361 0f29 4C000000 		.4byte	0x4c
 4362 0f2d 02       		.byte	0x2
 4363 0f2e 23       		.byte	0x23
 4364 0f2f 04       		.uleb128 0x4
 4365 0f30 0E       		.uleb128 0xe
 4366 0f31 2D0A0000 		.4byte	.LASF326
 4367 0f35 01       		.byte	0x1
 4368 0f36 16       		.byte	0x16
 4369 0f37 4C000000 		.4byte	0x4c
 4370 0f3b 02       		.byte	0x2
 4371 0f3c 23       		.byte	0x23
 4372 0f3d 06       		.uleb128 0x6
 4373 0f3e 0E       		.uleb128 0xe
 4374 0f3f 93090000 		.4byte	.LASF329
 4375 0f43 01       		.byte	0x1
 4376 0f44 18       		.byte	0x18
 4377 0f45 AD060000 		.4byte	0x6ad
 4378 0f49 02       		.byte	0x2
 4379 0f4a 23       		.byte	0x23
 4380 0f4b 08       		.uleb128 0x8
 4381 0f4c 00       		.byte	0
 4382 0f4d 04       		.uleb128 0x4
 4383 0f4e 03140000 		.4byte	.LASF330
 4384 0f52 01       		.byte	0x1
 4385 0f53 1A       		.byte	0x1a
 4386 0f54 FE0E0000 		.4byte	0xefe
 4387 0f58 1A       		.uleb128 0x1a
 4388 0f59 01       		.byte	0x1
 4389 0f5a FE120000 		.4byte	.LASF340
 4390 0f5e 01       		.byte	0x1
 4391 0f5f 7701     		.2byte	0x177
 4392 0f61 01       		.byte	0x1
 4393 0f62 B4090000 		.4byte	0x9b4
 4394 0f66 00000000 		.4byte	.LFB117
 4395 0f6a A0020000 		.4byte	.LFE117
 4396 0f6e 00000000 		.4byte	.LLST0
 4397 0f72 01       		.byte	0x1
 4398 0f73 DA0F0000 		.4byte	0xfda
 4399 0f77 1B       		.uleb128 0x1b
 4400 0f78 1D0E0000 		.4byte	.LASF333
 4401 0f7c 01       		.byte	0x1
 4402 0f7d 7701     		.2byte	0x177
 4403 0f7f 25000000 		.4byte	0x25
 4404 0f83 2C000000 		.4byte	.LLST1
 4405 0f87 1C       		.uleb128 0x1c
ARM GAS  C:\Users\Kevin\AppData\Local\Temp\ccw18vSb.s 			page 93


 4406 0f88 EC000000 		.4byte	.LBB2
 4407 0f8c 68010000 		.4byte	.LBE2
 4408 0f90 B50F0000 		.4byte	0xfb5
 4409 0f94 1D       		.uleb128 0x1d
 4410 0f95 48070000 		.4byte	.LASF331
 4411 0f99 01       		.byte	0x1
 4412 0f9a 9301     		.2byte	0x193
 4413 0f9c 25000000 		.4byte	0x25
 4414 0fa0 50000000 		.4byte	.LLST2
 4415 0fa4 1D       		.uleb128 0x1d
 4416 0fa5 50070000 		.4byte	.LASF332
 4417 0fa9 01       		.byte	0x1
 4418 0faa 9401     		.2byte	0x194
 4419 0fac 25000000 		.4byte	0x25
 4420 0fb0 94000000 		.4byte	.LLST3
 4421 0fb4 00       		.byte	0
 4422 0fb5 1E       		.uleb128 0x1e
 4423 0fb6 5A000000 		.4byte	.LVL2
 4424 0fba 33180000 		.4byte	0x1833
 4425 0fbe 1E       		.uleb128 0x1e
 4426 0fbf C4000000 		.4byte	.LVL3
 4427 0fc3 33180000 		.4byte	0x1833
 4428 0fc7 1E       		.uleb128 0x1e
 4429 0fc8 86010000 		.4byte	.LVL12
 4430 0fcc 33180000 		.4byte	0x1833
 4431 0fd0 1E       		.uleb128 0x1e
 4432 0fd1 A4010000 		.4byte	.LVL13
 4433 0fd5 4C180000 		.4byte	0x184c
 4434 0fd9 00       		.byte	0
 4435 0fda 1F       		.uleb128 0x1f
 4436 0fdb 01       		.byte	0x1
 4437 0fdc 050B0000 		.4byte	.LASF338
 4438 0fe0 01       		.byte	0x1
 4439 0fe1 23       		.byte	0x23
 4440 0fe2 01       		.byte	0x1
 4441 0fe3 A0020000 		.4byte	.LFB110
 4442 0fe7 08030000 		.4byte	.LFE110
 4443 0feb B7000000 		.4byte	.LLST4
 4444 0fef 01       		.byte	0x1
 4445 0ff0 58100000 		.4byte	0x1058
 4446 0ff4 20       		.uleb128 0x20
 4447 0ff5 F0160000 		.4byte	.LASF334
 4448 0ff9 01       		.byte	0x1
 4449 0ffa 23       		.byte	0x23
 4450 0ffb 35070000 		.4byte	0x735
 4451 0fff E3000000 		.4byte	.LLST5
 4452 1003 20       		.uleb128 0x20
 4453 1004 2E060000 		.4byte	.LASF335
 4454 1008 01       		.byte	0x1
 4455 1009 23       		.byte	0x23
 4456 100a 58100000 		.4byte	0x1058
 4457 100e 04010000 		.4byte	.LLST6
 4458 1012 21       		.uleb128 0x21
 4459 1013 42000000 		.4byte	.LASF336
 4460 1017 01       		.byte	0x1
 4461 1018 24       		.byte	0x24
 4462 1019 25000000 		.4byte	0x25
ARM GAS  C:\Users\Kevin\AppData\Local\Temp\ccw18vSb.s 			page 94


 4463 101d 22010000 		.4byte	.LLST7
 4464 1021 22       		.uleb128 0x22
 4465 1022 6D7300   		.ascii	"ms\000"
 4466 1025 01       		.byte	0x1
 4467 1026 3C       		.byte	0x3c
 4468 1027 25000000 		.4byte	0x25
 4469 102b 13       		.byte	0x13
 4470 102c 70       		.byte	0x70
 4471 102d 00       		.sleb128 0
 4472 102e 0A       		.byte	0xa
 4473 102f FFFF     		.2byte	0xffff
 4474 1031 1A       		.byte	0x1a
 4475 1032 F7       		.byte	0xf7
 4476 1033 2C       		.uleb128 0x2c
 4477 1034 F7       		.byte	0xf7
 4478 1035 25       		.uleb128 0x25
 4479 1036 F4       		.byte	0xf4
 4480 1037 25       		.uleb128 0x25
 4481 1038 04       		.byte	0x4
 4482 1039 00007A44 		.4byte	0x447a0000
 4483 103d 1B       		.byte	0x1b
 4484 103e 9F       		.byte	0x9f
 4485 103f 21       		.uleb128 0x21
 4486 1040 E5060000 		.4byte	.LASF337
 4487 1044 01       		.byte	0x1
 4488 1045 3E       		.byte	0x3e
 4489 1046 25000000 		.4byte	0x25
 4490 104a 46010000 		.4byte	.LLST8
 4491 104e 1E       		.uleb128 0x1e
 4492 104f CA020000 		.4byte	.LVL17
 4493 1053 64180000 		.4byte	0x1864
 4494 1057 00       		.byte	0
 4495 1058 08       		.uleb128 0x8
 4496 1059 04       		.byte	0x4
 4497 105a F30E0000 		.4byte	0xef3
 4498 105e 1F       		.uleb128 0x1f
 4499 105f 01       		.byte	0x1
 4500 1060 6E160000 		.4byte	.LASF339
 4501 1064 01       		.byte	0x1
 4502 1065 44       		.byte	0x44
 4503 1066 01       		.byte	0x1
 4504 1067 08030000 		.4byte	.LFB111
 4505 106b 54030000 		.4byte	.LFE111
 4506 106f 66010000 		.4byte	.LLST9
 4507 1073 01       		.byte	0x1
 4508 1074 9E100000 		.4byte	0x109e
 4509 1078 1E       		.uleb128 0x1e
 4510 1079 18030000 		.4byte	.LVL20
 4511 107d DA0F0000 		.4byte	0xfda
 4512 1081 1E       		.uleb128 0x1e
 4513 1082 24030000 		.4byte	.LVL21
 4514 1086 DA0F0000 		.4byte	0xfda
 4515 108a 1E       		.uleb128 0x1e
 4516 108b 30030000 		.4byte	.LVL22
 4517 108f DA0F0000 		.4byte	0xfda
 4518 1093 23       		.uleb128 0x23
 4519 1094 40030000 		.4byte	.LVL23
ARM GAS  C:\Users\Kevin\AppData\Local\Temp\ccw18vSb.s 			page 95


 4520 1098 01       		.byte	0x1
 4521 1099 DA0F0000 		.4byte	0xfda
 4522 109d 00       		.byte	0
 4523 109e 24       		.uleb128 0x24
 4524 109f 01       		.byte	0x1
 4525 10a0 EB060000 		.4byte	.LASF341
 4526 10a4 01       		.byte	0x1
 4527 10a5 4B       		.byte	0x4b
 4528 10a6 01       		.byte	0x1
 4529 10a7 ED0E0000 		.4byte	0xeed
 4530 10ab 54030000 		.4byte	.LFB112
 4531 10af F8030000 		.4byte	.LFE112
 4532 10b3 02       		.byte	0x2
 4533 10b4 7D       		.byte	0x7d
 4534 10b5 00       		.sleb128 0
 4535 10b6 01       		.byte	0x1
 4536 10b7 CB100000 		.4byte	0x10cb
 4537 10bb 20       		.uleb128 0x20
 4538 10bc 8D0A0000 		.4byte	.LASF342
 4539 10c0 01       		.byte	0x1
 4540 10c1 4B       		.byte	0x4b
 4541 10c2 AD060000 		.4byte	0x6ad
 4542 10c6 86010000 		.4byte	.LLST10
 4543 10ca 00       		.byte	0
 4544 10cb 1F       		.uleb128 0x1f
 4545 10cc 01       		.byte	0x1
 4546 10cd 570F0000 		.4byte	.LASF343
 4547 10d1 01       		.byte	0x1
 4548 10d2 61       		.byte	0x61
 4549 10d3 01       		.byte	0x1
 4550 10d4 F8030000 		.4byte	.LFB113
 4551 10d8 84040000 		.4byte	.LFE113
 4552 10dc C0010000 		.4byte	.LLST11
 4553 10e0 01       		.byte	0x1
 4554 10e1 52110000 		.4byte	0x1152
 4555 10e5 1E       		.uleb128 0x1e
 4556 10e6 08040000 		.4byte	.LVL28
 4557 10ea 9E100000 		.4byte	0x109e
 4558 10ee 1E       		.uleb128 0x1e
 4559 10ef 10040000 		.4byte	.LVL29
 4560 10f3 9E100000 		.4byte	0x109e
 4561 10f7 1E       		.uleb128 0x1e
 4562 10f8 18040000 		.4byte	.LVL30
 4563 10fc 9E100000 		.4byte	0x109e
 4564 1100 1E       		.uleb128 0x1e
 4565 1101 24040000 		.4byte	.LVL31
 4566 1105 9E100000 		.4byte	0x109e
 4567 1109 1E       		.uleb128 0x1e
 4568 110a 2C040000 		.4byte	.LVL32
 4569 110e 9E100000 		.4byte	0x109e
 4570 1112 1E       		.uleb128 0x1e
 4571 1113 34040000 		.4byte	.LVL33
 4572 1117 9E100000 		.4byte	0x109e
 4573 111b 1E       		.uleb128 0x1e
 4574 111c 40040000 		.4byte	.LVL34
 4575 1120 9E100000 		.4byte	0x109e
 4576 1124 1E       		.uleb128 0x1e
ARM GAS  C:\Users\Kevin\AppData\Local\Temp\ccw18vSb.s 			page 96


 4577 1125 48040000 		.4byte	.LVL35
 4578 1129 9E100000 		.4byte	0x109e
 4579 112d 1E       		.uleb128 0x1e
 4580 112e 50040000 		.4byte	.LVL36
 4581 1132 9E100000 		.4byte	0x109e
 4582 1136 1E       		.uleb128 0x1e
 4583 1137 5C040000 		.4byte	.LVL37
 4584 113b 9E100000 		.4byte	0x109e
 4585 113f 1E       		.uleb128 0x1e
 4586 1140 64040000 		.4byte	.LVL38
 4587 1144 9E100000 		.4byte	0x109e
 4588 1148 1E       		.uleb128 0x1e
 4589 1149 6C040000 		.4byte	.LVL39
 4590 114d 9E100000 		.4byte	0x109e
 4591 1151 00       		.byte	0
 4592 1152 25       		.uleb128 0x25
 4593 1153 01       		.byte	0x1
 4594 1154 4A050000 		.4byte	.LASF344
 4595 1158 01       		.byte	0x1
 4596 1159 73       		.byte	0x73
 4597 115a 01       		.byte	0x1
 4598 115b B4090000 		.4byte	0x9b4
 4599 115f 84040000 		.4byte	.LFB114
 4600 1163 9C070000 		.4byte	.LFE114
 4601 1167 E0010000 		.4byte	.LLST12
 4602 116b 01       		.byte	0x1
 4603 116c 0A140000 		.4byte	0x140a
 4604 1170 26       		.uleb128 0x26
 4605 1171 94040000 		.4byte	.LVL40
 4606 1175 7C180000 		.4byte	0x187c
 4607 1179 85110000 		.4byte	0x1185
 4608 117d 27       		.uleb128 0x27
 4609 117e 01       		.byte	0x1
 4610 117f 50       		.byte	0x50
 4611 1180 03       		.byte	0x3
 4612 1181 0A       		.byte	0xa
 4613 1182 E003     		.2byte	0x3e0
 4614 1184 00       		.byte	0
 4615 1185 26       		.uleb128 0x26
 4616 1186 AA040000 		.4byte	.LVL41
 4617 118a 7C180000 		.4byte	0x187c
 4618 118e 9A110000 		.4byte	0x119a
 4619 1192 27       		.uleb128 0x27
 4620 1193 01       		.byte	0x1
 4621 1194 50       		.byte	0x50
 4622 1195 03       		.byte	0x3
 4623 1196 0A       		.byte	0xa
 4624 1197 E103     		.2byte	0x3e1
 4625 1199 00       		.byte	0
 4626 119a 26       		.uleb128 0x26
 4627 119b C0040000 		.4byte	.LVL42
 4628 119f 7C180000 		.4byte	0x187c
 4629 11a3 AF110000 		.4byte	0x11af
 4630 11a7 27       		.uleb128 0x27
 4631 11a8 01       		.byte	0x1
 4632 11a9 50       		.byte	0x50
 4633 11aa 03       		.byte	0x3
ARM GAS  C:\Users\Kevin\AppData\Local\Temp\ccw18vSb.s 			page 97


 4634 11ab 0A       		.byte	0xa
 4635 11ac E203     		.2byte	0x3e2
 4636 11ae 00       		.byte	0
 4637 11af 26       		.uleb128 0x26
 4638 11b0 D6040000 		.4byte	.LVL43
 4639 11b4 7C180000 		.4byte	0x187c
 4640 11b8 C4110000 		.4byte	0x11c4
 4641 11bc 27       		.uleb128 0x27
 4642 11bd 01       		.byte	0x1
 4643 11be 50       		.byte	0x50
 4644 11bf 03       		.byte	0x3
 4645 11c0 0A       		.byte	0xa
 4646 11c1 E303     		.2byte	0x3e3
 4647 11c3 00       		.byte	0
 4648 11c4 26       		.uleb128 0x26
 4649 11c5 EC040000 		.4byte	.LVL44
 4650 11c9 7C180000 		.4byte	0x187c
 4651 11cd D9110000 		.4byte	0x11d9
 4652 11d1 27       		.uleb128 0x27
 4653 11d2 01       		.byte	0x1
 4654 11d3 50       		.byte	0x50
 4655 11d4 03       		.byte	0x3
 4656 11d5 0A       		.byte	0xa
 4657 11d6 E403     		.2byte	0x3e4
 4658 11d8 00       		.byte	0
 4659 11d9 26       		.uleb128 0x26
 4660 11da 02050000 		.4byte	.LVL45
 4661 11de 7C180000 		.4byte	0x187c
 4662 11e2 EE110000 		.4byte	0x11ee
 4663 11e6 27       		.uleb128 0x27
 4664 11e7 01       		.byte	0x1
 4665 11e8 50       		.byte	0x50
 4666 11e9 03       		.byte	0x3
 4667 11ea 0A       		.byte	0xa
 4668 11eb E503     		.2byte	0x3e5
 4669 11ed 00       		.byte	0
 4670 11ee 26       		.uleb128 0x26
 4671 11ef 18050000 		.4byte	.LVL46
 4672 11f3 7C180000 		.4byte	0x187c
 4673 11f7 03120000 		.4byte	0x1203
 4674 11fb 27       		.uleb128 0x27
 4675 11fc 01       		.byte	0x1
 4676 11fd 50       		.byte	0x50
 4677 11fe 03       		.byte	0x3
 4678 11ff 0A       		.byte	0xa
 4679 1200 E603     		.2byte	0x3e6
 4680 1202 00       		.byte	0
 4681 1203 26       		.uleb128 0x26
 4682 1204 2E050000 		.4byte	.LVL47
 4683 1208 7C180000 		.4byte	0x187c
 4684 120c 18120000 		.4byte	0x1218
 4685 1210 27       		.uleb128 0x27
 4686 1211 01       		.byte	0x1
 4687 1212 50       		.byte	0x50
 4688 1213 03       		.byte	0x3
 4689 1214 0A       		.byte	0xa
 4690 1215 E703     		.2byte	0x3e7
ARM GAS  C:\Users\Kevin\AppData\Local\Temp\ccw18vSb.s 			page 98


 4691 1217 00       		.byte	0
 4692 1218 26       		.uleb128 0x26
 4693 1219 44050000 		.4byte	.LVL48
 4694 121d 7C180000 		.4byte	0x187c
 4695 1221 2D120000 		.4byte	0x122d
 4696 1225 27       		.uleb128 0x27
 4697 1226 01       		.byte	0x1
 4698 1227 50       		.byte	0x50
 4699 1228 03       		.byte	0x3
 4700 1229 0A       		.byte	0xa
 4701 122a E803     		.2byte	0x3e8
 4702 122c 00       		.byte	0
 4703 122d 26       		.uleb128 0x26
 4704 122e 5A050000 		.4byte	.LVL49
 4705 1232 7C180000 		.4byte	0x187c
 4706 1236 42120000 		.4byte	0x1242
 4707 123a 27       		.uleb128 0x27
 4708 123b 01       		.byte	0x1
 4709 123c 50       		.byte	0x50
 4710 123d 03       		.byte	0x3
 4711 123e 0A       		.byte	0xa
 4712 123f E903     		.2byte	0x3e9
 4713 1241 00       		.byte	0
 4714 1242 26       		.uleb128 0x26
 4715 1243 74050000 		.4byte	.LVL50
 4716 1247 7C180000 		.4byte	0x187c
 4717 124b 57120000 		.4byte	0x1257
 4718 124f 27       		.uleb128 0x27
 4719 1250 01       		.byte	0x1
 4720 1251 50       		.byte	0x50
 4721 1252 03       		.byte	0x3
 4722 1253 0A       		.byte	0xa
 4723 1254 EA03     		.2byte	0x3ea
 4724 1256 00       		.byte	0
 4725 1257 26       		.uleb128 0x26
 4726 1258 8A050000 		.4byte	.LVL51
 4727 125c 7C180000 		.4byte	0x187c
 4728 1260 6C120000 		.4byte	0x126c
 4729 1264 27       		.uleb128 0x27
 4730 1265 01       		.byte	0x1
 4731 1266 50       		.byte	0x50
 4732 1267 03       		.byte	0x3
 4733 1268 0A       		.byte	0xa
 4734 1269 EB03     		.2byte	0x3eb
 4735 126b 00       		.byte	0
 4736 126c 26       		.uleb128 0x26
 4737 126d A0050000 		.4byte	.LVL52
 4738 1271 7C180000 		.4byte	0x187c
 4739 1275 81120000 		.4byte	0x1281
 4740 1279 27       		.uleb128 0x27
 4741 127a 01       		.byte	0x1
 4742 127b 50       		.byte	0x50
 4743 127c 03       		.byte	0x3
 4744 127d 0A       		.byte	0xa
 4745 127e EC03     		.2byte	0x3ec
 4746 1280 00       		.byte	0
 4747 1281 26       		.uleb128 0x26
ARM GAS  C:\Users\Kevin\AppData\Local\Temp\ccw18vSb.s 			page 99


 4748 1282 B6050000 		.4byte	.LVL53
 4749 1286 7C180000 		.4byte	0x187c
 4750 128a 96120000 		.4byte	0x1296
 4751 128e 27       		.uleb128 0x27
 4752 128f 01       		.byte	0x1
 4753 1290 50       		.byte	0x50
 4754 1291 03       		.byte	0x3
 4755 1292 0A       		.byte	0xa
 4756 1293 ED03     		.2byte	0x3ed
 4757 1295 00       		.byte	0
 4758 1296 26       		.uleb128 0x26
 4759 1297 CC050000 		.4byte	.LVL54
 4760 129b 7C180000 		.4byte	0x187c
 4761 129f AB120000 		.4byte	0x12ab
 4762 12a3 27       		.uleb128 0x27
 4763 12a4 01       		.byte	0x1
 4764 12a5 50       		.byte	0x50
 4765 12a6 03       		.byte	0x3
 4766 12a7 0A       		.byte	0xa
 4767 12a8 EE03     		.2byte	0x3ee
 4768 12aa 00       		.byte	0
 4769 12ab 26       		.uleb128 0x26
 4770 12ac E2050000 		.4byte	.LVL55
 4771 12b0 7C180000 		.4byte	0x187c
 4772 12b4 C0120000 		.4byte	0x12c0
 4773 12b8 27       		.uleb128 0x27
 4774 12b9 01       		.byte	0x1
 4775 12ba 50       		.byte	0x50
 4776 12bb 03       		.byte	0x3
 4777 12bc 0A       		.byte	0xa
 4778 12bd EF03     		.2byte	0x3ef
 4779 12bf 00       		.byte	0
 4780 12c0 26       		.uleb128 0x26
 4781 12c1 F8050000 		.4byte	.LVL56
 4782 12c5 7C180000 		.4byte	0x187c
 4783 12c9 D5120000 		.4byte	0x12d5
 4784 12cd 27       		.uleb128 0x27
 4785 12ce 01       		.byte	0x1
 4786 12cf 50       		.byte	0x50
 4787 12d0 03       		.byte	0x3
 4788 12d1 0A       		.byte	0xa
 4789 12d2 F003     		.2byte	0x3f0
 4790 12d4 00       		.byte	0
 4791 12d5 26       		.uleb128 0x26
 4792 12d6 0E060000 		.4byte	.LVL57
 4793 12da 7C180000 		.4byte	0x187c
 4794 12de EA120000 		.4byte	0x12ea
 4795 12e2 27       		.uleb128 0x27
 4796 12e3 01       		.byte	0x1
 4797 12e4 50       		.byte	0x50
 4798 12e5 03       		.byte	0x3
 4799 12e6 0A       		.byte	0xa
 4800 12e7 F103     		.2byte	0x3f1
 4801 12e9 00       		.byte	0
 4802 12ea 26       		.uleb128 0x26
 4803 12eb 24060000 		.4byte	.LVL58
 4804 12ef 7C180000 		.4byte	0x187c
ARM GAS  C:\Users\Kevin\AppData\Local\Temp\ccw18vSb.s 			page 100


 4805 12f3 FF120000 		.4byte	0x12ff
 4806 12f7 27       		.uleb128 0x27
 4807 12f8 01       		.byte	0x1
 4808 12f9 50       		.byte	0x50
 4809 12fa 03       		.byte	0x3
 4810 12fb 0A       		.byte	0xa
 4811 12fc F203     		.2byte	0x3f2
 4812 12fe 00       		.byte	0
 4813 12ff 26       		.uleb128 0x26
 4814 1300 3A060000 		.4byte	.LVL59
 4815 1304 7C180000 		.4byte	0x187c
 4816 1308 14130000 		.4byte	0x1314
 4817 130c 27       		.uleb128 0x27
 4818 130d 01       		.byte	0x1
 4819 130e 50       		.byte	0x50
 4820 130f 03       		.byte	0x3
 4821 1310 0A       		.byte	0xa
 4822 1311 F303     		.2byte	0x3f3
 4823 1313 00       		.byte	0
 4824 1314 26       		.uleb128 0x26
 4825 1315 54060000 		.4byte	.LVL60
 4826 1319 7C180000 		.4byte	0x187c
 4827 131d 29130000 		.4byte	0x1329
 4828 1321 27       		.uleb128 0x27
 4829 1322 01       		.byte	0x1
 4830 1323 50       		.byte	0x50
 4831 1324 03       		.byte	0x3
 4832 1325 0A       		.byte	0xa
 4833 1326 F403     		.2byte	0x3f4
 4834 1328 00       		.byte	0
 4835 1329 26       		.uleb128 0x26
 4836 132a 6A060000 		.4byte	.LVL61
 4837 132e 7C180000 		.4byte	0x187c
 4838 1332 3E130000 		.4byte	0x133e
 4839 1336 27       		.uleb128 0x27
 4840 1337 01       		.byte	0x1
 4841 1338 50       		.byte	0x50
 4842 1339 03       		.byte	0x3
 4843 133a 0A       		.byte	0xa
 4844 133b F503     		.2byte	0x3f5
 4845 133d 00       		.byte	0
 4846 133e 23       		.uleb128 0x23
 4847 133f 7E060000 		.4byte	.LVL62
 4848 1343 01       		.byte	0x1
 4849 1344 7C180000 		.4byte	0x187c
 4850 1348 26       		.uleb128 0x26
 4851 1349 8A060000 		.4byte	.LVL63
 4852 134d 99180000 		.4byte	0x1899
 4853 1351 5B130000 		.4byte	0x135b
 4854 1355 27       		.uleb128 0x27
 4855 1356 01       		.byte	0x1
 4856 1357 50       		.byte	0x50
 4857 1358 01       		.byte	0x1
 4858 1359 3A       		.byte	0x3a
 4859 135a 00       		.byte	0
 4860 135b 26       		.uleb128 0x26
 4861 135c 96060000 		.4byte	.LVL64
ARM GAS  C:\Users\Kevin\AppData\Local\Temp\ccw18vSb.s 			page 101


 4862 1360 99180000 		.4byte	0x1899
 4863 1364 6E130000 		.4byte	0x136e
 4864 1368 27       		.uleb128 0x27
 4865 1369 01       		.byte	0x1
 4866 136a 50       		.byte	0x50
 4867 136b 01       		.byte	0x1
 4868 136c 4C       		.byte	0x4c
 4869 136d 00       		.byte	0
 4870 136e 26       		.uleb128 0x26
 4871 136f A4060000 		.4byte	.LVL65
 4872 1373 99180000 		.4byte	0x1899
 4873 1377 82130000 		.4byte	0x1382
 4874 137b 27       		.uleb128 0x27
 4875 137c 01       		.byte	0x1
 4876 137d 50       		.byte	0x50
 4877 137e 02       		.byte	0x2
 4878 137f 08       		.byte	0x8
 4879 1380 34       		.byte	0x34
 4880 1381 00       		.byte	0
 4881 1382 26       		.uleb128 0x26
 4882 1383 CA060000 		.4byte	.LVL66
 4883 1387 99180000 		.4byte	0x1899
 4884 138b 95130000 		.4byte	0x1395
 4885 138f 27       		.uleb128 0x27
 4886 1390 01       		.byte	0x1
 4887 1391 50       		.byte	0x50
 4888 1392 01       		.byte	0x1
 4889 1393 4C       		.byte	0x4c
 4890 1394 00       		.byte	0
 4891 1395 26       		.uleb128 0x26
 4892 1396 DA060000 		.4byte	.LVL67
 4893 139a 99180000 		.4byte	0x1899
 4894 139e A9130000 		.4byte	0x13a9
 4895 13a2 27       		.uleb128 0x27
 4896 13a3 01       		.byte	0x1
 4897 13a4 50       		.byte	0x50
 4898 13a5 02       		.byte	0x2
 4899 13a6 08       		.byte	0x8
 4900 13a7 34       		.byte	0x34
 4901 13a8 00       		.byte	0
 4902 13a9 26       		.uleb128 0x26
 4903 13aa 00070000 		.4byte	.LVL68
 4904 13ae 99180000 		.4byte	0x1899
 4905 13b2 BC130000 		.4byte	0x13bc
 4906 13b6 27       		.uleb128 0x27
 4907 13b7 01       		.byte	0x1
 4908 13b8 50       		.byte	0x50
 4909 13b9 01       		.byte	0x1
 4910 13ba 4C       		.byte	0x4c
 4911 13bb 00       		.byte	0
 4912 13bc 26       		.uleb128 0x26
 4913 13bd 10070000 		.4byte	.LVL69
 4914 13c1 99180000 		.4byte	0x1899
 4915 13c5 D0130000 		.4byte	0x13d0
 4916 13c9 27       		.uleb128 0x27
 4917 13ca 01       		.byte	0x1
 4918 13cb 50       		.byte	0x50
ARM GAS  C:\Users\Kevin\AppData\Local\Temp\ccw18vSb.s 			page 102


 4919 13cc 02       		.byte	0x2
 4920 13cd 08       		.byte	0x8
 4921 13ce 34       		.byte	0x34
 4922 13cf 00       		.byte	0
 4923 13d0 26       		.uleb128 0x26
 4924 13d1 36070000 		.4byte	.LVL70
 4925 13d5 99180000 		.4byte	0x1899
 4926 13d9 E3130000 		.4byte	0x13e3
 4927 13dd 27       		.uleb128 0x27
 4928 13de 01       		.byte	0x1
 4929 13df 50       		.byte	0x50
 4930 13e0 01       		.byte	0x1
 4931 13e1 4C       		.byte	0x4c
 4932 13e2 00       		.byte	0
 4933 13e3 26       		.uleb128 0x26
 4934 13e4 46070000 		.4byte	.LVL71
 4935 13e8 99180000 		.4byte	0x1899
 4936 13ec F7130000 		.4byte	0x13f7
 4937 13f0 27       		.uleb128 0x27
 4938 13f1 01       		.byte	0x1
 4939 13f2 50       		.byte	0x50
 4940 13f3 02       		.byte	0x2
 4941 13f4 08       		.byte	0x8
 4942 13f5 34       		.byte	0x34
 4943 13f6 00       		.byte	0
 4944 13f7 1E       		.uleb128 0x1e
 4945 13f8 76070000 		.4byte	.LVL72
 4946 13fc CB100000 		.4byte	0x10cb
 4947 1400 1E       		.uleb128 0x1e
 4948 1401 7A070000 		.4byte	.LVL73
 4949 1405 5E100000 		.4byte	0x105e
 4950 1409 00       		.byte	0
 4951 140a 25       		.uleb128 0x25
 4952 140b 01       		.byte	0x1
 4953 140c 190D0000 		.4byte	.LASF345
 4954 1410 01       		.byte	0x1
 4955 1411 C2       		.byte	0xc2
 4956 1412 01       		.byte	0x1
 4957 1413 B4090000 		.4byte	0x9b4
 4958 1417 9C070000 		.4byte	.LFB115
 4959 141b EC090000 		.4byte	.LFE115
 4960 141f 00020000 		.4byte	.LLST13
 4961 1423 01       		.byte	0x1
 4962 1424 07160000 		.4byte	0x1607
 4963 1428 26       		.uleb128 0x26
 4964 1429 EC070000 		.4byte	.LVL74
 4965 142d B1180000 		.4byte	0x18b1
 4966 1431 43140000 		.4byte	0x1443
 4967 1435 27       		.uleb128 0x27
 4968 1436 01       		.byte	0x1
 4969 1437 51       		.byte	0x51
 4970 1438 02       		.byte	0x2
 4971 1439 09       		.byte	0x9
 4972 143a FF       		.byte	0xff
 4973 143b 27       		.uleb128 0x27
 4974 143c 01       		.byte	0x1
 4975 143d 50       		.byte	0x50
ARM GAS  C:\Users\Kevin\AppData\Local\Temp\ccw18vSb.s 			page 103


 4976 143e 03       		.byte	0x3
 4977 143f 0A       		.byte	0xa
 4978 1440 E003     		.2byte	0x3e0
 4979 1442 00       		.byte	0
 4980 1443 26       		.uleb128 0x26
 4981 1444 02080000 		.4byte	.LVL75
 4982 1448 B1180000 		.4byte	0x18b1
 4983 144c 58140000 		.4byte	0x1458
 4984 1450 27       		.uleb128 0x27
 4985 1451 01       		.byte	0x1
 4986 1452 50       		.byte	0x50
 4987 1453 03       		.byte	0x3
 4988 1454 0A       		.byte	0xa
 4989 1455 E103     		.2byte	0x3e1
 4990 1457 00       		.byte	0
 4991 1458 26       		.uleb128 0x26
 4992 1459 18080000 		.4byte	.LVL76
 4993 145d B1180000 		.4byte	0x18b1
 4994 1461 6D140000 		.4byte	0x146d
 4995 1465 27       		.uleb128 0x27
 4996 1466 01       		.byte	0x1
 4997 1467 50       		.byte	0x50
 4998 1468 03       		.byte	0x3
 4999 1469 0A       		.byte	0xa
 5000 146a E203     		.2byte	0x3e2
 5001 146c 00       		.byte	0
 5002 146d 26       		.uleb128 0x26
 5003 146e 2E080000 		.4byte	.LVL77
 5004 1472 B1180000 		.4byte	0x18b1
 5005 1476 82140000 		.4byte	0x1482
 5006 147a 27       		.uleb128 0x27
 5007 147b 01       		.byte	0x1
 5008 147c 50       		.byte	0x50
 5009 147d 03       		.byte	0x3
 5010 147e 0A       		.byte	0xa
 5011 147f E303     		.2byte	0x3e3
 5012 1481 00       		.byte	0
 5013 1482 26       		.uleb128 0x26
 5014 1483 44080000 		.4byte	.LVL78
 5015 1487 B1180000 		.4byte	0x18b1
 5016 148b 97140000 		.4byte	0x1497
 5017 148f 27       		.uleb128 0x27
 5018 1490 01       		.byte	0x1
 5019 1491 50       		.byte	0x50
 5020 1492 03       		.byte	0x3
 5021 1493 0A       		.byte	0xa
 5022 1494 E403     		.2byte	0x3e4
 5023 1496 00       		.byte	0
 5024 1497 26       		.uleb128 0x26
 5025 1498 5A080000 		.4byte	.LVL79
 5026 149c B1180000 		.4byte	0x18b1
 5027 14a0 AC140000 		.4byte	0x14ac
 5028 14a4 27       		.uleb128 0x27
 5029 14a5 01       		.byte	0x1
 5030 14a6 50       		.byte	0x50
 5031 14a7 03       		.byte	0x3
 5032 14a8 0A       		.byte	0xa
ARM GAS  C:\Users\Kevin\AppData\Local\Temp\ccw18vSb.s 			page 104


 5033 14a9 E503     		.2byte	0x3e5
 5034 14ab 00       		.byte	0
 5035 14ac 26       		.uleb128 0x26
 5036 14ad 70080000 		.4byte	.LVL80
 5037 14b1 B1180000 		.4byte	0x18b1
 5038 14b5 C1140000 		.4byte	0x14c1
 5039 14b9 27       		.uleb128 0x27
 5040 14ba 01       		.byte	0x1
 5041 14bb 50       		.byte	0x50
 5042 14bc 03       		.byte	0x3
 5043 14bd 0A       		.byte	0xa
 5044 14be E603     		.2byte	0x3e6
 5045 14c0 00       		.byte	0
 5046 14c1 26       		.uleb128 0x26
 5047 14c2 86080000 		.4byte	.LVL81
 5048 14c6 B1180000 		.4byte	0x18b1
 5049 14ca D6140000 		.4byte	0x14d6
 5050 14ce 27       		.uleb128 0x27
 5051 14cf 01       		.byte	0x1
 5052 14d0 50       		.byte	0x50
 5053 14d1 03       		.byte	0x3
 5054 14d2 0A       		.byte	0xa
 5055 14d3 E703     		.2byte	0x3e7
 5056 14d5 00       		.byte	0
 5057 14d6 26       		.uleb128 0x26
 5058 14d7 9C080000 		.4byte	.LVL82
 5059 14db B1180000 		.4byte	0x18b1
 5060 14df EB140000 		.4byte	0x14eb
 5061 14e3 27       		.uleb128 0x27
 5062 14e4 01       		.byte	0x1
 5063 14e5 50       		.byte	0x50
 5064 14e6 03       		.byte	0x3
 5065 14e7 0A       		.byte	0xa
 5066 14e8 E803     		.2byte	0x3e8
 5067 14ea 00       		.byte	0
 5068 14eb 26       		.uleb128 0x26
 5069 14ec B2080000 		.4byte	.LVL83
 5070 14f0 B1180000 		.4byte	0x18b1
 5071 14f4 00150000 		.4byte	0x1500
 5072 14f8 27       		.uleb128 0x27
 5073 14f9 01       		.byte	0x1
 5074 14fa 50       		.byte	0x50
 5075 14fb 03       		.byte	0x3
 5076 14fc 0A       		.byte	0xa
 5077 14fd E903     		.2byte	0x3e9
 5078 14ff 00       		.byte	0
 5079 1500 26       		.uleb128 0x26
 5080 1501 CC080000 		.4byte	.LVL84
 5081 1505 B1180000 		.4byte	0x18b1
 5082 1509 15150000 		.4byte	0x1515
 5083 150d 27       		.uleb128 0x27
 5084 150e 01       		.byte	0x1
 5085 150f 50       		.byte	0x50
 5086 1510 03       		.byte	0x3
 5087 1511 0A       		.byte	0xa
 5088 1512 EA03     		.2byte	0x3ea
 5089 1514 00       		.byte	0
ARM GAS  C:\Users\Kevin\AppData\Local\Temp\ccw18vSb.s 			page 105


 5090 1515 26       		.uleb128 0x26
 5091 1516 E2080000 		.4byte	.LVL85
 5092 151a B1180000 		.4byte	0x18b1
 5093 151e 2A150000 		.4byte	0x152a
 5094 1522 27       		.uleb128 0x27
 5095 1523 01       		.byte	0x1
 5096 1524 50       		.byte	0x50
 5097 1525 03       		.byte	0x3
 5098 1526 0A       		.byte	0xa
 5099 1527 EB03     		.2byte	0x3eb
 5100 1529 00       		.byte	0
 5101 152a 26       		.uleb128 0x26
 5102 152b F8080000 		.4byte	.LVL86
 5103 152f B1180000 		.4byte	0x18b1
 5104 1533 3F150000 		.4byte	0x153f
 5105 1537 27       		.uleb128 0x27
 5106 1538 01       		.byte	0x1
 5107 1539 50       		.byte	0x50
 5108 153a 03       		.byte	0x3
 5109 153b 0A       		.byte	0xa
 5110 153c EC03     		.2byte	0x3ec
 5111 153e 00       		.byte	0
 5112 153f 26       		.uleb128 0x26
 5113 1540 0E090000 		.4byte	.LVL87
 5114 1544 B1180000 		.4byte	0x18b1
 5115 1548 54150000 		.4byte	0x1554
 5116 154c 27       		.uleb128 0x27
 5117 154d 01       		.byte	0x1
 5118 154e 50       		.byte	0x50
 5119 154f 03       		.byte	0x3
 5120 1550 0A       		.byte	0xa
 5121 1551 ED03     		.2byte	0x3ed
 5122 1553 00       		.byte	0
 5123 1554 26       		.uleb128 0x26
 5124 1555 24090000 		.4byte	.LVL88
 5125 1559 B1180000 		.4byte	0x18b1
 5126 155d 69150000 		.4byte	0x1569
 5127 1561 27       		.uleb128 0x27
 5128 1562 01       		.byte	0x1
 5129 1563 50       		.byte	0x50
 5130 1564 03       		.byte	0x3
 5131 1565 0A       		.byte	0xa
 5132 1566 EE03     		.2byte	0x3ee
 5133 1568 00       		.byte	0
 5134 1569 26       		.uleb128 0x26
 5135 156a 3A090000 		.4byte	.LVL89
 5136 156e B1180000 		.4byte	0x18b1
 5137 1572 7E150000 		.4byte	0x157e
 5138 1576 27       		.uleb128 0x27
 5139 1577 01       		.byte	0x1
 5140 1578 50       		.byte	0x50
 5141 1579 03       		.byte	0x3
 5142 157a 0A       		.byte	0xa
 5143 157b EF03     		.2byte	0x3ef
 5144 157d 00       		.byte	0
 5145 157e 26       		.uleb128 0x26
 5146 157f 50090000 		.4byte	.LVL90
ARM GAS  C:\Users\Kevin\AppData\Local\Temp\ccw18vSb.s 			page 106


 5147 1583 B1180000 		.4byte	0x18b1
 5148 1587 93150000 		.4byte	0x1593
 5149 158b 27       		.uleb128 0x27
 5150 158c 01       		.byte	0x1
 5151 158d 50       		.byte	0x50
 5152 158e 03       		.byte	0x3
 5153 158f 0A       		.byte	0xa
 5154 1590 F003     		.2byte	0x3f0
 5155 1592 00       		.byte	0
 5156 1593 26       		.uleb128 0x26
 5157 1594 66090000 		.4byte	.LVL91
 5158 1598 B1180000 		.4byte	0x18b1
 5159 159c A8150000 		.4byte	0x15a8
 5160 15a0 27       		.uleb128 0x27
 5161 15a1 01       		.byte	0x1
 5162 15a2 50       		.byte	0x50
 5163 15a3 03       		.byte	0x3
 5164 15a4 0A       		.byte	0xa
 5165 15a5 F103     		.2byte	0x3f1
 5166 15a7 00       		.byte	0
 5167 15a8 26       		.uleb128 0x26
 5168 15a9 7C090000 		.4byte	.LVL92
 5169 15ad B1180000 		.4byte	0x18b1
 5170 15b1 BD150000 		.4byte	0x15bd
 5171 15b5 27       		.uleb128 0x27
 5172 15b6 01       		.byte	0x1
 5173 15b7 50       		.byte	0x50
 5174 15b8 03       		.byte	0x3
 5175 15b9 0A       		.byte	0xa
 5176 15ba F203     		.2byte	0x3f2
 5177 15bc 00       		.byte	0
 5178 15bd 26       		.uleb128 0x26
 5179 15be 92090000 		.4byte	.LVL93
 5180 15c2 B1180000 		.4byte	0x18b1
 5181 15c6 D2150000 		.4byte	0x15d2
 5182 15ca 27       		.uleb128 0x27
 5183 15cb 01       		.byte	0x1
 5184 15cc 50       		.byte	0x50
 5185 15cd 03       		.byte	0x3
 5186 15ce 0A       		.byte	0xa
 5187 15cf F303     		.2byte	0x3f3
 5188 15d1 00       		.byte	0
 5189 15d2 26       		.uleb128 0x26
 5190 15d3 AC090000 		.4byte	.LVL94
 5191 15d7 B1180000 		.4byte	0x18b1
 5192 15db E7150000 		.4byte	0x15e7
 5193 15df 27       		.uleb128 0x27
 5194 15e0 01       		.byte	0x1
 5195 15e1 50       		.byte	0x50
 5196 15e2 03       		.byte	0x3
 5197 15e3 0A       		.byte	0xa
 5198 15e4 F403     		.2byte	0x3f4
 5199 15e6 00       		.byte	0
 5200 15e7 26       		.uleb128 0x26
 5201 15e8 C2090000 		.4byte	.LVL95
 5202 15ec B1180000 		.4byte	0x18b1
 5203 15f0 FC150000 		.4byte	0x15fc
ARM GAS  C:\Users\Kevin\AppData\Local\Temp\ccw18vSb.s 			page 107


 5204 15f4 27       		.uleb128 0x27
 5205 15f5 01       		.byte	0x1
 5206 15f6 50       		.byte	0x50
 5207 15f7 03       		.byte	0x3
 5208 15f8 0A       		.byte	0xa
 5209 15f9 F503     		.2byte	0x3f5
 5210 15fb 00       		.byte	0
 5211 15fc 23       		.uleb128 0x23
 5212 15fd D4090000 		.4byte	.LVL96
 5213 1601 01       		.byte	0x1
 5214 1602 B1180000 		.4byte	0x18b1
 5215 1606 00       		.byte	0
 5216 1607 1A       		.uleb128 0x1a
 5217 1608 01       		.byte	0x1
 5218 1609 C90F0000 		.4byte	.LASF346
 5219 160d 01       		.byte	0x1
 5220 160e 0301     		.2byte	0x103
 5221 1610 01       		.byte	0x1
 5222 1611 B4090000 		.4byte	0x9b4
 5223 1615 EC090000 		.4byte	.LFB116
 5224 1619 500B0000 		.4byte	.LFE116
 5225 161d 20020000 		.4byte	.LLST14
 5226 1621 01       		.byte	0x1
 5227 1622 6B160000 		.4byte	0x166b
 5228 1626 1B       		.uleb128 0x1b
 5229 1627 84110000 		.4byte	.LASF347
 5230 162b 01       		.byte	0x1
 5231 162c 0301     		.2byte	0x103
 5232 162e 5E000000 		.4byte	0x5e
 5233 1632 40020000 		.4byte	.LLST15
 5234 1636 1B       		.uleb128 0x1b
 5235 1637 F0160000 		.4byte	.LASF334
 5236 163b 01       		.byte	0x1
 5237 163c 0301     		.2byte	0x103
 5238 163e 3A000000 		.4byte	0x3a
 5239 1642 10030000 		.4byte	.LLST16
 5240 1646 1E       		.uleb128 0x1e
 5241 1647 9C0A0000 		.4byte	.LVL109
 5242 164b DA0F0000 		.4byte	0xfda
 5243 164f 1E       		.uleb128 0x1e
 5244 1650 080B0000 		.4byte	.LVL112
 5245 1654 9E100000 		.4byte	0x109e
 5246 1658 1E       		.uleb128 0x1e
 5247 1659 1C0B0000 		.4byte	.LVL115
 5248 165d 9E100000 		.4byte	0x109e
 5249 1661 1E       		.uleb128 0x1e
 5250 1662 300B0000 		.4byte	.LVL118
 5251 1666 9E100000 		.4byte	0x109e
 5252 166a 00       		.byte	0
 5253 166b 28       		.uleb128 0x28
 5254 166c 01       		.byte	0x1
 5255 166d 64110000 		.4byte	.LASF348
 5256 1671 01       		.byte	0x1
 5257 1672 C901     		.2byte	0x1c9
 5258 1674 01       		.byte	0x1
 5259 1675 500B0000 		.4byte	.LFB118
 5260 1679 480D0000 		.4byte	.LFE118
ARM GAS  C:\Users\Kevin\AppData\Local\Temp\ccw18vSb.s 			page 108


 5261 167d 02       		.byte	0x2
 5262 167e 7D       		.byte	0x7d
 5263 167f 00       		.sleb128 0
 5264 1680 01       		.byte	0x1
 5265 1681 A2160000 		.4byte	0x16a2
 5266 1685 29       		.uleb128 0x29
 5267 1686 260D0000 		.4byte	.LVL119
 5268 168a 01       		.byte	0x1
 5269 168b CE180000 		.4byte	0x18ce
 5270 168f 27       		.uleb128 0x27
 5271 1690 01       		.byte	0x1
 5272 1691 53       		.byte	0x53
 5273 1692 01       		.byte	0x1
 5274 1693 3A       		.byte	0x3a
 5275 1694 27       		.uleb128 0x27
 5276 1695 01       		.byte	0x1
 5277 1696 51       		.byte	0x51
 5278 1697 02       		.byte	0x2
 5279 1698 08       		.byte	0x8
 5280 1699 33       		.byte	0x33
 5281 169a 27       		.uleb128 0x27
 5282 169b 01       		.byte	0x1
 5283 169c 50       		.byte	0x50
 5284 169d 02       		.byte	0x2
 5285 169e 08       		.byte	0x8
 5286 169f 46       		.byte	0x46
 5287 16a0 00       		.byte	0
 5288 16a1 00       		.byte	0
 5289 16a2 2A       		.uleb128 0x2a
 5290 16a3 AF0F0000 		.4byte	.LASF349
 5291 16a7 0A       		.byte	0xa
 5292 16a8 1A05     		.2byte	0x51a
 5293 16aa A5000000 		.4byte	0xa5
 5294 16ae 01       		.byte	0x1
 5295 16af 01       		.byte	0x1
 5296 16b0 2B       		.uleb128 0x2b
 5297 16b1 9D010000 		.4byte	.LASF350
 5298 16b5 01       		.byte	0x1
 5299 16b6 10       		.byte	0x10
 5300 16b7 C2160000 		.4byte	0x16c2
 5301 16bb 01       		.byte	0x1
 5302 16bc 05       		.byte	0x5
 5303 16bd 03       		.byte	0x3
 5304 16be 00000000 		.4byte	ComplementaryFilterConfig
 5305 16c2 08       		.uleb128 0x8
 5306 16c3 04       		.byte	0x4
 5307 16c4 52090000 		.4byte	0x952
 5308 16c8 2A       		.uleb128 0x2a
 5309 16c9 8A140000 		.4byte	.LASF351
 5310 16cd 03       		.byte	0x3
 5311 16ce 3C03     		.2byte	0x33c
 5312 16d0 D6160000 		.4byte	0x16d6
 5313 16d4 01       		.byte	0x1
 5314 16d5 01       		.byte	0x1
 5315 16d6 08       		.uleb128 0x8
 5316 16d7 04       		.byte	0x4
 5317 16d8 94040000 		.4byte	0x494
ARM GAS  C:\Users\Kevin\AppData\Local\Temp\ccw18vSb.s 			page 109


 5318 16dc 2A       		.uleb128 0x2a
 5319 16dd B2140000 		.4byte	.LASF352
 5320 16e1 03       		.byte	0x3
 5321 16e2 3E03     		.2byte	0x33e
 5322 16e4 EA160000 		.4byte	0x16ea
 5323 16e8 01       		.byte	0x1
 5324 16e9 01       		.byte	0x1
 5325 16ea 08       		.uleb128 0x8
 5326 16eb 04       		.byte	0x4
 5327 16ec 43040000 		.4byte	0x443
 5328 16f0 2A       		.uleb128 0x2a
 5329 16f1 2B050000 		.4byte	.LASF353
 5330 16f5 03       		.byte	0x3
 5331 16f6 4203     		.2byte	0x342
 5332 16f8 FE160000 		.4byte	0x16fe
 5333 16fc 01       		.byte	0x1
 5334 16fd 01       		.byte	0x1
 5335 16fe 08       		.uleb128 0x8
 5336 16ff 04       		.byte	0x4
 5337 1700 12060000 		.4byte	0x612
 5338 1704 2A       		.uleb128 0x2a
 5339 1705 61060000 		.4byte	.LASF354
 5340 1709 08       		.byte	0x8
 5341 170a 0C01     		.2byte	0x10c
 5342 170c ED0E0000 		.4byte	0xeed
 5343 1710 01       		.byte	0x1
 5344 1711 01       		.byte	0x1
 5345 1712 2A       		.uleb128 0x2a
 5346 1713 EF040000 		.4byte	.LASF355
 5347 1717 08       		.byte	0x8
 5348 1718 0D01     		.2byte	0x10d
 5349 171a ED0E0000 		.4byte	0xeed
 5350 171e 01       		.byte	0x1
 5351 171f 01       		.byte	0x1
 5352 1720 2A       		.uleb128 0x2a
 5353 1721 62120000 		.4byte	.LASF356
 5354 1725 08       		.byte	0x8
 5355 1726 2001     		.2byte	0x120
 5356 1728 ED0E0000 		.4byte	0xeed
 5357 172c 01       		.byte	0x1
 5358 172d 01       		.byte	0x1
 5359 172e 2A       		.uleb128 0x2a
 5360 172f E20D0000 		.4byte	.LASF357
 5361 1733 08       		.byte	0x8
 5362 1734 2101     		.2byte	0x121
 5363 1736 ED0E0000 		.4byte	0xeed
 5364 173a 01       		.byte	0x1
 5365 173b 01       		.byte	0x1
 5366 173c 2A       		.uleb128 0x2a
 5367 173d 10170000 		.4byte	.LASF358
 5368 1741 08       		.byte	0x8
 5369 1742 1201     		.2byte	0x112
 5370 1744 ED0E0000 		.4byte	0xeed
 5371 1748 01       		.byte	0x1
 5372 1749 01       		.byte	0x1
 5373 174a 2A       		.uleb128 0x2a
 5374 174b 45130000 		.4byte	.LASF359
ARM GAS  C:\Users\Kevin\AppData\Local\Temp\ccw18vSb.s 			page 110


 5375 174f 08       		.byte	0x8
 5376 1750 1301     		.2byte	0x113
 5377 1752 ED0E0000 		.4byte	0xeed
 5378 1756 01       		.byte	0x1
 5379 1757 01       		.byte	0x1
 5380 1758 2A       		.uleb128 0x2a
 5381 1759 AD110000 		.4byte	.LASF360
 5382 175d 08       		.byte	0x8
 5383 175e 1501     		.2byte	0x115
 5384 1760 ED0E0000 		.4byte	0xeed
 5385 1764 01       		.byte	0x1
 5386 1765 01       		.byte	0x1
 5387 1766 2A       		.uleb128 0x2a
 5388 1767 48030000 		.4byte	.LASF361
 5389 176b 08       		.byte	0x8
 5390 176c 1601     		.2byte	0x116
 5391 176e ED0E0000 		.4byte	0xeed
 5392 1772 01       		.byte	0x1
 5393 1773 01       		.byte	0x1
 5394 1774 2A       		.uleb128 0x2a
 5395 1775 CB0E0000 		.4byte	.LASF362
 5396 1779 08       		.byte	0x8
 5397 177a 1801     		.2byte	0x118
 5398 177c ED0E0000 		.4byte	0xeed
 5399 1780 01       		.byte	0x1
 5400 1781 01       		.byte	0x1
 5401 1782 2A       		.uleb128 0x2a
 5402 1783 D70E0000 		.4byte	.LASF363
 5403 1787 08       		.byte	0x8
 5404 1788 1901     		.2byte	0x119
 5405 178a ED0E0000 		.4byte	0xeed
 5406 178e 01       		.byte	0x1
 5407 178f 01       		.byte	0x1
 5408 1790 2A       		.uleb128 0x2a
 5409 1791 33040000 		.4byte	.LASF364
 5410 1795 08       		.byte	0x8
 5411 1796 1A01     		.2byte	0x11a
 5412 1798 ED0E0000 		.4byte	0xeed
 5413 179c 01       		.byte	0x1
 5414 179d 01       		.byte	0x1
 5415 179e 2A       		.uleb128 0x2a
 5416 179f 16040000 		.4byte	.LASF365
 5417 17a3 08       		.byte	0x8
 5418 17a4 1E01     		.2byte	0x11e
 5419 17a6 ED0E0000 		.4byte	0xeed
 5420 17aa 01       		.byte	0x1
 5421 17ab 01       		.byte	0x1
 5422 17ac 2A       		.uleb128 0x2a
 5423 17ad 7B090000 		.4byte	.LASF366
 5424 17b1 08       		.byte	0x8
 5425 17b2 2501     		.2byte	0x125
 5426 17b4 ED0E0000 		.4byte	0xeed
 5427 17b8 01       		.byte	0x1
 5428 17b9 01       		.byte	0x1
 5429 17ba 2C       		.uleb128 0x2c
 5430 17bb 100F0000 		.4byte	.LASF367
 5431 17bf 08       		.byte	0x8
ARM GAS  C:\Users\Kevin\AppData\Local\Temp\ccw18vSb.s 			page 111


 5432 17c0 2B01     		.2byte	0x12b
 5433 17c2 CD170000 		.4byte	0x17cd
 5434 17c6 01       		.byte	0x1
 5435 17c7 05       		.byte	0x5
 5436 17c8 03       		.byte	0x3
 5437 17c9 00000000 		.4byte	I2CZeroJob
 5438 17cd 08       		.uleb128 0x8
 5439 17ce 04       		.byte	0x4
 5440 17cf 660B0000 		.4byte	0xb66
 5441 17d3 2B       		.uleb128 0x2b
 5442 17d4 6E140000 		.4byte	.LASF368
 5443 17d8 01       		.byte	0x1
 5444 17d9 1C       		.byte	0x1c
 5445 17da E5170000 		.4byte	0x17e5
 5446 17de 01       		.byte	0x1
 5447 17df 05       		.byte	0x5
 5448 17e0 03       		.byte	0x3
 5449 17e1 00000000 		.4byte	SensorFusionMsg
 5450 17e5 08       		.uleb128 0x8
 5451 17e6 04       		.byte	0x4
 5452 17e7 4D0F0000 		.4byte	0xf4d
 5453 17eb 2B       		.uleb128 0x2b
 5454 17ec F50E0000 		.4byte	.LASF369
 5455 17f0 01       		.byte	0x1
 5456 17f1 1E       		.byte	0x1e
 5457 17f2 58100000 		.4byte	0x1058
 5458 17f6 01       		.byte	0x1
 5459 17f7 05       		.byte	0x5
 5460 17f8 03       		.byte	0x3
 5461 17f9 00000000 		.4byte	CompFilterPitch
 5462 17fd 2B       		.uleb128 0x2b
 5463 17fe 4A080000 		.4byte	.LASF370
 5464 1802 01       		.byte	0x1
 5465 1803 1F       		.byte	0x1f
 5466 1804 58100000 		.4byte	0x1058
 5467 1808 01       		.byte	0x1
 5468 1809 05       		.byte	0x5
 5469 180a 03       		.byte	0x3
 5470 180b 00000000 		.4byte	CompFilterRoll
 5471 180f 2B       		.uleb128 0x2b
 5472 1810 64080000 		.4byte	.LASF371
 5473 1814 01       		.byte	0x1
 5474 1815 20       		.byte	0x20
 5475 1816 58100000 		.4byte	0x1058
 5476 181a 01       		.byte	0x1
 5477 181b 05       		.byte	0x5
 5478 181c 03       		.byte	0x3
 5479 181d 00000000 		.4byte	CompFilterHeading
 5480 1821 2B       		.uleb128 0x2b
 5481 1822 8A060000 		.4byte	.LASF372
 5482 1826 01       		.byte	0x1
 5483 1827 21       		.byte	0x21
 5484 1828 58100000 		.4byte	0x1058
 5485 182c 01       		.byte	0x1
 5486 182d 05       		.byte	0x5
 5487 182e 03       		.byte	0x3
 5488 182f 00000000 		.4byte	CompFilterAltitude
ARM GAS  C:\Users\Kevin\AppData\Local\Temp\ccw18vSb.s 			page 112


 5489 1833 2D       		.uleb128 0x2d
 5490 1834 01       		.byte	0x1
 5491 1835 1E020000 		.4byte	.LASF381
 5492 1839 05       		.byte	0x5
 5493 183a 28       		.byte	0x28
 5494 183b 01       		.byte	0x1
 5495 183c 01       		.byte	0x1
 5496 183d 4C180000 		.4byte	0x184c
 5497 1841 17       		.uleb128 0x17
 5498 1842 E70E0000 		.4byte	0xee7
 5499 1846 17       		.uleb128 0x17
 5500 1847 25000000 		.4byte	0x25
 5501 184b 00       		.byte	0
 5502 184c 2E       		.uleb128 0x2e
 5503 184d 01       		.byte	0x1
 5504 184e 370F0000 		.4byte	.LASF373
 5505 1852 0B       		.byte	0xb
 5506 1853 0E       		.byte	0xe
 5507 1854 01       		.byte	0x1
 5508 1855 B4090000 		.4byte	0x9b4
 5509 1859 01       		.byte	0x1
 5510 185a 64180000 		.4byte	0x1864
 5511 185e 17       		.uleb128 0x17
 5512 185f 58100000 		.4byte	0x1058
 5513 1863 00       		.byte	0
 5514 1864 2E       		.uleb128 0x2e
 5515 1865 01       		.byte	0x1
 5516 1866 180C0000 		.4byte	.LASF374
 5517 186a 0C       		.byte	0xc
 5518 186b 13       		.byte	0x13
 5519 186c 01       		.byte	0x1
 5520 186d 5E000000 		.4byte	0x5e
 5521 1871 01       		.byte	0x1
 5522 1872 7C180000 		.4byte	0x187c
 5523 1876 17       		.uleb128 0x17
 5524 1877 83030000 		.4byte	0x383
 5525 187b 00       		.byte	0
 5526 187c 2E       		.uleb128 0x2e
 5527 187d 01       		.byte	0x1
 5528 187e 97030000 		.4byte	.LASF375
 5529 1882 0D       		.byte	0xd
 5530 1883 0C       		.byte	0xc
 5531 1884 01       		.byte	0x1
 5532 1885 B4090000 		.4byte	0x9b4
 5533 1889 01       		.byte	0x1
 5534 188a 99180000 		.4byte	0x1899
 5535 188e 17       		.uleb128 0x17
 5536 188f 5E000000 		.4byte	0x5e
 5537 1893 17       		.uleb128 0x17
 5538 1894 CF000000 		.4byte	0xcf
 5539 1898 00       		.byte	0
 5540 1899 2E       		.uleb128 0x2e
 5541 189a 01       		.byte	0x1
 5542 189b 17000000 		.4byte	.LASF376
 5543 189f 0E       		.byte	0xe
 5544 18a0 06       		.byte	0x6
 5545 18a1 01       		.byte	0x1
ARM GAS  C:\Users\Kevin\AppData\Local\Temp\ccw18vSb.s 			page 113


 5546 18a2 AA000000 		.4byte	0xaa
 5547 18a6 01       		.byte	0x1
 5548 18a7 B1180000 		.4byte	0x18b1
 5549 18ab 17       		.uleb128 0x17
 5550 18ac 5E000000 		.4byte	0x5e
 5551 18b0 00       		.byte	0
 5552 18b1 2E       		.uleb128 0x2e
 5553 18b2 01       		.byte	0x1
 5554 18b3 F3140000 		.4byte	.LASF377
 5555 18b7 0D       		.byte	0xd
 5556 18b8 11       		.byte	0x11
 5557 18b9 01       		.byte	0x1
 5558 18ba B4090000 		.4byte	0x9b4
 5559 18be 01       		.byte	0x1
 5560 18bf CE180000 		.4byte	0x18ce
 5561 18c3 17       		.uleb128 0x17
 5562 18c4 5E000000 		.4byte	0x5e
 5563 18c8 17       		.uleb128 0x17
 5564 18c9 3A000000 		.4byte	0x3a
 5565 18cd 00       		.byte	0
 5566 18ce 2F       		.uleb128 0x2f
 5567 18cf 01       		.byte	0x1
 5568 18d0 44060000 		.4byte	.LASF382
 5569 18d4 0F       		.byte	0xf
 5570 18d5 40       		.byte	0x40
 5571 18d6 01       		.byte	0x1
 5572 18d7 01       		.byte	0x1
 5573 18d8 17       		.uleb128 0x17
 5574 18d9 3A000000 		.4byte	0x3a
 5575 18dd 17       		.uleb128 0x17
 5576 18de 3A000000 		.4byte	0x3a
 5577 18e2 17       		.uleb128 0x17
 5578 18e3 CF000000 		.4byte	0xcf
 5579 18e7 17       		.uleb128 0x17
 5580 18e8 5E000000 		.4byte	0x5e
 5581 18ec 00       		.byte	0
 5582 18ed 00       		.byte	0
 5583              		.section	.debug_abbrev,"",%progbits
 5584              	.Ldebug_abbrev0:
 5585 0000 01       		.uleb128 0x1
 5586 0001 11       		.uleb128 0x11
 5587 0002 01       		.byte	0x1
 5588 0003 25       		.uleb128 0x25
 5589 0004 0E       		.uleb128 0xe
 5590 0005 13       		.uleb128 0x13
 5591 0006 0B       		.uleb128 0xb
 5592 0007 03       		.uleb128 0x3
 5593 0008 0E       		.uleb128 0xe
 5594 0009 1B       		.uleb128 0x1b
 5595 000a 0E       		.uleb128 0xe
 5596 000b 11       		.uleb128 0x11
 5597 000c 01       		.uleb128 0x1
 5598 000d 12       		.uleb128 0x12
 5599 000e 01       		.uleb128 0x1
 5600 000f 10       		.uleb128 0x10
 5601 0010 06       		.uleb128 0x6
 5602 0011 00       		.byte	0
ARM GAS  C:\Users\Kevin\AppData\Local\Temp\ccw18vSb.s 			page 114


 5603 0012 00       		.byte	0
 5604 0013 02       		.uleb128 0x2
 5605 0014 24       		.uleb128 0x24
 5606 0015 00       		.byte	0
 5607 0016 0B       		.uleb128 0xb
 5608 0017 0B       		.uleb128 0xb
 5609 0018 3E       		.uleb128 0x3e
 5610 0019 0B       		.uleb128 0xb
 5611 001a 03       		.uleb128 0x3
 5612 001b 0E       		.uleb128 0xe
 5613 001c 00       		.byte	0
 5614 001d 00       		.byte	0
 5615 001e 03       		.uleb128 0x3
 5616 001f 24       		.uleb128 0x24
 5617 0020 00       		.byte	0
 5618 0021 0B       		.uleb128 0xb
 5619 0022 0B       		.uleb128 0xb
 5620 0023 3E       		.uleb128 0x3e
 5621 0024 0B       		.uleb128 0xb
 5622 0025 03       		.uleb128 0x3
 5623 0026 08       		.uleb128 0x8
 5624 0027 00       		.byte	0
 5625 0028 00       		.byte	0
 5626 0029 04       		.uleb128 0x4
 5627 002a 16       		.uleb128 0x16
 5628 002b 00       		.byte	0
 5629 002c 03       		.uleb128 0x3
 5630 002d 0E       		.uleb128 0xe
 5631 002e 3A       		.uleb128 0x3a
 5632 002f 0B       		.uleb128 0xb
 5633 0030 3B       		.uleb128 0x3b
 5634 0031 0B       		.uleb128 0xb
 5635 0032 49       		.uleb128 0x49
 5636 0033 13       		.uleb128 0x13
 5637 0034 00       		.byte	0
 5638 0035 00       		.byte	0
 5639 0036 05       		.uleb128 0x5
 5640 0037 35       		.uleb128 0x35
 5641 0038 00       		.byte	0
 5642 0039 49       		.uleb128 0x49
 5643 003a 13       		.uleb128 0x13
 5644 003b 00       		.byte	0
 5645 003c 00       		.byte	0
 5646 003d 06       		.uleb128 0x6
 5647 003e 0F       		.uleb128 0xf
 5648 003f 00       		.byte	0
 5649 0040 0B       		.uleb128 0xb
 5650 0041 0B       		.uleb128 0xb
 5651 0042 00       		.byte	0
 5652 0043 00       		.byte	0
 5653 0044 07       		.uleb128 0x7
 5654 0045 15       		.uleb128 0x15
 5655 0046 00       		.byte	0
 5656 0047 27       		.uleb128 0x27
 5657 0048 0C       		.uleb128 0xc
 5658 0049 00       		.byte	0
 5659 004a 00       		.byte	0
ARM GAS  C:\Users\Kevin\AppData\Local\Temp\ccw18vSb.s 			page 115


 5660 004b 08       		.uleb128 0x8
 5661 004c 0F       		.uleb128 0xf
 5662 004d 00       		.byte	0
 5663 004e 0B       		.uleb128 0xb
 5664 004f 0B       		.uleb128 0xb
 5665 0050 49       		.uleb128 0x49
 5666 0051 13       		.uleb128 0x13
 5667 0052 00       		.byte	0
 5668 0053 00       		.byte	0
 5669 0054 09       		.uleb128 0x9
 5670 0055 13       		.uleb128 0x13
 5671 0056 01       		.byte	0x1
 5672 0057 03       		.uleb128 0x3
 5673 0058 0E       		.uleb128 0xe
 5674 0059 0B       		.uleb128 0xb
 5675 005a 0B       		.uleb128 0xb
 5676 005b 3A       		.uleb128 0x3a
 5677 005c 0B       		.uleb128 0xb
 5678 005d 3B       		.uleb128 0x3b
 5679 005e 0B       		.uleb128 0xb
 5680 005f 01       		.uleb128 0x1
 5681 0060 13       		.uleb128 0x13
 5682 0061 00       		.byte	0
 5683 0062 00       		.byte	0
 5684 0063 0A       		.uleb128 0xa
 5685 0064 0D       		.uleb128 0xd
 5686 0065 00       		.byte	0
 5687 0066 03       		.uleb128 0x3
 5688 0067 08       		.uleb128 0x8
 5689 0068 3A       		.uleb128 0x3a
 5690 0069 0B       		.uleb128 0xb
 5691 006a 3B       		.uleb128 0x3b
 5692 006b 0B       		.uleb128 0xb
 5693 006c 49       		.uleb128 0x49
 5694 006d 13       		.uleb128 0x13
 5695 006e 38       		.uleb128 0x38
 5696 006f 0A       		.uleb128 0xa
 5697 0070 00       		.byte	0
 5698 0071 00       		.byte	0
 5699 0072 0B       		.uleb128 0xb
 5700 0073 04       		.uleb128 0x4
 5701 0074 01       		.byte	0x1
 5702 0075 0B       		.uleb128 0xb
 5703 0076 0B       		.uleb128 0xb
 5704 0077 3A       		.uleb128 0x3a
 5705 0078 0B       		.uleb128 0xb
 5706 0079 3B       		.uleb128 0x3b
 5707 007a 0B       		.uleb128 0xb
 5708 007b 01       		.uleb128 0x1
 5709 007c 13       		.uleb128 0x13
 5710 007d 00       		.byte	0
 5711 007e 00       		.byte	0
 5712 007f 0C       		.uleb128 0xc
 5713 0080 28       		.uleb128 0x28
 5714 0081 00       		.byte	0
 5715 0082 03       		.uleb128 0x3
 5716 0083 0E       		.uleb128 0xe
ARM GAS  C:\Users\Kevin\AppData\Local\Temp\ccw18vSb.s 			page 116


 5717 0084 1C       		.uleb128 0x1c
 5718 0085 0D       		.uleb128 0xd
 5719 0086 00       		.byte	0
 5720 0087 00       		.byte	0
 5721 0088 0D       		.uleb128 0xd
 5722 0089 13       		.uleb128 0x13
 5723 008a 01       		.byte	0x1
 5724 008b 0B       		.uleb128 0xb
 5725 008c 0B       		.uleb128 0xb
 5726 008d 3A       		.uleb128 0x3a
 5727 008e 0B       		.uleb128 0xb
 5728 008f 3B       		.uleb128 0x3b
 5729 0090 0B       		.uleb128 0xb
 5730 0091 01       		.uleb128 0x1
 5731 0092 13       		.uleb128 0x13
 5732 0093 00       		.byte	0
 5733 0094 00       		.byte	0
 5734 0095 0E       		.uleb128 0xe
 5735 0096 0D       		.uleb128 0xd
 5736 0097 00       		.byte	0
 5737 0098 03       		.uleb128 0x3
 5738 0099 0E       		.uleb128 0xe
 5739 009a 3A       		.uleb128 0x3a
 5740 009b 0B       		.uleb128 0xb
 5741 009c 3B       		.uleb128 0x3b
 5742 009d 0B       		.uleb128 0xb
 5743 009e 49       		.uleb128 0x49
 5744 009f 13       		.uleb128 0x13
 5745 00a0 38       		.uleb128 0x38
 5746 00a1 0A       		.uleb128 0xa
 5747 00a2 00       		.byte	0
 5748 00a3 00       		.byte	0
 5749 00a4 0F       		.uleb128 0xf
 5750 00a5 13       		.uleb128 0x13
 5751 00a6 01       		.byte	0x1
 5752 00a7 0B       		.uleb128 0xb
 5753 00a8 0B       		.uleb128 0xb
 5754 00a9 3A       		.uleb128 0x3a
 5755 00aa 0B       		.uleb128 0xb
 5756 00ab 3B       		.uleb128 0x3b
 5757 00ac 05       		.uleb128 0x5
 5758 00ad 01       		.uleb128 0x1
 5759 00ae 13       		.uleb128 0x13
 5760 00af 00       		.byte	0
 5761 00b0 00       		.byte	0
 5762 00b1 10       		.uleb128 0x10
 5763 00b2 0D       		.uleb128 0xd
 5764 00b3 00       		.byte	0
 5765 00b4 03       		.uleb128 0x3
 5766 00b5 0E       		.uleb128 0xe
 5767 00b6 3A       		.uleb128 0x3a
 5768 00b7 0B       		.uleb128 0xb
 5769 00b8 3B       		.uleb128 0x3b
 5770 00b9 05       		.uleb128 0x5
 5771 00ba 49       		.uleb128 0x49
 5772 00bb 13       		.uleb128 0x13
 5773 00bc 38       		.uleb128 0x38
ARM GAS  C:\Users\Kevin\AppData\Local\Temp\ccw18vSb.s 			page 117


 5774 00bd 0A       		.uleb128 0xa
 5775 00be 00       		.byte	0
 5776 00bf 00       		.byte	0
 5777 00c0 11       		.uleb128 0x11
 5778 00c1 16       		.uleb128 0x16
 5779 00c2 00       		.byte	0
 5780 00c3 03       		.uleb128 0x3
 5781 00c4 0E       		.uleb128 0xe
 5782 00c5 3A       		.uleb128 0x3a
 5783 00c6 0B       		.uleb128 0xb
 5784 00c7 3B       		.uleb128 0x3b
 5785 00c8 05       		.uleb128 0x5
 5786 00c9 49       		.uleb128 0x49
 5787 00ca 13       		.uleb128 0x13
 5788 00cb 00       		.byte	0
 5789 00cc 00       		.byte	0
 5790 00cd 12       		.uleb128 0x12
 5791 00ce 04       		.uleb128 0x4
 5792 00cf 01       		.byte	0x1
 5793 00d0 0B       		.uleb128 0xb
 5794 00d1 0B       		.uleb128 0xb
 5795 00d2 3A       		.uleb128 0x3a
 5796 00d3 0B       		.uleb128 0xb
 5797 00d4 3B       		.uleb128 0x3b
 5798 00d5 05       		.uleb128 0x5
 5799 00d6 01       		.uleb128 0x1
 5800 00d7 13       		.uleb128 0x13
 5801 00d8 00       		.byte	0
 5802 00d9 00       		.byte	0
 5803 00da 13       		.uleb128 0x13
 5804 00db 28       		.uleb128 0x28
 5805 00dc 00       		.byte	0
 5806 00dd 03       		.uleb128 0x3
 5807 00de 08       		.uleb128 0x8
 5808 00df 1C       		.uleb128 0x1c
 5809 00e0 0D       		.uleb128 0xd
 5810 00e1 00       		.byte	0
 5811 00e2 00       		.byte	0
 5812 00e3 14       		.uleb128 0x14
 5813 00e4 01       		.uleb128 0x1
 5814 00e5 01       		.byte	0x1
 5815 00e6 49       		.uleb128 0x49
 5816 00e7 13       		.uleb128 0x13
 5817 00e8 01       		.uleb128 0x1
 5818 00e9 13       		.uleb128 0x13
 5819 00ea 00       		.byte	0
 5820 00eb 00       		.byte	0
 5821 00ec 15       		.uleb128 0x15
 5822 00ed 21       		.uleb128 0x21
 5823 00ee 00       		.byte	0
 5824 00ef 49       		.uleb128 0x49
 5825 00f0 13       		.uleb128 0x13
 5826 00f1 2F       		.uleb128 0x2f
 5827 00f2 0B       		.uleb128 0xb
 5828 00f3 00       		.byte	0
 5829 00f4 00       		.byte	0
 5830 00f5 16       		.uleb128 0x16
ARM GAS  C:\Users\Kevin\AppData\Local\Temp\ccw18vSb.s 			page 118


 5831 00f6 15       		.uleb128 0x15
 5832 00f7 01       		.byte	0x1
 5833 00f8 27       		.uleb128 0x27
 5834 00f9 0C       		.uleb128 0xc
 5835 00fa 01       		.uleb128 0x1
 5836 00fb 13       		.uleb128 0x13
 5837 00fc 00       		.byte	0
 5838 00fd 00       		.byte	0
 5839 00fe 17       		.uleb128 0x17
 5840 00ff 05       		.uleb128 0x5
 5841 0100 00       		.byte	0
 5842 0101 49       		.uleb128 0x49
 5843 0102 13       		.uleb128 0x13
 5844 0103 00       		.byte	0
 5845 0104 00       		.byte	0
 5846 0105 18       		.uleb128 0x18
 5847 0106 15       		.uleb128 0x15
 5848 0107 00       		.byte	0
 5849 0108 27       		.uleb128 0x27
 5850 0109 0C       		.uleb128 0xc
 5851 010a 49       		.uleb128 0x49
 5852 010b 13       		.uleb128 0x13
 5853 010c 00       		.byte	0
 5854 010d 00       		.byte	0
 5855 010e 19       		.uleb128 0x19
 5856 010f 15       		.uleb128 0x15
 5857 0110 01       		.byte	0x1
 5858 0111 27       		.uleb128 0x27
 5859 0112 0C       		.uleb128 0xc
 5860 0113 49       		.uleb128 0x49
 5861 0114 13       		.uleb128 0x13
 5862 0115 01       		.uleb128 0x1
 5863 0116 13       		.uleb128 0x13
 5864 0117 00       		.byte	0
 5865 0118 00       		.byte	0
 5866 0119 1A       		.uleb128 0x1a
 5867 011a 2E       		.uleb128 0x2e
 5868 011b 01       		.byte	0x1
 5869 011c 3F       		.uleb128 0x3f
 5870 011d 0C       		.uleb128 0xc
 5871 011e 03       		.uleb128 0x3
 5872 011f 0E       		.uleb128 0xe
 5873 0120 3A       		.uleb128 0x3a
 5874 0121 0B       		.uleb128 0xb
 5875 0122 3B       		.uleb128 0x3b
 5876 0123 05       		.uleb128 0x5
 5877 0124 27       		.uleb128 0x27
 5878 0125 0C       		.uleb128 0xc
 5879 0126 49       		.uleb128 0x49
 5880 0127 13       		.uleb128 0x13
 5881 0128 11       		.uleb128 0x11
 5882 0129 01       		.uleb128 0x1
 5883 012a 12       		.uleb128 0x12
 5884 012b 01       		.uleb128 0x1
 5885 012c 40       		.uleb128 0x40
 5886 012d 06       		.uleb128 0x6
 5887 012e 9742     		.uleb128 0x2117
ARM GAS  C:\Users\Kevin\AppData\Local\Temp\ccw18vSb.s 			page 119


 5888 0130 0C       		.uleb128 0xc
 5889 0131 01       		.uleb128 0x1
 5890 0132 13       		.uleb128 0x13
 5891 0133 00       		.byte	0
 5892 0134 00       		.byte	0
 5893 0135 1B       		.uleb128 0x1b
 5894 0136 05       		.uleb128 0x5
 5895 0137 00       		.byte	0
 5896 0138 03       		.uleb128 0x3
 5897 0139 0E       		.uleb128 0xe
 5898 013a 3A       		.uleb128 0x3a
 5899 013b 0B       		.uleb128 0xb
 5900 013c 3B       		.uleb128 0x3b
 5901 013d 05       		.uleb128 0x5
 5902 013e 49       		.uleb128 0x49
 5903 013f 13       		.uleb128 0x13
 5904 0140 02       		.uleb128 0x2
 5905 0141 06       		.uleb128 0x6
 5906 0142 00       		.byte	0
 5907 0143 00       		.byte	0
 5908 0144 1C       		.uleb128 0x1c
 5909 0145 0B       		.uleb128 0xb
 5910 0146 01       		.byte	0x1
 5911 0147 11       		.uleb128 0x11
 5912 0148 01       		.uleb128 0x1
 5913 0149 12       		.uleb128 0x12
 5914 014a 01       		.uleb128 0x1
 5915 014b 01       		.uleb128 0x1
 5916 014c 13       		.uleb128 0x13
 5917 014d 00       		.byte	0
 5918 014e 00       		.byte	0
 5919 014f 1D       		.uleb128 0x1d
 5920 0150 34       		.uleb128 0x34
 5921 0151 00       		.byte	0
 5922 0152 03       		.uleb128 0x3
 5923 0153 0E       		.uleb128 0xe
 5924 0154 3A       		.uleb128 0x3a
 5925 0155 0B       		.uleb128 0xb
 5926 0156 3B       		.uleb128 0x3b
 5927 0157 05       		.uleb128 0x5
 5928 0158 49       		.uleb128 0x49
 5929 0159 13       		.uleb128 0x13
 5930 015a 02       		.uleb128 0x2
 5931 015b 06       		.uleb128 0x6
 5932 015c 00       		.byte	0
 5933 015d 00       		.byte	0
 5934 015e 1E       		.uleb128 0x1e
 5935 015f 898201   		.uleb128 0x4109
 5936 0162 00       		.byte	0
 5937 0163 11       		.uleb128 0x11
 5938 0164 01       		.uleb128 0x1
 5939 0165 31       		.uleb128 0x31
 5940 0166 13       		.uleb128 0x13
 5941 0167 00       		.byte	0
 5942 0168 00       		.byte	0
 5943 0169 1F       		.uleb128 0x1f
 5944 016a 2E       		.uleb128 0x2e
ARM GAS  C:\Users\Kevin\AppData\Local\Temp\ccw18vSb.s 			page 120


 5945 016b 01       		.byte	0x1
 5946 016c 3F       		.uleb128 0x3f
 5947 016d 0C       		.uleb128 0xc
 5948 016e 03       		.uleb128 0x3
 5949 016f 0E       		.uleb128 0xe
 5950 0170 3A       		.uleb128 0x3a
 5951 0171 0B       		.uleb128 0xb
 5952 0172 3B       		.uleb128 0x3b
 5953 0173 0B       		.uleb128 0xb
 5954 0174 27       		.uleb128 0x27
 5955 0175 0C       		.uleb128 0xc
 5956 0176 11       		.uleb128 0x11
 5957 0177 01       		.uleb128 0x1
 5958 0178 12       		.uleb128 0x12
 5959 0179 01       		.uleb128 0x1
 5960 017a 40       		.uleb128 0x40
 5961 017b 06       		.uleb128 0x6
 5962 017c 9742     		.uleb128 0x2117
 5963 017e 0C       		.uleb128 0xc
 5964 017f 01       		.uleb128 0x1
 5965 0180 13       		.uleb128 0x13
 5966 0181 00       		.byte	0
 5967 0182 00       		.byte	0
 5968 0183 20       		.uleb128 0x20
 5969 0184 05       		.uleb128 0x5
 5970 0185 00       		.byte	0
 5971 0186 03       		.uleb128 0x3
 5972 0187 0E       		.uleb128 0xe
 5973 0188 3A       		.uleb128 0x3a
 5974 0189 0B       		.uleb128 0xb
 5975 018a 3B       		.uleb128 0x3b
 5976 018b 0B       		.uleb128 0xb
 5977 018c 49       		.uleb128 0x49
 5978 018d 13       		.uleb128 0x13
 5979 018e 02       		.uleb128 0x2
 5980 018f 06       		.uleb128 0x6
 5981 0190 00       		.byte	0
 5982 0191 00       		.byte	0
 5983 0192 21       		.uleb128 0x21
 5984 0193 34       		.uleb128 0x34
 5985 0194 00       		.byte	0
 5986 0195 03       		.uleb128 0x3
 5987 0196 0E       		.uleb128 0xe
 5988 0197 3A       		.uleb128 0x3a
 5989 0198 0B       		.uleb128 0xb
 5990 0199 3B       		.uleb128 0x3b
 5991 019a 0B       		.uleb128 0xb
 5992 019b 49       		.uleb128 0x49
 5993 019c 13       		.uleb128 0x13
 5994 019d 02       		.uleb128 0x2
 5995 019e 06       		.uleb128 0x6
 5996 019f 00       		.byte	0
 5997 01a0 00       		.byte	0
 5998 01a1 22       		.uleb128 0x22
 5999 01a2 34       		.uleb128 0x34
 6000 01a3 00       		.byte	0
 6001 01a4 03       		.uleb128 0x3
ARM GAS  C:\Users\Kevin\AppData\Local\Temp\ccw18vSb.s 			page 121


 6002 01a5 08       		.uleb128 0x8
 6003 01a6 3A       		.uleb128 0x3a
 6004 01a7 0B       		.uleb128 0xb
 6005 01a8 3B       		.uleb128 0x3b
 6006 01a9 0B       		.uleb128 0xb
 6007 01aa 49       		.uleb128 0x49
 6008 01ab 13       		.uleb128 0x13
 6009 01ac 02       		.uleb128 0x2
 6010 01ad 0A       		.uleb128 0xa
 6011 01ae 00       		.byte	0
 6012 01af 00       		.byte	0
 6013 01b0 23       		.uleb128 0x23
 6014 01b1 898201   		.uleb128 0x4109
 6015 01b4 00       		.byte	0
 6016 01b5 11       		.uleb128 0x11
 6017 01b6 01       		.uleb128 0x1
 6018 01b7 9542     		.uleb128 0x2115
 6019 01b9 0C       		.uleb128 0xc
 6020 01ba 31       		.uleb128 0x31
 6021 01bb 13       		.uleb128 0x13
 6022 01bc 00       		.byte	0
 6023 01bd 00       		.byte	0
 6024 01be 24       		.uleb128 0x24
 6025 01bf 2E       		.uleb128 0x2e
 6026 01c0 01       		.byte	0x1
 6027 01c1 3F       		.uleb128 0x3f
 6028 01c2 0C       		.uleb128 0xc
 6029 01c3 03       		.uleb128 0x3
 6030 01c4 0E       		.uleb128 0xe
 6031 01c5 3A       		.uleb128 0x3a
 6032 01c6 0B       		.uleb128 0xb
 6033 01c7 3B       		.uleb128 0x3b
 6034 01c8 0B       		.uleb128 0xb
 6035 01c9 27       		.uleb128 0x27
 6036 01ca 0C       		.uleb128 0xc
 6037 01cb 49       		.uleb128 0x49
 6038 01cc 13       		.uleb128 0x13
 6039 01cd 11       		.uleb128 0x11
 6040 01ce 01       		.uleb128 0x1
 6041 01cf 12       		.uleb128 0x12
 6042 01d0 01       		.uleb128 0x1
 6043 01d1 40       		.uleb128 0x40
 6044 01d2 0A       		.uleb128 0xa
 6045 01d3 9742     		.uleb128 0x2117
 6046 01d5 0C       		.uleb128 0xc
 6047 01d6 01       		.uleb128 0x1
 6048 01d7 13       		.uleb128 0x13
 6049 01d8 00       		.byte	0
 6050 01d9 00       		.byte	0
 6051 01da 25       		.uleb128 0x25
 6052 01db 2E       		.uleb128 0x2e
 6053 01dc 01       		.byte	0x1
 6054 01dd 3F       		.uleb128 0x3f
 6055 01de 0C       		.uleb128 0xc
 6056 01df 03       		.uleb128 0x3
 6057 01e0 0E       		.uleb128 0xe
 6058 01e1 3A       		.uleb128 0x3a
ARM GAS  C:\Users\Kevin\AppData\Local\Temp\ccw18vSb.s 			page 122


 6059 01e2 0B       		.uleb128 0xb
 6060 01e3 3B       		.uleb128 0x3b
 6061 01e4 0B       		.uleb128 0xb
 6062 01e5 27       		.uleb128 0x27
 6063 01e6 0C       		.uleb128 0xc
 6064 01e7 49       		.uleb128 0x49
 6065 01e8 13       		.uleb128 0x13
 6066 01e9 11       		.uleb128 0x11
 6067 01ea 01       		.uleb128 0x1
 6068 01eb 12       		.uleb128 0x12
 6069 01ec 01       		.uleb128 0x1
 6070 01ed 40       		.uleb128 0x40
 6071 01ee 06       		.uleb128 0x6
 6072 01ef 9742     		.uleb128 0x2117
 6073 01f1 0C       		.uleb128 0xc
 6074 01f2 01       		.uleb128 0x1
 6075 01f3 13       		.uleb128 0x13
 6076 01f4 00       		.byte	0
 6077 01f5 00       		.byte	0
 6078 01f6 26       		.uleb128 0x26
 6079 01f7 898201   		.uleb128 0x4109
 6080 01fa 01       		.byte	0x1
 6081 01fb 11       		.uleb128 0x11
 6082 01fc 01       		.uleb128 0x1
 6083 01fd 31       		.uleb128 0x31
 6084 01fe 13       		.uleb128 0x13
 6085 01ff 01       		.uleb128 0x1
 6086 0200 13       		.uleb128 0x13
 6087 0201 00       		.byte	0
 6088 0202 00       		.byte	0
 6089 0203 27       		.uleb128 0x27
 6090 0204 8A8201   		.uleb128 0x410a
 6091 0207 00       		.byte	0
 6092 0208 02       		.uleb128 0x2
 6093 0209 0A       		.uleb128 0xa
 6094 020a 9142     		.uleb128 0x2111
 6095 020c 0A       		.uleb128 0xa
 6096 020d 00       		.byte	0
 6097 020e 00       		.byte	0
 6098 020f 28       		.uleb128 0x28
 6099 0210 2E       		.uleb128 0x2e
 6100 0211 01       		.byte	0x1
 6101 0212 3F       		.uleb128 0x3f
 6102 0213 0C       		.uleb128 0xc
 6103 0214 03       		.uleb128 0x3
 6104 0215 0E       		.uleb128 0xe
 6105 0216 3A       		.uleb128 0x3a
 6106 0217 0B       		.uleb128 0xb
 6107 0218 3B       		.uleb128 0x3b
 6108 0219 05       		.uleb128 0x5
 6109 021a 27       		.uleb128 0x27
 6110 021b 0C       		.uleb128 0xc
 6111 021c 11       		.uleb128 0x11
 6112 021d 01       		.uleb128 0x1
 6113 021e 12       		.uleb128 0x12
 6114 021f 01       		.uleb128 0x1
 6115 0220 40       		.uleb128 0x40
ARM GAS  C:\Users\Kevin\AppData\Local\Temp\ccw18vSb.s 			page 123


 6116 0221 0A       		.uleb128 0xa
 6117 0222 9742     		.uleb128 0x2117
 6118 0224 0C       		.uleb128 0xc
 6119 0225 01       		.uleb128 0x1
 6120 0226 13       		.uleb128 0x13
 6121 0227 00       		.byte	0
 6122 0228 00       		.byte	0
 6123 0229 29       		.uleb128 0x29
 6124 022a 898201   		.uleb128 0x4109
 6125 022d 01       		.byte	0x1
 6126 022e 11       		.uleb128 0x11
 6127 022f 01       		.uleb128 0x1
 6128 0230 9542     		.uleb128 0x2115
 6129 0232 0C       		.uleb128 0xc
 6130 0233 31       		.uleb128 0x31
 6131 0234 13       		.uleb128 0x13
 6132 0235 00       		.byte	0
 6133 0236 00       		.byte	0
 6134 0237 2A       		.uleb128 0x2a
 6135 0238 34       		.uleb128 0x34
 6136 0239 00       		.byte	0
 6137 023a 03       		.uleb128 0x3
 6138 023b 0E       		.uleb128 0xe
 6139 023c 3A       		.uleb128 0x3a
 6140 023d 0B       		.uleb128 0xb
 6141 023e 3B       		.uleb128 0x3b
 6142 023f 05       		.uleb128 0x5
 6143 0240 49       		.uleb128 0x49
 6144 0241 13       		.uleb128 0x13
 6145 0242 3F       		.uleb128 0x3f
 6146 0243 0C       		.uleb128 0xc
 6147 0244 3C       		.uleb128 0x3c
 6148 0245 0C       		.uleb128 0xc
 6149 0246 00       		.byte	0
 6150 0247 00       		.byte	0
 6151 0248 2B       		.uleb128 0x2b
 6152 0249 34       		.uleb128 0x34
 6153 024a 00       		.byte	0
 6154 024b 03       		.uleb128 0x3
 6155 024c 0E       		.uleb128 0xe
 6156 024d 3A       		.uleb128 0x3a
 6157 024e 0B       		.uleb128 0xb
 6158 024f 3B       		.uleb128 0x3b
 6159 0250 0B       		.uleb128 0xb
 6160 0251 49       		.uleb128 0x49
 6161 0252 13       		.uleb128 0x13
 6162 0253 3F       		.uleb128 0x3f
 6163 0254 0C       		.uleb128 0xc
 6164 0255 02       		.uleb128 0x2
 6165 0256 0A       		.uleb128 0xa
 6166 0257 00       		.byte	0
 6167 0258 00       		.byte	0
 6168 0259 2C       		.uleb128 0x2c
 6169 025a 34       		.uleb128 0x34
 6170 025b 00       		.byte	0
 6171 025c 03       		.uleb128 0x3
 6172 025d 0E       		.uleb128 0xe
ARM GAS  C:\Users\Kevin\AppData\Local\Temp\ccw18vSb.s 			page 124


 6173 025e 3A       		.uleb128 0x3a
 6174 025f 0B       		.uleb128 0xb
 6175 0260 3B       		.uleb128 0x3b
 6176 0261 05       		.uleb128 0x5
 6177 0262 49       		.uleb128 0x49
 6178 0263 13       		.uleb128 0x13
 6179 0264 3F       		.uleb128 0x3f
 6180 0265 0C       		.uleb128 0xc
 6181 0266 02       		.uleb128 0x2
 6182 0267 0A       		.uleb128 0xa
 6183 0268 00       		.byte	0
 6184 0269 00       		.byte	0
 6185 026a 2D       		.uleb128 0x2d
 6186 026b 2E       		.uleb128 0x2e
 6187 026c 01       		.byte	0x1
 6188 026d 3F       		.uleb128 0x3f
 6189 026e 0C       		.uleb128 0xc
 6190 026f 03       		.uleb128 0x3
 6191 0270 0E       		.uleb128 0xe
 6192 0271 3A       		.uleb128 0x3a
 6193 0272 0B       		.uleb128 0xb
 6194 0273 3B       		.uleb128 0x3b
 6195 0274 0B       		.uleb128 0xb
 6196 0275 27       		.uleb128 0x27
 6197 0276 0C       		.uleb128 0xc
 6198 0277 3C       		.uleb128 0x3c
 6199 0278 0C       		.uleb128 0xc
 6200 0279 01       		.uleb128 0x1
 6201 027a 13       		.uleb128 0x13
 6202 027b 00       		.byte	0
 6203 027c 00       		.byte	0
 6204 027d 2E       		.uleb128 0x2e
 6205 027e 2E       		.uleb128 0x2e
 6206 027f 01       		.byte	0x1
 6207 0280 3F       		.uleb128 0x3f
 6208 0281 0C       		.uleb128 0xc
 6209 0282 03       		.uleb128 0x3
 6210 0283 0E       		.uleb128 0xe
 6211 0284 3A       		.uleb128 0x3a
 6212 0285 0B       		.uleb128 0xb
 6213 0286 3B       		.uleb128 0x3b
 6214 0287 0B       		.uleb128 0xb
 6215 0288 27       		.uleb128 0x27
 6216 0289 0C       		.uleb128 0xc
 6217 028a 49       		.uleb128 0x49
 6218 028b 13       		.uleb128 0x13
 6219 028c 3C       		.uleb128 0x3c
 6220 028d 0C       		.uleb128 0xc
 6221 028e 01       		.uleb128 0x1
 6222 028f 13       		.uleb128 0x13
 6223 0290 00       		.byte	0
 6224 0291 00       		.byte	0
 6225 0292 2F       		.uleb128 0x2f
 6226 0293 2E       		.uleb128 0x2e
 6227 0294 01       		.byte	0x1
 6228 0295 3F       		.uleb128 0x3f
 6229 0296 0C       		.uleb128 0xc
ARM GAS  C:\Users\Kevin\AppData\Local\Temp\ccw18vSb.s 			page 125


 6230 0297 03       		.uleb128 0x3
 6231 0298 0E       		.uleb128 0xe
 6232 0299 3A       		.uleb128 0x3a
 6233 029a 0B       		.uleb128 0xb
 6234 029b 3B       		.uleb128 0x3b
 6235 029c 0B       		.uleb128 0xb
 6236 029d 27       		.uleb128 0x27
 6237 029e 0C       		.uleb128 0xc
 6238 029f 3C       		.uleb128 0x3c
 6239 02a0 0C       		.uleb128 0xc
 6240 02a1 00       		.byte	0
 6241 02a2 00       		.byte	0
 6242 02a3 00       		.byte	0
 6243              		.section	.debug_loc,"",%progbits
 6244              	.Ldebug_loc0:
 6245              	.LLST0:
 6246 0000 00000000 		.4byte	.LFB117-.Ltext0
 6247 0004 02000000 		.4byte	.LCFI0-.Ltext0
 6248 0008 0200     		.2byte	0x2
 6249 000a 7D       		.byte	0x7d
 6250 000b 00       		.sleb128 0
 6251 000c 02000000 		.4byte	.LCFI0-.Ltext0
 6252 0010 0C000000 		.4byte	.LCFI1-.Ltext0
 6253 0014 0200     		.2byte	0x2
 6254 0016 7D       		.byte	0x7d
 6255 0017 10       		.sleb128 16
 6256 0018 0C000000 		.4byte	.LCFI1-.Ltext0
 6257 001c A0020000 		.4byte	.LFE117-.Ltext0
 6258 0020 0200     		.2byte	0x2
 6259 0022 7D       		.byte	0x7d
 6260 0023 18       		.sleb128 24
 6261 0024 00000000 		.4byte	0
 6262 0028 00000000 		.4byte	0
 6263              	.LLST1:
 6264 002c 00000000 		.4byte	.LVL0-.Ltext0
 6265 0030 56000000 		.4byte	.LVL1-.Ltext0
 6266 0034 0200     		.2byte	0x2
 6267 0036 90       		.byte	0x90
 6268 0037 40       		.uleb128 0x40
 6269 0038 56000000 		.4byte	.LVL1-.Ltext0
 6270 003c A0020000 		.4byte	.LFE117-.Ltext0
 6271 0040 0600     		.2byte	0x6
 6272 0042 F3       		.byte	0xf3
 6273 0043 03       		.uleb128 0x3
 6274 0044 F5       		.byte	0xf5
 6275 0045 40       		.uleb128 0x40
 6276 0046 25       		.uleb128 0x25
 6277 0047 9F       		.byte	0x9f
 6278 0048 00000000 		.4byte	0
 6279 004c 00000000 		.4byte	0
 6280              	.LLST2:
 6281 0050 F8000000 		.4byte	.LVL4-.Ltext0
 6282 0054 14010000 		.4byte	.LVL6-.Ltext0
 6283 0058 0200     		.2byte	0x2
 6284 005a 90       		.byte	0x90
 6285 005b 4E       		.uleb128 0x4e
 6286 005c 14010000 		.4byte	.LVL6-.Ltext0
ARM GAS  C:\Users\Kevin\AppData\Local\Temp\ccw18vSb.s 			page 126


 6287 0060 18010000 		.4byte	.LVL7-.Ltext0
 6288 0064 0200     		.2byte	0x2
 6289 0066 90       		.byte	0x90
 6290 0067 4F       		.uleb128 0x4f
 6291 0068 18010000 		.4byte	.LVL7-.Ltext0
 6292 006c 2C010000 		.4byte	.LVL8-.Ltext0
 6293 0070 0200     		.2byte	0x2
 6294 0072 90       		.byte	0x90
 6295 0073 4E       		.uleb128 0x4e
 6296 0074 2C010000 		.4byte	.LVL8-.Ltext0
 6297 0078 36010000 		.4byte	.LVL9-.Ltext0
 6298 007c 0200     		.2byte	0x2
 6299 007e 90       		.byte	0x90
 6300 007f 4F       		.uleb128 0x4f
 6301 0080 36010000 		.4byte	.LVL9-.Ltext0
 6302 0084 68010000 		.4byte	.LVL11-.Ltext0
 6303 0088 0200     		.2byte	0x2
 6304 008a 90       		.byte	0x90
 6305 008b 4E       		.uleb128 0x4e
 6306 008c 00000000 		.4byte	0
 6307 0090 00000000 		.4byte	0
 6308              	.LLST3:
 6309 0094 06010000 		.4byte	.LVL5-.Ltext0
 6310 0098 42010000 		.4byte	.LVL10-.Ltext0
 6311 009c 0200     		.2byte	0x2
 6312 009e 90       		.byte	0x90
 6313 009f 4F       		.uleb128 0x4f
 6314 00a0 42010000 		.4byte	.LVL10-.Ltext0
 6315 00a4 68010000 		.4byte	.LVL11-.Ltext0
 6316 00a8 0500     		.2byte	0x5
 6317 00aa 73       		.byte	0x73
 6318 00ab 14       		.sleb128 20
 6319 00ac 06       		.byte	0x6
 6320 00ad 23       		.byte	0x23
 6321 00ae 4C       		.uleb128 0x4c
 6322 00af 00000000 		.4byte	0
 6323 00b3 00000000 		.4byte	0
 6324              	.LLST4:
 6325 00b7 A0020000 		.4byte	.LFB110-.Ltext0
 6326 00bb A8020000 		.4byte	.LCFI2-.Ltext0
 6327 00bf 0200     		.2byte	0x2
 6328 00c1 7D       		.byte	0x7d
 6329 00c2 00       		.sleb128 0
 6330 00c3 A8020000 		.4byte	.LCFI2-.Ltext0
 6331 00c7 B6020000 		.4byte	.LCFI3-.Ltext0
 6332 00cb 0200     		.2byte	0x2
 6333 00cd 7D       		.byte	0x7d
 6334 00ce 08       		.sleb128 8
 6335 00cf B6020000 		.4byte	.LCFI3-.Ltext0
 6336 00d3 08030000 		.4byte	.LFE110-.Ltext0
 6337 00d7 0200     		.2byte	0x2
 6338 00d9 7D       		.byte	0x7d
 6339 00da 10       		.sleb128 16
 6340 00db 00000000 		.4byte	0
 6341 00df 00000000 		.4byte	0
 6342              	.LLST5:
 6343 00e3 A0020000 		.4byte	.LVL14-.Ltext0
ARM GAS  C:\Users\Kevin\AppData\Local\Temp\ccw18vSb.s 			page 127


 6344 00e7 AE020000 		.4byte	.LVL15-.Ltext0
 6345 00eb 0100     		.2byte	0x1
 6346 00ed 50       		.byte	0x50
 6347 00ee AE020000 		.4byte	.LVL15-.Ltext0
 6348 00f2 08030000 		.4byte	.LFE110-.Ltext0
 6349 00f6 0400     		.2byte	0x4
 6350 00f8 F3       		.byte	0xf3
 6351 00f9 01       		.uleb128 0x1
 6352 00fa 50       		.byte	0x50
 6353 00fb 9F       		.byte	0x9f
 6354 00fc 00000000 		.4byte	0
 6355 0100 00000000 		.4byte	0
 6356              	.LLST6:
 6357 0104 A0020000 		.4byte	.LVL14-.Ltext0
 6358 0108 C9020000 		.4byte	.LVL17-1-.Ltext0
 6359 010c 0100     		.2byte	0x1
 6360 010e 51       		.byte	0x51
 6361 010f C9020000 		.4byte	.LVL17-1-.Ltext0
 6362 0113 08030000 		.4byte	.LFE110-.Ltext0
 6363 0117 0100     		.2byte	0x1
 6364 0119 54       		.byte	0x54
 6365 011a 00000000 		.4byte	0
 6366 011e 00000000 		.4byte	0
 6367              	.LLST7:
 6368 0122 A0020000 		.4byte	.LVL14-.Ltext0
 6369 0126 C6020000 		.4byte	.LVL16-.Ltext0
 6370 012a 0600     		.2byte	0x6
 6371 012c 9E       		.byte	0x9e
 6372 012d 04       		.uleb128 0x4
 6373 012e 00000000 		.4byte	0
 6374 0132 C6020000 		.4byte	.LVL16-.Ltext0
 6375 0136 08030000 		.4byte	.LFE110-.Ltext0
 6376 013a 0200     		.2byte	0x2
 6377 013c 90       		.byte	0x90
 6378 013d 50       		.uleb128 0x50
 6379 013e 00000000 		.4byte	0
 6380 0142 00000000 		.4byte	0
 6381              	.LLST8:
 6382 0146 E6020000 		.4byte	.LVL18-.Ltext0
 6383 014a EE020000 		.4byte	.LVL19-.Ltext0
 6384 014e 0200     		.2byte	0x2
 6385 0150 90       		.byte	0x90
 6386 0151 4F       		.uleb128 0x4f
 6387 0152 EE020000 		.4byte	.LVL19-.Ltext0
 6388 0156 08030000 		.4byte	.LFE110-.Ltext0
 6389 015a 0200     		.2byte	0x2
 6390 015c 74       		.byte	0x74
 6391 015d 00       		.sleb128 0
 6392 015e 00000000 		.4byte	0
 6393 0162 00000000 		.4byte	0
 6394              	.LLST9:
 6395 0166 08030000 		.4byte	.LFB111-.Ltext0
 6396 016a 0A030000 		.4byte	.LCFI4-.Ltext0
 6397 016e 0200     		.2byte	0x2
 6398 0170 7D       		.byte	0x7d
 6399 0171 00       		.sleb128 0
 6400 0172 0A030000 		.4byte	.LCFI4-.Ltext0
ARM GAS  C:\Users\Kevin\AppData\Local\Temp\ccw18vSb.s 			page 128


 6401 0176 54030000 		.4byte	.LFE111-.Ltext0
 6402 017a 0200     		.2byte	0x2
 6403 017c 7D       		.byte	0x7d
 6404 017d 08       		.sleb128 8
 6405 017e 00000000 		.4byte	0
 6406 0182 00000000 		.4byte	0
 6407              	.LLST10:
 6408 0186 54030000 		.4byte	.LVL24-.Ltext0
 6409 018a C2030000 		.4byte	.LVL25-.Ltext0
 6410 018e 0100     		.2byte	0x1
 6411 0190 50       		.byte	0x50
 6412 0191 C2030000 		.4byte	.LVL25-.Ltext0
 6413 0195 C4030000 		.4byte	.LVL26-.Ltext0
 6414 0199 0400     		.2byte	0x4
 6415 019b F3       		.byte	0xf3
 6416 019c 01       		.uleb128 0x1
 6417 019d 50       		.byte	0x50
 6418 019e 9F       		.byte	0x9f
 6419 019f C4030000 		.4byte	.LVL26-.Ltext0
 6420 01a3 C6030000 		.4byte	.LVL27-.Ltext0
 6421 01a7 0100     		.2byte	0x1
 6422 01a9 50       		.byte	0x50
 6423 01aa C6030000 		.4byte	.LVL27-.Ltext0
 6424 01ae F8030000 		.4byte	.LFE112-.Ltext0
 6425 01b2 0400     		.2byte	0x4
 6426 01b4 F3       		.byte	0xf3
 6427 01b5 01       		.uleb128 0x1
 6428 01b6 50       		.byte	0x50
 6429 01b7 9F       		.byte	0x9f
 6430 01b8 00000000 		.4byte	0
 6431 01bc 00000000 		.4byte	0
 6432              	.LLST11:
 6433 01c0 F8030000 		.4byte	.LFB113-.Ltext0
 6434 01c4 FA030000 		.4byte	.LCFI5-.Ltext0
 6435 01c8 0200     		.2byte	0x2
 6436 01ca 7D       		.byte	0x7d
 6437 01cb 00       		.sleb128 0
 6438 01cc FA030000 		.4byte	.LCFI5-.Ltext0
 6439 01d0 84040000 		.4byte	.LFE113-.Ltext0
 6440 01d4 0200     		.2byte	0x2
 6441 01d6 7D       		.byte	0x7d
 6442 01d7 10       		.sleb128 16
 6443 01d8 00000000 		.4byte	0
 6444 01dc 00000000 		.4byte	0
 6445              	.LLST12:
 6446 01e0 84040000 		.4byte	.LFB114-.Ltext0
 6447 01e4 88040000 		.4byte	.LCFI6-.Ltext0
 6448 01e8 0200     		.2byte	0x2
 6449 01ea 7D       		.byte	0x7d
 6450 01eb 00       		.sleb128 0
 6451 01ec 88040000 		.4byte	.LCFI6-.Ltext0
 6452 01f0 9C070000 		.4byte	.LFE114-.Ltext0
 6453 01f4 0200     		.2byte	0x2
 6454 01f6 7D       		.byte	0x7d
 6455 01f7 18       		.sleb128 24
 6456 01f8 00000000 		.4byte	0
 6457 01fc 00000000 		.4byte	0
ARM GAS  C:\Users\Kevin\AppData\Local\Temp\ccw18vSb.s 			page 129


 6458              	.LLST13:
 6459 0200 9C070000 		.4byte	.LFB115-.Ltext0
 6460 0204 9E070000 		.4byte	.LCFI7-.Ltext0
 6461 0208 0200     		.2byte	0x2
 6462 020a 7D       		.byte	0x7d
 6463 020b 00       		.sleb128 0
 6464 020c 9E070000 		.4byte	.LCFI7-.Ltext0
 6465 0210 EC090000 		.4byte	.LFE115-.Ltext0
 6466 0214 0200     		.2byte	0x2
 6467 0216 7D       		.byte	0x7d
 6468 0217 10       		.sleb128 16
 6469 0218 00000000 		.4byte	0
 6470 021c 00000000 		.4byte	0
 6471              	.LLST14:
 6472 0220 EC090000 		.4byte	.LFB116-.Ltext0
 6473 0224 EE090000 		.4byte	.LCFI8-.Ltext0
 6474 0228 0200     		.2byte	0x2
 6475 022a 7D       		.byte	0x7d
 6476 022b 00       		.sleb128 0
 6477 022c EE090000 		.4byte	.LCFI8-.Ltext0
 6478 0230 500B0000 		.4byte	.LFE116-.Ltext0
 6479 0234 0200     		.2byte	0x2
 6480 0236 7D       		.byte	0x7d
 6481 0237 08       		.sleb128 8
 6482 0238 00000000 		.4byte	0
 6483 023c 00000000 		.4byte	0
 6484              	.LLST15:
 6485 0240 EC090000 		.4byte	.LVL97-.Ltext0
 6486 0244 400A0000 		.4byte	.LVL98-.Ltext0
 6487 0248 0100     		.2byte	0x1
 6488 024a 50       		.byte	0x50
 6489 024b 400A0000 		.4byte	.LVL98-.Ltext0
 6490 024f 540A0000 		.4byte	.LVL100-.Ltext0
 6491 0253 0400     		.2byte	0x4
 6492 0255 F3       		.byte	0xf3
 6493 0256 01       		.uleb128 0x1
 6494 0257 50       		.byte	0x50
 6495 0258 9F       		.byte	0x9f
 6496 0259 540A0000 		.4byte	.LVL100-.Ltext0
 6497 025d 6E0A0000 		.4byte	.LVL101-.Ltext0
 6498 0261 0100     		.2byte	0x1
 6499 0263 50       		.byte	0x50
 6500 0264 6E0A0000 		.4byte	.LVL101-.Ltext0
 6501 0268 740A0000 		.4byte	.LVL102-.Ltext0
 6502 026c 0400     		.2byte	0x4
 6503 026e F3       		.byte	0xf3
 6504 026f 01       		.uleb128 0x1
 6505 0270 50       		.byte	0x50
 6506 0271 9F       		.byte	0x9f
 6507 0272 740A0000 		.4byte	.LVL102-.Ltext0
 6508 0276 7A0A0000 		.4byte	.LVL103-.Ltext0
 6509 027a 0100     		.2byte	0x1
 6510 027c 50       		.byte	0x50
 6511 027d 7A0A0000 		.4byte	.LVL103-.Ltext0
 6512 0281 800A0000 		.4byte	.LVL104-.Ltext0
 6513 0285 0400     		.2byte	0x4
 6514 0287 F3       		.byte	0xf3
ARM GAS  C:\Users\Kevin\AppData\Local\Temp\ccw18vSb.s 			page 130


 6515 0288 01       		.uleb128 0x1
 6516 0289 50       		.byte	0x50
 6517 028a 9F       		.byte	0x9f
 6518 028b 800A0000 		.4byte	.LVL104-.Ltext0
 6519 028f 860A0000 		.4byte	.LVL105-.Ltext0
 6520 0293 0100     		.2byte	0x1
 6521 0295 50       		.byte	0x50
 6522 0296 860A0000 		.4byte	.LVL105-.Ltext0
 6523 029a 8C0A0000 		.4byte	.LVL106-.Ltext0
 6524 029e 0400     		.2byte	0x4
 6525 02a0 F3       		.byte	0xf3
 6526 02a1 01       		.uleb128 0x1
 6527 02a2 50       		.byte	0x50
 6528 02a3 9F       		.byte	0x9f
 6529 02a4 8C0A0000 		.4byte	.LVL106-.Ltext0
 6530 02a8 960A0000 		.4byte	.LVL107-.Ltext0
 6531 02ac 0100     		.2byte	0x1
 6532 02ae 50       		.byte	0x50
 6533 02af 960A0000 		.4byte	.LVL107-.Ltext0
 6534 02b3 9E0A0000 		.4byte	.LVL110-.Ltext0
 6535 02b7 0400     		.2byte	0x4
 6536 02b9 F3       		.byte	0xf3
 6537 02ba 01       		.uleb128 0x1
 6538 02bb 50       		.byte	0x50
 6539 02bc 9F       		.byte	0x9f
 6540 02bd 9E0A0000 		.4byte	.LVL110-.Ltext0
 6541 02c1 020B0000 		.4byte	.LVL111-.Ltext0
 6542 02c5 0100     		.2byte	0x1
 6543 02c7 50       		.byte	0x50
 6544 02c8 020B0000 		.4byte	.LVL111-.Ltext0
 6545 02cc 0C0B0000 		.4byte	.LVL113-.Ltext0
 6546 02d0 0400     		.2byte	0x4
 6547 02d2 F3       		.byte	0xf3
 6548 02d3 01       		.uleb128 0x1
 6549 02d4 50       		.byte	0x50
 6550 02d5 9F       		.byte	0x9f
 6551 02d6 0C0B0000 		.4byte	.LVL113-.Ltext0
 6552 02da 160B0000 		.4byte	.LVL114-.Ltext0
 6553 02de 0100     		.2byte	0x1
 6554 02e0 50       		.byte	0x50
 6555 02e1 160B0000 		.4byte	.LVL114-.Ltext0
 6556 02e5 200B0000 		.4byte	.LVL116-.Ltext0
 6557 02e9 0400     		.2byte	0x4
 6558 02eb F3       		.byte	0xf3
 6559 02ec 01       		.uleb128 0x1
 6560 02ed 50       		.byte	0x50
 6561 02ee 9F       		.byte	0x9f
 6562 02ef 200B0000 		.4byte	.LVL116-.Ltext0
 6563 02f3 2A0B0000 		.4byte	.LVL117-.Ltext0
 6564 02f7 0100     		.2byte	0x1
 6565 02f9 50       		.byte	0x50
 6566 02fa 2A0B0000 		.4byte	.LVL117-.Ltext0
 6567 02fe 500B0000 		.4byte	.LFE116-.Ltext0
 6568 0302 0400     		.2byte	0x4
 6569 0304 F3       		.byte	0xf3
 6570 0305 01       		.uleb128 0x1
 6571 0306 50       		.byte	0x50
ARM GAS  C:\Users\Kevin\AppData\Local\Temp\ccw18vSb.s 			page 131


 6572 0307 9F       		.byte	0x9f
 6573 0308 00000000 		.4byte	0
 6574 030c 00000000 		.4byte	0
 6575              	.LLST16:
 6576 0310 EC090000 		.4byte	.LVL97-.Ltext0
 6577 0314 4A0A0000 		.4byte	.LVL99-.Ltext0
 6578 0318 0100     		.2byte	0x1
 6579 031a 51       		.byte	0x51
 6580 031b 4A0A0000 		.4byte	.LVL99-.Ltext0
 6581 031f 540A0000 		.4byte	.LVL100-.Ltext0
 6582 0323 0200     		.2byte	0x2
 6583 0325 70       		.byte	0x70
 6584 0326 01       		.sleb128 1
 6585 0327 540A0000 		.4byte	.LVL100-.Ltext0
 6586 032b 980A0000 		.4byte	.LVL108-.Ltext0
 6587 032f 0100     		.2byte	0x1
 6588 0331 51       		.byte	0x51
 6589 0332 980A0000 		.4byte	.LVL108-.Ltext0
 6590 0336 9E0A0000 		.4byte	.LVL110-.Ltext0
 6591 033a 0400     		.2byte	0x4
 6592 033c F3       		.byte	0xf3
 6593 033d 01       		.uleb128 0x1
 6594 033e 51       		.byte	0x51
 6595 033f 9F       		.byte	0x9f
 6596 0340 9E0A0000 		.4byte	.LVL110-.Ltext0
 6597 0344 070B0000 		.4byte	.LVL112-1-.Ltext0
 6598 0348 0100     		.2byte	0x1
 6599 034a 51       		.byte	0x51
 6600 034b 070B0000 		.4byte	.LVL112-1-.Ltext0
 6601 034f 0C0B0000 		.4byte	.LVL113-.Ltext0
 6602 0353 0400     		.2byte	0x4
 6603 0355 F3       		.byte	0xf3
 6604 0356 01       		.uleb128 0x1
 6605 0357 51       		.byte	0x51
 6606 0358 9F       		.byte	0x9f
 6607 0359 0C0B0000 		.4byte	.LVL113-.Ltext0
 6608 035d 1B0B0000 		.4byte	.LVL115-1-.Ltext0
 6609 0361 0100     		.2byte	0x1
 6610 0363 51       		.byte	0x51
 6611 0364 1B0B0000 		.4byte	.LVL115-1-.Ltext0
 6612 0368 200B0000 		.4byte	.LVL116-.Ltext0
 6613 036c 0400     		.2byte	0x4
 6614 036e F3       		.byte	0xf3
 6615 036f 01       		.uleb128 0x1
 6616 0370 51       		.byte	0x51
 6617 0371 9F       		.byte	0x9f
 6618 0372 200B0000 		.4byte	.LVL116-.Ltext0
 6619 0376 2F0B0000 		.4byte	.LVL118-1-.Ltext0
 6620 037a 0100     		.2byte	0x1
 6621 037c 51       		.byte	0x51
 6622 037d 2F0B0000 		.4byte	.LVL118-1-.Ltext0
 6623 0381 500B0000 		.4byte	.LFE116-.Ltext0
 6624 0385 0400     		.2byte	0x4
 6625 0387 F3       		.byte	0xf3
 6626 0388 01       		.uleb128 0x1
 6627 0389 51       		.byte	0x51
 6628 038a 9F       		.byte	0x9f
ARM GAS  C:\Users\Kevin\AppData\Local\Temp\ccw18vSb.s 			page 132


 6629 038b 00000000 		.4byte	0
 6630 038f 00000000 		.4byte	0
 6631              		.section	.debug_aranges,"",%progbits
 6632 0000 1C000000 		.4byte	0x1c
 6633 0004 0200     		.2byte	0x2
 6634 0006 00000000 		.4byte	.Ldebug_info0
 6635 000a 04       		.byte	0x4
 6636 000b 00       		.byte	0
 6637 000c 0000     		.2byte	0
 6638 000e 0000     		.2byte	0
 6639 0010 00000000 		.4byte	.Ltext0
 6640 0014 480D0000 		.4byte	.Letext0-.Ltext0
 6641 0018 00000000 		.4byte	0
 6642 001c 00000000 		.4byte	0
 6643              		.section	.debug_line,"",%progbits
 6644              	.Ldebug_line0:
 6645 0000 8D050000 		.section	.debug_str,"MS",%progbits,1
 6645      0200C701 
 6645      00000201 
 6645      FB0E0D00 
 6645      01010101 
 6646              	.LASF40:
 6647 0000 53656E73 		.ascii	"SensorAppState_Failure\000"
 6647      6F724170 
 6647      70537461 
 6647      74655F46 
 6647      61696C75 
 6648              	.LASF376:
 6649 0017 706D5F6D 		.ascii	"pm_malloc\000"
 6649      616C6C6F 
 6649      6300
 6650              	.LASF232:
 6651 0021 4932435F 		.ascii	"I2C_GeneralFailure\000"
 6651      47656E65 
 6651      72616C46 
 6651      61696C75 
 6651      726500
 6652              	.LASF155:
 6653 0034 50494443 		.ascii	"PIDController\000"
 6653      6F6E7472 
 6653      6F6C6C65 
 6653      7200
 6654              	.LASF336:
 6655 0042 74696D65 		.ascii	"timeConstant\000"
 6655      436F6E73 
 6655      74616E74 
 6655      00
 6656              	.LASF119:
 6657 004f 59617752 		.ascii	"YawRateDPS\000"
 6657      61746544 
 6657      505300
 6658              	.LASF300:
 6659 005a 53746172 		.ascii	"Start\000"
 6659      7400
 6660              	.LASF149:
 6661 0060 416C7447 		.ascii	"AltGPS\000"
 6661      505300
ARM GAS  C:\Users\Kevin\AppData\Local\Temp\ccw18vSb.s 			page 133


 6662              	.LASF156:
 6663 0067 4175746F 		.ascii	"AutoPilot\000"
 6663      50696C6F 
 6663      7400
 6664              	.LASF169:
 6665 0071 436F6D70 		.ascii	"CompFilter_50Ms\000"
 6665      46696C74 
 6665      65725F35 
 6665      304D7300 
 6666              	.LASF15:
 6667 0081 63686172 		.ascii	"char\000"
 6667      00
 6668              	.LASF74:
 6669 0086 41726D65 		.ascii	"Armed\000"
 6669      6400
 6670              	.LASF236:
 6671 008c 694F7052 		.ascii	"iOpResult_e\000"
 6671      6573756C 
 6671      745F6500 
 6672              	.LASF310:
 6673 0098 53656E64 		.ascii	"SendDiag\000"
 6673      44696167 
 6673      00
 6674              	.LASF133:
 6675 00a1 4553435F 		.ascii	"ESC_Port\000"
 6675      506F7274 
 6675      00
 6676              	.LASF153:
 6677 00aa 536E7372 		.ascii	"SnsrFusionComplementary\000"
 6677      46757369 
 6677      6F6E436F 
 6677      6D706C65 
 6677      6D656E74 
 6678              	.LASF109:
 6679 00c2 466C6967 		.ascii	"FlightMode\000"
 6679      68744D6F 
 6679      646500
 6680              	.LASF243:
 6681 00cd 46696C74 		.ascii	"FilterFloat_t\000"
 6681      6572466C 
 6681      6F61745F 
 6681      7400
 6682              	.LASF125:
 6683 00db 54617267 		.ascii	"TargetRoll\000"
 6683      6574526F 
 6683      6C6C00
 6684              	.LASF39:
 6685 00e6 53656E73 		.ascii	"SensorAppState_Diagnostics\000"
 6685      6F724170 
 6685      70537461 
 6685      74655F44 
 6685      6961676E 
 6686              	.LASF53:
 6687 0101 4672616D 		.ascii	"FrameConfig_X\000"
 6687      65436F6E 
 6687      6669675F 
 6687      5800
ARM GAS  C:\Users\Kevin\AppData\Local\Temp\ccw18vSb.s 			page 134


 6688              	.LASF290:
 6689 010f 53656E73 		.ascii	"SensorStatus_t\000"
 6689      6F725374 
 6689      61747573 
 6689      5F7400
 6690              	.LASF126:
 6691 011e 54617267 		.ascii	"TargetHeading\000"
 6691      65744865 
 6691      6164696E 
 6691      6700
 6692              	.LASF31:
 6693 012c 53656E73 		.ascii	"SensorAppState_Starting\000"
 6693      6F724170 
 6693      70537461 
 6693      74655F53 
 6693      74617274 
 6694              	.LASF313:
 6695 0144 53656E73 		.ascii	"Sensor_t\000"
 6695      6F725F74 
 6695      00
 6696              	.LASF192:
 6697 014d 46696C74 		.ascii	"FilterOption_Moving_Average_40\000"
 6697      65724F70 
 6697      74696F6E 
 6697      5F4D6F76 
 6697      696E675F 
 6698              	.LASF54:
 6699 016c 4672616D 		.ascii	"FrameConfig_e\000"
 6699      65436F6E 
 6699      6669675F 
 6699      6500
 6700              	.LASF129:
 6701 017a 54617267 		.ascii	"TargetRollRate\000"
 6701      6574526F 
 6701      6C6C5261 
 6701      746500
 6702              	.LASF58:
 6703 0189 4750494F 		.ascii	"GPIOAppState_Flying\000"
 6703      41707053 
 6703      74617465 
 6703      5F466C79 
 6703      696E6700 
 6704              	.LASF350:
 6705 019d 436F6D70 		.ascii	"ComplementaryFilterConfig\000"
 6705      6C656D65 
 6705      6E746172 
 6705      7946696C 
 6705      74657243 
 6706              	.LASF258:
 6707 01b7 4932434D 		.ascii	"I2CModes\000"
 6707      6F646573 
 6707      00
 6708              	.LASF13:
 6709 01c0 756E7369 		.ascii	"unsigned int\000"
 6709      676E6564 
 6709      20696E74 
 6709      00
ARM GAS  C:\Users\Kevin\AppData\Local\Temp\ccw18vSb.s 			page 135


 6710              	.LASF296:
 6711 01cd 53746174 		.ascii	"Status\000"
 6711      757300
 6712              	.LASF249:
 6713 01d4 50656E64 		.ascii	"PendingReceive\000"
 6713      696E6752 
 6713      65636569 
 6713      766500
 6714              	.LASF143:
 6715 01e3 4163634D 		.ascii	"AccMPU60x0\000"
 6715      50553630 
 6715      783000
 6716              	.LASF46:
 6717 01ee 53656E73 		.ascii	"SensorAppState_SnsrFusionHeading\000"
 6717      6F724170 
 6717      70537461 
 6717      74655F53 
 6717      6E737246 
 6718              	.LASF83:
 6719 020f 416C7469 		.ascii	"AltitudeHold_e\000"
 6719      74756465 
 6719      486F6C64 
 6719      5F6500
 6720              	.LASF381:
 6721 021e 5457425F 		.ascii	"TWB_Filter_Median_Apply_Float\000"
 6721      46696C74 
 6721      65725F4D 
 6721      65646961 
 6721      6E5F4170 
 6722              	.LASF139:
 6723 023c 4779726F 		.ascii	"GyroMPU60x0\000"
 6723      4D505536 
 6723      30783000 
 6724              	.LASF120:
 6725 0248 416C7469 		.ascii	"AltitudeRate\000"
 6725      74756465 
 6725      52617465 
 6725      00
 6726              	.LASF42:
 6727 0255 53656E73 		.ascii	"SensorAppState_Zeroing\000"
 6727      6F724170 
 6727      70537461 
 6727      74655F5A 
 6727      65726F69 
 6728              	.LASF160:
 6729 026c 436F6D70 		.ascii	"CompFilter_800Ms\000"
 6729      46696C74 
 6729      65725F38 
 6729      30304D73 
 6729      00
 6730              	.LASF112:
 6731 027d 526F6C6C 		.ascii	"Roll\000"
 6731      00
 6732              	.LASF254:
 6733 0282 49324354 		.ascii	"I2CTimeOut\000"
 6733      696D654F 
 6733      757400
ARM GAS  C:\Users\Kevin\AppData\Local\Temp\ccw18vSb.s 			page 136


 6734              	.LASF67:
 6735 028d 466C6967 		.ascii	"FlightCtrlStates_e\000"
 6735      68744374 
 6735      726C5374 
 6735      61746573 
 6735      5F6500
 6736              	.LASF47:
 6737 02a0 53656E73 		.ascii	"SensorAppState_SnsrFusionAltitude\000"
 6737      6F724170 
 6737      70537461 
 6737      74655F53 
 6737      6E737246 
 6738              	.LASF135:
 6739 02c2 4553435F 		.ascii	"ESC_Rear\000"
 6739      52656172 
 6739      00
 6740              	.LASF305:
 6741 02cb 50726F63 		.ascii	"ProcessData\000"
 6741      65737344 
 6741      61746100 
 6742              	.LASF269:
 6743 02d7 4F757442 		.ascii	"OutBuffer\000"
 6743      75666665 
 6743      7200
 6744              	.LASF228:
 6745 02e1 41726269 		.ascii	"ArbitrationLost\000"
 6745      74726174 
 6745      696F6E4C 
 6745      6F737400 
 6746              	.LASF235:
 6747 02f1 556E6B6E 		.ascii	"UnknownMessageType\000"
 6747      6F776E4D 
 6747      65737361 
 6747      67655479 
 6747      706500
 6748              	.LASF174:
 6749 0304 436F6D70 		.ascii	"CompFilter_05Ms\000"
 6749      46696C74 
 6749      65725F30 
 6749      354D7300 
 6750              	.LASF193:
 6751 0314 46696C74 		.ascii	"FilterOption_Moving_Average_50\000"
 6751      65724F70 
 6751      74696F6E 
 6751      5F4D6F76 
 6751      696E675F 
 6752              	.LASF219:
 6753 0333 53656E73 		.ascii	"Sensor3Heading\000"
 6753      6F723348 
 6753      65616469 
 6753      6E6700
 6754              	.LASF270:
 6755 0342 53746174 		.ascii	"State\000"
 6755      6500
 6756              	.LASF361:
 6757 0348 4D61674C 		.ascii	"MagLSM303Sensor\000"
 6757      534D3330 
ARM GAS  C:\Users\Kevin\AppData\Local\Temp\ccw18vSb.s 			page 137


 6757      3353656E 
 6757      736F7200 
 6758              	.LASF323:
 6759 0358 46696C74 		.ascii	"Filter\000"
 6759      657200
 6760              	.LASF286:
 6761 035f 53656E73 		.ascii	"SensorStatus_Disabled\000"
 6761      6F725374 
 6761      61747573 
 6761      5F446973 
 6761      61626C65 
 6762              	.LASF78:
 6763 0375 57694669 		.ascii	"WiFiControlled\000"
 6763      436F6E74 
 6763      726F6C6C 
 6763      656400
 6764              	.LASF177:
 6765 0384 436F6D70 		.ascii	"CompFilterValues_t\000"
 6765      46696C74 
 6765      65725661 
 6765      6C756573 
 6765      5F7400
 6766              	.LASF375:
 6767 0397 5457425F 		.ascii	"TWB_SE_ReadU8\000"
 6767      53455F52 
 6767      65616455 
 6767      3800
 6768              	.LASF214:
 6769 03a5 53656E73 		.ascii	"Sensor1Roll\000"
 6769      6F723152 
 6769      6F6C6C00 
 6770              	.LASF250:
 6771 03b1 50656E64 		.ascii	"PendingMasterModeRx\000"
 6771      696E674D 
 6771      61737465 
 6771      724D6F64 
 6771      65527800 
 6772              	.LASF103:
 6773 03c5 536E7372 		.ascii	"SnsrState\000"
 6773      53746174 
 6773      6500
 6774              	.LASF145:
 6775 03cf 4D616748 		.ascii	"MagHMS5883\000"
 6775      4D533538 
 6775      383300
 6776              	.LASF225:
 6777 03da 49676E6F 		.ascii	"Ignored\000"
 6777      72656400 
 6778              	.LASF106:
 6779 03e2 436F6E74 		.ascii	"ControlMethod\000"
 6779      726F6C4D 
 6779      6574686F 
 6779      6400
 6780              	.LASF96:
 6781 03f0 53616D70 		.ascii	"SampleRate_t\000"
 6781      6C655261 
 6781      74655F74 
ARM GAS  C:\Users\Kevin\AppData\Local\Temp\ccw18vSb.s 			page 138


 6781      00
 6782              	.LASF97:
 6783 03fd 466C6967 		.ascii	"FlightMode_Stable\000"
 6783      68744D6F 
 6783      64655F53 
 6783      7461626C 
 6783      6500
 6784              	.LASF314:
 6785 040f 4E6F4178 		.ascii	"NoAxis\000"
 6785      697300
 6786              	.LASF365:
 6787 0416 47656F47 		.ascii	"GeoGPSSensor\000"
 6787      50535365 
 6787      6E736F72 
 6787      00
 6788              	.LASF233:
 6789 0423 496E7661 		.ascii	"InvalidBusSpeed\000"
 6789      6C696442 
 6789      75735370 
 6789      65656400 
 6790              	.LASF364:
 6791 0433 50726573 		.ascii	"PressureMS5611Sensor\000"
 6791      73757265 
 6791      4D533536 
 6791      31315365 
 6791      6E736F72 
 6792              	.LASF321:
 6793 0448 50657269 		.ascii	"Period2\000"
 6793      6F643200 
 6794              	.LASF94:
 6795 0450 53616D70 		.ascii	"SampleRate_1Hz\000"
 6795      6C655261 
 6795      74655F31 
 6795      487A00
 6796              	.LASF194:
 6797 045f 46696C74 		.ascii	"FilterOption_Moving_Average_60\000"
 6797      65724F70 
 6797      74696F6E 
 6797      5F4D6F76 
 6797      696E675F 
 6798              	.LASF223:
 6799 047e 53656E73 		.ascii	"SensorFusion_t\000"
 6799      6F724675 
 6799      73696F6E 
 6799      5F7400
 6800              	.LASF21:
 6801 048d 53797374 		.ascii	"SystemRestarting\000"
 6801      656D5265 
 6801      73746172 
 6801      74696E67 
 6801      00
 6802              	.LASF22:
 6803 049e 53797374 		.ascii	"SystemZeroing\000"
 6803      656D5A65 
 6803      726F696E 
 6803      6700
 6804              	.LASF33:
ARM GAS  C:\Users\Kevin\AppData\Local\Temp\ccw18vSb.s 			page 139


 6805 04ac 53656E73 		.ascii	"SensorAppState_Resuming\000"
 6805      6F724170 
 6805      70537461 
 6805      74655F52 
 6805      6573756D 
 6806              	.LASF378:
 6807 04c4 474E5520 		.ascii	"GNU C 4.7.2\000"
 6807      4320342E 
 6807      372E3200 
 6808              	.LASF238:
 6809 04d0 46696C74 		.ascii	"FilterType\000"
 6809      65725479 
 6809      706500
 6810              	.LASF209:
 6811 04db 54696D65 		.ascii	"TimeConstantHeading\000"
 6811      436F6E73 
 6811      74616E74 
 6811      48656164 
 6811      696E6700 
 6812              	.LASF355:
 6813 04ef 4779726F 		.ascii	"GyroL3GD20Sensor\000"
 6813      4C334744 
 6813      32305365 
 6813      6E736F72 
 6813      00
 6814              	.LASF131:
 6815 0500 54617267 		.ascii	"TargetAltitudeRate\000"
 6815      6574416C 
 6815      74697475 
 6815      64655261 
 6815      746500
 6816              	.LASF104:
 6817 0513 4750494F 		.ascii	"GPIOState\000"
 6817      53746174 
 6817      6500
 6818              	.LASF309:
 6819 051d 55706461 		.ascii	"UpdateSetting\000"
 6819      74655365 
 6819      7474696E 
 6819      6700
 6820              	.LASF353:
 6821 052b 496E7465 		.ascii	"InternalState\000"
 6821      726E616C 
 6821      53746174 
 6821      6500
 6822              	.LASF86:
 6823 0539 53616D70 		.ascii	"SampleRate_200Hz\000"
 6823      6C655261 
 6823      74655F32 
 6823      3030487A 
 6823      00
 6824              	.LASF344:
 6825 054a 5457425F 		.ascii	"TWB_SNSR_Complementary_Init\000"
 6825      534E5352 
 6825      5F436F6D 
 6825      706C656D 
 6825      656E7461 
ARM GAS  C:\Users\Kevin\AppData\Local\Temp\ccw18vSb.s 			page 140


 6826              	.LASF4:
 6827 0566 696E7431 		.ascii	"int16_t\000"
 6827      365F7400 
 6828              	.LASF146:
 6829 056e 4D616747 		.ascii	"MagGPS\000"
 6829      505300
 6830              	.LASF203:
 6831 0575 46696C74 		.ascii	"FilterOptionPitch\000"
 6831      65724F70 
 6831      74696F6E 
 6831      50697463 
 6831      6800
 6832              	.LASF124:
 6833 0587 54617267 		.ascii	"TargetPitch\000"
 6833      65745069 
 6833      74636800 
 6834              	.LASF12:
 6835 0593 6C6F6E67 		.ascii	"long long unsigned int\000"
 6835      206C6F6E 
 6835      6720756E 
 6835      7369676E 
 6835      65642069 
 6836              	.LASF293:
 6837 05aa 4973456E 		.ascii	"IsEnabled\000"
 6837      61626C65 
 6837      6400
 6838              	.LASF163:
 6839 05b4 436F6D70 		.ascii	"CompFilter_500Ms\000"
 6839      46696C74 
 6839      65725F35 
 6839      30304D73 
 6839      00
 6840              	.LASF251:
 6841 05c5 50656E64 		.ascii	"PendingReady\000"
 6841      696E6752 
 6841      65616479 
 6841      00
 6842              	.LASF179:
 6843 05d2 46696C74 		.ascii	"FilterOption_Median_3_Sample\000"
 6843      65724F70 
 6843      74696F6E 
 6843      5F4D6564 
 6843      69616E5F 
 6844              	.LASF34:
 6845 05ef 53656E73 		.ascii	"SensorAppState_Online\000"
 6845      6F724170 
 6845      70537461 
 6845      74655F4F 
 6845      6E6C696E 
 6846              	.LASF327:
 6847 0605 436F6D70 		.ascii	"CompFilter_t\000"
 6847      46696C74 
 6847      65725F74 
 6847      00
 6848              	.LASF294:
 6849 0612 45455052 		.ascii	"EEPROMBaseAddr\000"
 6849      4F4D4261 
ARM GAS  C:\Users\Kevin\AppData\Local\Temp\ccw18vSb.s 			page 141


 6849      73654164 
 6849      647200
 6850              	.LASF117:
 6851 0621 50697463 		.ascii	"PitchRateDPS\000"
 6851      68526174 
 6851      65445053 
 6851      00
 6852              	.LASF335:
 6853 062e 66696C74 		.ascii	"filterSettings\000"
 6853      65725365 
 6853      7474696E 
 6853      677300
 6854              	.LASF283:
 6855 063d 44656C74 		.ascii	"DeltaT\000"
 6855      615400
 6856              	.LASF382:
 6857 0644 5457425F 		.ascii	"TWB_Commo_SendMessage\000"
 6857      436F6D6D 
 6857      6F5F5365 
 6857      6E644D65 
 6857      73736167 
 6858              	.LASF280:
 6859 065a 44656C74 		.ascii	"DeltaX\000"
 6859      615800
 6860              	.LASF354:
 6861 0661 4779726F 		.ascii	"GyroITG3200Sensor\000"
 6861      49544733 
 6861      32303053 
 6861      656E736F 
 6861      7200
 6862              	.LASF282:
 6863 0673 44656C74 		.ascii	"DeltaZ\000"
 6863      615A00
 6864              	.LASF81:
 6865 067a 416C7469 		.ascii	"AltitudeHold_On\000"
 6865      74756465 
 6865      486F6C64 
 6865      5F4F6E00 
 6866              	.LASF372:
 6867 068a 436F6D70 		.ascii	"CompFilterAltitude\000"
 6867      46696C74 
 6867      6572416C 
 6867      74697475 
 6867      646500
 6868              	.LASF220:
 6869 069d 53656E73 		.ascii	"Sensor1Altitude\000"
 6869      6F723141 
 6869      6C746974 
 6869      75646500 
 6870              	.LASF44:
 6871 06ad 53656E73 		.ascii	"SensorAppState_SnsrFusionPitch\000"
 6871      6F724170 
 6871      70537461 
 6871      74655F53 
 6871      6E737246 
 6872              	.LASF311:
 6873 06cc 45787465 		.ascii	"Extended\000"
ARM GAS  C:\Users\Kevin\AppData\Local\Temp\ccw18vSb.s 			page 142


 6873      6E646564 
 6873      00
 6874              	.LASF170:
 6875 06d5 436F6D70 		.ascii	"CompFilter_25Ms\000"
 6875      46696C74 
 6875      65725F32 
 6875      354D7300 
 6876              	.LASF337:
 6877 06e5 616C7068 		.ascii	"alpha\000"
 6877      6100
 6878              	.LASF341:
 6879 06eb 5F5F736E 		.ascii	"__snsr_compFilter_ResolveSensor\000"
 6879      73725F63 
 6879      6F6D7046 
 6879      696C7465 
 6879      725F5265 
 6880              	.LASF246:
 6881 070b 50656E64 		.ascii	"PendingMasterMode\000"
 6881      696E674D 
 6881      61737465 
 6881      724D6F64 
 6881      6500
 6882              	.LASF166:
 6883 071d 436F6D70 		.ascii	"CompFilter_200Ms\000"
 6883      46696C74 
 6883      65725F32 
 6883      30304D73 
 6883      00
 6884              	.LASF291:
 6885 072e 4E616D65 		.ascii	"Name\000"
 6885      00
 6886              	.LASF271:
 6887 0733 43616C6C 		.ascii	"Callback\000"
 6887      6261636B 
 6887      00
 6888              	.LASF108:
 6889 073c 4672616D 		.ascii	"FrameConfig\000"
 6889      65436F6E 
 6889      66696700 
 6890              	.LASF331:
 6891 0748 73656E73 		.ascii	"sensor1\000"
 6891      6F723100 
 6892              	.LASF332:
 6893 0750 73656E73 		.ascii	"sensor2\000"
 6893      6F723200 
 6894              	.LASF183:
 6895 0758 46696C74 		.ascii	"FilterOption_Moving_Average_0_01\000"
 6895      65724F70 
 6895      74696F6E 
 6895      5F4D6F76 
 6895      696E675F 
 6896              	.LASF207:
 6897 0779 54696D65 		.ascii	"TimeConstantPitch\000"
 6897      436F6E73 
 6897      74616E74 
 6897      50697463 
 6897      6800
ARM GAS  C:\Users\Kevin\AppData\Local\Temp\ccw18vSb.s 			page 143


 6898              	.LASF142:
 6899 078b 41636341 		.ascii	"AccADXL345\000"
 6899      44584C33 
 6899      343500
 6900              	.LASF61:
 6901 0796 4750494F 		.ascii	"GPIOAppState_Idle\000"
 6901      41707053 
 6901      74617465 
 6901      5F49646C 
 6901      6500
 6902              	.LASF266:
 6903 07a8 42797465 		.ascii	"BytesReceived\000"
 6903      73526563 
 6903      65697665 
 6903      6400
 6904              	.LASF298:
 6905 07b6 496E6974 		.ascii	"Init\000"
 6905      00
 6906              	.LASF147:
 6907 07bb 416C7442 		.ascii	"AltBMP085\000"
 6907      4D503038 
 6907      3500
 6908              	.LASF196:
 6909 07c5 46696C74 		.ascii	"FilterOption_Moving_Average_80\000"
 6909      65724F70 
 6909      74696F6E 
 6909      5F4D6F76 
 6909      696E675F 
 6910              	.LASF92:
 6911 07e4 53616D70 		.ascii	"SampleRate_10Hz\000"
 6911      6C655261 
 6911      74655F31 
 6911      30487A00 
 6912              	.LASF205:
 6913 07f4 46696C74 		.ascii	"FilterOptionHeading\000"
 6913      65724F70 
 6913      74696F6E 
 6913      48656164 
 6913      696E6700 
 6914              	.LASF231:
 6915 0808 4932435F 		.ascii	"I2C_Timeout\000"
 6915      54696D65 
 6915      6F757400 
 6916              	.LASF204:
 6917 0814 46696C74 		.ascii	"FilterOptionRoll\000"
 6917      65724F70 
 6917      74696F6E 
 6917      526F6C6C 
 6917      00
 6918              	.LASF107:
 6919 0825 416C7469 		.ascii	"AltitudeHold\000"
 6919      74756465 
 6919      486F6C64 
 6919      00
 6920              	.LASF212:
 6921 0832 53656E73 		.ascii	"Sensor2Pitch\000"
 6921      6F723250 
ARM GAS  C:\Users\Kevin\AppData\Local\Temp\ccw18vSb.s 			page 144


 6921      69746368 
 6921      00
 6922              	.LASF259:
 6923 083f 7531365F 		.ascii	"u16_vector\000"
 6923      76656374 
 6923      6F7200
 6924              	.LASF370:
 6925 084a 436F6D70 		.ascii	"CompFilterRoll\000"
 6925      46696C74 
 6925      6572526F 
 6925      6C6C00
 6926              	.LASF273:
 6927 0859 4D4F445F 		.ascii	"MOD_Sensor\000"
 6927      53656E73 
 6927      6F7200
 6928              	.LASF371:
 6929 0864 436F6D70 		.ascii	"CompFilterHeading\000"
 6929      46696C74 
 6929      65724865 
 6929      6164696E 
 6929      6700
 6930              	.LASF37:
 6931 0876 53656E73 		.ascii	"SensorAppState_Pausing\000"
 6931      6F724170 
 6931      70537461 
 6931      74655F50 
 6931      61757369 
 6932              	.LASF257:
 6933 088d 49324352 		.ascii	"I2CReceive\000"
 6933      65636569 
 6933      766500
 6934              	.LASF182:
 6935 0898 46696C74 		.ascii	"FilterOption_Median_9_Sample\000"
 6935      65724F70 
 6935      74696F6E 
 6935      5F4D6564 
 6935      69616E5F 
 6936              	.LASF284:
 6937 08b5 4772796F 		.ascii	"GryoExtendedData_t\000"
 6937      45787465 
 6937      6E646564 
 6937      44617461 
 6937      5F7400
 6938              	.LASF217:
 6939 08c8 53656E73 		.ascii	"Sensor1Heading\000"
 6939      6F723148 
 6939      65616469 
 6939      6E6700
 6940              	.LASF123:
 6941 08d7 5468726F 		.ascii	"Throttle\000"
 6941      74746C65 
 6941      00
 6942              	.LASF95:
 6943 08e0 53616D70 		.ascii	"SampleRate_IRQ\000"
 6943      6C655261 
 6943      74655F49 
 6943      525100
ARM GAS  C:\Users\Kevin\AppData\Local\Temp\ccw18vSb.s 			page 145


 6944              	.LASF24:
 6945 08ef 53797374 		.ascii	"SystemReady\000"
 6945      656D5265 
 6945      61647900 
 6946              	.LASF197:
 6947 08fb 46696C74 		.ascii	"FilterOption_Moving_Average_90\000"
 6947      65724F70 
 6947      74696F6E 
 6947      5F4D6F76 
 6947      696E675F 
 6948              	.LASF59:
 6949 091a 4750494F 		.ascii	"GPIOAppState_Landing\000"
 6949      41707053 
 6949      74617465 
 6949      5F4C616E 
 6949      64696E67 
 6950              	.LASF48:
 6951 092f 53656E73 		.ascii	"SensorAppState_MagCalibration\000"
 6951      6F724170 
 6951      70537461 
 6951      74655F4D 
 6951      61674361 
 6952              	.LASF256:
 6953 094d 49324353 		.ascii	"I2CSend\000"
 6953      656E6400 
 6954              	.LASF304:
 6955 0955 52656164 		.ascii	"Read\000"
 6955      00
 6956              	.LASF277:
 6957 095a 52617465 		.ascii	"RateXDPS\000"
 6957      58445053 
 6957      00
 6958              	.LASF23:
 6959 0963 53797374 		.ascii	"SystemResettingDefaults\000"
 6959      656D5265 
 6959      73657474 
 6959      696E6744 
 6959      65666175 
 6960              	.LASF366:
 6961 097b 436F6D70 		.ascii	"ComplementarySnsrFusion\000"
 6961      6C656D65 
 6961      6E746172 
 6961      79536E73 
 6961      72467573 
 6962              	.LASF329:
 6963 0993 44657669 		.ascii	"DeviceType\000"
 6963      63655479 
 6963      706500
 6964              	.LASF288:
 6965 099e 53656E73 		.ascii	"SensorStatus_Online\000"
 6965      6F725374 
 6965      61747573 
 6965      5F4F6E6C 
 6965      696E6500 
 6966              	.LASF55:
 6967 09b2 4750494F 		.ascii	"GPIOAppState_Startup\000"
 6967      41707053 
ARM GAS  C:\Users\Kevin\AppData\Local\Temp\ccw18vSb.s 			page 146


 6967      74617465 
 6967      5F537461 
 6967      72747570 
 6968              	.LASF274:
 6969 09c7 4D4F445F 		.ascii	"MOD_FlightControls\000"
 6969      466C6967 
 6969      6874436F 
 6969      6E74726F 
 6969      6C7300
 6970              	.LASF328:
 6971 09da 436F6D62 		.ascii	"Combined\000"
 6971      696E6564 
 6971      00
 6972              	.LASF18:
 6973 09e3 7531365F 		.ascii	"u16_vector_t\000"
 6973      76656374 
 6973      6F725F74 
 6973      00
 6974              	.LASF161:
 6975 09f0 436F6D70 		.ascii	"CompFilter_700Ms\000"
 6975      46696C74 
 6975      65725F37 
 6975      30304D73 
 6975      00
 6976              	.LASF3:
 6977 0a01 75696E74 		.ascii	"uint8_t\000"
 6977      385F7400 
 6978              	.LASF324:
 6979 0a09 53656E73 		.ascii	"Sensor1\000"
 6979      6F723100 
 6980              	.LASF28:
 6981 0a11 53656E73 		.ascii	"SensorAppState_Initializing\000"
 6981      6F724170 
 6981      70537461 
 6981      74655F49 
 6981      6E697469 
 6982              	.LASF326:
 6983 0a2d 53656E73 		.ascii	"Sensor3\000"
 6983      6F723300 
 6984              	.LASF154:
 6985 0a35 536E7372 		.ascii	"SnsrFusionKalman\000"
 6985      46757369 
 6985      6F6E4B61 
 6985      6C6D616E 
 6985      00
 6986              	.LASF87:
 6987 0a46 53616D70 		.ascii	"SampleRate_150Hz\000"
 6987      6C655261 
 6987      74655F31 
 6987      3530487A 
 6987      00
 6988              	.LASF325:
 6989 0a57 53656E73 		.ascii	"Sensor2\000"
 6989      6F723200 
 6990              	.LASF216:
 6991 0a5f 53656E73 		.ascii	"Sensor3Roll\000"
 6991      6F723352 
ARM GAS  C:\Users\Kevin\AppData\Local\Temp\ccw18vSb.s 			page 147


 6991      6F6C6C00 
 6992              	.LASF202:
 6993 0a6b 53616D70 		.ascii	"SampleRate\000"
 6993      6C655261 
 6993      746500
 6994              	.LASF63:
 6995 0a76 4750494F 		.ascii	"GPIOAppState_PIDConfig\000"
 6995      41707053 
 6995      74617465 
 6995      5F504944 
 6995      436F6E66 
 6996              	.LASF342:
 6997 0a8d 73656E73 		.ascii	"sensorType\000"
 6997      6F725479 
 6997      706500
 6998              	.LASF241:
 6999 0a98 50726576 		.ascii	"Previous\000"
 6999      696F7573 
 6999      00
 7000              	.LASF289:
 7001 0aa1 53656E73 		.ascii	"SensorStatus_Failure\000"
 7001      6F725374 
 7001      61747573 
 7001      5F466169 
 7001      6C757265 
 7002              	.LASF25:
 7003 0ab6 53797374 		.ascii	"SystemFailure\000"
 7003      656D4661 
 7003      696C7572 
 7003      6500
 7004              	.LASF41:
 7005 0ac4 53656E73 		.ascii	"SensorAppState_Zero\000"
 7005      6F724170 
 7005      70537461 
 7005      74655F5A 
 7005      65726F00 
 7006              	.LASF134:
 7007 0ad8 4553435F 		.ascii	"ESC_Starboard\000"
 7007      53746172 
 7007      626F6172 
 7007      6400
 7008              	.LASF11:
 7009 0ae6 6C6F6E67 		.ascii	"long long int\000"
 7009      206C6F6E 
 7009      6720696E 
 7009      7400
 7010              	.LASF82:
 7011 0af4 416C7469 		.ascii	"AltitudeHold_Off\000"
 7011      74756465 
 7011      486F6C64 
 7011      5F4F6666 
 7011      00
 7012              	.LASF338:
 7013 0b05 5F5F736E 		.ascii	"__snsr_ResolveCompFilter\000"
 7013      73725F52 
 7013      65736F6C 
 7013      7665436F 
ARM GAS  C:\Users\Kevin\AppData\Local\Temp\ccw18vSb.s 			page 148


 7013      6D704669 
 7014              	.LASF138:
 7015 0b1e 4779726F 		.ascii	"GyroITG3200\000"
 7015      49544733 
 7015      32303000 
 7016              	.LASF150:
 7017 0b2a 416C744D 		.ascii	"AltMS5611\000"
 7017      53353631 
 7017      3100
 7018              	.LASF52:
 7019 0b34 4672616D 		.ascii	"FrameConfig_Cross\000"
 7019      65436F6E 
 7019      6669675F 
 7019      43726F73 
 7019      7300
 7020              	.LASF379:
 7021 0b46 2E5C7372 		.ascii	".\\src\\sensors\\fusion\\complementary.c\000"
 7021      635C7365 
 7021      6E736F72 
 7021      735C6675 
 7021      73696F6E 
 7022              	.LASF80:
 7023 0b6b 436F6E74 		.ascii	"ControlMethodState_e\000"
 7023      726F6C4D 
 7023      6574686F 
 7023      64537461 
 7023      74655F65 
 7024              	.LASF268:
 7025 0b80 496E4275 		.ascii	"InBuffer\000"
 7025      66666572 
 7025      00
 7026              	.LASF101:
 7027 0b89 506C6174 		.ascii	"Platform\000"
 7027      666F726D 
 7027      00
 7028              	.LASF244:
 7029 0b92 50656E64 		.ascii	"Pending\000"
 7029      696E6700 
 7030              	.LASF50:
 7031 0b9a 53656E73 		.ascii	"SensorAppState_PIDConfig\000"
 7031      6F724170 
 7031      70537461 
 7031      74655F50 
 7031      4944436F 
 7032              	.LASF167:
 7033 0bb3 436F6D70 		.ascii	"CompFilter_150Ms\000"
 7033      46696C74 
 7033      65725F31 
 7033      35304D73 
 7033      00
 7034              	.LASF114:
 7035 0bc4 416C7469 		.ascii	"AltitudeM\000"
 7035      74756465 
 7035      4D00
 7036              	.LASF245:
 7037 0bce 49646C65 		.ascii	"Idle\000"
 7037      00
ARM GAS  C:\Users\Kevin\AppData\Local\Temp\ccw18vSb.s 			page 149


 7038              	.LASF176:
 7039 0bd3 436F6D70 		.ascii	"CompFilter_01Ms\000"
 7039      46696C74 
 7039      65725F30 
 7039      314D7300 
 7040              	.LASF151:
 7041 0be3 4144434C 		.ascii	"ADCLipo\000"
 7041      69706F00 
 7042              	.LASF71:
 7043 0beb 49525141 		.ascii	"IRQAsserted\000"
 7043      73736572 
 7043      74656400 
 7044              	.LASF118:
 7045 0bf7 526F6C6C 		.ascii	"RollRateDPS\000"
 7045      52617465 
 7045      44505300 
 7046              	.LASF279:
 7047 0c03 52617465 		.ascii	"RateZDPS\000"
 7047      5A445053 
 7047      00
 7048              	.LASF105:
 7049 0c0c 41726D65 		.ascii	"ArmedStatus\000"
 7049      64537461 
 7049      74757300 
 7050              	.LASF374:
 7051 0c18 5457425F 		.ascii	"TWB_Timer_GetMSFromSampleRate\000"
 7051      54696D65 
 7051      725F4765 
 7051      744D5346 
 7051      726F6D53 
 7052              	.LASF221:
 7053 0c36 53656E73 		.ascii	"Sensor2Altitude\000"
 7053      6F723241 
 7053      6C746974 
 7053      75646500 
 7054              	.LASF380:
 7055 0c46 443A5C4E 		.ascii	"D:\\NiVek\\Firmware\\NiVek32\000"
 7055      6956656B 
 7055      5C466972 
 7055      6D776172 
 7055      655C4E69 
 7056              	.LASF276:
 7057 0c60 4D4F445F 		.ascii	"MOD_System\000"
 7057      53797374 
 7057      656D00
 7058              	.LASF227:
 7059 0c6b 4932435F 		.ascii	"I2C_BusError\000"
 7059      42757345 
 7059      72726F72 
 7059      00
 7060              	.LASF65:
 7061 0c78 4750494F 		.ascii	"GPIOAppState_RCCalibration\000"
 7061      41707053 
 7061      74617465 
 7061      5F524343 
 7061      616C6962 
 7062              	.LASF253:
ARM GAS  C:\Users\Kevin\AppData\Local\Temp\ccw18vSb.s 			page 150


 7063 0c93 49324341 		.ascii	"I2CAckFailure\000"
 7063      636B4661 
 7063      696C7572 
 7063      6500
 7064              	.LASF5:
 7065 0ca1 73686F72 		.ascii	"short int\000"
 7065      7420696E 
 7065      7400
 7066              	.LASF184:
 7067 0cab 46696C74 		.ascii	"FilterOption_Moving_Average_0_1\000"
 7067      65724F70 
 7067      74696F6E 
 7067      5F4D6F76 
 7067      696E675F 
 7068              	.LASF88:
 7069 0ccb 53616D70 		.ascii	"SampleRate_100Hz\000"
 7069      6C655261 
 7069      74655F31 
 7069      3030487A 
 7069      00
 7070              	.LASF247:
 7071 0cdc 50656E64 		.ascii	"PendingAddressSent\000"
 7071      696E6741 
 7071      64647265 
 7071      73735365 
 7071      6E7400
 7072              	.LASF265:
 7073 0cef 4F757442 		.ascii	"OutBufferSize\000"
 7073      75666665 
 7073      7253697A 
 7073      6500
 7074              	.LASF252:
 7075 0cfd 49324343 		.ascii	"I2CCompleted\000"
 7075      6F6D706C 
 7075      65746564 
 7075      00
 7076              	.LASF26:
 7077 0d0a 53797374 		.ascii	"SystemStatus_e\000"
 7077      656D5374 
 7077      61747573 
 7077      5F6500
 7078              	.LASF345:
 7079 0d19 5457425F 		.ascii	"TWB_SNSR_Complementary_ResetDefaults\000"
 7079      534E5352 
 7079      5F436F6D 
 7079      706C656D 
 7079      656E7461 
 7080              	.LASF144:
 7081 0d3e 4D61674C 		.ascii	"MagLSM303\000"
 7081      534D3330 
 7081      3300
 7082              	.LASF308:
 7083 0d48 436F6D70 		.ascii	"CompleteZero\000"
 7083      6C657465 
 7083      5A65726F 
 7083      00
 7084              	.LASF164:
ARM GAS  C:\Users\Kevin\AppData\Local\Temp\ccw18vSb.s 			page 151


 7085 0d55 436F6D70 		.ascii	"CompFilter_400Ms\000"
 7085      46696C74 
 7085      65725F34 
 7085      30304D73 
 7085      00
 7086              	.LASF224:
 7087 0d66 4641494C 		.ascii	"FAIL\000"
 7087      00
 7088              	.LASF319:
 7089 0d6b 41786973 		.ascii	"Axis_t\000"
 7089      5F7400
 7090              	.LASF110:
 7091 0d72 53797374 		.ascii	"SystemStatus_t\000"
 7091      656D5374 
 7091      61747573 
 7091      5F7400
 7092              	.LASF292:
 7093 0d81 53656E73 		.ascii	"SensorId\000"
 7093      6F724964 
 7093      00
 7094              	.LASF312:
 7095 0d8a 4E657874 		.ascii	"Next\000"
 7095      00
 7096              	.LASF122:
 7097 0d8f 54656D70 		.ascii	"Temperature\000"
 7097      65726174 
 7097      75726500 
 7098              	.LASF287:
 7099 0d9b 53656E73 		.ascii	"SensorStatus_Ready\000"
 7099      6F725374 
 7099      61747573 
 7099      5F526561 
 7099      647900
 7100              	.LASF315:
 7101 0dae 50697463 		.ascii	"PitchAxis\000"
 7101      68417869 
 7101      7300
 7102              	.LASF17:
 7103 0db8 6C6F6E67 		.ascii	"long double\000"
 7103      20646F75 
 7103      626C6500 
 7104              	.LASF210:
 7105 0dc4 54696D65 		.ascii	"TimeConstantAltitude\000"
 7105      436F6E73 
 7105      74616E74 
 7105      416C7469 
 7105      74756465 
 7106              	.LASF6:
 7107 0dd9 75696E74 		.ascii	"uint16_t\000"
 7107      31365F74 
 7107      00
 7108              	.LASF357:
 7109 0de2 4163634D 		.ascii	"AccMPU60x0Sensor\000"
 7109      50553630 
 7109      78305365 
 7109      6E736F72 
 7109      00
ARM GAS  C:\Users\Kevin\AppData\Local\Temp\ccw18vSb.s 			page 152


 7110              	.LASF132:
 7111 0df3 4553435F 		.ascii	"ESC_Front\000"
 7111      46726F6E 
 7111      7400
 7112              	.LASF84:
 7113 0dfd 53616D70 		.ascii	"SampleRate_1KHz\000"
 7113      6C655261 
 7113      74655F31 
 7113      4B487A00 
 7114              	.LASF89:
 7115 0e0d 53616D70 		.ascii	"SampleRate_50Hz\000"
 7115      6C655261 
 7115      74655F35 
 7115      30487A00 
 7116              	.LASF333:
 7117 0e1d 64656C74 		.ascii	"deltaT\000"
 7117      615400
 7118              	.LASF45:
 7119 0e24 53656E73 		.ascii	"SensorAppState_SnsrFusionRoll\000"
 7119      6F724170 
 7119      70537461 
 7119      74655F53 
 7119      6E737246 
 7120              	.LASF168:
 7121 0e42 436F6D70 		.ascii	"CompFilter_100Ms\000"
 7121      46696C74 
 7121      65725F31 
 7121      30304D73 
 7121      00
 7122              	.LASF226:
 7123 0e53 4E61636B 		.ascii	"Nack\000"
 7123      00
 7124              	.LASF128:
 7125 0e58 54617267 		.ascii	"TargetPitchRate\000"
 7125      65745069 
 7125      74636852 
 7125      61746500 
 7126              	.LASF260:
 7127 0e68 4932434A 		.ascii	"I2CJob\000"
 7127      6F6200
 7128              	.LASF113:
 7129 0e6f 48656164 		.ascii	"Heading\000"
 7129      696E6700 
 7130              	.LASF213:
 7131 0e77 53656E73 		.ascii	"Sensor3Pitch\000"
 7131      6F723350 
 7131      69746368 
 7131      00
 7132              	.LASF66:
 7133 0e84 4750494F 		.ascii	"GPIOAppState_RCEndCalibration\000"
 7133      41707053 
 7133      74617465 
 7133      5F524345 
 7133      6E644361 
 7134              	.LASF281:
 7135 0ea2 44656C74 		.ascii	"DeltaY\000"
 7135      615900
ARM GAS  C:\Users\Kevin\AppData\Local\Temp\ccw18vSb.s 			page 153


 7136              	.LASF127:
 7137 0ea9 54617267 		.ascii	"TargetAltitude\000"
 7137      6574416C 
 7137      74697475 
 7137      646500
 7138              	.LASF56:
 7139 0eb8 4750494F 		.ascii	"GPIOAppState_Ready\000"
 7139      41707053 
 7139      74617465 
 7139      5F526561 
 7139      647900
 7140              	.LASF362:
 7141 0ecb 536F6E61 		.ascii	"SonarSensor\000"
 7141      7253656E 
 7141      736F7200 
 7142              	.LASF363:
 7143 0ed7 50726573 		.ascii	"PressureBMP085Sensor\000"
 7143      73757265 
 7143      424D5030 
 7143      38355365 
 7143      6E736F72 
 7144              	.LASF200:
 7145 0eec 44697361 		.ascii	"Disabled\000"
 7145      626C6564 
 7145      00
 7146              	.LASF369:
 7147 0ef5 436F6D70 		.ascii	"CompFilterPitch\000"
 7147      46696C74 
 7147      65725069 
 7147      74636800 
 7148              	.LASF140:
 7149 0f05 4779726F 		.ascii	"GyroL3GD20\000"
 7149      4C334744 
 7149      323000
 7150              	.LASF367:
 7151 0f10 4932435A 		.ascii	"I2CZeroJob\000"
 7151      65726F4A 
 7151      6F6200
 7152              	.LASF57:
 7153 0f1b 4750494F 		.ascii	"GPIOAppState_Launching\000"
 7153      41707053 
 7153      74617465 
 7153      5F4C6175 
 7153      6E636869 
 7154              	.LASF322:
 7155 0f32 41786973 		.ascii	"Axis\000"
 7155      00
 7156              	.LASF373:
 7157 0f37 5457425F 		.ascii	"TWB_Autopilot_DetermineAltitude\000"
 7157      4175746F 
 7157      70696C6F 
 7157      745F4465 
 7157      7465726D 
 7158              	.LASF343:
 7159 0f57 5F5F736E 		.ascii	"__snsr_compFilter_ResolveSensors\000"
 7159      73725F63 
 7159      6F6D7046 
ARM GAS  C:\Users\Kevin\AppData\Local\Temp\ccw18vSb.s 			page 154


 7159      696C7465 
 7159      725F5265 
 7160              	.LASF261:
 7161 0f78 4D6F6465 		.ascii	"Mode\000"
 7161      00
 7162              	.LASF320:
 7163 0f7d 50657269 		.ascii	"Period1\000"
 7163      6F643100 
 7164              	.LASF29:
 7165 0f85 53656E73 		.ascii	"SensorAppState_Ready\000"
 7165      6F724170 
 7165      70537461 
 7165      74655F52 
 7165      65616479 
 7166              	.LASF9:
 7167 0f9a 6C6F6E67 		.ascii	"long int\000"
 7167      20696E74 
 7167      00
 7168              	.LASF255:
 7169 0fa3 49324353 		.ascii	"I2CStates_t\000"
 7169      74617465 
 7169      735F7400 
 7170              	.LASF349:
 7171 0faf 49544D5F 		.ascii	"ITM_RxBuffer\000"
 7171      52784275 
 7171      66666572 
 7171      00
 7172              	.LASF121:
 7173 0fbc 50726573 		.ascii	"Pressure_hPa\000"
 7173      73757265 
 7173      5F685061 
 7173      00
 7174              	.LASF346:
 7175 0fc9 5457425F 		.ascii	"TWB_SNSR_Complementary_UpdateSettings\000"
 7175      534E5352 
 7175      5F436F6D 
 7175      706C656D 
 7175      656E7461 
 7176              	.LASF318:
 7177 0fef 416C7469 		.ascii	"AltitudeAxis\000"
 7177      74756465 
 7177      41786973 
 7177      00
 7178              	.LASF70:
 7179 0ffc 53656E73 		.ascii	"SensorDataReady_e\000"
 7179      6F724461 
 7179      74615265 
 7179      6164795F 
 7179      6500
 7180              	.LASF299:
 7181 100e 52657365 		.ascii	"ResetDefaults\000"
 7181      74446566 
 7181      61756C74 
 7181      7300
 7182              	.LASF172:
 7183 101c 436F6D70 		.ascii	"CompFilter_15Ms\000"
 7183      46696C74 
ARM GAS  C:\Users\Kevin\AppData\Local\Temp\ccw18vSb.s 			page 155


 7183      65725F31 
 7183      354D7300 
 7184              	.LASF185:
 7185 102c 46696C74 		.ascii	"FilterOption_Moving_Average_1\000"
 7185      65724F70 
 7185      74696F6E 
 7185      5F4D6F76 
 7185      696E675F 
 7186              	.LASF186:
 7187 104a 46696C74 		.ascii	"FilterOption_Moving_Average_2\000"
 7187      65724F70 
 7187      74696F6E 
 7187      5F4D6F76 
 7187      696E675F 
 7188              	.LASF237:
 7189 1068 43757272 		.ascii	"CurrentSlot\000"
 7189      656E7453 
 7189      6C6F7400 
 7190              	.LASF239:
 7191 1074 48697374 		.ascii	"History\000"
 7191      6F727900 
 7192              	.LASF248:
 7193 107c 50656E64 		.ascii	"PendingSending\000"
 7193      696E6753 
 7193      656E6469 
 7193      6E6700
 7194              	.LASF211:
 7195 108b 53656E73 		.ascii	"Sensor1Pitch\000"
 7195      6F723150 
 7195      69746368 
 7195      00
 7196              	.LASF75:
 7197 1098 53616665 		.ascii	"Safe\000"
 7197      00
 7198              	.LASF173:
 7199 109d 436F6D70 		.ascii	"CompFilter_10Ms\000"
 7199      46696C74 
 7199      65725F31 
 7199      304D7300 
 7200              	.LASF102:
 7201 10ad 53797374 		.ascii	"SystemState\000"
 7201      656D5374 
 7201      61746500 
 7202              	.LASF30:
 7203 10b9 53656E73 		.ascii	"SensorAppState_ResettingDefaults\000"
 7203      6F724170 
 7203      70537461 
 7203      74655F52 
 7203      65736574 
 7204              	.LASF188:
 7205 10da 46696C74 		.ascii	"FilterOption_Moving_Average_10\000"
 7205      65724F70 
 7205      74696F6E 
 7205      5F4D6F76 
 7205      696E675F 
 7206              	.LASF230:
 7207 10f9 4F75744F 		.ascii	"OutOfMemory\000"
ARM GAS  C:\Users\Kevin\AppData\Local\Temp\ccw18vSb.s 			page 156


 7207      664D656D 
 7207      6F727900 
 7208              	.LASF189:
 7209 1105 46696C74 		.ascii	"FilterOption_Moving_Average_15\000"
 7209      65724F70 
 7209      74696F6E 
 7209      5F4D6F76 
 7209      696E675F 
 7210              	.LASF285:
 7211 1124 53656E73 		.ascii	"SensorStatus_Idle\000"
 7211      6F725374 
 7211      61747573 
 7211      5F49646C 
 7211      6500
 7212              	.LASF159:
 7213 1136 436F6D70 		.ascii	"CompFilter_900Ms\000"
 7213      46696C74 
 7213      65725F39 
 7213      30304D73 
 7213      00
 7214              	.LASF181:
 7215 1147 46696C74 		.ascii	"FilterOption_Median_7_Sample\000"
 7215      65724F70 
 7215      74696F6E 
 7215      5F4D6564 
 7215      69616E5F 
 7216              	.LASF348:
 7217 1164 5457425F 		.ascii	"TWB_SNSR_Complementary_SendDiag\000"
 7217      534E5352 
 7217      5F436F6D 
 7217      706C656D 
 7217      656E7461 
 7218              	.LASF347:
 7219 1184 61646472 		.ascii	"addr\000"
 7219      00
 7220              	.LASF73:
 7221 1189 49525141 		.ascii	"IRQAssertionStatus_e\000"
 7221      73736572 
 7221      74696F6E 
 7221      53746174 
 7221      75735F65 
 7222              	.LASF218:
 7223 119e 53656E73 		.ascii	"Sensor2Heading\000"
 7223      6F723248 
 7223      65616469 
 7223      6E6700
 7224              	.LASF360:
 7225 11ad 4D616748 		.ascii	"MagHMC5883Sensor\000"
 7225      4D433538 
 7225      38335365 
 7225      6E736F72 
 7225      00
 7226              	.LASF32:
 7227 11be 53656E73 		.ascii	"SensorAppState_Restarting\000"
 7227      6F724170 
 7227      70537461 
 7227      74655F52 
ARM GAS  C:\Users\Kevin\AppData\Local\Temp\ccw18vSb.s 			page 157


 7227      65737461 
 7228              	.LASF240:
 7229 11d8 43757272 		.ascii	"Current\000"
 7229      656E7400 
 7230              	.LASF275:
 7231 11e0 4D4F445F 		.ascii	"MOD_WiFi\000"
 7231      57694669 
 7231      00
 7232              	.LASF93:
 7233 11e9 53616D70 		.ascii	"SampleRate_5Hz\000"
 7233      6C655261 
 7233      74655F35 
 7233      487A00
 7234              	.LASF198:
 7235 11f8 46696C74 		.ascii	"FilterOptions_t\000"
 7235      65724F70 
 7235      74696F6E 
 7235      735F7400 
 7236              	.LASF14:
 7237 1208 73697A65 		.ascii	"sizetype\000"
 7237      74797065 
 7237      00
 7238              	.LASF195:
 7239 1211 46696C74 		.ascii	"FilterOption_Moving_Average_70\000"
 7239      65724F70 
 7239      74696F6E 
 7239      5F4D6F76 
 7239      696E675F 
 7240              	.LASF10:
 7241 1230 6C6F6E67 		.ascii	"long unsigned int\000"
 7241      20756E73 
 7241      69676E65 
 7241      6420696E 
 7241      7400
 7242              	.LASF27:
 7243 1242 53656E73 		.ascii	"SensorAppState_Startup\000"
 7243      6F724170 
 7243      70537461 
 7243      74655F53 
 7243      74617274 
 7244              	.LASF148:
 7245 1259 416C7453 		.ascii	"AltSonar\000"
 7245      6F6E6172 
 7245      00
 7246              	.LASF356:
 7247 1262 4779726F 		.ascii	"GyroMPU60x0Sensor\000"
 7247      4D505536 
 7247      30783053 
 7247      656E736F 
 7247      7200
 7248              	.LASF317:
 7249 1274 48656164 		.ascii	"HeadingAxis\000"
 7249      696E6741 
 7249      78697300 
 7250              	.LASF278:
 7251 1280 52617465 		.ascii	"RateYDPS\000"
 7251      59445053 
ARM GAS  C:\Users\Kevin\AppData\Local\Temp\ccw18vSb.s 			page 158


 7251      00
 7252              	.LASF0:
 7253 1289 666C6F61 		.ascii	"float\000"
 7253      7400
 7254              	.LASF72:
 7255 128f 4952514E 		.ascii	"IRQNotAsserted\000"
 7255      6F744173 
 7255      73657274 
 7255      656400
 7256              	.LASF8:
 7257 129e 696E7433 		.ascii	"int32_t\000"
 7257      325F7400 
 7258              	.LASF242:
 7259 12a6 4973496E 		.ascii	"IsInitialized\000"
 7259      69746961 
 7259      6C697A65 
 7259      6400
 7260              	.LASF141:
 7261 12b4 4163634C 		.ascii	"AccLSM303\000"
 7261      534D3330 
 7261      3300
 7262              	.LASF51:
 7263 12be 53656E73 		.ascii	"SensorStates_e\000"
 7263      6F725374 
 7263      61746573 
 7263      5F6500
 7264              	.LASF206:
 7265 12cd 46696C74 		.ascii	"FilterOptionAltitude\000"
 7265      65724F70 
 7265      74696F6E 
 7265      416C7469 
 7265      74756465 
 7266              	.LASF215:
 7267 12e2 53656E73 		.ascii	"Sensor2Roll\000"
 7267      6F723252 
 7267      6F6C6C00 
 7268              	.LASF136:
 7269 12ee 496E7465 		.ascii	"InternalState_t\000"
 7269      726E616C 
 7269      53746174 
 7269      655F7400 
 7270              	.LASF340:
 7271 12fe 5457425F 		.ascii	"TWB_SNSR_Complementary_Process\000"
 7271      534E5352 
 7271      5F436F6D 
 7271      706C656D 
 7271      656E7461 
 7272              	.LASF137:
 7273 131d 53656E73 		.ascii	"SensorNone\000"
 7273      6F724E6F 
 7273      6E6500
 7274              	.LASF199:
 7275 1328 456E6162 		.ascii	"Enabled\000"
 7275      6C656400 
 7276              	.LASF2:
 7277 1330 756E7369 		.ascii	"unsigned char\000"
 7277      676E6564 
ARM GAS  C:\Users\Kevin\AppData\Local\Temp\ccw18vSb.s 			page 159


 7277      20636861 
 7277      7200
 7278              	.LASF152:
 7279 133e 47656F47 		.ascii	"GeoGPS\000"
 7279      505300
 7280              	.LASF359:
 7281 1345 4163634C 		.ascii	"AccLSM303Sensor\000"
 7281      534D3330 
 7281      3353656E 
 7281      736F7200 
 7282              	.LASF60:
 7283 1355 4750494F 		.ascii	"GPIOAppState_Crashed\000"
 7283      41707053 
 7283      74617465 
 7283      5F437261 
 7283      73686564 
 7284              	.LASF115:
 7285 136a 53656E73 		.ascii	"SensorData_t\000"
 7285      6F724461 
 7285      74615F74 
 7285      00
 7286              	.LASF171:
 7287 1377 436F6D70 		.ascii	"CompFilter_20Ms\000"
 7287      46696C74 
 7287      65725F32 
 7287      304D7300 
 7288              	.LASF64:
 7289 1387 4750494F 		.ascii	"GPIOAppState_RCStartCalibration\000"
 7289      41707053 
 7289      74617465 
 7289      5F524353 
 7289      74617274 
 7290              	.LASF222:
 7291 13a7 53656E73 		.ascii	"Sensor3Altitude\000"
 7291      6F723341 
 7291      6C746974 
 7291      75646500 
 7292              	.LASF187:
 7293 13b7 46696C74 		.ascii	"FilterOption_Moving_Average_5\000"
 7293      65724F70 
 7293      74696F6E 
 7293      5F4D6F76 
 7293      696E675F 
 7294              	.LASF178:
 7295 13d5 46696C74 		.ascii	"FilterOption_None\000"
 7295      65724F70 
 7295      74696F6E 
 7295      5F4E6F6E 
 7295      6500
 7296              	.LASF158:
 7297 13e7 436F6D70 		.ascii	"CompFilter_1sec\000"
 7297      46696C74 
 7297      65725F31 
 7297      73656300 
 7298              	.LASF303:
 7299 13f7 53746F70 		.ascii	"Stop\000"
 7299      00
ARM GAS  C:\Users\Kevin\AppData\Local\Temp\ccw18vSb.s 			page 160


 7300              	.LASF267:
 7301 13fc 52657375 		.ascii	"Result\000"
 7301      6C7400
 7302              	.LASF330:
 7303 1403 53656E73 		.ascii	"SensorFusionMsg_t\000"
 7303      6F724675 
 7303      73696F6E 
 7303      4D73675F 
 7303      7400
 7304              	.LASF35:
 7305 1415 53656E73 		.ascii	"SensorAppState_Stopping\000"
 7305      6F724170 
 7305      70537461 
 7305      74655F53 
 7305      746F7070 
 7306              	.LASF20:
 7307 142d 53797374 		.ascii	"SystemSensorRestartRequired\000"
 7307      656D5365 
 7307      6E736F72 
 7307      52657374 
 7307      61727452 
 7308              	.LASF306:
 7309 1449 48616E64 		.ascii	"HandleIRQ\000"
 7309      6C654952 
 7309      5100
 7310              	.LASF201:
 7311 1453 456E6162 		.ascii	"Enabled_t\000"
 7311      6C65645F 
 7311      7400
 7312              	.LASF234:
 7313 145d 496E7661 		.ascii	"InvalidByteCount\000"
 7313      6C696442 
 7313      79746543 
 7313      6F756E74 
 7313      00
 7314              	.LASF368:
 7315 146e 53656E73 		.ascii	"SensorFusionMsg\000"
 7315      6F724675 
 7315      73696F6E 
 7315      4D736700 
 7316              	.LASF297:
 7317 147e 53656E73 		.ascii	"SensorFault\000"
 7317      6F724661 
 7317      756C7400 
 7318              	.LASF351:
 7319 148a 53656E73 		.ascii	"SensorData\000"
 7319      6F724461 
 7319      746100
 7320              	.LASF90:
 7321 1495 53616D70 		.ascii	"SampleRate_25Hz\000"
 7321      6C655261 
 7321      74655F32 
 7321      35487A00 
 7322              	.LASF69:
 7323 14a5 44617461 		.ascii	"DataNotReady\000"
 7323      4E6F7452 
 7323      65616479 
ARM GAS  C:\Users\Kevin\AppData\Local\Temp\ccw18vSb.s 			page 161


 7323      00
 7324              	.LASF352:
 7325 14b2 53797374 		.ascii	"SystemStatus\000"
 7325      656D5374 
 7325      61747573 
 7325      00
 7326              	.LASF116:
 7327 14bf 416C7444 		.ascii	"AltDelta\000"
 7327      656C7461 
 7327      00
 7328              	.LASF162:
 7329 14c8 436F6D70 		.ascii	"CompFilter_600Ms\000"
 7329      46696C74 
 7329      65725F36 
 7329      30304D73 
 7329      00
 7330              	.LASF264:
 7331 14d9 42797465 		.ascii	"BytesSent\000"
 7331      7353656E 
 7331      7400
 7332              	.LASF91:
 7333 14e3 53616D70 		.ascii	"SampleRate_20Hz\000"
 7333      6C655261 
 7333      74655F32 
 7333      30487A00 
 7334              	.LASF377:
 7335 14f3 5457425F 		.ascii	"TWB_SE_WriteU8Pause\000"
 7335      53455F57 
 7335      72697465 
 7335      55385061 
 7335      75736500 
 7336              	.LASF43:
 7337 1507 53656E73 		.ascii	"SensorAppState_ZeroCompleted\000"
 7337      6F724170 
 7337      70537461 
 7337      74655F5A 
 7337      65726F43 
 7338              	.LASF1:
 7339 1524 7369676E 		.ascii	"signed char\000"
 7339      65642063 
 7339      68617200 
 7340              	.LASF302:
 7341 1530 52657375 		.ascii	"Resume\000"
 7341      6D6500
 7342              	.LASF77:
 7343 1537 4E6F6E65 		.ascii	"None\000"
 7343      00
 7344              	.LASF7:
 7345 153c 73686F72 		.ascii	"short unsigned int\000"
 7345      7420756E 
 7345      7369676E 
 7345      65642069 
 7345      6E7400
 7346              	.LASF79:
 7347 154f 5243436F 		.ascii	"RCControlled\000"
 7347      6E74726F 
 7347      6C6C6564 
ARM GAS  C:\Users\Kevin\AppData\Local\Temp\ccw18vSb.s 			page 162


 7347      00
 7348              	.LASF38:
 7349 155c 53656E73 		.ascii	"SensorAppState_Paused\000"
 7349      6F724170 
 7349      70537461 
 7349      74655F50 
 7349      61757365 
 7350              	.LASF98:
 7351 1572 466C6967 		.ascii	"FlightMode_Acro\000"
 7351      68744D6F 
 7351      64655F41 
 7351      63726F00 
 7352              	.LASF76:
 7353 1582 4750494F 		.ascii	"GPIOArmedState_e\000"
 7353      41726D65 
 7353      64537461 
 7353      74655F65 
 7353      00
 7354              	.LASF190:
 7355 1593 46696C74 		.ascii	"FilterOption_Moving_Average_20\000"
 7355      65724F70 
 7355      74696F6E 
 7355      5F4D6F76 
 7355      696E675F 
 7356              	.LASF272:
 7357 15b2 4932434A 		.ascii	"I2CJob_t\000"
 7357      6F625F74 
 7357      00
 7358              	.LASF175:
 7359 15bb 436F6D70 		.ascii	"CompFilter_02Ms\000"
 7359      46696C74 
 7359      65725F30 
 7359      324D7300 
 7360              	.LASF307:
 7361 15cb 53746172 		.ascii	"StartZero\000"
 7361      745A6572 
 7361      6F00
 7362              	.LASF301:
 7363 15d5 50617573 		.ascii	"Pause\000"
 7363      6500
 7364              	.LASF16:
 7365 15db 646F7562 		.ascii	"double\000"
 7365      6C6500
 7366              	.LASF165:
 7367 15e2 436F6D70 		.ascii	"CompFilter_300Ms\000"
 7367      46696C74 
 7367      65725F33 
 7367      30304D73 
 7367      00
 7368              	.LASF262:
 7369 15f3 41646472 		.ascii	"Address\000"
 7369      65737300 
 7370              	.LASF295:
 7371 15fb 4C617374 		.ascii	"LastUpdate\000"
 7371      55706461 
 7371      746500
 7372              	.LASF263:
ARM GAS  C:\Users\Kevin\AppData\Local\Temp\ccw18vSb.s 			page 163


 7373 1606 496E4275 		.ascii	"InBufferSize\000"
 7373      66666572 
 7373      53697A65 
 7373      00
 7374              	.LASF49:
 7375 1613 53656E73 		.ascii	"SensorAppState_FinishingCalibration\000"
 7375      6F724170 
 7375      70537461 
 7375      74655F46 
 7375      696E6973 
 7376              	.LASF62:
 7377 1637 4750494F 		.ascii	"GPIOAppState_MotorConfig\000"
 7377      41707053 
 7377      74617465 
 7377      5F4D6F74 
 7377      6F72436F 
 7378              	.LASF85:
 7379 1650 53616D70 		.ascii	"SampleRate_500Hz\000"
 7379      6C655261 
 7379      74655F35 
 7379      3030487A 
 7379      00
 7380              	.LASF99:
 7381 1661 466C6967 		.ascii	"FlightMode_e\000"
 7381      68744D6F 
 7381      64655F65 
 7381      00
 7382              	.LASF339:
 7383 166e 5F5F736E 		.ascii	"__snsr_compFilter_ResolveCompFilters\000"
 7383      73725F63 
 7383      6F6D7046 
 7383      696C7465 
 7383      725F5265 
 7384              	.LASF157:
 7385 1693 53656E73 		.ascii	"SensorDevice_e\000"
 7385      6F724465 
 7385      76696365 
 7385      5F6500
 7386              	.LASF111:
 7387 16a2 50697463 		.ascii	"Pitch\000"
 7387      6800
 7388              	.LASF130:
 7389 16a8 54617267 		.ascii	"TargetHeadingRate\000"
 7389      65744865 
 7389      6164696E 
 7389      67526174 
 7389      6500
 7390              	.LASF100:
 7391 16ba 4669726D 		.ascii	"FirmwareVersion\000"
 7391      77617265 
 7391      56657273 
 7391      696F6E00 
 7392              	.LASF36:
 7393 16ca 53656E73 		.ascii	"SensorAppState_Offline\000"
 7393      6F724170 
 7393      70537461 
 7393      74655F4F 
ARM GAS  C:\Users\Kevin\AppData\Local\Temp\ccw18vSb.s 			page 164


 7393      66666C69 
 7394              	.LASF229:
 7395 16e1 4F766572 		.ascii	"OverOrUnderRun\000"
 7395      4F72556E 
 7395      64657252 
 7395      756E00
 7396              	.LASF334:
 7397 16f0 76616C75 		.ascii	"value\000"
 7397      6500
 7398              	.LASF19:
 7399 16f6 53797374 		.ascii	"SystemStartingUp\000"
 7399      656D5374 
 7399      61727469 
 7399      6E675570 
 7399      00
 7400              	.LASF316:
 7401 1707 526F6C6C 		.ascii	"RollAxis\000"
 7401      41786973 
 7401      00
 7402              	.LASF358:
 7403 1710 41636341 		.ascii	"AccADXL345Sensor\000"
 7403      44584C33 
 7403      34355365 
 7403      6E736F72 
 7403      00
 7404              	.LASF68:
 7405 1721 44617461 		.ascii	"DataReady\000"
 7405      52656164 
 7405      7900
 7406              	.LASF208:
 7407 172b 54696D65 		.ascii	"TimeConstantRoll\000"
 7407      436F6E73 
 7407      74616E74 
 7407      526F6C6C 
 7407      00
 7408              	.LASF191:
 7409 173c 46696C74 		.ascii	"FilterOption_Moving_Average_30\000"
 7409      65724F70 
 7409      74696F6E 
 7409      5F4D6F76 
 7409      696E675F 
 7410              	.LASF180:
 7411 175b 46696C74 		.ascii	"FilterOption_Median_5_Sample\000"
 7411      65724F70 
 7411      74696F6E 
 7411      5F4D6564 
 7411      69616E5F 
 7412              		.ident	"GCC: (Sourcery CodeBench Lite 2012.09-63) 4.7.2"
ARM GAS  C:\Users\Kevin\AppData\Local\Temp\ccw18vSb.s 			page 165


DEFINED SYMBOLS
                            *ABS*:00000000 complementary.c
C:\Users\Kevin\AppData\Local\Temp\ccw18vSb.s:70     .text:00000000 $t
C:\Users\Kevin\AppData\Local\Temp\ccw18vSb.s:75     .text:00000000 TWB_SNSR_Complementary_Process
C:\Users\Kevin\AppData\Local\Temp\ccw18vSb.s:280    .text:00000150 $d
                            *COM*:00000004 ComplementaryFilterConfig
                            *COM*:00000004 CompFilterPitch
                            *COM*:00000004 CompFilterRoll
                            *COM*:00000004 CompFilterHeading
C:\Users\Kevin\AppData\Local\Temp\ccw18vSb.s:290    .text:00000168 $t
C:\Users\Kevin\AppData\Local\Temp\ccw18vSb.s:454    .text:00000284 $d
                            *COM*:00000004 CompFilterAltitude
C:\Users\Kevin\AppData\Local\Temp\ccw18vSb.s:464    .text:000002a0 $t
C:\Users\Kevin\AppData\Local\Temp\ccw18vSb.s:469    .text:000002a0 __snsr_ResolveCompFilter
C:\Users\Kevin\AppData\Local\Temp\ccw18vSb.s:529    .text:000002f8 $d
C:\Users\Kevin\AppData\Local\Temp\ccw18vSb.s:536    .text:00000308 $t
C:\Users\Kevin\AppData\Local\Temp\ccw18vSb.s:541    .text:00000308 __snsr_compFilter_ResolveCompFilters
C:\Users\Kevin\AppData\Local\Temp\ccw18vSb.s:587    .text:00000340 $d
C:\Users\Kevin\AppData\Local\Temp\ccw18vSb.s:595    .text:00000354 $t
C:\Users\Kevin\AppData\Local\Temp\ccw18vSb.s:600    .text:00000354 __snsr_compFilter_ResolveSensor
C:\Users\Kevin\AppData\Local\Temp\ccw18vSb.s:704    .text:000003c8 $d
C:\Users\Kevin\AppData\Local\Temp\ccw18vSb.s:719    .text:000003f8 $t
C:\Users\Kevin\AppData\Local\Temp\ccw18vSb.s:724    .text:000003f8 __snsr_compFilter_ResolveSensors
C:\Users\Kevin\AppData\Local\Temp\ccw18vSb.s:817    .text:00000470 $d
C:\Users\Kevin\AppData\Local\Temp\ccw18vSb.s:825    .text:00000484 $t
C:\Users\Kevin\AppData\Local\Temp\ccw18vSb.s:830    .text:00000484 TWB_SNSR_Complementary_Init
C:\Users\Kevin\AppData\Local\Temp\ccw18vSb.s:1122   .text:00000680 $d
C:\Users\Kevin\AppData\Local\Temp\ccw18vSb.s:1125   .text:00000684 $t
C:\Users\Kevin\AppData\Local\Temp\ccw18vSb.s:1313   .text:00000780 $d
                            *COM*:00000004 SensorFusionMsg
C:\Users\Kevin\AppData\Local\Temp\ccw18vSb.s:1323   .text:0000079c $t
C:\Users\Kevin\AppData\Local\Temp\ccw18vSb.s:1328   .text:0000079c TWB_SNSR_Complementary_ResetDefaults
C:\Users\Kevin\AppData\Local\Temp\ccw18vSb.s:1696   .text:000009e4 $d
C:\Users\Kevin\AppData\Local\Temp\ccw18vSb.s:1701   .text:000009ec $t
C:\Users\Kevin\AppData\Local\Temp\ccw18vSb.s:1706   .text:000009ec TWB_SNSR_Complementary_UpdateSettings
C:\Users\Kevin\AppData\Local\Temp\ccw18vSb.s:1723   .text:000009f8 $d
C:\Users\Kevin\AppData\Local\Temp\ccw18vSb.s:1745   .text:00000a0e $t
C:\Users\Kevin\AppData\Local\Temp\ccw18vSb.s:2002   .text:00000b38 $d
C:\Users\Kevin\AppData\Local\Temp\ccw18vSb.s:2011   .text:00000b50 $t
C:\Users\Kevin\AppData\Local\Temp\ccw18vSb.s:2016   .text:00000b50 TWB_SNSR_Complementary_SendDiag
C:\Users\Kevin\AppData\Local\Temp\ccw18vSb.s:2033   .text:00000b64 $d
C:\Users\Kevin\AppData\Local\Temp\ccw18vSb.s:2037   .text:00000b68 $t
C:\Users\Kevin\AppData\Local\Temp\ccw18vSb.s:2266   .text:00000d28 $d
                            *COM*:00000004 I2CZeroJob
C:\Users\Kevin\AppData\Local\Temp\ccw18vSb.s:2285   .rodata:00000000 $d
C:\Users\Kevin\AppData\Local\Temp\ccw18vSb.s:2289   .rodata:00000000 CSWTCH.60
                     .debug_frame:00000010 $d

UNDEFINED SYMBOLS
TWB_Filter_Median_Apply_Float
InternalState
TWB_Autopilot_DetermineAltitude
SensorData
TWB_Timer_GetMSFromSampleRate
GyroITG3200Sensor
GyroL3GD20Sensor
GyroMPU60x0Sensor
ARM GAS  C:\Users\Kevin\AppData\Local\Temp\ccw18vSb.s 			page 166


AccLSM303Sensor
AccADXL345Sensor
AccMPU60x0Sensor
MagLSM303Sensor
MagHMC5883Sensor
PressureBMP085Sensor
PressureMS5611Sensor
SonarSensor
GeoGPSSensor
TWB_SE_ReadU8
pm_malloc
ComplementarySnsrFusion
TWB_SE_WriteU8Pause
TWB_Commo_SendMessage
SystemStatus
