ARM GAS  C:\Users\Kevin\AppData\Local\Temp\ccIBFCa4.s 			page 1


   1              		.syntax unified
   2              		.cpu cortex-m4
   3              		.eabi_attribute 27, 3	@ Tag_ABI_HardFP_use
   4              		.eabi_attribute 28, 1	@ Tag_ABI_VFP_args
   5              		.fpu fpv4-sp-d16
   6              		.eabi_attribute 20, 1	@ Tag_ABI_FP_denormal
   7              		.eabi_attribute 21, 1	@ Tag_ABI_FP_exceptions
   8              		.eabi_attribute 23, 3	@ Tag_ABI_FP_number_model
   9              		.eabi_attribute 24, 1	@ Tag_ABI_align8_needed
  10              		.eabi_attribute 25, 1	@ Tag_ABI_align8_preserved
  11              		.eabi_attribute 26, 1	@ Tag_ABI_enum_size
  12              		.eabi_attribute 30, 4	@ Tag_ABI_optimization_goals
  13              		.eabi_attribute 34, 1	@ Tag_CPU_unaligned_access
  14              		.eabi_attribute 18, 4	@ Tag_ABI_PCS_wchar_t
  15              		.file	"kalman.c"
  16              	@ GNU C (Sourcery CodeBench Lite 2012.09-63) version 4.7.2 (arm-none-eabi)
  17              	@	compiled by GNU C version 4.3.2, GMP version 5.0.5, MPFR version 3.1.1-p2, MPC version 1.0.1
  18              	@ GGC heuristics: --param ggc-min-expand=100 --param ggc-min-heapsize=131072
  19              	@ options passed:  -I . -I \STMSPINCDDIR -I .\stm32f4periph\inc
  20              	@ -I .\CMSIS\Include -I .\inc\commo\usb -I .\inc\commo -I .\inc\common
  21              	@ -I .\inc -imultilib thumb2
  22              	@ -iprefix k:\electronics\gcc\bin\../lib/gcc/arm-none-eabi/4.7.2/
  23              	@ -isysroot k:\electronics\gcc\bin\../arm-none-eabi
  24              	@ -MD .\src\sensors\fusion\kalman.d -MF .dep\kalman.o.d -MP
  25              	@ -MQ .\src\sensors\fusion\kalman.o -D__USES_INITFINI__ -D STM32F0XX
  26              	@ -D USE_STDPERIPH_DRIVER -D RUN_FROM_FLASH=1
  27              	@ -D __CS_SOURCERYGXX_MAJ__=2012 -D __CS_SOURCERYGXX_MIN__=9
  28              	@ -D __CS_SOURCERYGXX_REV__=63 .\src\sensors\fusion\kalman.c
  29              	@ -mcpu=cortex-m4 -mfpu=fpv4-sp-d16 -mfloat-abi=hard -mthumb
  30              	@ -auxbase-strip .\src\sensors\fusion\kalman.o -gdwarf-2 -Os -Wall
  31              	@ -Wstrict-prototypes -std=gnu99 -fomit-frame-pointer -fverbose-asm
  32              	@ options enabled:  -fauto-inc-dec -fbranch-count-reg -fcaller-saves
  33              	@ -fcombine-stack-adjustments -fcommon -fcompare-elim -fcprop-registers
  34              	@ -fcrossjumping -fcse-follow-jumps -fdebug-types-section -fdefer-pop
  35              	@ -fdelete-null-pointer-checks -fdevirtualize -fdwarf2-cfi-asm
  36              	@ -fearly-inlining -feliminate-unused-debug-types -fexpensive-optimizations
  37              	@ -fextension-elimination -fforward-propagate -ffunction-cse -fgcse
  38              	@ -fgcse-lm -fgnu-runtime -fguess-branch-probability -fident
  39              	@ -fif-conversion -fif-conversion2 -findirect-inlining -finline
  40              	@ -finline-atomics -finline-functions -finline-functions-called-once
  41              	@ -finline-small-functions -fipa-cp -fipa-profile -fipa-pure-const
  42              	@ -fipa-reference -fipa-sra -fira-share-save-slots -fira-share-spill-slots
  43              	@ -fivopts -fkeep-static-consts -fleading-underscore -fmath-errno
  44              	@ -fmerge-constants -fmerge-debug-strings -fmove-loop-invariants
  45              	@ -fomit-frame-pointer -foptimize-register-move -foptimize-sibling-calls
  46              	@ -fpartial-inlining -fpeephole -fpeephole2 -fprefetch-loop-arrays
  47              	@ -freg-struct-return -fregmove -freorder-blocks -freorder-functions
  48              	@ -frerun-cse-after-loop -fsched-critical-path-heuristic
  49              	@ -fsched-dep-count-heuristic -fsched-group-heuristic -fsched-interblock
  50              	@ -fsched-last-insn-heuristic -fsched-rank-heuristic -fsched-spec
  51              	@ -fsched-spec-insn-heuristic -fsched-stalled-insns-dep -fschedule-insns2
  52              	@ -fsection-anchors -fshow-column -fshrink-wrap -fsigned-zeros
  53              	@ -fsplit-ivs-in-unroller -fsplit-wide-types -fstrict-aliasing
  54              	@ -fstrict-overflow -fstrict-volatile-bitfields -fthread-jumps
  55              	@ -ftoplevel-reorder -ftrapping-math -ftree-bit-ccp -ftree-builtin-call-dce
  56              	@ -ftree-ccp -ftree-ch -ftree-copy-prop -ftree-copyrename -ftree-cselim
  57              	@ -ftree-dce -ftree-dominator-opts -ftree-dse -ftree-forwprop -ftree-fre
ARM GAS  C:\Users\Kevin\AppData\Local\Temp\ccIBFCa4.s 			page 2


  58              	@ -ftree-if-to-switch-conversion -ftree-loop-if-convert -ftree-loop-im
  59              	@ -ftree-loop-ivcanon -ftree-loop-optimize -ftree-parallelize-loops=
  60              	@ -ftree-phiprop -ftree-pre -ftree-pta -ftree-reassoc -ftree-scev-cprop
  61              	@ -ftree-sink -ftree-slp-vectorize -ftree-sra -ftree-switch-conversion
  62              	@ -ftree-tail-merge -ftree-ter -ftree-vect-loop-version -ftree-vrp
  63              	@ -funit-at-a-time -fvar-tracking -fvar-tracking-assignments -fverbose-asm
  64              	@ -fzero-initialized-in-bss -mlittle-endian -msched-prolog -mthumb
  65              	@ -munaligned-access -mvectorize-with-neon-quad
  66              	
  67              		.text
  68              	.Ltext0:
  69              		.cfi_sections	.debug_frame
  70              		.align	1
  71              		.global	TWB_SNSR_Kalman_Init
  72              		.thumb
  73              		.thumb_func
  74              		.type	TWB_SNSR_Kalman_Init, %function
  75              	TWB_SNSR_Kalman_Init:
  76              	.LFB110:
  77              		.file 1 ".\\src\\sensors\\fusion\\kalman.c"
   1:.\src\sensors\fusion/kalman.c **** /*
   2:.\src\sensors\fusion/kalman.c ****  * kalman.c
   3:.\src\sensors\fusion/kalman.c ****  *
   4:.\src\sensors\fusion/kalman.c ****  *  Created on: Jan 4, 2013
   5:.\src\sensors\fusion/kalman.c ****  *      Author: kevinw
   6:.\src\sensors\fusion/kalman.c ****  */
   7:.\src\sensors\fusion/kalman.c **** 
   8:.\src\sensors\fusion/kalman.c **** #include "sensors/fusion/kalman.h"
   9:.\src\sensors\fusion/kalman.c **** #include "sensors/snsr_main.h"
  10:.\src\sensors\fusion/kalman.c **** 
  11:.\src\sensors\fusion/kalman.c **** iOpResult_e TWB_SNSR_Kalman_Init(void){
  78              		.loc 1 11 0
  79              		.cfi_startproc
  80              		@ args = 0, pretend = 0, frame = 0
  81              		@ frame_needed = 0, uses_anonymous_args = 0
  82              		@ link register save eliminated.
  12:.\src\sensors\fusion/kalman.c **** 	KalmanSnsrFusion->SampleRate = SensorConfig->Kalman_Enabled;
  83              		.loc 1 12 0
  84 0000 054A     		ldr	r2, .L2	@ tmp140,
  85 0002 064B     		ldr	r3, .L2+4	@ tmp139,
  86 0004 1268     		ldr	r2, [r2, #0]	@ SensorConfig.1, SensorConfig
  87 0006 1B68     		ldr	r3, [r3, #0]	@ KalmanSnsrFusion.0, KalmanSnsrFusion
  88 0008 92F84E10 		ldrb	r1, [r2, #78]	@ zero_extendqisi2	@ SensorConfig.1_2->Kalman_Enabled, SensorConfig.1_2->Kalman
  13:.\src\sensors\fusion/kalman.c **** 	KalmanSnsrFusion->IsEnabled = SensorConfig->Kalman_SampleRate;
  89              		.loc 1 13 0
  90 000c 92F84F20 		ldrb	r2, [r2, #79]	@ zero_extendqisi2	@ SensorConfig.1_2->Kalman_SampleRate, SensorConfig.1_2->Kal
  12:.\src\sensors\fusion/kalman.c **** 	KalmanSnsrFusion->SampleRate = SensorConfig->Kalman_Enabled;
  91              		.loc 1 12 0
  92 0010 5973     		strb	r1, [r3, #13]	@ SensorConfig.1_2->Kalman_Enabled, KalmanSnsrFusion.0_1->SampleRate
  93              		.loc 1 13 0
  94 0012 5A71     		strb	r2, [r3, #5]	@ SensorConfig.1_2->Kalman_SampleRate, KalmanSnsrFusion.0_1->IsEnabled
  14:.\src\sensors\fusion/kalman.c **** 
  15:.\src\sensors\fusion/kalman.c **** 	return OK;
  16:.\src\sensors\fusion/kalman.c **** }
  95              		.loc 1 16 0
  96 0014 0020     		movs	r0, #0	@,
  97 0016 7047     		bx	lr	@
ARM GAS  C:\Users\Kevin\AppData\Local\Temp\ccIBFCa4.s 			page 3


  98              	.L3:
  99              		.align	2
 100              	.L2:
 101 0018 00000000 		.word	SensorConfig
 102 001c 00000000 		.word	KalmanSnsrFusion
 103              		.cfi_endproc
 104              	.LFE110:
 105              		.size	TWB_SNSR_Kalman_Init, .-TWB_SNSR_Kalman_Init
 106              		.align	1
 107              		.global	TWB_SNSR_Kalman_ResetDefaults
 108              		.thumb
 109              		.thumb_func
 110              		.type	TWB_SNSR_Kalman_ResetDefaults, %function
 111              	TWB_SNSR_Kalman_ResetDefaults:
 112              	.LFB111:
  17:.\src\sensors\fusion/kalman.c **** 
  18:.\src\sensors\fusion/kalman.c **** iOpResult_e TWB_SNSR_Kalman_ResetDefaults(void) {
 113              		.loc 1 18 0
 114              		.cfi_startproc
 115              		@ args = 0, pretend = 0, frame = 0
 116              		@ frame_needed = 0, uses_anonymous_args = 0
 117              		@ link register save eliminated.
  19:.\src\sensors\fusion/kalman.c **** 
  20:.\src\sensors\fusion/kalman.c **** 	return OK;
  21:.\src\sensors\fusion/kalman.c **** }
 118              		.loc 1 21 0
 119 0020 0020     		movs	r0, #0	@,
 120 0022 7047     		bx	lr	@
 121              		.cfi_endproc
 122              	.LFE111:
 123              		.size	TWB_SNSR_Kalman_ResetDefaults, .-TWB_SNSR_Kalman_ResetDefaults
 124              		.align	1
 125              		.global	TWB_SNSR_Kalman_UpdateSetting
 126              		.thumb
 127              		.thumb_func
 128              		.type	TWB_SNSR_Kalman_UpdateSetting, %function
 129              	TWB_SNSR_Kalman_UpdateSetting:
 130              	.LFB112:
  22:.\src\sensors\fusion/kalman.c **** 
  23:.\src\sensors\fusion/kalman.c **** iOpResult_e TWB_SNSR_Kalman_UpdateSetting(uint16_t addr, uint8_t value){
 131              		.loc 1 23 0
 132              		.cfi_startproc
 133              		@ args = 0, pretend = 0, frame = 0
 134              		@ frame_needed = 0, uses_anonymous_args = 0
 135              		@ link register save eliminated.
 136              	.LVL0:
  24:.\src\sensors\fusion/kalman.c **** 
  25:.\src\sensors\fusion/kalman.c **** 	return OK;
  26:.\src\sensors\fusion/kalman.c **** }
 137              		.loc 1 26 0
 138 0024 0020     		movs	r0, #0	@,
 139              	.LVL1:
 140 0026 7047     		bx	lr	@
 141              		.cfi_endproc
 142              	.LFE112:
 143              		.size	TWB_SNSR_Kalman_UpdateSetting, .-TWB_SNSR_Kalman_UpdateSetting
 144              		.align	1
ARM GAS  C:\Users\Kevin\AppData\Local\Temp\ccIBFCa4.s 			page 4


 145              		.global	TWB_SNSR_Kalman_SendDiag
 146              		.thumb
 147              		.thumb_func
 148              		.type	TWB_SNSR_Kalman_SendDiag, %function
 149              	TWB_SNSR_Kalman_SendDiag:
 150              	.LFB113:
  27:.\src\sensors\fusion/kalman.c **** 
  28:.\src\sensors\fusion/kalman.c **** void TWB_SNSR_Kalman_SendDiag(void){
 151              		.loc 1 28 0
 152              		.cfi_startproc
 153              		@ args = 0, pretend = 0, frame = 0
 154              		@ frame_needed = 0, uses_anonymous_args = 0
 155              		@ link register save eliminated.
 156 0028 7047     		bx	lr	@
 157              		.cfi_endproc
 158              	.LFE113:
 159              		.size	TWB_SNSR_Kalman_SendDiag, .-TWB_SNSR_Kalman_SendDiag
 160              		.align	1
 161              		.global	TWB_SNSR_Kalman_Process
 162              		.thumb
 163              		.thumb_func
 164              		.type	TWB_SNSR_Kalman_Process, %function
 165              	TWB_SNSR_Kalman_Process:
 166              	.LFB114:
  29:.\src\sensors\fusion/kalman.c **** 
  30:.\src\sensors\fusion/kalman.c **** }
  31:.\src\sensors\fusion/kalman.c **** 
  32:.\src\sensors\fusion/kalman.c **** 
  33:.\src\sensors\fusion/kalman.c **** iOpResult_e TWB_SNSR_Kalman_Process(float deltaT){
 167              		.loc 1 33 0
 168              		.cfi_startproc
 169              		@ args = 0, pretend = 0, frame = 0
 170              		@ frame_needed = 0, uses_anonymous_args = 0
 171              		@ link register save eliminated.
 172              	.LVL2:
  34:.\src\sensors\fusion/kalman.c **** 
  35:.\src\sensors\fusion/kalman.c **** 	return OK;
  36:.\src\sensors\fusion/kalman.c **** }
 173              		.loc 1 36 0
 174 002a 0020     		movs	r0, #0	@,
 175 002c 7047     		bx	lr	@
 176              		.cfi_endproc
 177              	.LFE114:
 178              		.size	TWB_SNSR_Kalman_Process, .-TWB_SNSR_Kalman_Process
 179              		.comm	I2CZeroJob,4,4
 180              	.Letext0:
 181              		.file 2 "k:\\electronics\\gcc\\bin\\../lib/gcc/arm-none-eabi/4.7.2/../../../../arm-none-eabi/inclu
 182              		.file 3 ".\\inc/twb_config.h"
 183              		.file 4 ".\\inc/common/twb_common.h"
 184              		.file 5 ".\\inc/common/twb_i2c.h"
 185              		.file 6 ".\\inc/sensors/snsr_main.h"
 186              		.file 7 ".\\inc/core_cm4.h"