Archive member included because of file (symbol)

k:/electronics/sysgcc/arm-eabi/bin/../lib/gcc/arm-eabi/5.2.0/../../../../arm-eabi/lib/thumb/fpu/cortex_m4\libm.a(lib_a-w_sqrt.o)
                              Debug/matmath.o (sqrt)
k:/electronics/sysgcc/arm-eabi/bin/../lib/gcc/arm-eabi/5.2.0/../../../../arm-eabi/lib/thumb/fpu/cortex_m4\libm.a(lib_a-wf_pow.o)
                              Debug/bmp085.o (powf)
k:/electronics/sysgcc/arm-eabi/bin/../lib/gcc/arm-eabi/5.2.0/../../../../arm-eabi/lib/thumb/fpu/cortex_m4\libm.a(lib_a-e_sqrt.o)
                              k:/electronics/sysgcc/arm-eabi/bin/../lib/gcc/arm-eabi/5.2.0/../../../../arm-eabi/lib/thumb/fpu/cortex_m4\libm.a(lib_a-w_sqrt.o) (__ieee754_sqrt)
k:/electronics/sysgcc/arm-eabi/bin/../lib/gcc/arm-eabi/5.2.0/../../../../arm-eabi/lib/thumb/fpu/cortex_m4\libm.a(lib_a-ef_pow.o)
                              k:/electronics/sysgcc/arm-eabi/bin/../lib/gcc/arm-eabi/5.2.0/../../../../arm-eabi/lib/thumb/fpu/cortex_m4\libm.a(lib_a-wf_pow.o) (__ieee754_powf)
k:/electronics/sysgcc/arm-eabi/bin/../lib/gcc/arm-eabi/5.2.0/../../../../arm-eabi/lib/thumb/fpu/cortex_m4\libm.a(lib_a-ef_sqrt.o)
                              k:/electronics/sysgcc/arm-eabi/bin/../lib/gcc/arm-eabi/5.2.0/../../../../arm-eabi/lib/thumb/fpu/cortex_m4\libm.a(lib_a-ef_pow.o) (__ieee754_sqrtf)
k:/electronics/sysgcc/arm-eabi/bin/../lib/gcc/arm-eabi/5.2.0/../../../../arm-eabi/lib/thumb/fpu/cortex_m4\libm.a(lib_a-s_fpclassify.o)
                              k:/electronics/sysgcc/arm-eabi/bin/../lib/gcc/arm-eabi/5.2.0/../../../../arm-eabi/lib/thumb/fpu/cortex_m4\libm.a(lib_a-w_sqrt.o) (__fpclassifyd)
k:/electronics/sysgcc/arm-eabi/bin/../lib/gcc/arm-eabi/5.2.0/../../../../arm-eabi/lib/thumb/fpu/cortex_m4\libm.a(lib_a-s_lib_ver.o)
                              k:/electronics/sysgcc/arm-eabi/bin/../lib/gcc/arm-eabi/5.2.0/../../../../arm-eabi/lib/thumb/fpu/cortex_m4\libm.a(lib_a-w_sqrt.o) (__fdlib_version)
k:/electronics/sysgcc/arm-eabi/bin/../lib/gcc/arm-eabi/5.2.0/../../../../arm-eabi/lib/thumb/fpu/cortex_m4\libm.a(lib_a-s_matherr.o)
                              k:/electronics/sysgcc/arm-eabi/bin/../lib/gcc/arm-eabi/5.2.0/../../../../arm-eabi/lib/thumb/fpu/cortex_m4\libm.a(lib_a-w_sqrt.o) (matherr)
k:/electronics/sysgcc/arm-eabi/bin/../lib/gcc/arm-eabi/5.2.0/../../../../arm-eabi/lib/thumb/fpu/cortex_m4\libm.a(lib_a-s_rint.o)
                              k:/electronics/sysgcc/arm-eabi/bin/../lib/gcc/arm-eabi/5.2.0/../../../../arm-eabi/lib/thumb/fpu/cortex_m4\libm.a(lib_a-wf_pow.o) (rint)
k:/electronics/sysgcc/arm-eabi/bin/../lib/gcc/arm-eabi/5.2.0/../../../../arm-eabi/lib/thumb/fpu/cortex_m4\libm.a(lib_a-sf_fabs.o)
                              k:/electronics/sysgcc/arm-eabi/bin/../lib/gcc/arm-eabi/5.2.0/../../../../arm-eabi/lib/thumb/fpu/cortex_m4\libm.a(lib_a-ef_pow.o) (fabsf)
k:/electronics/sysgcc/arm-eabi/bin/../lib/gcc/arm-eabi/5.2.0/../../../../arm-eabi/lib/thumb/fpu/cortex_m4\libm.a(lib_a-sf_finite.o)
                              k:/electronics/sysgcc/arm-eabi/bin/../lib/gcc/arm-eabi/5.2.0/../../../../arm-eabi/lib/thumb/fpu/cortex_m4\libm.a(lib_a-wf_pow.o) (finitef)
k:/electronics/sysgcc/arm-eabi/bin/../lib/gcc/arm-eabi/5.2.0/../../../../arm-eabi/lib/thumb/fpu/cortex_m4\libm.a(lib_a-sf_fpclassify.o)
                              k:/electronics/sysgcc/arm-eabi/bin/../lib/gcc/arm-eabi/5.2.0/../../../../arm-eabi/lib/thumb/fpu/cortex_m4\libm.a(lib_a-wf_pow.o) (__fpclassifyf)
k:/electronics/sysgcc/arm-eabi/bin/../lib/gcc/arm-eabi/5.2.0/../../../../arm-eabi/lib/thumb/fpu/cortex_m4\libm.a(lib_a-sf_nan.o)
                              k:/electronics/sysgcc/arm-eabi/bin/../lib/gcc/arm-eabi/5.2.0/../../../../arm-eabi/lib/thumb/fpu/cortex_m4\libm.a(lib_a-ef_pow.o) (nanf)
k:/electronics/sysgcc/arm-eabi/bin/../lib/gcc/arm-eabi/5.2.0/../../../../arm-eabi/lib/thumb/fpu/cortex_m4\libm.a(lib_a-sf_scalbn.o)
                              k:/electronics/sysgcc/arm-eabi/bin/../lib/gcc/arm-eabi/5.2.0/../../../../arm-eabi/lib/thumb/fpu/cortex_m4\libm.a(lib_a-ef_pow.o) (scalbnf)
k:/electronics/sysgcc/arm-eabi/bin/../lib/gcc/arm-eabi/5.2.0/../../../../arm-eabi/lib/thumb/fpu/cortex_m4\libm.a(lib_a-sf_copysign.o)
                              k:/electronics/sysgcc/arm-eabi/bin/../lib/gcc/arm-eabi/5.2.0/../../../../arm-eabi/lib/thumb/fpu/cortex_m4\libm.a(lib_a-sf_scalbn.o) (copysignf)
k:/electronics/sysgcc/arm-eabi/bin/../lib/gcc/arm-eabi/5.2.0/thumb/fpu/cortex_m4\libgcc.a(_arm_addsubdf3.o)
                              Debug/matmath.o (__aeabi_dsub)
k:/electronics/sysgcc/arm-eabi/bin/../lib/gcc/arm-eabi/5.2.0/thumb/fpu/cortex_m4\libgcc.a(_arm_muldivdf3.o)
                              Debug/matmath.o (__aeabi_dmul)
k:/electronics/sysgcc/arm-eabi/bin/../lib/gcc/arm-eabi/5.2.0/thumb/fpu/cortex_m4\libgcc.a(_arm_cmpdf2.o)
                              Debug/matmath.o (__aeabi_dcmpeq)
k:/electronics/sysgcc/arm-eabi/bin/../lib/gcc/arm-eabi/5.2.0/thumb/fpu/cortex_m4\libgcc.a(_arm_fixdfsi.o)
                              Debug/twb_math.o (__aeabi_d2iz)
k:/electronics/sysgcc/arm-eabi/bin/../lib/gcc/arm-eabi/5.2.0/thumb/fpu/cortex_m4\libgcc.a(_arm_truncdfsf2.o)
                              Debug/twb_math.o (__aeabi_d2f)
k:/electronics/sysgcc/arm-eabi/bin/../lib/gcc/arm-eabi/5.2.0/thumb/fpu/cortex_m4\libgcc.a(_arm_addsubsf3.o)
                              Debug/ms5611.o (__aeabi_l2f)
k:/electronics/sysgcc/arm-eabi/bin/../lib/gcc/arm-eabi/5.2.0/../../../../arm-eabi/lib/thumb/fpu/cortex_m4\libc.a(lib_a-atoi.o)
                              Debug/cli.o (atoi)
k:/electronics/sysgcc/arm-eabi/bin/../lib/gcc/arm-eabi/5.2.0/../../../../arm-eabi/lib/thumb/fpu/cortex_m4\libc.a(lib_a-malloc.o)
                              Debug/matmath.o (malloc)
k:/electronics/sysgcc/arm-eabi/bin/../lib/gcc/arm-eabi/5.2.0/../../../../arm-eabi/lib/thumb/fpu/cortex_m4\libc.a(lib_a-mallocr.o)
                              k:/electronics/sysgcc/arm-eabi/bin/../lib/gcc/arm-eabi/5.2.0/../../../../arm-eabi/lib/thumb/fpu/cortex_m4\libc.a(lib_a-malloc.o) (_malloc_r)
k:/electronics/sysgcc/arm-eabi/bin/../lib/gcc/arm-eabi/5.2.0/../../../../arm-eabi/lib/thumb/fpu/cortex_m4\libc.a(lib_a-memcpy.o)
                              Debug/commo.o (memcpy)
k:/electronics/sysgcc/arm-eabi/bin/../lib/gcc/arm-eabi/5.2.0/../../../../arm-eabi/lib/thumb/fpu/cortex_m4\libc.a(lib_a-memset.o)
                              Debug/gps.o (memset)
k:/electronics/sysgcc/arm-eabi/bin/../lib/gcc/arm-eabi/5.2.0/../../../../arm-eabi/lib/thumb/fpu/cortex_m4\libc.a(lib_a-mlock.o)
                              k:/electronics/sysgcc/arm-eabi/bin/../lib/gcc/arm-eabi/5.2.0/../../../../arm-eabi/lib/thumb/fpu/cortex_m4\libc.a(lib_a-mallocr.o) (__malloc_lock)
k:/electronics/sysgcc/arm-eabi/bin/../lib/gcc/arm-eabi/5.2.0/../../../../arm-eabi/lib/thumb/fpu/cortex_m4\libc.a(lib_a-sbrkr.o)
                              k:/electronics/sysgcc/arm-eabi/bin/../lib/gcc/arm-eabi/5.2.0/../../../../arm-eabi/lib/thumb/fpu/cortex_m4\libc.a(lib_a-mallocr.o) (_sbrk_r)
k:/electronics/sysgcc/arm-eabi/bin/../lib/gcc/arm-eabi/5.2.0/../../../../arm-eabi/lib/thumb/fpu/cortex_m4\libc.a(lib_a-strcmp.o)
                              Debug/cli.o (strcmp)
k:/electronics/sysgcc/arm-eabi/bin/../lib/gcc/arm-eabi/5.2.0/../../../../arm-eabi/lib/thumb/fpu/cortex_m4\libc.a(lib_a-strcpy.o)
                              Debug/twb_timer.o (strcpy)
k:/electronics/sysgcc/arm-eabi/bin/../lib/gcc/arm-eabi/5.2.0/../../../../arm-eabi/lib/thumb/fpu/cortex_m4\libc.a(lib_a-strlen.o)
                              Debug/memory_mgmt.o (strlen)
k:/electronics/sysgcc/arm-eabi/bin/../lib/gcc/arm-eabi/5.2.0/../../../../arm-eabi/lib/thumb/fpu/cortex_m4\libc.a(lib_a-strncmp.o)
                              Debug/gps.o (strncmp)
k:/electronics/sysgcc/arm-eabi/bin/../lib/gcc/arm-eabi/5.2.0/../../../../arm-eabi/lib/thumb/fpu/cortex_m4\libc.a(lib_a-strncpy.o)
                              Debug/gps.o (strncpy)
k:/electronics/sysgcc/arm-eabi/bin/../lib/gcc/arm-eabi/5.2.0/../../../../arm-eabi/lib/thumb/fpu/cortex_m4\libc.a(lib_a-strtol.o)
                              k:/electronics/sysgcc/arm-eabi/bin/../lib/gcc/arm-eabi/5.2.0/../../../../arm-eabi/lib/thumb/fpu/cortex_m4\libc.a(lib_a-atoi.o) (_strtol_r)
k:/electronics/sysgcc/arm-eabi/bin/../lib/gcc/arm-eabi/5.2.0/../../../../arm-eabi/lib/thumb/fpu/cortex_m4\libc.a(lib_a-syscalls.o)
                              k:/electronics/sysgcc/arm-eabi/bin/../lib/gcc/arm-eabi/5.2.0/../../../../arm-eabi/lib/thumb/fpu/cortex_m4\libc.a(lib_a-sbrkr.o) (_sbrk)
k:/electronics/sysgcc/arm-eabi/bin/../lib/gcc/arm-eabi/5.2.0/../../../../arm-eabi/lib/thumb/fpu/cortex_m4\libc.a(lib_a-ctype_.o)
                              k:/electronics/sysgcc/arm-eabi/bin/../lib/gcc/arm-eabi/5.2.0/../../../../arm-eabi/lib/thumb/fpu/cortex_m4\libc.a(lib_a-strtol.o) (__ctype_ptr__)
k:/electronics/sysgcc/arm-eabi/bin/../lib/gcc/arm-eabi/5.2.0/../../../../arm-eabi/lib/thumb/fpu/cortex_m4\libc.a(lib_a-findfp.o)
                              k:/electronics/sysgcc/arm-eabi/bin/../lib/gcc/arm-eabi/5.2.0/../../../../arm-eabi/lib/thumb/fpu/cortex_m4\libc.a(lib_a-syscalls.o) (__sinit)
k:/electronics/sysgcc/arm-eabi/bin/../lib/gcc/arm-eabi/5.2.0/../../../../arm-eabi/lib/thumb/fpu/cortex_m4\libc.a(lib_a-freer.o)
                              k:/electronics/sysgcc/arm-eabi/bin/../lib/gcc/arm-eabi/5.2.0/../../../../arm-eabi/lib/thumb/fpu/cortex_m4\libc.a(lib_a-malloc.o) (_free_r)
k:/electronics/sysgcc/arm-eabi/bin/../lib/gcc/arm-eabi/5.2.0/../../../../arm-eabi/lib/thumb/fpu/cortex_m4\libc.a(lib_a-fwalk.o)
                              k:/electronics/sysgcc/arm-eabi/bin/../lib/gcc/arm-eabi/5.2.0/../../../../arm-eabi/lib/thumb/fpu/cortex_m4\libc.a(lib_a-findfp.o) (_fwalk)
k:/electronics/sysgcc/arm-eabi/bin/../lib/gcc/arm-eabi/5.2.0/../../../../arm-eabi/lib/thumb/fpu/cortex_m4\libc.a(lib_a-impure.o)
                              k:/electronics/sysgcc/arm-eabi/bin/../lib/gcc/arm-eabi/5.2.0/../../../../arm-eabi/lib/thumb/fpu/cortex_m4\libc.a(lib_a-findfp.o) (_global_impure_ptr)
k:/electronics/sysgcc/arm-eabi/bin/../lib/gcc/arm-eabi/5.2.0/../../../../arm-eabi/lib/thumb/fpu/cortex_m4\libc.a(lib_a-reent.o)
                              k:/electronics/sysgcc/arm-eabi/bin/../lib/gcc/arm-eabi/5.2.0/../../../../arm-eabi/lib/thumb/fpu/cortex_m4\libc.a(lib_a-sbrkr.o) (errno)
k:/electronics/sysgcc/arm-eabi/bin/../lib/gcc/arm-eabi/5.2.0/../../../../arm-eabi/lib/thumb/fpu/cortex_m4\libc.a(lib_a-stdio.o)
                              k:/electronics/sysgcc/arm-eabi/bin/../lib/gcc/arm-eabi/5.2.0/../../../../arm-eabi/lib/thumb/fpu/cortex_m4\libc.a(lib_a-findfp.o) (__sread)
k:/electronics/sysgcc/arm-eabi/bin/../lib/gcc/arm-eabi/5.2.0/../../../../arm-eabi/lib/thumb/fpu/cortex_m4\libc.a(lib_a-writer.o)
                              k:/electronics/sysgcc/arm-eabi/bin/../lib/gcc/arm-eabi/5.2.0/../../../../arm-eabi/lib/thumb/fpu/cortex_m4\libc.a(lib_a-stdio.o) (_write_r)
k:/electronics/sysgcc/arm-eabi/bin/../lib/gcc/arm-eabi/5.2.0/../../../../arm-eabi/lib/thumb/fpu/cortex_m4\libc.a(lib_a-closer.o)
                              k:/electronics/sysgcc/arm-eabi/bin/../lib/gcc/arm-eabi/5.2.0/../../../../arm-eabi/lib/thumb/fpu/cortex_m4\libc.a(lib_a-stdio.o) (_close_r)
k:/electronics/sysgcc/arm-eabi/bin/../lib/gcc/arm-eabi/5.2.0/../../../../arm-eabi/lib/thumb/fpu/cortex_m4\libc.a(lib_a-fclose.o)
                              k:/electronics/sysgcc/arm-eabi/bin/../lib/gcc/arm-eabi/5.2.0/../../../../arm-eabi/lib/thumb/fpu/cortex_m4\libc.a(lib_a-findfp.o) (_fclose_r)
k:/electronics/sysgcc/arm-eabi/bin/../lib/gcc/arm-eabi/5.2.0/../../../../arm-eabi/lib/thumb/fpu/cortex_m4\libc.a(lib_a-fflush.o)
                              k:/electronics/sysgcc/arm-eabi/bin/../lib/gcc/arm-eabi/5.2.0/../../../../arm-eabi/lib/thumb/fpu/cortex_m4\libc.a(lib_a-fclose.o) (__sflush_r)
k:/electronics/sysgcc/arm-eabi/bin/../lib/gcc/arm-eabi/5.2.0/../../../../arm-eabi/lib/thumb/fpu/cortex_m4\libc.a(lib_a-lseekr.o)
                              k:/electronics/sysgcc/arm-eabi/bin/../lib/gcc/arm-eabi/5.2.0/../../../../arm-eabi/lib/thumb/fpu/cortex_m4\libc.a(lib_a-stdio.o) (_lseek_r)
k:/electronics/sysgcc/arm-eabi/bin/../lib/gcc/arm-eabi/5.2.0/../../../../arm-eabi/lib/thumb/fpu/cortex_m4\libc.a(lib_a-readr.o)
                              k:/electronics/sysgcc/arm-eabi/bin/../lib/gcc/arm-eabi/5.2.0/../../../../arm-eabi/lib/thumb/fpu/cortex_m4\libc.a(lib_a-stdio.o) (_read_r)

Allocating common symbols
Common symbol       size              file

__ms5611_altitudeM  0x4               Debug/ms5611.o
PIDSensorData       0x4               Debug/twb_config.o
PIDPitch            0x4               Debug/ctrl_loop_pid.o
N                   0xc               Debug/lsm303_mag.o
USB_Telemetry_Buffer
                    0x4               Debug/usbd_cdc_core.o
__lsm303MagMax      0x6               Debug/lsm303_mag.o
__medianFilterTempHistory
                    0x12              Debug/Median.o
acc                 0xc               Debug/lsm303_mag.o
LSM303AccI2CJob     0x4               Debug/lsm303_acc.o
_rawY               0x2               Debug/lsm303_mag.o
__mpuGyro60x0XFilter
                    0x1a              Debug/mpu60x0_gryo.o
WiFiState           0x1               Debug/wifi.o
__ms5611_defaultAltitudeZero
                    0x4               Debug/ms5611.o
_timer14            0x4               Debug/pwm_source.o
__l3gd20LSBSensitivity
                    0x4               Debug/l3g20.o
__adxlAcc_offset    0x6               Debug/adxl345.o
_tmpY               0x4               Debug/lsm303_mag.o
InternalState       0x4               Debug/twb_config.o
__ms5611ReadState   0x1               Debug/ms5611.o
SendSensorData      0x4               Debug/twb_timer.o
__itg3200XFilter    0x1a              Debug/itg3200.o
_accX               0x4               Debug/lsm303_acc.o
__adcCell3          0x2               Debug/lipo_adc.o
_targetHeadingPrecise
                    0x4               Debug/ctrl_loop_pid.o
__mpu60x0GyroExtendedData
                    0x4               Debug/mpu60x0_gryo.o
_rangeX             0x2               Debug/lsm303_mag.o
WiFiActionTimer     0x4               Debug/twb_timer.o
I2CWatchDog         0x4               Debug/twb_timer.o
_adxlYFilter        0x1a              Debug/adxl345.o
_temp_sub           0x4               Debug/ms5611.o
_GPIOC              0x4               Debug/pwm_source.o
__xfer_len          0x4               Debug/usb_dcd_int.o
LSM303MagI2CJob     0x4               Debug/lsm303_mag.o
_msgType            0x1               Debug/gps.o
__errno             0x2               Debug/twb_config.o
TWB_Incoming_Messages
                    0x140             Debug/commo.o
_cli_out_buffer     0x4               Debug/cli.o
tmpX                0x4               Debug/lsm303_acc.o
_bmp085_RawTemperature
                    0x4               Debug/bmp085.o
_ratioZ             0x4               Debug/lsm303_mag.o
SendBatteryData     0x4               Debug/twb_timer.o
AccMPU60x0Sensor    0x4               Debug/snsr_mgmt.o
__ms5611Calib       0x4               Debug/ms5611.o
AltitudeData        0x4               Debug/twb_config.o
errno               0x4               k:/electronics/sysgcc/arm-eabi/bin/../lib/gcc/arm-eabi/5.2.0/../../../../arm-eabi/lib/thumb/fpu/cortex_m4\libc.a(lib_a-reent.o)
magycomp            0x4               Debug/lsm303_mag.o
__mpuGyro60x0YFilter
                    0x1a              Debug/mpu60x0_gryo.o
thisCount           0x2               Debug/stm32f4xx_it.o
SensorConfig        0x4               Debug/twb_config.o
_fatanresult        0x4               Debug/lsm303_mag.o
SendAltitudeData    0x4               Debug/twb_timer.o
BatteryCondition    0x4               Debug/twb_config.o
__itgOffset         0x6               Debug/itg3200.o
__wiFiCommandIdx    0x1               Debug/wifi.o
__zero_TotalSampleCount
                    0x1               Debug/snsr_zero.o
__sonarFilter       0x34              Debug/sonar.o
_l3gd20XFilter      0x1a              Debug/l3g20.o
L3GD20GryoI2CJob    0x4               Debug/l3g20.o
_l3gd20ZFilter      0x1a              Debug/l3g20.o
_rawX               0x2               Debug/lsm303_mag.o
__bmp085_defaultAltitudeZero
                    0x2               Debug/bmp085.o
_cli_commandQueue   0x10              Debug/cli.o
__bmp085_altitudeRaw
                    0x4               Debug/bmp085.o
__commandIdx        0x1               Debug/wifi.o
_valueIndex         0x1               Debug/gps.o
accynorm            0x4               Debug/lsm303_mag.o
sensorIndex         0x1               Debug/snsr_main.o
from                0xc               Debug/lsm303_mag.o
isr                 0x4               Debug/stm32f4xx_it.o
_otherHeading       0x4               Debug/lsm303_mag.o
SensorsList         0x4               Debug/snsr_mgmt.o
__itg3200YFilter    0x1a              Debug/itg3200.o
ComplementarySnsrFusion
                    0x4               Debug/snsr_mgmt.o
__lsm303MagZFilter  0x1a              Debug/lsm303_mag.o
__ms5611_temperature
                    0x4               Debug/ms5611.o
__rcInRise          0xc               Debug/pwm_capture.o
I2CZeroJob          0x4               Debug/twb_timer.o
__sonar_Meters      0x4               Debug/sonar.o
measurement_size    0x4               Debug/kalman_calc.o
__lipoAdcFilter2    0x1a              Debug/lipo_adc.o
__customHeap        0x8000            Debug/memory_mgmt.o
__mpu60x0Factor     0x4               Debug/mpu60x0_gryo.o
__mpu60x0GyroOffset
                    0x6               Debug/mpu60x0_gryo.o
tickTimer           0x4               Debug/snsr_main.o
__lsm303AccX        0x4               Debug/lsm303_acc.o
accxnorm            0x4               Debug/lsm303_mag.o
__hf_stacked_pc     0x4               Debug/stm32f4xx_it.o
Yh                  0x4               Debug/lsm303_mag.o
MPU60x0AccI2CJob    0x4               Debug/mpu60x0_acc.o
_hmc5883XFilter     0x1a              Debug/hmc5883.o
PressureBMP085Sensor
                    0x4               Debug/snsr_mgmt.o
__twbI2CSyncJob     0x4               Debug/twb_i2c_stm32f4.o
ADCLipoSensor       0x4               Debug/snsr_mgmt.o
__bmp085Filter      0x4               Debug/bmp085.o
__sonar_PWM_uSeconds
                    0x4               Debug/sonar.o
__sleepTimer        0x2               Debug/twb_timer.o
_state              0x1               Debug/gps.o
WiFiIsConnected     0x1               Debug/twb_config.o
acc_norm            0xc               Debug/lsm303_mag.o
_accY               0x4               Debug/lsm303_acc.o
__sensorBeingZeroed
                    0x4               Debug/snsr_zero.o
magxcomp            0x4               Debug/lsm303_mag.o
__ms5611Filter      0x4               Debug/ms5611.o
ms                  0x4               Debug/snsr_main.o
__lsm303AccY        0x4               Debug/lsm303_acc.o
__bmp085_altitudeM  0x4               Debug/bmp085.o
NiVekAddress        0x1               Debug/nivek_system.o
__writeCalibrationFactorsI2CJob
                    0x4               Debug/lsm303_mag.o
__hmcMagMin         0x6               Debug/hmc5883.o
__itg3200ZFilter    0x1a              Debug/itg3200.o
Targets             0x4               Debug/twb_config.o
__hmcMagMax         0x6               Debug/hmc5883.o
_accZ               0x4               Debug/lsm303_acc.o
__eepromReadBuffer  0x24              Debug/twb_serial_eeprom.o
_adxlZFilter        0x1a              Debug/adxl345.o
SystemStatus        0x4               Debug/twb_config.o
WiFiAux1            0x1               Debug/twb_config.o
__i2cTempInBuffer   0x6               Debug/twb_i2c.o
__sonar_ThisCount   0x4               Debug/sonar.o
__adxlAcc_currentRaw
                    0x6               Debug/adxl345.o
initialCosValue     0x4               Debug/twb_math.o
PIDAltitude         0x4               Debug/ctrl_loop_pid.o
_uartRXBuffer       0x10              Debug/gps.o
__ms5611_pressure   0x4               Debug/ms5611.o
SonarSensor         0x4               Debug/snsr_mgmt.o
GyroL3GD20Sensor    0x4               Debug/snsr_mgmt.o
__lsm303CalibrationMagZFilter
                    0x1a              Debug/lsm303_mag.o
AltGPSSensor        0x4               Debug/snsr_mgmt.o
rollRadians         0x4               Debug/lsm303_mag.o
_fratio             0x4               Debug/lsm303_mag.o
__l3gd20Offset      0x6               Debug/l3g20.o
tbid                0xc               Debug/snsr_main.o
__zero_BigEndian    0x1               Debug/snsr_zero.o
__rcInFall          0xc               Debug/pwm_capture.o
thisCountHere       0x4               Debug/snsr_main.o
PitchPIDDetails     0x4               Debug/twb_config.o
__pwmTimer          0x4               Debug/pwm_capture.o
__mpu60x0DataRateSeconds
                    0x4               Debug/mpu60x0_gryo.o
USB_Debug_Buffer    0x4               Debug/usbd_cdc_core.o
SensorFusionMsg     0x4               Debug/complementary.o
SendPWMInData       0x4               Debug/twb_timer.o
lastSensorCount     0x4               Debug/snsr_main.o
_tmpX               0x4               Debug/lsm303_mag.o
__mpu60x0AccScaler  0x2               Debug/mpu60x0_acc.o
PIDYaw              0x4               Debug/ctrl_loop_pid.o
I2CQueueJobHead     0x1               Debug/twb_i2c_stm32f4.o
PWMIn               0x4               Debug/pwm_capture.o
__ms5611_rawPressure
                    0x4               Debug/ms5611.o
__lsbSensitivity    0x4               Debug/mpu60x0_gryo.o
inputAngle          0x4               Debug/twb_math.o
PIDControllerAction
                    0x4               Debug/snsr_mgmt.o
__lsm303AccZFilter  0x1a              Debug/lsm303_acc.o
_ratioX             0x4               Debug/lsm303_mag.o
I2CQueue            0x30              Debug/twb_i2c.o
_yComponent         0x4               Debug/lsm303_mag.o
Xh                  0x4               Debug/lsm303_mag.o
WiFiHeartBeatTimer  0x4               Debug/twb_timer.o
usbd_cdc_OtherCfgDesc
                    0x71              Debug/usbd_cdc_core.o
GeoGPSSensor        0x4               Debug/snsr_mgmt.o
__mpu60x0AccOffset  0x6               Debug/mpu60x0_acc.o
RCWatchDog          0x4               Debug/twb_timer.o
_l3gd20YFilter      0x1a              Debug/l3g20.o
__lsm303acc_currentRaw
                    0x6               Debug/lsm303_acc.o
__lsm303MagYFilter  0x1a              Debug/lsm303_mag.o
state_size          0x4               Debug/kalman_calc.o
CurrentGPSReading   0x4               Debug/twb_config.o
_tmpBuffer          0x4               Debug/snsr_zero.o
MPU60x0GyroI2CJob   0x4               Debug/mpu60x0_gryo.o
KalmanSnsrFusion    0x4               Debug/snsr_mgmt.o
PIDConstants        0x4               Debug/twb_config.o
_zComponent         0x4               Debug/lsm303_mag.o
cosValue            0x4               Debug/twb_math.o
tmpZ                0x4               Debug/lsm303_acc.o
CompFilterPitch     0x4               Debug/complementary.o
WiFiCmds            0x4               Debug/twb_timer.o
SendMotorData       0x4               Debug/twb_timer.o
__lsm303CalibrationMagYFilter
                    0x1a              Debug/lsm303_mag.o
SendGPSData         0x4               Debug/twb_timer.o
Commands            0x4               Debug/wifi.o
AccLSM303Sensor     0x4               Debug/snsr_mgmt.o
_uartRXBufferIndex  0x1               Debug/gps.o
NivekSerialNumber   0x4               Debug/nivek_system.o
CompFilterRoll      0x4               Debug/complementary.o
CompFilterHeading   0x4               Debug/complementary.o
_mpuAccX            0x4               Debug/mpu60x0_acc.o
USB_Console_Buffer  0x4               Debug/usbd_cdc_core.o
__l3gd20DataRateSeconds
                    0x4               Debug/l3g20.o
_timer3             0x4               Debug/pwm_source.o
__lsm303acc_offset  0x6               Debug/lsm303_acc.o
_currentBaudRate    0x1               Debug/wifi.o
__dstAddress        0x1               Debug/msg_parser.o
__lipoADC           0x4               Debug/lipo_adc.o
GPSData             0x4               Debug/twb_config.o
__bmp085ReadState   0x1               Debug/bmp085.o
I2CQueueJobTail     0x1               Debug/twb_i2c_stm32f4.o
__autopilotDeltaT   0x4               Debug/autopilot.o
__debug_Temp_IntBuffer
                    0xa               Debug/twb_debug.o
__ms5611_altitudeZero
                    0x4               Debug/ms5611.o
pitchRadians        0x4               Debug/lsm303_mag.o
__bmp085Calib       0x16              Debug/bmp085.o
__adcCell2          0x2               Debug/lipo_adc.o
PIDConstantsConfig  0x4               Debug/twb_config.o
MS5611I2CJob        0x4               Debug/ms5611.o
_commonDiagBuffer   0x4               Debug/twb_config.o
BMPI2CJob           0x4               Debug/bmp085.o
__eepromWriteBuffer
                    0x24              Debug/twb_serial_eeprom.o
_rangeZ             0x2               Debug/lsm303_mag.o
__lsm303AccYFilter  0x1a              Debug/lsm303_acc.o
__dbg_Buffer        0x4               Debug/twb_debug.o
_adxlXFilter        0x1a              Debug/adxl345.o
SendStatusData      0x4               Debug/twb_timer.o
cosPitch            0x4               Debug/lsm303_mag.o
MotorStatus         0x4               Debug/twb_config.o
LEDS                0x3c              Debug/twb_leds.o
_mpuAccZ            0x4               Debug/mpu60x0_acc.o
PIDRoll             0x4               Debug/ctrl_loop_pid.o
__sonarTimer        0x4               Debug/sonar.o
__cli_temp_IntBuffer
                    0xa               Debug/cli.o
cosRoll             0x4               Debug/lsm303_mag.o
_deltaY             0x2               Debug/lsm303_mag.o
deltaT              0x4               Debug/snsr_main.o
__MagDenom          0x4               Debug/lsm303_mag.o
GyroMPU60x0Sensor   0x4               Debug/snsr_mgmt.o
__lsm303MagXFilter  0x1a              Debug/lsm303_mag.o
__lsm303AccXFilter  0x1a              Debug/lsm303_acc.o
__srcAddress        0x1               Debug/msg_parser.o
TWB_Outgoing_Messages
                    0x400             Debug/commo.o
HeadingGPSSensor    0x4               Debug/snsr_mgmt.o
__ms5611_rawTemperature
                    0x4               Debug/ms5611.o
__wiFi_Config       0x10              Debug/wifi.o
tanRatio            0x4               Debug/lsm303_mag.o
__commonSensorBuffer
                    0x1e              Debug/snsr_main.o
_sensorStateBeforePause
                    0x1               Debug/snsr_actions.o
__wiFiCommandLength
                    0x1               Debug/wifi.o
WiFiAux2            0x1               Debug/twb_config.o
CmdBuff             0x8               Debug/usbd_cdc_core.o
WiFiYaw             0x1               Debug/twb_config.o
AutoPilotAction     0x4               Debug/snsr_mgmt.o
tempHeading         0x4               Debug/lsm303_mag.o
_fheading           0x4               Debug/lsm303_mag.o
__mpu60x0LSBSensitivity
                    0x4               Debug/mpu60x0_gryo.o
MagHMC5883Sensor    0x4               Debug/snsr_mgmt.o
AccADXL345Sensor    0x4               Debug/snsr_mgmt.o
WiFiRoll            0x1               Debug/twb_config.o
ticks               0x4               Debug/snsr_main.o
_xComponent         0x4               Debug/lsm303_mag.o
__bmp085_pressure   0x4               Debug/bmp085.o
__zero_PauseMS      0x4               Debug/snsr_zero.o
__lsm303MagMin      0x6               Debug/lsm303_mag.o
USB_OTG_dev         0x5f4             Debug/twb_usb.o
_tmpZ               0x4               Debug/lsm303_mag.o
__mpuAcc60x0YFilter
                    0x1a              Debug/mpu60x0_acc.o
__sonar_CountDelta  0x4               Debug/sonar.o
__i2cTempOutBuffer  0x6               Debug/twb_i2c.o
__zero_EEPROM_Address
                    0x2               Debug/snsr_zero.o
SendTargetData      0x4               Debug/twb_timer.o
__ms5611_altitudeRaw
                    0x4               Debug/ms5611.o
__MagPitch          0x4               Debug/lsm303_mag.o
E                   0xc               Debug/lsm303_mag.o
__wiFiCommandBuffer
                    0x10              Debug/wifi.o
MagLSM303Sensor     0x4               Debug/snsr_mgmt.o
__mpuAcc60x0XFilter
                    0x1a              Debug/mpu60x0_acc.o
__mpuGyro60x0ZFilter
                    0x1a              Debug/mpu60x0_gryo.o
__lipoAdcFilter3    0x1a              Debug/lipo_adc.o
_resultF            0x4               Debug/lsm303_acc.o
__mpuAcc60x0ZFilter
                    0x1a              Debug/mpu60x0_acc.o
RollPIDDetails      0x4               Debug/twb_config.o
checkSum            0x1               Debug/gps.o
_ratioY             0x4               Debug/lsm303_mag.o
WiFiThrottle        0x1               Debug/twb_config.o
PressureMS5611Sensor
                    0x4               Debug/snsr_mgmt.o
__sonar_LastCount   0x4               Debug/sonar.o
__commandLength     0x1               Debug/wifi.o
__ms5611_deltaTemperature
                    0x4               Debug/ms5611.o
_rawZ               0x2               Debug/lsm303_mag.o
tmpY                0x4               Debug/lsm303_acc.o
SensorData          0x4               Debug/twb_config.o
OutgoingMsgQueue    0x10              Debug/commo.o
WiFiInWatchDog      0x4               Debug/twb_timer.o
tempArcTan          0x4               Debug/lsm303_mag.o
TWB_OutgoingMsg     0x4               Debug/msg_parser.o
_deltaZ             0x2               Debug/lsm303_mag.o
sinPitch            0x4               Debug/lsm303_mag.o
__lipoAdcFilter1    0x1a              Debug/lipo_adc.o
USBD_StrDesc        0x32              Debug/usbd_req.o
DMA_InitStructure   0x3c              Debug/lipo_adc.o
m                   0xc               Debug/lsm303_mag.o
_hmc5883ZFilter     0x1a              Debug/hmc5883.o
_msThreshold        0x2               Debug/snsr_main.o
__medianFilterSignedTempHistory
                    0x12              Debug/Median.o
sinRoll             0x4               Debug/lsm303_mag.o
WiFiPitch           0x1               Debug/twb_config.o
__bmp085ParamB5     0x4               Debug/bmp085.o
__lsm303AccZ        0x4               Debug/lsm303_acc.o
__debug_shouldForward
                    0x1               Debug/twb_debug.o
_cli_in_buffer      0x4               Debug/cli.o
__zero_SamplesIndex
                    0x1               Debug/snsr_zero.o
__twbI2CCurrentJob  0x4               Debug/twb_i2c_stm32f4.o
GyroITG3200Sensor   0x4               Debug/snsr_mgmt.o
__zeroMsAccum       0x4               Debug/snsr_zero.o
__l3gdGyroExtendedData
                    0x4               Debug/l3g20.o
ComplementaryFilterConfig
                    0x4               Debug/complementary.o
HomeGPSReading      0x4               Debug/twb_config.o
__bmp085_altitudeZero
                    0x4               Debug/bmp085.o
CompFilterAltitude  0x4               Debug/complementary.o
__ctrlLoopDeltaT    0x4               Debug/ctrl_loop_pid.o
__medianFilterFloatTempHistory
                    0x24              Debug/Median.o
_hmc5883YFilter     0x1a              Debug/hmc5883.o
_deltaX             0x2               Debug/lsm303_mag.o
__MagRoll           0x4               Debug/lsm303_mag.o
_lsm303FullScaleRange
                    0x4               Debug/lsm303_mag.o
__adcCell1          0x2               Debug/lipo_adc.o
_mpuAccY            0x4               Debug/mpu60x0_acc.o
__bmp085_temperature
                    0x4               Debug/bmp085.o
AutoPilotState      0x1               Debug/autopilot.o
_rangeY             0x2               Debug/lsm303_mag.o
__lsm303CalibrationMagXFilter
                    0x1a              Debug/lsm303_mag.o

Discarded input sections

 .text          0x00000000        0x0 Debug/asinf.o
 .bss           0x00000000        0x0 Debug/asinf.o
 .text          0x00000000        0x0 Debug/matmath.o
 .data          0x00000000        0x0 Debug/matmath.o
 .bss           0x00000000        0x0 Debug/matmath.o
 .text.vec_copy
                0x00000000       0x40 Debug/matmath.o
 .text.vec_add  0x00000000       0x64 Debug/matmath.o
 .text.vec_sub  0x00000000       0x64 Debug/matmath.o
 .text.mat_add  0x00000000       0x90 Debug/matmath.o
 .text.mat_sub  0x00000000       0x90 Debug/matmath.o
 .text.mat_mult
                0x00000000       0xc0 Debug/matmath.o
 .text.mat_mult_vector
                0x00000000       0xa0 Debug/matmath.o
 .text.mat_mult_transpose
                0x00000000       0xc4 Debug/matmath.o
 .text.mat_transpose_mult
                0x00000000       0xbc Debug/matmath.o
 .text.mat_copy
                0x00000000       0x68 Debug/matmath.o
 .rodata        0x00000000      0x16b Debug/matmath.o
 .text.gaussj   0x00000000      0x53c Debug/matmath.o
 .text.quaternion
                0x00000000       0x5c Debug/matmath.o
 .text.quaternion_update
                0x00000000      0x50c Debug/matmath.o
 .text.quaternion_to_rotation
                0x00000000      0x30c Debug/matmath.o
 .text.nrerror  0x00000000        0xc Debug/matmath.o
 .text.vector   0x00000000       0x44 Debug/matmath.o
 .text.fvector  0x00000000       0x44 Debug/matmath.o
 .text.ivector  0x00000000       0x44 Debug/matmath.o
 .text.cvector  0x00000000       0x3c Debug/matmath.o
 .text.lvector  0x00000000       0x44 Debug/matmath.o
 .text.dvector  0x00000000       0x44 Debug/matmath.o
 .text.matrix   0x00000000       0xf8 Debug/matmath.o
 .text.fmatrix  0x00000000       0xf8 Debug/matmath.o
 .text.dmatrix  0x00000000       0xf8 Debug/matmath.o
 .text.imatrix  0x00000000       0xf8 Debug/matmath.o
 .text.submatrix
                0x00000000       0x94 Debug/matmath.o
 .text.convert_matrix
                0x00000000       0xb0 Debug/matmath.o
 .text.free_vector
                0x00000000       0x28 Debug/matmath.o
 .text.free_fvector
                0x00000000       0x28 Debug/matmath.o
 .text.free_ivector
                0x00000000       0x28 Debug/matmath.o
 .text.free_cvector
                0x00000000       0x20 Debug/matmath.o
 .text.free_lvector
                0x00000000       0x28 Debug/matmath.o
 .text.free_dvector
                0x00000000       0x28 Debug/matmath.o
 .text.free_matrix
                0x00000000       0x44 Debug/matmath.o
 .text.free_fmatrix
                0x00000000       0x44 Debug/matmath.o
 .text.free_dmatrix
                0x00000000       0x44 Debug/matmath.o
 .text.free_imatrix
                0x00000000       0x44 Debug/matmath.o
 .text.free_submatrix
                0x00000000       0x28 Debug/matmath.o
 .text.free_convert_matrix
                0x00000000       0x28 Debug/matmath.o
 .debug_info    0x00000000     0x12b7 Debug/matmath.o
 .debug_abbrev  0x00000000      0x168 Debug/matmath.o
 .debug_loc     0x00000000      0x897 Debug/matmath.o
 .debug_aranges
                0x00000000      0x150 Debug/matmath.o
 .debug_ranges  0x00000000      0x140 Debug/matmath.o
 .debug_line    0x00000000      0x74b Debug/matmath.o
 .debug_str     0x00000000      0x3da Debug/matmath.o
 .comment       0x00000000       0x12 Debug/matmath.o
 .debug_frame   0x00000000      0x4ac Debug/matmath.o
 .ARM.attributes
                0x00000000       0x39 Debug/matmath.o
 .text          0x00000000        0x0 Debug/memory_mgmt.o
 .data          0x00000000        0x0 Debug/memory_mgmt.o
 .text.createStr
                0x00000000       0x7c Debug/memory_mgmt.o
 .text          0x00000000        0x0 Debug/twb_common.o
 .data          0x00000000        0x0 Debug/twb_common.o
 .bss           0x00000000        0x0 Debug/twb_common.o
 .text.TWB_GetEdgeType
                0x00000000       0x5c Debug/twb_common.o
 .text.minf     0x00000000       0x30 Debug/twb_common.o
 .debug_info    0x00000000      0x1b7 Debug/twb_common.o
 .debug_abbrev  0x00000000       0xd7 Debug/twb_common.o
 .debug_loc     0x00000000       0x58 Debug/twb_common.o
 .debug_aranges
                0x00000000       0x28 Debug/twb_common.o
 .debug_ranges  0x00000000       0x18 Debug/twb_common.o
 .debug_line    0x00000000      0x185 Debug/twb_common.o
 .debug_str     0x00000000      0x211 Debug/twb_common.o
 .comment       0x00000000       0x12 Debug/twb_common.o
 .debug_frame   0x00000000       0x40 Debug/twb_common.o
 .ARM.attributes
                0x00000000       0x39 Debug/twb_common.o
 .text          0x00000000        0x0 Debug/twb_debug.o
 .text.TWB_Debug_Toggle
                0x00000000       0x30 Debug/twb_debug.o
 .text.__debug_SendOverUSB
                0x00000000        0xc Debug/twb_debug.o
 .text.TWB_Debug_PrintHexNumb
                0x00000000       0x4c Debug/twb_debug.o
 .text          0x00000000        0x0 Debug/twb_i2c.o
 .data          0x00000000        0x4 Debug/twb_i2c.o
 .bss           0x00000000        0x0 Debug/twb_i2c.o
 .text          0x00000000        0x0 Debug/twb_i2c_stm32f4.o
 .data          0x00000000        0x4 Debug/twb_i2c_stm32f4.o
 .text          0x00000000        0x0 Debug/twb_leds.o
 .data          0x00000000        0x0 Debug/twb_leds.o
 .bss           0x00000000        0x0 Debug/twb_leds.o
 .text          0x00000000        0x0 Debug/twb_math.o
 .data          0x00000000        0x0 Debug/twb_math.o
 .bss           0x00000000        0x0 Debug/twb_math.o
 .rodata        0x00000000       0xca Debug/twb_math.o
 .text.TWB_Math_Asin
                0x00000000       0x68 Debug/twb_math.o
 .text.vector_cross
                0x00000000       0x8c Debug/twb_math.o
 .text.vector_dot
                0x00000000       0x48 Debug/twb_math.o
 .text.vector_normalize
                0x00000000       0x78 Debug/twb_math.o
 .text.twb_atanf
                0x00000000       0x60 Debug/twb_math.o
 .text.twb_sqrt
                0x00000000      0x174 Debug/twb_math.o
 .text          0x00000000        0x0 Debug/twb_serial_eeprom.o
 .data          0x00000000        0x0 Debug/twb_serial_eeprom.o
 .bss           0x00000000        0x0 Debug/twb_serial_eeprom.o
 .text.TWB_SE_Init
                0x00000000        0x8 Debug/twb_serial_eeprom.o
 .text.TWB_SE_WriteS32
                0x00000000       0x24 Debug/twb_serial_eeprom.o
 .text          0x00000000        0x0 Debug/twb_strings.o
 .bss           0x00000000        0x0 Debug/twb_strings.o
 .text          0x00000000        0x0 Debug/twb_timer.o
 .data          0x00000000        0x0 Debug/twb_timer.o
 .text.TWB_Timer_ReadTimeouts
                0x00000000      0x134 Debug/twb_timer.o
 .text.TWB_Timer_GetMS
                0x00000000       0x10 Debug/twb_timer.o
 .text          0x00000000        0x0 Debug/commo.o
 .data          0x00000000        0x0 Debug/commo.o
 .text.TWB_Commo_SendKeepAlivePing
                0x00000000       0x40 Debug/commo.o
 .text.TWB_Commo_QueueOutgoingMsg
                0x00000000       0x48 Debug/commo.o
 .text          0x00000000        0x0 Debug/msg_parser.o
 .data          0x00000000        0x0 Debug/msg_parser.o
 .text          0x00000000        0x0 Debug/twb_usb.o
 .data          0x00000000        0x0 Debug/twb_usb.o
 .bss           0x00000000        0x0 Debug/twb_usb.o
 .text.TWB_USB_Write_Console_Out
                0x00000000       0x14 Debug/twb_usb.o
 .text.TWB_USB_Write_Debug_Out
                0x00000000       0x14 Debug/twb_usb.o
 .text.TWB_USB_Write_Telemetry_Out
                0x00000000       0x14 Debug/twb_usb.o
 .text          0x00000000        0x0 Debug/usbd_cdc_core.o
 .text          0x00000000        0x0 Debug/usbd_core.o
 .bss           0x00000000        0x0 Debug/usbd_core.o
 .text          0x00000000        0x0 Debug/usbd_desc.o
 .bss           0x00000000        0x0 Debug/usbd_desc.o
 .text          0x00000000        0x0 Debug/usbd_ioreq.o
 .data          0x00000000        0x0 Debug/usbd_ioreq.o
 .bss           0x00000000        0x0 Debug/usbd_ioreq.o
 .text.USBD_GetRxCount
                0x00000000       0x28 Debug/usbd_ioreq.o
 .text          0x00000000        0x0 Debug/usbd_req.o
 .data          0x00000000        0x0 Debug/usbd_req.o
 .text          0x00000000        0x0 Debug/usbd_usr.o
 .bss           0x00000000        0x0 Debug/usbd_usr.o
 .text          0x00000000        0x0 Debug/usb_bsp.o
 .data          0x00000000        0x0 Debug/usb_bsp.o
 .bss           0x00000000        0x0 Debug/usb_bsp.o
 .text.USB_OTG_BSP_ConfigVBUS
                0x00000000        0xc Debug/usb_bsp.o
 .text.USB_OTG_BSP_DriveVBUS
                0x00000000       0x10 Debug/usb_bsp.o
 .text          0x00000000        0x0 Debug/usb_core.o
 .data          0x00000000        0x0 Debug/usb_core.o
 .bss           0x00000000        0x0 Debug/usb_core.o
 .text.USB_OTG_GetMode
                0x00000000       0x14 Debug/usb_core.o
 .text.USB_OTG_IsDeviceMode
                0x00000000       0x20 Debug/usb_core.o
 .text.USB_OTG_IsHostMode
                0x00000000       0x20 Debug/usb_core.o
 .text.USB_OTG_ReadOtgItr
                0x00000000       0x10 Debug/usb_core.o
 .text.USB_OTG_GetDeviceSpeed
                0x00000000       0x4c Debug/usb_core.o
 .text.USB_OTG_ActiveRemoteWakeup
                0x00000000       0x9c Debug/usb_core.o
 .text.USB_OTG_UngateClock
                0x00000000       0x54 Debug/usb_core.o
 .text.USB_OTG_StopDevice
                0x00000000       0x80 Debug/usb_core.o
 .text          0x00000000        0x0 Debug/usb_core_cfg.o
 .data          0x00000000        0x0 Debug/usb_core_cfg.o
 .bss           0x00000000        0x0 Debug/usb_core_cfg.o
 .text          0x00000000        0x0 Debug/usb_core_ep.o
 .data          0x00000000        0x0 Debug/usb_core_ep.o
 .bss           0x00000000        0x0 Debug/usb_core_ep.o
 .text.USB_OTG_GetEPStatus
                0x00000000       0xac Debug/usb_core_ep.o
 .text.__usb_otg_SetInEpStatus
                0x00000000       0xc4 Debug/usb_core_ep.o
 .text.__usb_otg_SetOutEpStatus
                0x00000000       0xbc Debug/usb_core_ep.o
 .text.USB_OTG_SetEPStatus
                0x00000000       0x30 Debug/usb_core_ep.o
 .text          0x00000000        0x0 Debug/usb_core_int.o
 .data          0x00000000        0x0 Debug/usb_core_int.o
 .bss           0x00000000        0x0 Debug/usb_core_int.o
 .text          0x00000000        0x0 Debug/usb_core_io.o
 .data          0x00000000        0x0 Debug/usb_core_io.o
 .bss           0x00000000        0x0 Debug/usb_core_io.o
 .text          0x00000000        0x0 Debug/usb_dcd.o
 .data          0x00000000        0x0 Debug/usb_dcd.o
 .bss           0x00000000        0x0 Debug/usb_dcd.o
 .text.DCD_EP_Flush
                0x00000000       0x38 Debug/usb_dcd.o
 .text.DCD_DevConnect
                0x00000000        0xc Debug/usb_dcd.o
 .text.DCD_DevDisconnect
                0x00000000        0xc Debug/usb_dcd.o
 .text.DCD_GetEPStatus
                0x00000000       0x60 Debug/usb_dcd.o
 .text.DCD_SetEPStatus
                0x00000000       0x5c Debug/usb_dcd.o
 .text          0x00000000        0x0 Debug/usb_dcd_int.o
 .data          0x00000000        0x0 Debug/usb_dcd_int.o
 .bss           0x00000000        0x1 Debug/usb_dcd_int.o
 .text          0x00000000        0x0 Debug/wifi.o
 .data          0x00000000       0x2c Debug/wifi.o
 .bss           0x00000000        0x1 Debug/wifi.o
 .text.__wifi_AddCmd
                0x00000000       0x48 Debug/wifi.o
 .text.TWB_WiFi_PerformActions
                0x00000000       0xe0 Debug/wifi.o
 .text.AddCommands
                0x00000000       0x30 Debug/wifi.o
 .text.TWB_WiFi_CloseConnection
                0x00000000       0x10 Debug/wifi.o
 .text          0x00000000        0x0 Debug/Median.o
 .data          0x00000000        0x0 Debug/Median.o
 .bss           0x00000000        0x0 Debug/Median.o
 .text          0x00000000        0x0 Debug/autopilot.o
 .data          0x00000000        0x0 Debug/autopilot.o
 .text.TWB_AutoPilot_TransitionFromFlightMode
                0x00000000        0x8 Debug/autopilot.o
 .text          0x00000000        0x0 Debug/ctrl_loop.o
 .data          0x00000000        0x0 Debug/ctrl_loop.o
 .bss           0x00000000        0x0 Debug/ctrl_loop.o
 .text          0x00000000        0x0 Debug/ctrl_loop_commo.o
 .data          0x00000000        0x0 Debug/ctrl_loop_commo.o
 .bss           0x00000000        0x0 Debug/ctrl_loop_commo.o
 .text          0x00000000        0x0 Debug/ctrl_loop_pid.o
 .data          0x00000000        0x0 Debug/ctrl_loop_pid.o
 .text          0x00000000        0x0 Debug/pid.o
 .data          0x00000000        0x0 Debug/pid.o
 .bss           0x00000000        0x0 Debug/pid.o
 .text          0x00000000        0x0 Debug/pwm_capture.o
 .data          0x00000000        0x0 Debug/pwm_capture.o
 .bss           0x00000000        0x0 Debug/pwm_capture.o
 .text          0x00000000        0x0 Debug/pwm_source.o
 .data          0x00000000        0x0 Debug/pwm_source.o
 .text          0x00000000        0x0 Debug/main.o
 .data          0x00000000        0x0 Debug/main.o
 .text          0x00000000        0x0 Debug/nivek_system.o
 .text          0x00000000        0x0 Debug/adxl345.o
 .data          0x00000000        0x0 Debug/adxl345.o
 .bss           0x00000000        0x0 Debug/adxl345.o
 .text.TWB_IMU_ADXL345_Zero
                0x00000000       0x80 Debug/adxl345.o
 .text.TWB_IMU_ADXL345_Read
                0x00000000       0xd8 Debug/adxl345.o
 .text          0x00000000        0x0 Debug/bmp085.o
 .data          0x00000000        0x0 Debug/bmp085.o
 .bss           0x00000000        0x0 Debug/bmp085.o
 .text          0x00000000        0x0 Debug/complementary.o
 .data          0x00000000        0x0 Debug/complementary.o
 .bss           0x00000000        0x0 Debug/complementary.o
 .text          0x00000000        0x0 Debug/kalman.o
 .data          0x00000000        0x0 Debug/kalman.o
 .bss           0x00000000        0x0 Debug/kalman.o
 .text.TWB_SNSR_Kalman_Process
                0x00000000       0x10 Debug/kalman.o
 .text          0x00000000        0x0 Debug/kalman_calc.o
 .data          0x00000000        0x0 Debug/kalman_calc.o
 .bss           0x00000000       0x44 Debug/kalman_calc.o
 .text.kalman_init
                0x00000000       0xa8 Debug/kalman_calc.o
 .text.kalman_step
                0x00000000       0x4c Debug/kalman_calc.o
 .text.kalman_get_state
                0x00000000        0xc Debug/kalman_calc.o
 .text.extended_kalman_init
                0x00000000       0xb4 Debug/kalman_calc.o
 .text.extended_kalman_step
                0x00000000       0xb0 Debug/kalman_calc.o
 .text.iter_ext_kalman_init
                0x00000000       0xd8 Debug/kalman_calc.o
 .text.iter_ext_kalman_step
                0x00000000      0x15c Debug/kalman_calc.o
 .text.alloc_globals
                0x00000000      0x11c Debug/kalman_calc.o
 .text.update_system
                0x00000000       0x64 Debug/kalman_calc.o
 .text.estimate_prob
                0x00000000       0x70 Debug/kalman_calc.o
 .text.update_prob
                0x00000000       0xf4 Debug/kalman_calc.o
 .text.take_inverse
                0x00000000       0x2c Debug/kalman_calc.o
 .text.calc_state_change
                0x00000000       0x80 Debug/kalman_calc.o
 .debug_info    0x00000000      0x648 Debug/kalman_calc.o
 .debug_abbrev  0x00000000      0x170 Debug/kalman_calc.o
 .debug_loc     0x00000000      0x2a0 Debug/kalman_calc.o
 .debug_aranges
                0x00000000       0x80 Debug/kalman_calc.o
 .debug_ranges  0x00000000       0x70 Debug/kalman_calc.o
 .debug_line    0x00000000      0x1e4 Debug/kalman_calc.o
 .debug_str     0x00000000      0x361 Debug/kalman_calc.o
 .comment       0x00000000       0x12 Debug/kalman_calc.o
 .debug_frame   0x00000000      0x188 Debug/kalman_calc.o
 .ARM.attributes
                0x00000000       0x39 Debug/kalman_calc.o
 COMMON         0x00000000        0x8 Debug/kalman_calc.o
 .text          0x00000000        0x0 Debug/gps.o
 .bss           0x00000000        0x0 Debug/gps.o
 .text.TWB_GPS_SetHomeLocation
                0x00000000        0x8 Debug/gps.o
 .text          0x00000000        0x0 Debug/hmc5883.o
 .data          0x00000000        0x0 Debug/hmc5883.o
 .bss           0x00000000        0x0 Debug/hmc5883.o
 .text.TWB_IMU_HMC5883_BeginCalibration
                0x00000000       0x4c Debug/hmc5883.o
 .text.TWB_IMU_HMC5883_EndCalibration
                0x00000000      0x148 Debug/hmc5883.o
 .text.TWB_IMU_HMC5883_Read
                0x00000000      0x158 Debug/hmc5883.o
 .text          0x00000000        0x0 Debug/itg3200.o
 .data          0x00000000        0x0 Debug/itg3200.o
 .bss           0x00000000        0x0 Debug/itg3200.o
 .text.TWB_IMU_ITG3200_Zero
                0x00000000       0x7c Debug/itg3200.o
 .text.TWB_IMU_ITG3200_IRQ
                0x00000000      0x134 Debug/itg3200.o
 .text.TWB_IMU_ITG3200_Read
                0x00000000       0x1c Debug/itg3200.o
 .text.TWB_IMU_ITG3200_EnableIRQ
                0x00000000       0x14 Debug/itg3200.o
 .text.TWB_IMU_ITG3200_DisableIRQ
                0x00000000       0x14 Debug/itg3200.o
 .text          0x00000000        0x0 Debug/l3g20.o
 .text.TWB_IMU_L3GD20_EnableIRQ
                0x00000000        0x8 Debug/l3g20.o
 .text.TWB_IMU_L3GD20_DisableIRQ
                0x00000000        0x8 Debug/l3g20.o
 .text          0x00000000        0x0 Debug/lipo_adc.o
 .data          0x00000000        0x0 Debug/lipo_adc.o
 .text          0x00000000        0x0 Debug/lsm303_acc.o
 .data          0x00000000        0x0 Debug/lsm303_acc.o
 .text.TWB_IMU_LSM303_ReadComplete
                0x00000000       0x1c Debug/lsm303_acc.o
 .text          0x00000000        0x0 Debug/lsm303_mag.o
 .data          0x00000000        0x0 Debug/lsm303_mag.o
 .bss           0x00000000        0x0 Debug/lsm303_mag.o
 .text.__imu_LSM303_MagCalWritten
                0x00000000       0x18 Debug/lsm303_mag.o
 .text          0x00000000        0x0 Debug/mpu60x0_acc.o
 .data          0x00000000        0x0 Debug/mpu60x0_acc.o
 .bss           0x00000000        0x0 Debug/mpu60x0_acc.o
 .text          0x00000000        0x0 Debug/mpu60x0_gryo.o
 .data          0x00000000        0x0 Debug/mpu60x0_gryo.o
 .text          0x00000000        0x0 Debug/ms5611.o
 .data          0x00000000        0x0 Debug/ms5611.o
 .text          0x00000000        0x0 Debug/snsr_actions.o
 .data          0x00000000        0x0 Debug/snsr_actions.o
 .bss           0x00000000        0x0 Debug/snsr_actions.o
 .text          0x00000000        0x0 Debug/snsr_commo.o
 .data          0x00000000        0x0 Debug/snsr_commo.o
 .bss           0x00000000        0x0 Debug/snsr_commo.o
 .text          0x00000000        0x0 Debug/snsr_main.o
 .data          0x00000000        0x0 Debug/snsr_main.o
 .text          0x00000000        0x0 Debug/snsr_mgmt.o
 .data          0x00000000        0x0 Debug/snsr_mgmt.o
 .bss           0x00000000        0x0 Debug/snsr_mgmt.o
 .text          0x00000000        0x0 Debug/snsr_zero.o
 .text          0x00000000        0x0 Debug/sonar.o
 .data          0x00000000        0x1 Debug/sonar.o
 .bss           0x00000000        0x0 Debug/sonar.o
 .text          0x00000000        0x0 Debug/stm32f4xx_it.o
 .data          0x00000000        0x0 Debug/stm32f4xx_it.o
 .bss           0x00000000        0x0 Debug/stm32f4xx_it.o
 .text          0x00000000        0x0 Debug/cli.o
 .data          0x00000000        0x0 Debug/cli.o
 .text.TWB_CLI_ParseBuffer
                0x00000000       0x34 Debug/cli.o
 .text.TWB_CLI_OutBuffer
                0x00000000       0x5c Debug/cli.o
 .text          0x00000000        0x0 Debug/system_stm32f4xx.o
 .bss           0x00000000        0x0 Debug/system_stm32f4xx.o
 .text.SystemCoreClockUpdate
                0x00000000       0xf0 Debug/system_stm32f4xx.o
 .text          0x00000000        0x0 Debug/twb_config.o
 .data          0x00000000        0x0 Debug/twb_config.o
 .bss           0x00000000        0x0 Debug/twb_config.o
 .text          0x00000000        0x0 Debug/misc.o
 .data          0x00000000        0x0 Debug/misc.o
 .bss           0x00000000        0x0 Debug/misc.o
 .text.NVIC_SetVectorTable
                0x00000000       0x24 Debug/misc.o
 .text.NVIC_SystemLPConfig
                0x00000000       0x44 Debug/misc.o
 .text.SysTick_CLKSourceConfig
                0x00000000       0x30 Debug/misc.o
 .text          0x00000000        0x0 Debug/stm32f4xx_adc.o
 .data          0x00000000        0x0 Debug/stm32f4xx_adc.o
 .bss           0x00000000        0x0 Debug/stm32f4xx_adc.o
 .text.ADC_StructInit
                0x00000000       0x34 Debug/stm32f4xx_adc.o
 .text.ADC_CommonStructInit
                0x00000000       0x24 Debug/stm32f4xx_adc.o
 .text.ADC_AnalogWatchdogCmd
                0x00000000       0x30 Debug/stm32f4xx_adc.o
 .text.ADC_AnalogWatchdogThresholdsConfig
                0x00000000       0x28 Debug/stm32f4xx_adc.o
 .text.ADC_AnalogWatchdogSingleChannelConfig
                0x00000000       0x34 Debug/stm32f4xx_adc.o
 .text.ADC_TempSensorVrefintCmd
                0x00000000       0x34 Debug/stm32f4xx_adc.o
 .text.ADC_VBATCmd
                0x00000000       0x34 Debug/stm32f4xx_adc.o
 .text.ADC_GetSoftwareStartConvStatus
                0x00000000       0x30 Debug/stm32f4xx_adc.o
 .text.ADC_EOCOnEachRegularChannelCmd
                0x00000000       0x34 Debug/stm32f4xx_adc.o
 .text.ADC_ContinuousModeCmd
                0x00000000       0x34 Debug/stm32f4xx_adc.o
 .text.ADC_DiscModeChannelCountConfig
                0x00000000       0x40 Debug/stm32f4xx_adc.o
 .text.ADC_DiscModeCmd
                0x00000000       0x34 Debug/stm32f4xx_adc.o
 .text.ADC_GetConversionValue
                0x00000000       0x10 Debug/stm32f4xx_adc.o
 .text.ADC_GetMultiModeConversionValue
                0x00000000        0xc Debug/stm32f4xx_adc.o
 .text.ADC_DMACmd
                0x00000000       0x34 Debug/stm32f4xx_adc.o
 .text.ADC_DMARequestAfterLastTransferCmd
                0x00000000       0x34 Debug/stm32f4xx_adc.o
 .text.ADC_MultiModeDMARequestAfterLastTransferCmd
                0x00000000       0x34 Debug/stm32f4xx_adc.o
 .text.ADC_InjectedChannelConfig
                0x00000000      0x134 Debug/stm32f4xx_adc.o
 .text.ADC_InjectedSequencerLengthConfig
                0x00000000       0x40 Debug/stm32f4xx_adc.o
 .text.ADC_SetInjectedOffset
                0x00000000       0x34 Debug/stm32f4xx_adc.o
 .text.ADC_ExternalTrigInjectedConvConfig
                0x00000000       0x2c Debug/stm32f4xx_adc.o
 .text.ADC_ExternalTrigInjectedConvEdgeConfig
                0x00000000       0x2c Debug/stm32f4xx_adc.o
 .text.ADC_SoftwareStartInjectedConv
                0x00000000       0x18 Debug/stm32f4xx_adc.o
 .text.ADC_GetSoftwareStartInjectedConvCmdStatus
                0x00000000       0x30 Debug/stm32f4xx_adc.o
 .text.ADC_AutoInjectedConvCmd
                0x00000000       0x34 Debug/stm32f4xx_adc.o
 .text.ADC_InjectedDiscModeCmd
                0x00000000       0x34 Debug/stm32f4xx_adc.o
 .text.ADC_GetInjectedConversionValue
                0x00000000       0x2c Debug/stm32f4xx_adc.o
 .text.ADC_GetFlagStatus
                0x00000000       0x38 Debug/stm32f4xx_adc.o
 .text.ADC_ClearFlag
                0x00000000       0x1c Debug/stm32f4xx_adc.o
 .text          0x00000000        0x0 Debug/stm32f4xx_dma.o
 .data          0x00000000        0x0 Debug/stm32f4xx_dma.o
 .bss           0x00000000        0x0 Debug/stm32f4xx_dma.o
 .text.DMA_DeInit
                0x00000000      0x22c Debug/stm32f4xx_dma.o
 .text.DMA_Init
                0x00000000      0x39c Debug/stm32f4xx_dma.o
 .text.DMA_StructInit
                0x00000000       0x64 Debug/stm32f4xx_dma.o
 .text.DMA_Cmd  0x00000000      0x120 Debug/stm32f4xx_dma.o
 .text.DMA_PeriphIncOffsetSizeConfig
                0x00000000      0x118 Debug/stm32f4xx_dma.o
 .text.DMA_FlowControllerConfig
                0x00000000      0x114 Debug/stm32f4xx_dma.o
 .text.DMA_SetCurrDataCounter
                0x00000000       0xe8 Debug/stm32f4xx_dma.o
 .text.DMA_GetCurrDataCounter
                0x00000000       0xe0 Debug/stm32f4xx_dma.o
 .text.DMA_DoubleBufferModeConfig
                0x00000000      0x120 Debug/stm32f4xx_dma.o
 .text.DMA_DoubleBufferModeCmd
                0x00000000      0x120 Debug/stm32f4xx_dma.o
 .text.DMA_MemoryTargetConfig
                0x00000000      0x10c Debug/stm32f4xx_dma.o
 .text.DMA_GetCurrentMemoryTarget
                0x00000000       0xf8 Debug/stm32f4xx_dma.o
 .text.DMA_GetCmdStatus
                0x00000000      0x100 Debug/stm32f4xx_dma.o
 .text.DMA_GetFIFOStatus
                0x00000000       0xec Debug/stm32f4xx_dma.o
 .text.DMA_GetFlagStatus
                0x00000000      0x314 Debug/stm32f4xx_dma.o
 .text.DMA_ClearFlag
                0x00000000      0x158 Debug/stm32f4xx_dma.o
 .text.DMA_ITConfig
                0x00000000      0x178 Debug/stm32f4xx_dma.o
 .text.DMA_GetITStatus
                0x00000000      0x378 Debug/stm32f4xx_dma.o
 .text.DMA_ClearITPendingBit
                0x00000000      0x158 Debug/stm32f4xx_dma.o
 .debug_info    0x00000000      0x8ea Debug/stm32f4xx_dma.o
 .debug_abbrev  0x00000000      0x18b Debug/stm32f4xx_dma.o
 .debug_loc     0x00000000      0x41c Debug/stm32f4xx_dma.o
 .debug_aranges
                0x00000000       0xb0 Debug/stm32f4xx_dma.o
 .debug_ranges  0x00000000       0xa0 Debug/stm32f4xx_dma.o
 .debug_line    0x00000000      0xf8f Debug/stm32f4xx_dma.o
 .debug_str     0x00000000      0x555 Debug/stm32f4xx_dma.o
 .comment       0x00000000       0x12 Debug/stm32f4xx_dma.o
 .debug_frame   0x00000000      0x22c Debug/stm32f4xx_dma.o
 .ARM.attributes
                0x00000000       0x39 Debug/stm32f4xx_dma.o
 .text          0x00000000        0x0 Debug/stm32f4xx_exti.o
 .data          0x00000000        0x0 Debug/stm32f4xx_exti.o
 .bss           0x00000000        0x0 Debug/stm32f4xx_exti.o
 .text.EXTI_DeInit
                0x00000000       0x2c Debug/stm32f4xx_exti.o
 .text.EXTI_StructInit
                0x00000000       0x24 Debug/stm32f4xx_exti.o
 .text.EXTI_GenerateSWInterrupt
                0x00000000       0x1c Debug/stm32f4xx_exti.o
 .text.EXTI_GetFlagStatus
                0x00000000       0x34 Debug/stm32f4xx_exti.o
 .text.EXTI_ClearFlag
                0x00000000       0x14 Debug/stm32f4xx_exti.o
 .text.EXTI_GetITStatus
                0x00000000       0x48 Debug/stm32f4xx_exti.o
 .text          0x00000000        0x0 Debug/stm32f4xx_gpio.o
 .data          0x00000000        0x0 Debug/stm32f4xx_gpio.o
 .bss           0x00000000        0x0 Debug/stm32f4xx_gpio.o
 .text.GPIO_DeInit
                0x00000000      0x120 Debug/stm32f4xx_gpio.o
 .text.GPIO_StructInit
                0x00000000       0x2c Debug/stm32f4xx_gpio.o
 .text.GPIO_PinLockConfig
                0x00000000       0x40 Debug/stm32f4xx_gpio.o
 .text.GPIO_ReadInputDataBit
                0x00000000       0x38 Debug/stm32f4xx_gpio.o
 .text.GPIO_ReadInputData
                0x00000000       0x10 Debug/stm32f4xx_gpio.o
 .text.GPIO_ReadOutputDataBit
                0x00000000       0x38 Debug/stm32f4xx_gpio.o
 .text.GPIO_ReadOutputData
                0x00000000       0x10 Debug/stm32f4xx_gpio.o
 .text.GPIO_SetBits
                0x00000000       0x18 Debug/stm32f4xx_gpio.o
 .text.GPIO_ResetBits
                0x00000000       0x18 Debug/stm32f4xx_gpio.o
 .text.GPIO_Write
                0x00000000       0x18 Debug/stm32f4xx_gpio.o
 .text.GPIO_ToggleBits
                0x00000000       0x20 Debug/stm32f4xx_gpio.o
 .text          0x00000000        0x0 Debug/stm32f4xx_i2c.o
 .data          0x00000000        0x0 Debug/stm32f4xx_i2c.o
 .bss           0x00000000        0x0 Debug/stm32f4xx_i2c.o
 .text.I2C_StructInit
                0x00000000       0x34 Debug/stm32f4xx_i2c.o
 .text.I2C_GenerateSTART
                0x00000000       0x3c Debug/stm32f4xx_i2c.o
 .text.I2C_GenerateSTOP
                0x00000000       0x3c Debug/stm32f4xx_i2c.o
 .text.I2C_Send7bitAddress
                0x00000000       0x44 Debug/stm32f4xx_i2c.o
 .text.I2C_AcknowledgeConfig
                0x00000000       0x3c Debug/stm32f4xx_i2c.o
 .text.I2C_OwnAddress2Config
                0x00000000       0x4c Debug/stm32f4xx_i2c.o
 .text.I2C_DualAddressCmd
                0x00000000       0x3c Debug/stm32f4xx_i2c.o
 .text.I2C_GeneralCallCmd
                0x00000000       0x3c Debug/stm32f4xx_i2c.o
 .text.I2C_SoftwareResetCmd
                0x00000000       0x40 Debug/stm32f4xx_i2c.o
 .text.I2C_StretchClockCmd
                0x00000000       0x3c Debug/stm32f4xx_i2c.o
 .text.I2C_FastModeDutyCycleConfig
                0x00000000       0x3c Debug/stm32f4xx_i2c.o
 .text.I2C_NACKPositionConfig
                0x00000000       0x3c Debug/stm32f4xx_i2c.o
 .text.I2C_SMBusAlertConfig
                0x00000000       0x3c Debug/stm32f4xx_i2c.o
 .text.I2C_ARPCmd
                0x00000000       0x3c Debug/stm32f4xx_i2c.o
 .text.I2C_SendData
                0x00000000       0x1c Debug/stm32f4xx_i2c.o
 .text.I2C_ReceiveData
                0x00000000       0x14 Debug/stm32f4xx_i2c.o
 .text.I2C_TransmitPEC
                0x00000000       0x3c Debug/stm32f4xx_i2c.o
 .text.I2C_PECPositionConfig
                0x00000000       0x3c Debug/stm32f4xx_i2c.o
 .text.I2C_CalculatePEC
                0x00000000       0x3c Debug/stm32f4xx_i2c.o
 .text.I2C_GetPEC
                0x00000000       0x18 Debug/stm32f4xx_i2c.o
 .text.I2C_DMACmd
                0x00000000       0x3c Debug/stm32f4xx_i2c.o
 .text.I2C_DMALastTransferCmd
                0x00000000       0x3c Debug/stm32f4xx_i2c.o
 .text.I2C_ReadRegister
                0x00000000       0x28 Debug/stm32f4xx_i2c.o
 .text.I2C_CheckEvent
                0x00000000       0x60 Debug/stm32f4xx_i2c.o
 .text.I2C_GetLastEvent
                0x00000000       0x3c Debug/stm32f4xx_i2c.o
 .text.I2C_ClearFlag
                0x00000000       0x24 Debug/stm32f4xx_i2c.o
 .text.I2C_GetITStatus
                0x00000000       0x58 Debug/stm32f4xx_i2c.o
 .text.I2C_ClearITPendingBit
                0x00000000       0x24 Debug/stm32f4xx_i2c.o
 .text          0x00000000        0x0 Debug/stm32f4xx_rcc.o
 .bss           0x00000000        0x0 Debug/stm32f4xx_rcc.o
 .text.RCC_DeInit
                0x00000000       0x48 Debug/stm32f4xx_rcc.o
 .text.RCC_AdjustHSICalibrationValue
                0x00000000       0x38 Debug/stm32f4xx_rcc.o
 .text.RCC_HSICmd
                0x00000000       0x1c Debug/stm32f4xx_rcc.o
 .text.RCC_LSEConfig
                0x00000000       0x3c Debug/stm32f4xx_rcc.o
 .text.RCC_LSICmd
                0x00000000       0x1c Debug/stm32f4xx_rcc.o
 .text.RCC_PLLConfig
                0x00000000       0x34 Debug/stm32f4xx_rcc.o
 .text.RCC_PLLI2SConfig
                0x00000000       0x20 Debug/stm32f4xx_rcc.o
 .text.RCC_PLLI2SCmd
                0x00000000       0x1c Debug/stm32f4xx_rcc.o
 .text.RCC_MCO1Config
                0x00000000       0x34 Debug/stm32f4xx_rcc.o
 .text.RCC_MCO2Config
                0x00000000       0x34 Debug/stm32f4xx_rcc.o
 .text.RCC_GetSYSCLKSource
                0x00000000       0x14 Debug/stm32f4xx_rcc.o
 .text.RCC_HCLKConfig
                0x00000000       0x30 Debug/stm32f4xx_rcc.o
 .text.RCC_PCLK1Config
                0x00000000       0x30 Debug/stm32f4xx_rcc.o
 .text.RCC_PCLK2Config
                0x00000000       0x30 Debug/stm32f4xx_rcc.o
 .text.RCC_RTCCLKConfig
                0x00000000       0x54 Debug/stm32f4xx_rcc.o
 .text.RCC_RTCCLKCmd
                0x00000000       0x1c Debug/stm32f4xx_rcc.o
 .text.RCC_BackupResetCmd
                0x00000000       0x1c Debug/stm32f4xx_rcc.o
 .text.RCC_I2SCLKConfig
                0x00000000       0x14 Debug/stm32f4xx_rcc.o
 .text.RCC_AHB3PeriphClockCmd
                0x00000000       0x38 Debug/stm32f4xx_rcc.o
 .text.RCC_AHB1PeriphResetCmd
                0x00000000       0x38 Debug/stm32f4xx_rcc.o
 .text.RCC_AHB2PeriphResetCmd
                0x00000000       0x38 Debug/stm32f4xx_rcc.o
 .text.RCC_AHB3PeriphResetCmd
                0x00000000       0x38 Debug/stm32f4xx_rcc.o
 .text.RCC_AHB1PeriphClockLPModeCmd
                0x00000000       0x38 Debug/stm32f4xx_rcc.o
 .text.RCC_AHB2PeriphClockLPModeCmd
                0x00000000       0x38 Debug/stm32f4xx_rcc.o
 .text.RCC_AHB3PeriphClockLPModeCmd
                0x00000000       0x38 Debug/stm32f4xx_rcc.o
 .text.RCC_APB1PeriphClockLPModeCmd
                0x00000000       0x38 Debug/stm32f4xx_rcc.o
 .text.RCC_APB2PeriphClockLPModeCmd
                0x00000000       0x38 Debug/stm32f4xx_rcc.o
 .text.RCC_ClearFlag
                0x00000000       0x14 Debug/stm32f4xx_rcc.o
 .text          0x00000000        0x0 Debug/stm32f4xx_syscfg.o
 .data          0x00000000        0x0 Debug/stm32f4xx_syscfg.o
 .bss           0x00000000        0x0 Debug/stm32f4xx_syscfg.o
 .text.SYSCFG_DeInit
                0x00000000       0x1c Debug/stm32f4xx_syscfg.o
 .text.SYSCFG_MemoryRemapConfig
                0x00000000       0x1c Debug/stm32f4xx_syscfg.o
 .text.SYSCFG_ETH_MediaInterfaceConfig
                0x00000000       0x14 Debug/stm32f4xx_syscfg.o
 .text.SYSCFG_CompensationCellCmd
                0x00000000       0x1c Debug/stm32f4xx_syscfg.o
 .text.SYSCFG_GetCompensationCellStatus
                0x00000000       0x30 Debug/stm32f4xx_syscfg.o
 .text          0x00000000        0x0 Debug/stm32f4xx_tim.o
 .data          0x00000000        0x0 Debug/stm32f4xx_tim.o
 .bss           0x00000000        0x0 Debug/stm32f4xx_tim.o
 .text.TIM_DeInit
                0x00000000      0x1bc Debug/stm32f4xx_tim.o
 .text.TIM_TimeBaseStructInit
                0x00000000       0x2c Debug/stm32f4xx_tim.o
 .text.TIM_PrescalerConfig
                0x00000000       0x28 Debug/stm32f4xx_tim.o
 .text.TIM_CounterModeConfig
                0x00000000       0x40 Debug/stm32f4xx_tim.o
 .text.TIM_SetCounter
                0x00000000       0x14 Debug/stm32f4xx_tim.o
 .text.TIM_SetAutoreload
                0x00000000       0x14 Debug/stm32f4xx_tim.o
 .text.TIM_GetCounter
                0x00000000       0x10 Debug/stm32f4xx_tim.o
 .text.TIM_GetPrescaler
                0x00000000       0x10 Debug/stm32f4xx_tim.o
 .text.TIM_UpdateDisableConfig
                0x00000000       0x3c Debug/stm32f4xx_tim.o
 .text.TIM_UpdateRequestConfig
                0x00000000       0x3c Debug/stm32f4xx_tim.o
 .text.TIM_ARRPreloadConfig
                0x00000000       0x3c Debug/stm32f4xx_tim.o
 .text.TIM_SelectOnePulseMode
                0x00000000       0x34 Debug/stm32f4xx_tim.o
 .text.TIM_SetClockDivision
                0x00000000       0x34 Debug/stm32f4xx_tim.o
 .text.TIM_OCStructInit
                0x00000000       0x3c Debug/stm32f4xx_tim.o
 .text.TIM_SelectOCxM
                0x00000000       0xc0 Debug/stm32f4xx_tim.o
 .text.TIM_SetCompare1
                0x00000000       0x14 Debug/stm32f4xx_tim.o
 .text.TIM_SetCompare2
                0x00000000       0x14 Debug/stm32f4xx_tim.o
 .text.TIM_SetCompare3
                0x00000000       0x14 Debug/stm32f4xx_tim.o
 .text.TIM_SetCompare4
                0x00000000       0x14 Debug/stm32f4xx_tim.o
 .text.TIM_ForcedOC1Config
                0x00000000       0x40 Debug/stm32f4xx_tim.o
 .text.TIM_ForcedOC2Config
                0x00000000       0x44 Debug/stm32f4xx_tim.o
 .text.TIM_ForcedOC3Config
                0x00000000       0x40 Debug/stm32f4xx_tim.o
 .text.TIM_ForcedOC4Config
                0x00000000       0x44 Debug/stm32f4xx_tim.o
 .text.TIM_OC1PreloadConfig
                0x00000000       0x40 Debug/stm32f4xx_tim.o
 .text.TIM_OC2PreloadConfig
                0x00000000       0x44 Debug/stm32f4xx_tim.o
 .text.TIM_OC3PreloadConfig
                0x00000000       0x40 Debug/stm32f4xx_tim.o
 .text.TIM_OC4PreloadConfig
                0x00000000       0x44 Debug/stm32f4xx_tim.o
 .text.TIM_OC1FastConfig
                0x00000000       0x40 Debug/stm32f4xx_tim.o
 .text.TIM_OC2FastConfig
                0x00000000       0x44 Debug/stm32f4xx_tim.o
 .text.TIM_OC3FastConfig
                0x00000000       0x40 Debug/stm32f4xx_tim.o
 .text.TIM_OC4FastConfig
                0x00000000       0x44 Debug/stm32f4xx_tim.o
 .text.TIM_ClearOC1Ref
                0x00000000       0x40 Debug/stm32f4xx_tim.o
 .text.TIM_ClearOC2Ref
                0x00000000       0x44 Debug/stm32f4xx_tim.o
 .text.TIM_ClearOC3Ref
                0x00000000       0x40 Debug/stm32f4xx_tim.o
 .text.TIM_ClearOC4Ref
                0x00000000       0x44 Debug/stm32f4xx_tim.o
 .text.TIM_OC1PolarityConfig
                0x00000000       0x40 Debug/stm32f4xx_tim.o
 .text.TIM_OC1NPolarityConfig
                0x00000000       0x40 Debug/stm32f4xx_tim.o
 .text.TIM_OC2PolarityConfig
                0x00000000       0x44 Debug/stm32f4xx_tim.o
 .text.TIM_OC2NPolarityConfig
                0x00000000       0x44 Debug/stm32f4xx_tim.o
 .text.TIM_OC3PolarityConfig
                0x00000000       0x44 Debug/stm32f4xx_tim.o
 .text.TIM_OC3NPolarityConfig
                0x00000000       0x44 Debug/stm32f4xx_tim.o
 .text.TIM_OC4PolarityConfig
                0x00000000       0x44 Debug/stm32f4xx_tim.o
 .text.TIM_CCxCmd
                0x00000000       0x64 Debug/stm32f4xx_tim.o
 .text.TIM_CCxNCmd
                0x00000000       0x64 Debug/stm32f4xx_tim.o
 .text.TIM_ICInit
                0x00000000       0xa8 Debug/stm32f4xx_tim.o
 .text.TIM_ICStructInit
                0x00000000       0x28 Debug/stm32f4xx_tim.o
 .text.TIM_PWMIConfig
                0x00000000       0xcc Debug/stm32f4xx_tim.o
 .text.TIM_GetCapture1
                0x00000000       0x10 Debug/stm32f4xx_tim.o
 .text.TIM_GetCapture2
                0x00000000       0x10 Debug/stm32f4xx_tim.o
 .text.TIM_GetCapture3
                0x00000000       0x10 Debug/stm32f4xx_tim.o
 .text.TIM_GetCapture4
                0x00000000       0x10 Debug/stm32f4xx_tim.o
 .text.TIM_SetIC1Prescaler
                0x00000000       0x34 Debug/stm32f4xx_tim.o
 .text.TIM_SetIC2Prescaler
                0x00000000       0x38 Debug/stm32f4xx_tim.o
 .text.TIM_SetIC3Prescaler
                0x00000000       0x34 Debug/stm32f4xx_tim.o
 .text.TIM_SetIC4Prescaler
                0x00000000       0x38 Debug/stm32f4xx_tim.o
 .text.TIM_BDTRConfig
                0x00000000       0x48 Debug/stm32f4xx_tim.o
 .text.TIM_BDTRStructInit
                0x00000000       0x34 Debug/stm32f4xx_tim.o
 .text.TIM_CtrlPWMOutputs
                0x00000000       0x48 Debug/stm32f4xx_tim.o
 .text.TIM_SelectCOM
                0x00000000       0x3c Debug/stm32f4xx_tim.o
 .text.TIM_CCPreloadControl
                0x00000000       0x3c Debug/stm32f4xx_tim.o
 .text.TIM_ITConfig
                0x00000000       0x48 Debug/stm32f4xx_tim.o
 .text.TIM_GenerateEvent
                0x00000000       0x18 Debug/stm32f4xx_tim.o
 .text.TIM_GetFlagStatus
                0x00000000       0x3c Debug/stm32f4xx_tim.o
 .text.TIM_ClearFlag
                0x00000000       0x1c Debug/stm32f4xx_tim.o
 .text.TIM_GetITStatus
                0x00000000       0x64 Debug/stm32f4xx_tim.o
 .text.TIM_ClearITPendingBit
                0x00000000       0x1c Debug/stm32f4xx_tim.o
 .text.TIM_DMAConfig
                0x00000000       0x28 Debug/stm32f4xx_tim.o
 .text.TIM_DMACmd
                0x00000000       0x48 Debug/stm32f4xx_tim.o
 .text.TIM_SelectCCDMA
                0x00000000       0x3c Debug/stm32f4xx_tim.o
 .text.TIM_InternalClockConfig
                0x00000000       0x1c Debug/stm32f4xx_tim.o
 .text.TIM_ITRxExternalClockConfig
                0x00000000       0x30 Debug/stm32f4xx_tim.o
 .text.TIM_TIxExternalClockConfig
                0x00000000       0x6c Debug/stm32f4xx_tim.o
 .text.TIM_ETRClockMode1Config
                0x00000000       0x80 Debug/stm32f4xx_tim.o
 .text.TIM_ETRClockMode2Config
                0x00000000       0x48 Debug/stm32f4xx_tim.o
 .text.TIM_SelectInputTrigger
                0x00000000       0x40 Debug/stm32f4xx_tim.o
 .text.TIM_SelectOutputTrigger
                0x00000000       0x34 Debug/stm32f4xx_tim.o
 .text.TIM_SelectSlaveMode
                0x00000000       0x34 Debug/stm32f4xx_tim.o
 .text.TIM_SelectMasterSlaveMode
                0x00000000       0x34 Debug/stm32f4xx_tim.o
 .text.TIM_ETRConfig
                0x00000000       0x64 Debug/stm32f4xx_tim.o
 .text.TIM_EncoderInterfaceConfig
                0x00000000       0xc4 Debug/stm32f4xx_tim.o
 .text.TIM_SelectHallSensor
                0x00000000       0x3c Debug/stm32f4xx_tim.o
 .text.TIM_RemapConfig
                0x00000000       0x1c Debug/stm32f4xx_tim.o
 .text.TI1_Config
                0x00000000       0xa4 Debug/stm32f4xx_tim.o
 .text.TI2_Config
                0x00000000       0xc4 Debug/stm32f4xx_tim.o
 .text.TI3_Config
                0x00000000       0xb4 Debug/stm32f4xx_tim.o
 .text.TI4_Config
                0x00000000       0xc8 Debug/stm32f4xx_tim.o
 .text          0x00000000        0x0 Debug/stm32f4xx_usart.o
 .data          0x00000000        0x0 Debug/stm32f4xx_usart.o
 .bss           0x00000000        0x0 Debug/stm32f4xx_usart.o
 .text.USART_DeInit
                0x00000000       0xd0 Debug/stm32f4xx_usart.o
 .text.USART_StructInit
                0x00000000       0x30 Debug/stm32f4xx_usart.o
 .text.USART_ClockInit
                0x00000000       0x4c Debug/stm32f4xx_usart.o
 .text.USART_ClockStructInit
                0x00000000       0x24 Debug/stm32f4xx_usart.o
 .text.USART_SetPrescaler
                0x00000000       0x34 Debug/stm32f4xx_usart.o
 .text.USART_OverSampling8Cmd
                0x00000000       0x40 Debug/stm32f4xx_usart.o
 .text.USART_OneBitMethodCmd
                0x00000000       0x3c Debug/stm32f4xx_usart.o
 .text.USART_ReceiveData
                0x00000000       0x18 Debug/stm32f4xx_usart.o
 .text.USART_SetAddress
                0x00000000       0x34 Debug/stm32f4xx_usart.o
 .text.USART_ReceiverWakeUpCmd
                0x00000000       0x3c Debug/stm32f4xx_usart.o
 .text.USART_WakeUpConfig
                0x00000000       0x34 Debug/stm32f4xx_usart.o
 .text.USART_LINBreakDetectLengthConfig
                0x00000000       0x34 Debug/stm32f4xx_usart.o
 .text.USART_LINCmd
                0x00000000       0x3c Debug/stm32f4xx_usart.o
 .text.USART_SendBreak
                0x00000000       0x1c Debug/stm32f4xx_usart.o
 .text.USART_HalfDuplexCmd
                0x00000000       0x3c Debug/stm32f4xx_usart.o
 .text.USART_SetGuardTime
                0x00000000       0x38 Debug/stm32f4xx_usart.o
 .text.USART_SmartCardCmd
                0x00000000       0x3c Debug/stm32f4xx_usart.o
 .text.USART_SmartCardNACKCmd
                0x00000000       0x3c Debug/stm32f4xx_usart.o
 .text.USART_IrDAConfig
                0x00000000       0x34 Debug/stm32f4xx_usart.o
 .text.USART_IrDACmd
                0x00000000       0x3c Debug/stm32f4xx_usart.o
 .text.USART_DMACmd
                0x00000000       0x48 Debug/stm32f4xx_usart.o
 .text.USART_GetFlagStatus
                0x00000000       0x3c Debug/stm32f4xx_usart.o
 .text.USART_GetITStatus
                0x00000000       0xbc Debug/stm32f4xx_usart.o
 .text.USART_ClearITPendingBit
                0x00000000       0x40 Debug/stm32f4xx_usart.o
 .text          0x00000000       0x14 Debug/startup_stm32f4xx.o
 .data          0x00000000        0x0 Debug/startup_stm32f4xx.o
 .bss           0x00000000        0x0 Debug/startup_stm32f4xx.o
 .text          0x00000000       0xbc k:/electronics/sysgcc/arm-eabi/bin/../lib/gcc/arm-eabi/5.2.0/../../../../arm-eabi/lib/thumb/fpu/cortex_m4\libm.a(lib_a-w_sqrt.o)
 .data          0x00000000        0x0 k:/electronics/sysgcc/arm-eabi/bin/../lib/gcc/arm-eabi/5.2.0/../../../../arm-eabi/lib/thumb/fpu/cortex_m4\libm.a(lib_a-w_sqrt.o)
 .bss           0x00000000        0x0 k:/electronics/sysgcc/arm-eabi/bin/../lib/gcc/arm-eabi/5.2.0/../../../../arm-eabi/lib/thumb/fpu/cortex_m4\libm.a(lib_a-w_sqrt.o)
 .rodata.str1.4
                0x00000000        0x5 k:/electronics/sysgcc/arm-eabi/bin/../lib/gcc/arm-eabi/5.2.0/../../../../arm-eabi/lib/thumb/fpu/cortex_m4\libm.a(lib_a-w_sqrt.o)
 .debug_info    0x00000000      0x1f5 k:/electronics/sysgcc/arm-eabi/bin/../lib/gcc/arm-eabi/5.2.0/../../../../arm-eabi/lib/thumb/fpu/cortex_m4\libm.a(lib_a-w_sqrt.o)
 .debug_abbrev  0x00000000      0x123 k:/electronics/sysgcc/arm-eabi/bin/../lib/gcc/arm-eabi/5.2.0/../../../../arm-eabi/lib/thumb/fpu/cortex_m4\libm.a(lib_a-w_sqrt.o)
 .debug_loc     0x00000000       0xd2 k:/electronics/sysgcc/arm-eabi/bin/../lib/gcc/arm-eabi/5.2.0/../../../../arm-eabi/lib/thumb/fpu/cortex_m4\libm.a(lib_a-w_sqrt.o)
 .debug_aranges
                0x00000000       0x20 k:/electronics/sysgcc/arm-eabi/bin/../lib/gcc/arm-eabi/5.2.0/../../../../arm-eabi/lib/thumb/fpu/cortex_m4\libm.a(lib_a-w_sqrt.o)
 .debug_line    0x00000000      0x14e k:/electronics/sysgcc/arm-eabi/bin/../lib/gcc/arm-eabi/5.2.0/../../../../arm-eabi/lib/thumb/fpu/cortex_m4\libm.a(lib_a-w_sqrt.o)
 .debug_str     0x00000000      0x298 k:/electronics/sysgcc/arm-eabi/bin/../lib/gcc/arm-eabi/5.2.0/../../../../arm-eabi/lib/thumb/fpu/cortex_m4\libm.a(lib_a-w_sqrt.o)
 .comment       0x00000000       0x12 k:/electronics/sysgcc/arm-eabi/bin/../lib/gcc/arm-eabi/5.2.0/../../../../arm-eabi/lib/thumb/fpu/cortex_m4\libm.a(lib_a-w_sqrt.o)
 .debug_frame   0x00000000       0x60 k:/electronics/sysgcc/arm-eabi/bin/../lib/gcc/arm-eabi/5.2.0/../../../../arm-eabi/lib/thumb/fpu/cortex_m4\libm.a(lib_a-w_sqrt.o)
 .ARM.attributes
                0x00000000       0x39 k:/electronics/sysgcc/arm-eabi/bin/../lib/gcc/arm-eabi/5.2.0/../../../../arm-eabi/lib/thumb/fpu/cortex_m4\libm.a(lib_a-w_sqrt.o)
 .data          0x00000000        0x0 k:/electronics/sysgcc/arm-eabi/bin/../lib/gcc/arm-eabi/5.2.0/../../../../arm-eabi/lib/thumb/fpu/cortex_m4\libm.a(lib_a-wf_pow.o)
 .bss           0x00000000        0x0 k:/electronics/sysgcc/arm-eabi/bin/../lib/gcc/arm-eabi/5.2.0/../../../../arm-eabi/lib/thumb/fpu/cortex_m4\libm.a(lib_a-wf_pow.o)
 .text          0x00000000      0x1a0 k:/electronics/sysgcc/arm-eabi/bin/../lib/gcc/arm-eabi/5.2.0/../../../../arm-eabi/lib/thumb/fpu/cortex_m4\libm.a(lib_a-e_sqrt.o)
 .data          0x00000000        0x0 k:/electronics/sysgcc/arm-eabi/bin/../lib/gcc/arm-eabi/5.2.0/../../../../arm-eabi/lib/thumb/fpu/cortex_m4\libm.a(lib_a-e_sqrt.o)
 .bss           0x00000000        0x0 k:/electronics/sysgcc/arm-eabi/bin/../lib/gcc/arm-eabi/5.2.0/../../../../arm-eabi/lib/thumb/fpu/cortex_m4\libm.a(lib_a-e_sqrt.o)
 .debug_info    0x00000000      0x218 k:/electronics/sysgcc/arm-eabi/bin/../lib/gcc/arm-eabi/5.2.0/../../../../arm-eabi/lib/thumb/fpu/cortex_m4\libm.a(lib_a-e_sqrt.o)
 .debug_abbrev  0x00000000      0x100 k:/electronics/sysgcc/arm-eabi/bin/../lib/gcc/arm-eabi/5.2.0/../../../../arm-eabi/lib/thumb/fpu/cortex_m4\libm.a(lib_a-e_sqrt.o)
 .debug_loc     0x00000000      0x4a2 k:/electronics/sysgcc/arm-eabi/bin/../lib/gcc/arm-eabi/5.2.0/../../../../arm-eabi/lib/thumb/fpu/cortex_m4\libm.a(lib_a-e_sqrt.o)
 .debug_aranges
                0x00000000       0x20 k:/electronics/sysgcc/arm-eabi/bin/../lib/gcc/arm-eabi/5.2.0/../../../../arm-eabi/lib/thumb/fpu/cortex_m4\libm.a(lib_a-e_sqrt.o)
 .debug_line    0x00000000      0x197 k:/electronics/sysgcc/arm-eabi/bin/../lib/gcc/arm-eabi/5.2.0/../../../../arm-eabi/lib/thumb/fpu/cortex_m4\libm.a(lib_a-e_sqrt.o)
 .debug_str     0x00000000      0x23c k:/electronics/sysgcc/arm-eabi/bin/../lib/gcc/arm-eabi/5.2.0/../../../../arm-eabi/lib/thumb/fpu/cortex_m4\libm.a(lib_a-e_sqrt.o)
 .comment       0x00000000       0x12 k:/electronics/sysgcc/arm-eabi/bin/../lib/gcc/arm-eabi/5.2.0/../../../../arm-eabi/lib/thumb/fpu/cortex_m4\libm.a(lib_a-e_sqrt.o)
 .debug_frame   0x00000000       0x30 k:/electronics/sysgcc/arm-eabi/bin/../lib/gcc/arm-eabi/5.2.0/../../../../arm-eabi/lib/thumb/fpu/cortex_m4\libm.a(lib_a-e_sqrt.o)
 .ARM.attributes
                0x00000000       0x39 k:/electronics/sysgcc/arm-eabi/bin/../lib/gcc/arm-eabi/5.2.0/../../../../arm-eabi/lib/thumb/fpu/cortex_m4\libm.a(lib_a-e_sqrt.o)
 .data          0x00000000        0x0 k:/electronics/sysgcc/arm-eabi/bin/../lib/gcc/arm-eabi/5.2.0/../../../../arm-eabi/lib/thumb/fpu/cortex_m4\libm.a(lib_a-ef_pow.o)
 .bss           0x00000000        0x0 k:/electronics/sysgcc/arm-eabi/bin/../lib/gcc/arm-eabi/5.2.0/../../../../arm-eabi/lib/thumb/fpu/cortex_m4\libm.a(lib_a-ef_pow.o)
 .data          0x00000000        0x0 k:/electronics/sysgcc/arm-eabi/bin/../lib/gcc/arm-eabi/5.2.0/../../../../arm-eabi/lib/thumb/fpu/cortex_m4\libm.a(lib_a-ef_sqrt.o)
 .bss           0x00000000        0x0 k:/electronics/sysgcc/arm-eabi/bin/../lib/gcc/arm-eabi/5.2.0/../../../../arm-eabi/lib/thumb/fpu/cortex_m4\libm.a(lib_a-ef_sqrt.o)
 .text          0x00000000       0x5c k:/electronics/sysgcc/arm-eabi/bin/../lib/gcc/arm-eabi/5.2.0/../../../../arm-eabi/lib/thumb/fpu/cortex_m4\libm.a(lib_a-s_fpclassify.o)
 .data          0x00000000        0x0 k:/electronics/sysgcc/arm-eabi/bin/../lib/gcc/arm-eabi/5.2.0/../../../../arm-eabi/lib/thumb/fpu/cortex_m4\libm.a(lib_a-s_fpclassify.o)
 .bss           0x00000000        0x0 k:/electronics/sysgcc/arm-eabi/bin/../lib/gcc/arm-eabi/5.2.0/../../../../arm-eabi/lib/thumb/fpu/cortex_m4\libm.a(lib_a-s_fpclassify.o)
 .debug_info    0x00000000       0xde k:/electronics/sysgcc/arm-eabi/bin/../lib/gcc/arm-eabi/5.2.0/../../../../arm-eabi/lib/thumb/fpu/cortex_m4\libm.a(lib_a-s_fpclassify.o)
 .debug_abbrev  0x00000000       0x6f k:/electronics/sysgcc/arm-eabi/bin/../lib/gcc/arm-eabi/5.2.0/../../../../arm-eabi/lib/thumb/fpu/cortex_m4\libm.a(lib_a-s_fpclassify.o)
 .debug_aranges
                0x00000000       0x20 k:/electronics/sysgcc/arm-eabi/bin/../lib/gcc/arm-eabi/5.2.0/../../../../arm-eabi/lib/thumb/fpu/cortex_m4\libm.a(lib_a-s_fpclassify.o)
 .debug_line    0x00000000      0x117 k:/electronics/sysgcc/arm-eabi/bin/../lib/gcc/arm-eabi/5.2.0/../../../../arm-eabi/lib/thumb/fpu/cortex_m4\libm.a(lib_a-s_fpclassify.o)
 .debug_str     0x00000000      0x209 k:/electronics/sysgcc/arm-eabi/bin/../lib/gcc/arm-eabi/5.2.0/../../../../arm-eabi/lib/thumb/fpu/cortex_m4\libm.a(lib_a-s_fpclassify.o)
 .comment       0x00000000       0x12 k:/electronics/sysgcc/arm-eabi/bin/../lib/gcc/arm-eabi/5.2.0/../../../../arm-eabi/lib/thumb/fpu/cortex_m4\libm.a(lib_a-s_fpclassify.o)
 .debug_frame   0x00000000       0x34 k:/electronics/sysgcc/arm-eabi/bin/../lib/gcc/arm-eabi/5.2.0/../../../../arm-eabi/lib/thumb/fpu/cortex_m4\libm.a(lib_a-s_fpclassify.o)
 .ARM.attributes
                0x00000000       0x39 k:/electronics/sysgcc/arm-eabi/bin/../lib/gcc/arm-eabi/5.2.0/../../../../arm-eabi/lib/thumb/fpu/cortex_m4\libm.a(lib_a-s_fpclassify.o)
 .text          0x00000000        0x0 k:/electronics/sysgcc/arm-eabi/bin/../lib/gcc/arm-eabi/5.2.0/../../../../arm-eabi/lib/thumb/fpu/cortex_m4\libm.a(lib_a-s_lib_ver.o)
 .bss           0x00000000        0x0 k:/electronics/sysgcc/arm-eabi/bin/../lib/gcc/arm-eabi/5.2.0/../../../../arm-eabi/lib/thumb/fpu/cortex_m4\libm.a(lib_a-s_lib_ver.o)
 .data          0x00000000        0x0 k:/electronics/sysgcc/arm-eabi/bin/../lib/gcc/arm-eabi/5.2.0/../../../../arm-eabi/lib/thumb/fpu/cortex_m4\libm.a(lib_a-s_matherr.o)
 .bss           0x00000000        0x0 k:/electronics/sysgcc/arm-eabi/bin/../lib/gcc/arm-eabi/5.2.0/../../../../arm-eabi/lib/thumb/fpu/cortex_m4\libm.a(lib_a-s_matherr.o)
 .data          0x00000000        0x0 k:/electronics/sysgcc/arm-eabi/bin/../lib/gcc/arm-eabi/5.2.0/../../../../arm-eabi/lib/thumb/fpu/cortex_m4\libm.a(lib_a-s_rint.o)
 .bss           0x00000000        0x0 k:/electronics/sysgcc/arm-eabi/bin/../lib/gcc/arm-eabi/5.2.0/../../../../arm-eabi/lib/thumb/fpu/cortex_m4\libm.a(lib_a-s_rint.o)
 .data          0x00000000        0x0 k:/electronics/sysgcc/arm-eabi/bin/../lib/gcc/arm-eabi/5.2.0/../../../../arm-eabi/lib/thumb/fpu/cortex_m4\libm.a(lib_a-sf_fabs.o)
 .bss           0x00000000        0x0 k:/electronics/sysgcc/arm-eabi/bin/../lib/gcc/arm-eabi/5.2.0/../../../../arm-eabi/lib/thumb/fpu/cortex_m4\libm.a(lib_a-sf_fabs.o)
 .data          0x00000000        0x0 k:/electronics/sysgcc/arm-eabi/bin/../lib/gcc/arm-eabi/5.2.0/../../../../arm-eabi/lib/thumb/fpu/cortex_m4\libm.a(lib_a-sf_finite.o)
 .bss           0x00000000        0x0 k:/electronics/sysgcc/arm-eabi/bin/../lib/gcc/arm-eabi/5.2.0/../../../../arm-eabi/lib/thumb/fpu/cortex_m4\libm.a(lib_a-sf_finite.o)
 .data          0x00000000        0x0 k:/electronics/sysgcc/arm-eabi/bin/../lib/gcc/arm-eabi/5.2.0/../../../../arm-eabi/lib/thumb/fpu/cortex_m4\libm.a(lib_a-sf_fpclassify.o)
 .bss           0x00000000        0x0 k:/electronics/sysgcc/arm-eabi/bin/../lib/gcc/arm-eabi/5.2.0/../../../../arm-eabi/lib/thumb/fpu/cortex_m4\libm.a(lib_a-sf_fpclassify.o)
 .data          0x00000000        0x0 k:/electronics/sysgcc/arm-eabi/bin/../lib/gcc/arm-eabi/5.2.0/../../../../arm-eabi/lib/thumb/fpu/cortex_m4\libm.a(lib_a-sf_nan.o)
 .bss           0x00000000        0x0 k:/electronics/sysgcc/arm-eabi/bin/../lib/gcc/arm-eabi/5.2.0/../../../../arm-eabi/lib/thumb/fpu/cortex_m4\libm.a(lib_a-sf_nan.o)
 .data          0x00000000        0x0 k:/electronics/sysgcc/arm-eabi/bin/../lib/gcc/arm-eabi/5.2.0/../../../../arm-eabi/lib/thumb/fpu/cortex_m4\libm.a(lib_a-sf_scalbn.o)
 .bss           0x00000000        0x0 k:/electronics/sysgcc/arm-eabi/bin/../lib/gcc/arm-eabi/5.2.0/../../../../arm-eabi/lib/thumb/fpu/cortex_m4\libm.a(lib_a-sf_scalbn.o)
 .data          0x00000000        0x0 k:/electronics/sysgcc/arm-eabi/bin/../lib/gcc/arm-eabi/5.2.0/../../../../arm-eabi/lib/thumb/fpu/cortex_m4\libm.a(lib_a-sf_copysign.o)
 .bss           0x00000000        0x0 k:/electronics/sysgcc/arm-eabi/bin/../lib/gcc/arm-eabi/5.2.0/../../../../arm-eabi/lib/thumb/fpu/cortex_m4\libm.a(lib_a-sf_copysign.o)
 .data          0x00000000        0x0 k:/electronics/sysgcc/arm-eabi/bin/../lib/gcc/arm-eabi/5.2.0/thumb/fpu/cortex_m4\libgcc.a(_arm_addsubdf3.o)
 .bss           0x00000000        0x0 k:/electronics/sysgcc/arm-eabi/bin/../lib/gcc/arm-eabi/5.2.0/thumb/fpu/cortex_m4\libgcc.a(_arm_addsubdf3.o)
 .data          0x00000000        0x0 k:/electronics/sysgcc/arm-eabi/bin/../lib/gcc/arm-eabi/5.2.0/thumb/fpu/cortex_m4\libgcc.a(_arm_muldivdf3.o)
 .bss           0x00000000        0x0 k:/electronics/sysgcc/arm-eabi/bin/../lib/gcc/arm-eabi/5.2.0/thumb/fpu/cortex_m4\libgcc.a(_arm_muldivdf3.o)
 .data          0x00000000        0x0 k:/electronics/sysgcc/arm-eabi/bin/../lib/gcc/arm-eabi/5.2.0/thumb/fpu/cortex_m4\libgcc.a(_arm_cmpdf2.o)
 .bss           0x00000000        0x0 k:/electronics/sysgcc/arm-eabi/bin/../lib/gcc/arm-eabi/5.2.0/thumb/fpu/cortex_m4\libgcc.a(_arm_cmpdf2.o)
 .text          0x00000000       0x50 k:/electronics/sysgcc/arm-eabi/bin/../lib/gcc/arm-eabi/5.2.0/thumb/fpu/cortex_m4\libgcc.a(_arm_fixdfsi.o)
 .data          0x00000000        0x0 k:/electronics/sysgcc/arm-eabi/bin/../lib/gcc/arm-eabi/5.2.0/thumb/fpu/cortex_m4\libgcc.a(_arm_fixdfsi.o)
 .bss           0x00000000        0x0 k:/electronics/sysgcc/arm-eabi/bin/../lib/gcc/arm-eabi/5.2.0/thumb/fpu/cortex_m4\libgcc.a(_arm_fixdfsi.o)
 .debug_line    0x00000000       0x83 k:/electronics/sysgcc/arm-eabi/bin/../lib/gcc/arm-eabi/5.2.0/thumb/fpu/cortex_m4\libgcc.a(_arm_fixdfsi.o)
 .debug_info    0x00000000       0xde k:/electronics/sysgcc/arm-eabi/bin/../lib/gcc/arm-eabi/5.2.0/thumb/fpu/cortex_m4\libgcc.a(_arm_fixdfsi.o)
 .debug_abbrev  0x00000000       0x14 k:/electronics/sysgcc/arm-eabi/bin/../lib/gcc/arm-eabi/5.2.0/thumb/fpu/cortex_m4\libgcc.a(_arm_fixdfsi.o)
 .debug_aranges
                0x00000000       0x20 k:/electronics/sysgcc/arm-eabi/bin/../lib/gcc/arm-eabi/5.2.0/thumb/fpu/cortex_m4\libgcc.a(_arm_fixdfsi.o)
 .ARM.attributes
                0x00000000       0x23 k:/electronics/sysgcc/arm-eabi/bin/../lib/gcc/arm-eabi/5.2.0/thumb/fpu/cortex_m4\libgcc.a(_arm_fixdfsi.o)
 .data          0x00000000        0x0 k:/electronics/sysgcc/arm-eabi/bin/../lib/gcc/arm-eabi/5.2.0/thumb/fpu/cortex_m4\libgcc.a(_arm_truncdfsf2.o)
 .bss           0x00000000        0x0 k:/electronics/sysgcc/arm-eabi/bin/../lib/gcc/arm-eabi/5.2.0/thumb/fpu/cortex_m4\libgcc.a(_arm_truncdfsf2.o)
 .data          0x00000000        0x0 k:/electronics/sysgcc/arm-eabi/bin/../lib/gcc/arm-eabi/5.2.0/thumb/fpu/cortex_m4\libgcc.a(_arm_addsubsf3.o)
 .bss           0x00000000        0x0 k:/electronics/sysgcc/arm-eabi/bin/../lib/gcc/arm-eabi/5.2.0/thumb/fpu/cortex_m4\libgcc.a(_arm_addsubsf3.o)
 .data          0x00000000        0x0 k:/electronics/sysgcc/arm-eabi/bin/../lib/gcc/arm-eabi/5.2.0/../../../../arm-eabi/lib/thumb/fpu/cortex_m4\libc.a(lib_a-atoi.o)
 .bss           0x00000000        0x0 k:/electronics/sysgcc/arm-eabi/bin/../lib/gcc/arm-eabi/5.2.0/../../../../arm-eabi/lib/thumb/fpu/cortex_m4\libc.a(lib_a-atoi.o)
 .text          0x00000000       0x20 k:/electronics/sysgcc/arm-eabi/bin/../lib/gcc/arm-eabi/5.2.0/../../../../arm-eabi/lib/thumb/fpu/cortex_m4\libc.a(lib_a-malloc.o)
 .data          0x00000000        0x0 k:/electronics/sysgcc/arm-eabi/bin/../lib/gcc/arm-eabi/5.2.0/../../../../arm-eabi/lib/thumb/fpu/cortex_m4\libc.a(lib_a-malloc.o)
 .bss           0x00000000        0x0 k:/electronics/sysgcc/arm-eabi/bin/../lib/gcc/arm-eabi/5.2.0/../../../../arm-eabi/lib/thumb/fpu/cortex_m4\libc.a(lib_a-malloc.o)
 .debug_info    0x00000000      0x906 k:/electronics/sysgcc/arm-eabi/bin/../lib/gcc/arm-eabi/5.2.0/../../../../arm-eabi/lib/thumb/fpu/cortex_m4\libc.a(lib_a-malloc.o)
 .debug_abbrev  0x00000000      0x1e5 k:/electronics/sysgcc/arm-eabi/bin/../lib/gcc/arm-eabi/5.2.0/../../../../arm-eabi/lib/thumb/fpu/cortex_m4\libc.a(lib_a-malloc.o)
 .debug_loc     0x00000000       0x58 k:/electronics/sysgcc/arm-eabi/bin/../lib/gcc/arm-eabi/5.2.0/../../../../arm-eabi/lib/thumb/fpu/cortex_m4\libc.a(lib_a-malloc.o)
 .debug_aranges
                0x00000000       0x20 k:/electronics/sysgcc/arm-eabi/bin/../lib/gcc/arm-eabi/5.2.0/../../../../arm-eabi/lib/thumb/fpu/cortex_m4\libc.a(lib_a-malloc.o)
 .debug_line    0x00000000      0x135 k:/electronics/sysgcc/arm-eabi/bin/../lib/gcc/arm-eabi/5.2.0/../../../../arm-eabi/lib/thumb/fpu/cortex_m4\libc.a(lib_a-malloc.o)
 .debug_str     0x00000000      0x5d0 k:/electronics/sysgcc/arm-eabi/bin/../lib/gcc/arm-eabi/5.2.0/../../../../arm-eabi/lib/thumb/fpu/cortex_m4\libc.a(lib_a-malloc.o)
 .comment       0x00000000       0x12 k:/electronics/sysgcc/arm-eabi/bin/../lib/gcc/arm-eabi/5.2.0/../../../../arm-eabi/lib/thumb/fpu/cortex_m4\libc.a(lib_a-malloc.o)
 .debug_frame   0x00000000       0x30 k:/electronics/sysgcc/arm-eabi/bin/../lib/gcc/arm-eabi/5.2.0/../../../../arm-eabi/lib/thumb/fpu/cortex_m4\libc.a(lib_a-malloc.o)
 .ARM.attributes
                0x00000000       0x39 k:/electronics/sysgcc/arm-eabi/bin/../lib/gcc/arm-eabi/5.2.0/../../../../arm-eabi/lib/thumb/fpu/cortex_m4\libc.a(lib_a-malloc.o)
 .text          0x00000000      0x56c k:/electronics/sysgcc/arm-eabi/bin/../lib/gcc/arm-eabi/5.2.0/../../../../arm-eabi/lib/thumb/fpu/cortex_m4\libc.a(lib_a-mallocr.o)
 .data          0x00000000      0x410 k:/electronics/sysgcc/arm-eabi/bin/../lib/gcc/arm-eabi/5.2.0/../../../../arm-eabi/lib/thumb/fpu/cortex_m4\libc.a(lib_a-mallocr.o)
 .bss           0x00000000       0x34 k:/electronics/sysgcc/arm-eabi/bin/../lib/gcc/arm-eabi/5.2.0/../../../../arm-eabi/lib/thumb/fpu/cortex_m4\libc.a(lib_a-mallocr.o)
 .debug_info    0x00000000      0xd61 k:/electronics/sysgcc/arm-eabi/bin/../lib/gcc/arm-eabi/5.2.0/../../../../arm-eabi/lib/thumb/fpu/cortex_m4\libc.a(lib_a-mallocr.o)
 .debug_abbrev  0x00000000      0x29d k:/electronics/sysgcc/arm-eabi/bin/../lib/gcc/arm-eabi/5.2.0/../../../../arm-eabi/lib/thumb/fpu/cortex_m4\libc.a(lib_a-mallocr.o)
 .debug_loc     0x00000000      0xcdf k:/electronics/sysgcc/arm-eabi/bin/../lib/gcc/arm-eabi/5.2.0/../../../../arm-eabi/lib/thumb/fpu/cortex_m4\libc.a(lib_a-mallocr.o)
 .debug_aranges
                0x00000000       0x20 k:/electronics/sysgcc/arm-eabi/bin/../lib/gcc/arm-eabi/5.2.0/../../../../arm-eabi/lib/thumb/fpu/cortex_m4\libc.a(lib_a-mallocr.o)
 .debug_ranges  0x00000000       0x40 k:/electronics/sysgcc/arm-eabi/bin/../lib/gcc/arm-eabi/5.2.0/../../../../arm-eabi/lib/thumb/fpu/cortex_m4\libc.a(lib_a-mallocr.o)
 .debug_line    0x00000000      0x35d k:/electronics/sysgcc/arm-eabi/bin/../lib/gcc/arm-eabi/5.2.0/../../../../arm-eabi/lib/thumb/fpu/cortex_m4\libc.a(lib_a-mallocr.o)
 .debug_str     0x00000000      0x7c1 k:/electronics/sysgcc/arm-eabi/bin/../lib/gcc/arm-eabi/5.2.0/../../../../arm-eabi/lib/thumb/fpu/cortex_m4\libc.a(lib_a-mallocr.o)
 .comment       0x00000000       0x12 k:/electronics/sysgcc/arm-eabi/bin/../lib/gcc/arm-eabi/5.2.0/../../../../arm-eabi/lib/thumb/fpu/cortex_m4\libc.a(lib_a-mallocr.o)
 .debug_frame   0x00000000       0x58 k:/electronics/sysgcc/arm-eabi/bin/../lib/gcc/arm-eabi/5.2.0/../../../../arm-eabi/lib/thumb/fpu/cortex_m4\libc.a(lib_a-mallocr.o)
 .ARM.attributes
                0x00000000       0x39 k:/electronics/sysgcc/arm-eabi/bin/../lib/gcc/arm-eabi/5.2.0/../../../../arm-eabi/lib/thumb/fpu/cortex_m4\libc.a(lib_a-mallocr.o)
 .data          0x00000000        0x0 k:/electronics/sysgcc/arm-eabi/bin/../lib/gcc/arm-eabi/5.2.0/../../../../arm-eabi/lib/thumb/fpu/cortex_m4\libc.a(lib_a-memcpy.o)
 .bss           0x00000000        0x0 k:/electronics/sysgcc/arm-eabi/bin/../lib/gcc/arm-eabi/5.2.0/../../../../arm-eabi/lib/thumb/fpu/cortex_m4\libc.a(lib_a-memcpy.o)
 .data          0x00000000        0x0 k:/electronics/sysgcc/arm-eabi/bin/../lib/gcc/arm-eabi/5.2.0/../../../../arm-eabi/lib/thumb/fpu/cortex_m4\libc.a(lib_a-memset.o)
 .bss           0x00000000        0x0 k:/electronics/sysgcc/arm-eabi/bin/../lib/gcc/arm-eabi/5.2.0/../../../../arm-eabi/lib/thumb/fpu/cortex_m4\libc.a(lib_a-memset.o)
 .text          0x00000000        0x8 k:/electronics/sysgcc/arm-eabi/bin/../lib/gcc/arm-eabi/5.2.0/../../../../arm-eabi/lib/thumb/fpu/cortex_m4\libc.a(lib_a-mlock.o)
 .data          0x00000000        0x0 k:/electronics/sysgcc/arm-eabi/bin/../lib/gcc/arm-eabi/5.2.0/../../../../arm-eabi/lib/thumb/fpu/cortex_m4\libc.a(lib_a-mlock.o)
 .bss           0x00000000        0x0 k:/electronics/sysgcc/arm-eabi/bin/../lib/gcc/arm-eabi/5.2.0/../../../../arm-eabi/lib/thumb/fpu/cortex_m4\libc.a(lib_a-mlock.o)
 .debug_info    0x00000000      0x8a8 k:/electronics/sysgcc/arm-eabi/bin/../lib/gcc/arm-eabi/5.2.0/../../../../arm-eabi/lib/thumb/fpu/cortex_m4\libc.a(lib_a-mlock.o)
 .debug_abbrev  0x00000000      0x1ac k:/electronics/sysgcc/arm-eabi/bin/../lib/gcc/arm-eabi/5.2.0/../../../../arm-eabi/lib/thumb/fpu/cortex_m4\libc.a(lib_a-mlock.o)
 .debug_aranges
                0x00000000       0x20 k:/electronics/sysgcc/arm-eabi/bin/../lib/gcc/arm-eabi/5.2.0/../../../../arm-eabi/lib/thumb/fpu/cortex_m4\libc.a(lib_a-mlock.o)
 .debug_line    0x00000000       0xf7 k:/electronics/sysgcc/arm-eabi/bin/../lib/gcc/arm-eabi/5.2.0/../../../../arm-eabi/lib/thumb/fpu/cortex_m4\libc.a(lib_a-mlock.o)
 .debug_str     0x00000000      0x5b7 k:/electronics/sysgcc/arm-eabi/bin/../lib/gcc/arm-eabi/5.2.0/../../../../arm-eabi/lib/thumb/fpu/cortex_m4\libc.a(lib_a-mlock.o)
 .comment       0x00000000       0x12 k:/electronics/sysgcc/arm-eabi/bin/../lib/gcc/arm-eabi/5.2.0/../../../../arm-eabi/lib/thumb/fpu/cortex_m4\libc.a(lib_a-mlock.o)
 .debug_frame   0x00000000       0x30 k:/electronics/sysgcc/arm-eabi/bin/../lib/gcc/arm-eabi/5.2.0/../../../../arm-eabi/lib/thumb/fpu/cortex_m4\libc.a(lib_a-mlock.o)
 .ARM.attributes
                0x00000000       0x39 k:/electronics/sysgcc/arm-eabi/bin/../lib/gcc/arm-eabi/5.2.0/../../../../arm-eabi/lib/thumb/fpu/cortex_m4\libc.a(lib_a-mlock.o)
 .text          0x00000000       0x24 k:/electronics/sysgcc/arm-eabi/bin/../lib/gcc/arm-eabi/5.2.0/../../../../arm-eabi/lib/thumb/fpu/cortex_m4\libc.a(lib_a-sbrkr.o)
 .data          0x00000000        0x0 k:/electronics/sysgcc/arm-eabi/bin/../lib/gcc/arm-eabi/5.2.0/../../../../arm-eabi/lib/thumb/fpu/cortex_m4\libc.a(lib_a-sbrkr.o)
 .bss           0x00000000        0x0 k:/electronics/sysgcc/arm-eabi/bin/../lib/gcc/arm-eabi/5.2.0/../../../../arm-eabi/lib/thumb/fpu/cortex_m4\libc.a(lib_a-sbrkr.o)
 .debug_info    0x00000000      0x8f5 k:/electronics/sysgcc/arm-eabi/bin/../lib/gcc/arm-eabi/5.2.0/../../../../arm-eabi/lib/thumb/fpu/cortex_m4\libc.a(lib_a-sbrkr.o)
 .debug_abbrev  0x00000000      0x1fb k:/electronics/sysgcc/arm-eabi/bin/../lib/gcc/arm-eabi/5.2.0/../../../../arm-eabi/lib/thumb/fpu/cortex_m4\libc.a(lib_a-sbrkr.o)
 .debug_loc     0x00000000       0x4d k:/electronics/sysgcc/arm-eabi/bin/../lib/gcc/arm-eabi/5.2.0/../../../../arm-eabi/lib/thumb/fpu/cortex_m4\libc.a(lib_a-sbrkr.o)
 .debug_aranges
                0x00000000       0x20 k:/electronics/sysgcc/arm-eabi/bin/../lib/gcc/arm-eabi/5.2.0/../../../../arm-eabi/lib/thumb/fpu/cortex_m4\libc.a(lib_a-sbrkr.o)
 .debug_line    0x00000000      0x13b k:/electronics/sysgcc/arm-eabi/bin/../lib/gcc/arm-eabi/5.2.0/../../../../arm-eabi/lib/thumb/fpu/cortex_m4\libc.a(lib_a-sbrkr.o)
 .debug_str     0x00000000      0x5b3 k:/electronics/sysgcc/arm-eabi/bin/../lib/gcc/arm-eabi/5.2.0/../../../../arm-eabi/lib/thumb/fpu/cortex_m4\libc.a(lib_a-sbrkr.o)
 .comment       0x00000000       0x12 k:/electronics/sysgcc/arm-eabi/bin/../lib/gcc/arm-eabi/5.2.0/../../../../arm-eabi/lib/thumb/fpu/cortex_m4\libc.a(lib_a-sbrkr.o)
 .debug_frame   0x00000000       0x2c k:/electronics/sysgcc/arm-eabi/bin/../lib/gcc/arm-eabi/5.2.0/../../../../arm-eabi/lib/thumb/fpu/cortex_m4\libc.a(lib_a-sbrkr.o)
 .ARM.attributes
                0x00000000       0x39 k:/electronics/sysgcc/arm-eabi/bin/../lib/gcc/arm-eabi/5.2.0/../../../../arm-eabi/lib/thumb/fpu/cortex_m4\libc.a(lib_a-sbrkr.o)
 .data          0x00000000        0x0 k:/electronics/sysgcc/arm-eabi/bin/../lib/gcc/arm-eabi/5.2.0/../../../../arm-eabi/lib/thumb/fpu/cortex_m4\libc.a(lib_a-strcmp.o)
 .bss           0x00000000        0x0 k:/electronics/sysgcc/arm-eabi/bin/../lib/gcc/arm-eabi/5.2.0/../../../../arm-eabi/lib/thumb/fpu/cortex_m4\libc.a(lib_a-strcmp.o)
 .eh_frame      0x00000000       0x70 k:/electronics/sysgcc/arm-eabi/bin/../lib/gcc/arm-eabi/5.2.0/../../../../arm-eabi/lib/thumb/fpu/cortex_m4\libc.a(lib_a-strcmp.o)
 .data          0x00000000        0x0 k:/electronics/sysgcc/arm-eabi/bin/../lib/gcc/arm-eabi/5.2.0/../../../../arm-eabi/lib/thumb/fpu/cortex_m4\libc.a(lib_a-strcpy.o)
 .bss           0x00000000        0x0 k:/electronics/sysgcc/arm-eabi/bin/../lib/gcc/arm-eabi/5.2.0/../../../../arm-eabi/lib/thumb/fpu/cortex_m4\libc.a(lib_a-strcpy.o)
 .data          0x00000000        0x0 k:/electronics/sysgcc/arm-eabi/bin/../lib/gcc/arm-eabi/5.2.0/../../../../arm-eabi/lib/thumb/fpu/cortex_m4\libc.a(lib_a-strlen.o)
 .bss           0x00000000        0x0 k:/electronics/sysgcc/arm-eabi/bin/../lib/gcc/arm-eabi/5.2.0/../../../../arm-eabi/lib/thumb/fpu/cortex_m4\libc.a(lib_a-strlen.o)
 .data          0x00000000        0x0 k:/electronics/sysgcc/arm-eabi/bin/../lib/gcc/arm-eabi/5.2.0/../../../../arm-eabi/lib/thumb/fpu/cortex_m4\libc.a(lib_a-strncmp.o)
 .bss           0x00000000        0x0 k:/electronics/sysgcc/arm-eabi/bin/../lib/gcc/arm-eabi/5.2.0/../../../../arm-eabi/lib/thumb/fpu/cortex_m4\libc.a(lib_a-strncmp.o)
 .data          0x00000000        0x0 k:/electronics/sysgcc/arm-eabi/bin/../lib/gcc/arm-eabi/5.2.0/../../../../arm-eabi/lib/thumb/fpu/cortex_m4\libc.a(lib_a-strncpy.o)
 .bss           0x00000000        0x0 k:/electronics/sysgcc/arm-eabi/bin/../lib/gcc/arm-eabi/5.2.0/../../../../arm-eabi/lib/thumb/fpu/cortex_m4\libc.a(lib_a-strncpy.o)
 .data          0x00000000        0x0 k:/electronics/sysgcc/arm-eabi/bin/../lib/gcc/arm-eabi/5.2.0/../../../../arm-eabi/lib/thumb/fpu/cortex_m4\libc.a(lib_a-strtol.o)
 .bss           0x00000000        0x0 k:/electronics/sysgcc/arm-eabi/bin/../lib/gcc/arm-eabi/5.2.0/../../../../arm-eabi/lib/thumb/fpu/cortex_m4\libc.a(lib_a-strtol.o)
 .text          0x00000000      0x5c0 k:/electronics/sysgcc/arm-eabi/bin/../lib/gcc/arm-eabi/5.2.0/../../../../arm-eabi/lib/thumb/fpu/cortex_m4\libc.a(lib_a-syscalls.o)
 .data          0x00000000        0x0 k:/electronics/sysgcc/arm-eabi/bin/../lib/gcc/arm-eabi/5.2.0/../../../../arm-eabi/lib/thumb/fpu/cortex_m4\libc.a(lib_a-syscalls.o)
 .bss           0x00000000       0xb0 k:/electronics/sysgcc/arm-eabi/bin/../lib/gcc/arm-eabi/5.2.0/../../../../arm-eabi/lib/thumb/fpu/cortex_m4\libc.a(lib_a-syscalls.o)
 .rodata.str1.4
                0x00000000        0x4 k:/electronics/sysgcc/arm-eabi/bin/../lib/gcc/arm-eabi/5.2.0/../../../../arm-eabi/lib/thumb/fpu/cortex_m4\libc.a(lib_a-syscalls.o)
 .debug_info    0x00000000     0x1c81 k:/electronics/sysgcc/arm-eabi/bin/../lib/gcc/arm-eabi/5.2.0/../../../../arm-eabi/lib/thumb/fpu/cortex_m4\libc.a(lib_a-syscalls.o)
 .debug_abbrev  0x00000000      0x4fc k:/electronics/sysgcc/arm-eabi/bin/../lib/gcc/arm-eabi/5.2.0/../../../../arm-eabi/lib/thumb/fpu/cortex_m4\libc.a(lib_a-syscalls.o)
 .debug_loc     0x00000000      0xd9f k:/electronics/sysgcc/arm-eabi/bin/../lib/gcc/arm-eabi/5.2.0/../../../../arm-eabi/lib/thumb/fpu/cortex_m4\libc.a(lib_a-syscalls.o)
 .debug_aranges
                0x00000000       0x20 k:/electronics/sysgcc/arm-eabi/bin/../lib/gcc/arm-eabi/5.2.0/../../../../arm-eabi/lib/thumb/fpu/cortex_m4\libc.a(lib_a-syscalls.o)
 .debug_ranges  0x00000000      0x250 k:/electronics/sysgcc/arm-eabi/bin/../lib/gcc/arm-eabi/5.2.0/../../../../arm-eabi/lib/thumb/fpu/cortex_m4\libc.a(lib_a-syscalls.o)
 .debug_line    0x00000000      0x4a6 k:/electronics/sysgcc/arm-eabi/bin/../lib/gcc/arm-eabi/5.2.0/../../../../arm-eabi/lib/thumb/fpu/cortex_m4\libc.a(lib_a-syscalls.o)
 .debug_str     0x00000000      0x8f4 k:/electronics/sysgcc/arm-eabi/bin/../lib/gcc/arm-eabi/5.2.0/../../../../arm-eabi/lib/thumb/fpu/cortex_m4\libc.a(lib_a-syscalls.o)
 .comment       0x00000000       0x12 k:/electronics/sysgcc/arm-eabi/bin/../lib/gcc/arm-eabi/5.2.0/../../../../arm-eabi/lib/thumb/fpu/cortex_m4\libc.a(lib_a-syscalls.o)
 .debug_frame   0x00000000      0x378 k:/electronics/sysgcc/arm-eabi/bin/../lib/gcc/arm-eabi/5.2.0/../../../../arm-eabi/lib/thumb/fpu/cortex_m4\libc.a(lib_a-syscalls.o)
 .ARM.attributes
                0x00000000       0x39 k:/electronics/sysgcc/arm-eabi/bin/../lib/gcc/arm-eabi/5.2.0/../../../../arm-eabi/lib/thumb/fpu/cortex_m4\libc.a(lib_a-syscalls.o)
 .text          0x00000000        0x0 k:/electronics/sysgcc/arm-eabi/bin/../lib/gcc/arm-eabi/5.2.0/../../../../arm-eabi/lib/thumb/fpu/cortex_m4\libc.a(lib_a-ctype_.o)
 .bss           0x00000000        0x0 k:/electronics/sysgcc/arm-eabi/bin/../lib/gcc/arm-eabi/5.2.0/../../../../arm-eabi/lib/thumb/fpu/cortex_m4\libc.a(lib_a-ctype_.o)
 .text          0x00000000      0x210 k:/electronics/sysgcc/arm-eabi/bin/../lib/gcc/arm-eabi/5.2.0/../../../../arm-eabi/lib/thumb/fpu/cortex_m4\libc.a(lib_a-findfp.o)
 .data          0x00000000        0x0 k:/electronics/sysgcc/arm-eabi/bin/../lib/gcc/arm-eabi/5.2.0/../../../../arm-eabi/lib/thumb/fpu/cortex_m4\libc.a(lib_a-findfp.o)
 .bss           0x00000000        0x0 k:/electronics/sysgcc/arm-eabi/bin/../lib/gcc/arm-eabi/5.2.0/../../../../arm-eabi/lib/thumb/fpu/cortex_m4\libc.a(lib_a-findfp.o)
 .debug_info    0x00000000      0xd2e k:/electronics/sysgcc/arm-eabi/bin/../lib/gcc/arm-eabi/5.2.0/../../../../arm-eabi/lib/thumb/fpu/cortex_m4\libc.a(lib_a-findfp.o)
 .debug_abbrev  0x00000000      0x350 k:/electronics/sysgcc/arm-eabi/bin/../lib/gcc/arm-eabi/5.2.0/../../../../arm-eabi/lib/thumb/fpu/cortex_m4\libc.a(lib_a-findfp.o)
 .debug_loc     0x00000000      0x27c k:/electronics/sysgcc/arm-eabi/bin/../lib/gcc/arm-eabi/5.2.0/../../../../arm-eabi/lib/thumb/fpu/cortex_m4\libc.a(lib_a-findfp.o)
 .debug_aranges
                0x00000000       0x20 k:/electronics/sysgcc/arm-eabi/bin/../lib/gcc/arm-eabi/5.2.0/../../../../arm-eabi/lib/thumb/fpu/cortex_m4\libc.a(lib_a-findfp.o)
 .debug_ranges  0x00000000       0x70 k:/electronics/sysgcc/arm-eabi/bin/../lib/gcc/arm-eabi/5.2.0/../../../../arm-eabi/lib/thumb/fpu/cortex_m4\libc.a(lib_a-findfp.o)
 .debug_line    0x00000000      0x276 k:/electronics/sysgcc/arm-eabi/bin/../lib/gcc/arm-eabi/5.2.0/../../../../arm-eabi/lib/thumb/fpu/cortex_m4\libc.a(lib_a-findfp.o)
 .debug_str     0x00000000      0x6d2 k:/electronics/sysgcc/arm-eabi/bin/../lib/gcc/arm-eabi/5.2.0/../../../../arm-eabi/lib/thumb/fpu/cortex_m4\libc.a(lib_a-findfp.o)
 .comment       0x00000000       0x12 k:/electronics/sysgcc/arm-eabi/bin/../lib/gcc/arm-eabi/5.2.0/../../../../arm-eabi/lib/thumb/fpu/cortex_m4\libc.a(lib_a-findfp.o)
 .debug_frame   0x00000000      0x124 k:/electronics/sysgcc/arm-eabi/bin/../lib/gcc/arm-eabi/5.2.0/../../../../arm-eabi/lib/thumb/fpu/cortex_m4\libc.a(lib_a-findfp.o)
 .ARM.attributes
                0x00000000       0x39 k:/electronics/sysgcc/arm-eabi/bin/../lib/gcc/arm-eabi/5.2.0/../../../../arm-eabi/lib/thumb/fpu/cortex_m4\libc.a(lib_a-findfp.o)
 .text          0x00000000      0x26c k:/electronics/sysgcc/arm-eabi/bin/../lib/gcc/arm-eabi/5.2.0/../../../../arm-eabi/lib/thumb/fpu/cortex_m4\libc.a(lib_a-freer.o)
 .data          0x00000000        0x0 k:/electronics/sysgcc/arm-eabi/bin/../lib/gcc/arm-eabi/5.2.0/../../../../arm-eabi/lib/thumb/fpu/cortex_m4\libc.a(lib_a-freer.o)
 .bss           0x00000000        0x0 k:/electronics/sysgcc/arm-eabi/bin/../lib/gcc/arm-eabi/5.2.0/../../../../arm-eabi/lib/thumb/fpu/cortex_m4\libc.a(lib_a-freer.o)
 .debug_info    0x00000000      0xc01 k:/electronics/sysgcc/arm-eabi/bin/../lib/gcc/arm-eabi/5.2.0/../../../../arm-eabi/lib/thumb/fpu/cortex_m4\libc.a(lib_a-freer.o)
 .debug_abbrev  0x00000000      0x264 k:/electronics/sysgcc/arm-eabi/bin/../lib/gcc/arm-eabi/5.2.0/../../../../arm-eabi/lib/thumb/fpu/cortex_m4\libc.a(lib_a-freer.o)
 .debug_loc     0x00000000      0x525 k:/electronics/sysgcc/arm-eabi/bin/../lib/gcc/arm-eabi/5.2.0/../../../../arm-eabi/lib/thumb/fpu/cortex_m4\libc.a(lib_a-freer.o)
 .debug_aranges
                0x00000000       0x20 k:/electronics/sysgcc/arm-eabi/bin/../lib/gcc/arm-eabi/5.2.0/../../../../arm-eabi/lib/thumb/fpu/cortex_m4\libc.a(lib_a-freer.o)
 .debug_line    0x00000000      0x23d k:/electronics/sysgcc/arm-eabi/bin/../lib/gcc/arm-eabi/5.2.0/../../../../arm-eabi/lib/thumb/fpu/cortex_m4\libc.a(lib_a-freer.o)
 .debug_str     0x00000000      0x70b k:/electronics/sysgcc/arm-eabi/bin/../lib/gcc/arm-eabi/5.2.0/../../../../arm-eabi/lib/thumb/fpu/cortex_m4\libc.a(lib_a-freer.o)
 .comment       0x00000000       0x12 k:/electronics/sysgcc/arm-eabi/bin/../lib/gcc/arm-eabi/5.2.0/../../../../arm-eabi/lib/thumb/fpu/cortex_m4\libc.a(lib_a-freer.o)
 .debug_frame   0x00000000       0x74 k:/electronics/sysgcc/arm-eabi/bin/../lib/gcc/arm-eabi/5.2.0/../../../../arm-eabi/lib/thumb/fpu/cortex_m4\libc.a(lib_a-freer.o)
 .ARM.attributes
                0x00000000       0x39 k:/electronics/sysgcc/arm-eabi/bin/../lib/gcc/arm-eabi/5.2.0/../../../../arm-eabi/lib/thumb/fpu/cortex_m4\libc.a(lib_a-freer.o)
 .text          0x00000000       0xa0 k:/electronics/sysgcc/arm-eabi/bin/../lib/gcc/arm-eabi/5.2.0/../../../../arm-eabi/lib/thumb/fpu/cortex_m4\libc.a(lib_a-fwalk.o)
 .data          0x00000000        0x0 k:/electronics/sysgcc/arm-eabi/bin/../lib/gcc/arm-eabi/5.2.0/../../../../arm-eabi/lib/thumb/fpu/cortex_m4\libc.a(lib_a-fwalk.o)
 .bss           0x00000000        0x0 k:/electronics/sysgcc/arm-eabi/bin/../lib/gcc/arm-eabi/5.2.0/../../../../arm-eabi/lib/thumb/fpu/cortex_m4\libc.a(lib_a-fwalk.o)
 .debug_info    0x00000000      0x9a5 k:/electronics/sysgcc/arm-eabi/bin/../lib/gcc/arm-eabi/5.2.0/../../../../arm-eabi/lib/thumb/fpu/cortex_m4\libc.a(lib_a-fwalk.o)
 .debug_abbrev  0x00000000      0x1c2 k:/electronics/sysgcc/arm-eabi/bin/../lib/gcc/arm-eabi/5.2.0/../../../../arm-eabi/lib/thumb/fpu/cortex_m4\libc.a(lib_a-fwalk.o)
 .debug_loc     0x00000000      0x207 k:/electronics/sysgcc/arm-eabi/bin/../lib/gcc/arm-eabi/5.2.0/../../../../arm-eabi/lib/thumb/fpu/cortex_m4\libc.a(lib_a-fwalk.o)
 .debug_aranges
                0x00000000       0x20 k:/electronics/sysgcc/arm-eabi/bin/../lib/gcc/arm-eabi/5.2.0/../../../../arm-eabi/lib/thumb/fpu/cortex_m4\libc.a(lib_a-fwalk.o)
 .debug_line    0x00000000      0x183 k:/electronics/sysgcc/arm-eabi/bin/../lib/gcc/arm-eabi/5.2.0/../../../../arm-eabi/lib/thumb/fpu/cortex_m4\libc.a(lib_a-fwalk.o)
 .debug_str     0x00000000      0x5c1 k:/electronics/sysgcc/arm-eabi/bin/../lib/gcc/arm-eabi/5.2.0/../../../../arm-eabi/lib/thumb/fpu/cortex_m4\libc.a(lib_a-fwalk.o)
 .comment       0x00000000       0x12 k:/electronics/sysgcc/arm-eabi/bin/../lib/gcc/arm-eabi/5.2.0/../../../../arm-eabi/lib/thumb/fpu/cortex_m4\libc.a(lib_a-fwalk.o)
 .debug_frame   0x00000000       0x54 k:/electronics/sysgcc/arm-eabi/bin/../lib/gcc/arm-eabi/5.2.0/../../../../arm-eabi/lib/thumb/fpu/cortex_m4\libc.a(lib_a-fwalk.o)
 .ARM.attributes
                0x00000000       0x39 k:/electronics/sysgcc/arm-eabi/bin/../lib/gcc/arm-eabi/5.2.0/../../../../arm-eabi/lib/thumb/fpu/cortex_m4\libc.a(lib_a-fwalk.o)
 .text          0x00000000        0x0 k:/electronics/sysgcc/arm-eabi/bin/../lib/gcc/arm-eabi/5.2.0/../../../../arm-eabi/lib/thumb/fpu/cortex_m4\libc.a(lib_a-impure.o)
 .bss           0x00000000        0x0 k:/electronics/sysgcc/arm-eabi/bin/../lib/gcc/arm-eabi/5.2.0/../../../../arm-eabi/lib/thumb/fpu/cortex_m4\libc.a(lib_a-impure.o)
 .rodata        0x00000000        0x4 k:/electronics/sysgcc/arm-eabi/bin/../lib/gcc/arm-eabi/5.2.0/../../../../arm-eabi/lib/thumb/fpu/cortex_m4\libc.a(lib_a-impure.o)
 .text          0x00000000       0xa4 k:/electronics/sysgcc/arm-eabi/bin/../lib/gcc/arm-eabi/5.2.0/../../../../arm-eabi/lib/thumb/fpu/cortex_m4\libc.a(lib_a-reent.o)
 .data          0x00000000        0x0 k:/electronics/sysgcc/arm-eabi/bin/../lib/gcc/arm-eabi/5.2.0/../../../../arm-eabi/lib/thumb/fpu/cortex_m4\libc.a(lib_a-reent.o)
 .bss           0x00000000        0x0 k:/electronics/sysgcc/arm-eabi/bin/../lib/gcc/arm-eabi/5.2.0/../../../../arm-eabi/lib/thumb/fpu/cortex_m4\libc.a(lib_a-reent.o)
 .debug_info    0x00000000      0x9fb k:/electronics/sysgcc/arm-eabi/bin/../lib/gcc/arm-eabi/5.2.0/../../../../arm-eabi/lib/thumb/fpu/cortex_m4\libc.a(lib_a-reent.o)
 .debug_abbrev  0x00000000      0x25c k:/electronics/sysgcc/arm-eabi/bin/../lib/gcc/arm-eabi/5.2.0/../../../../arm-eabi/lib/thumb/fpu/cortex_m4\libc.a(lib_a-reent.o)
 .debug_loc     0x00000000      0x11d k:/electronics/sysgcc/arm-eabi/bin/../lib/gcc/arm-eabi/5.2.0/../../../../arm-eabi/lib/thumb/fpu/cortex_m4\libc.a(lib_a-reent.o)
 .debug_aranges
                0x00000000       0x20 k:/electronics/sysgcc/arm-eabi/bin/../lib/gcc/arm-eabi/5.2.0/../../../../arm-eabi/lib/thumb/fpu/cortex_m4\libc.a(lib_a-reent.o)
 .debug_line    0x00000000      0x166 k:/electronics/sysgcc/arm-eabi/bin/../lib/gcc/arm-eabi/5.2.0/../../../../arm-eabi/lib/thumb/fpu/cortex_m4\libc.a(lib_a-reent.o)
 .debug_str     0x00000000      0x5db k:/electronics/sysgcc/arm-eabi/bin/../lib/gcc/arm-eabi/5.2.0/../../../../arm-eabi/lib/thumb/fpu/cortex_m4\libc.a(lib_a-reent.o)
 .comment       0x00000000       0x12 k:/electronics/sysgcc/arm-eabi/bin/../lib/gcc/arm-eabi/5.2.0/../../../../arm-eabi/lib/thumb/fpu/cortex_m4\libc.a(lib_a-reent.o)
 .debug_frame   0x00000000       0x58 k:/electronics/sysgcc/arm-eabi/bin/../lib/gcc/arm-eabi/5.2.0/../../../../arm-eabi/lib/thumb/fpu/cortex_m4\libc.a(lib_a-reent.o)
 .ARM.attributes
                0x00000000       0x39 k:/electronics/sysgcc/arm-eabi/bin/../lib/gcc/arm-eabi/5.2.0/../../../../arm-eabi/lib/thumb/fpu/cortex_m4\libc.a(lib_a-reent.o)
 COMMON         0x00000000        0x4 k:/electronics/sysgcc/arm-eabi/bin/../lib/gcc/arm-eabi/5.2.0/../../../../arm-eabi/lib/thumb/fpu/cortex_m4\libc.a(lib_a-reent.o)
 .text          0x00000000       0x88 k:/electronics/sysgcc/arm-eabi/bin/../lib/gcc/arm-eabi/5.2.0/../../../../arm-eabi/lib/thumb/fpu/cortex_m4\libc.a(lib_a-stdio.o)
 .data          0x00000000        0x0 k:/electronics/sysgcc/arm-eabi/bin/../lib/gcc/arm-eabi/5.2.0/../../../../arm-eabi/lib/thumb/fpu/cortex_m4\libc.a(lib_a-stdio.o)
 .bss           0x00000000        0x0 k:/electronics/sysgcc/arm-eabi/bin/../lib/gcc/arm-eabi/5.2.0/../../../../arm-eabi/lib/thumb/fpu/cortex_m4\libc.a(lib_a-stdio.o)
 .debug_info    0x00000000      0xb29 k:/electronics/sysgcc/arm-eabi/bin/../lib/gcc/arm-eabi/5.2.0/../../../../arm-eabi/lib/thumb/fpu/cortex_m4\libc.a(lib_a-stdio.o)
 .debug_abbrev  0x00000000      0x22a k:/electronics/sysgcc/arm-eabi/bin/../lib/gcc/arm-eabi/5.2.0/../../../../arm-eabi/lib/thumb/fpu/cortex_m4\libc.a(lib_a-stdio.o)
 .debug_loc     0x00000000      0x2bf k:/electronics/sysgcc/arm-eabi/bin/../lib/gcc/arm-eabi/5.2.0/../../../../arm-eabi/lib/thumb/fpu/cortex_m4\libc.a(lib_a-stdio.o)
 .debug_aranges
                0x00000000       0x20 k:/electronics/sysgcc/arm-eabi/bin/../lib/gcc/arm-eabi/5.2.0/../../../../arm-eabi/lib/thumb/fpu/cortex_m4\libc.a(lib_a-stdio.o)
 .debug_line    0x00000000      0x175 k:/electronics/sysgcc/arm-eabi/bin/../lib/gcc/arm-eabi/5.2.0/../../../../arm-eabi/lib/thumb/fpu/cortex_m4\libc.a(lib_a-stdio.o)
 .debug_str     0x00000000      0x610 k:/electronics/sysgcc/arm-eabi/bin/../lib/gcc/arm-eabi/5.2.0/../../../../arm-eabi/lib/thumb/fpu/cortex_m4\libc.a(lib_a-stdio.o)
 .comment       0x00000000       0x12 k:/electronics/sysgcc/arm-eabi/bin/../lib/gcc/arm-eabi/5.2.0/../../../../arm-eabi/lib/thumb/fpu/cortex_m4\libc.a(lib_a-stdio.o)
 .debug_frame   0x00000000       0x88 k:/electronics/sysgcc/arm-eabi/bin/../lib/gcc/arm-eabi/5.2.0/../../../../arm-eabi/lib/thumb/fpu/cortex_m4\libc.a(lib_a-stdio.o)
 .ARM.attributes
                0x00000000       0x39 k:/electronics/sysgcc/arm-eabi/bin/../lib/gcc/arm-eabi/5.2.0/../../../../arm-eabi/lib/thumb/fpu/cortex_m4\libc.a(lib_a-stdio.o)
 .text          0x00000000       0x2c k:/electronics/sysgcc/arm-eabi/bin/../lib/gcc/arm-eabi/5.2.0/../../../../arm-eabi/lib/thumb/fpu/cortex_m4\libc.a(lib_a-writer.o)
 .data          0x00000000        0x0 k:/electronics/sysgcc/arm-eabi/bin/../lib/gcc/arm-eabi/5.2.0/../../../../arm-eabi/lib/thumb/fpu/cortex_m4\libc.a(lib_a-writer.o)
 .bss           0x00000000        0x0 k:/electronics/sysgcc/arm-eabi/bin/../lib/gcc/arm-eabi/5.2.0/../../../../arm-eabi/lib/thumb/fpu/cortex_m4\libc.a(lib_a-writer.o)
 .debug_info    0x00000000      0x933 k:/electronics/sysgcc/arm-eabi/bin/../lib/gcc/arm-eabi/5.2.0/../../../../arm-eabi/lib/thumb/fpu/cortex_m4\libc.a(lib_a-writer.o)
 .debug_abbrev  0x00000000      0x1fb k:/electronics/sysgcc/arm-eabi/bin/../lib/gcc/arm-eabi/5.2.0/../../../../arm-eabi/lib/thumb/fpu/cortex_m4\libc.a(lib_a-writer.o)
 .debug_loc     0x00000000       0xb0 k:/electronics/sysgcc/arm-eabi/bin/../lib/gcc/arm-eabi/5.2.0/../../../../arm-eabi/lib/thumb/fpu/cortex_m4\libc.a(lib_a-writer.o)
 .debug_aranges
                0x00000000       0x20 k:/electronics/sysgcc/arm-eabi/bin/../lib/gcc/arm-eabi/5.2.0/../../../../arm-eabi/lib/thumb/fpu/cortex_m4\libc.a(lib_a-writer.o)
 .debug_ranges  0x00000000       0x28 k:/electronics/sysgcc/arm-eabi/bin/../lib/gcc/arm-eabi/5.2.0/../../../../arm-eabi/lib/thumb/fpu/cortex_m4\libc.a(lib_a-writer.o)
 .debug_line    0x00000000      0x13e k:/electronics/sysgcc/arm-eabi/bin/../lib/gcc/arm-eabi/5.2.0/../../../../arm-eabi/lib/thumb/fpu/cortex_m4\libc.a(lib_a-writer.o)
 .debug_str     0x00000000      0x5b0 k:/electronics/sysgcc/arm-eabi/bin/../lib/gcc/arm-eabi/5.2.0/../../../../arm-eabi/lib/thumb/fpu/cortex_m4\libc.a(lib_a-writer.o)
 .comment       0x00000000       0x12 k:/electronics/sysgcc/arm-eabi/bin/../lib/gcc/arm-eabi/5.2.0/../../../../arm-eabi/lib/thumb/fpu/cortex_m4\libc.a(lib_a-writer.o)
 .debug_frame   0x00000000       0x2c k:/electronics/sysgcc/arm-eabi/bin/../lib/gcc/arm-eabi/5.2.0/../../../../arm-eabi/lib/thumb/fpu/cortex_m4\libc.a(lib_a-writer.o)
 .ARM.attributes
                0x00000000       0x39 k:/electronics/sysgcc/arm-eabi/bin/../lib/gcc/arm-eabi/5.2.0/../../../../arm-eabi/lib/thumb/fpu/cortex_m4\libc.a(lib_a-writer.o)
 .text          0x00000000       0x24 k:/electronics/sysgcc/arm-eabi/bin/../lib/gcc/arm-eabi/5.2.0/../../../../arm-eabi/lib/thumb/fpu/cortex_m4\libc.a(lib_a-closer.o)
 .data          0x00000000        0x0 k:/electronics/sysgcc/arm-eabi/bin/../lib/gcc/arm-eabi/5.2.0/../../../../arm-eabi/lib/thumb/fpu/cortex_m4\libc.a(lib_a-closer.o)
 .bss           0x00000000        0x0 k:/electronics/sysgcc/arm-eabi/bin/../lib/gcc/arm-eabi/5.2.0/../../../../arm-eabi/lib/thumb/fpu/cortex_m4\libc.a(lib_a-closer.o)
 .debug_info    0x00000000      0x8eb k:/electronics/sysgcc/arm-eabi/bin/../lib/gcc/arm-eabi/5.2.0/../../../../arm-eabi/lib/thumb/fpu/cortex_m4\libc.a(lib_a-closer.o)
 .debug_abbrev  0x00000000      0x1f6 k:/electronics/sysgcc/arm-eabi/bin/../lib/gcc/arm-eabi/5.2.0/../../../../arm-eabi/lib/thumb/fpu/cortex_m4\libc.a(lib_a-closer.o)
 .debug_loc     0x00000000       0x4d k:/electronics/sysgcc/arm-eabi/bin/../lib/gcc/arm-eabi/5.2.0/../../../../arm-eabi/lib/thumb/fpu/cortex_m4\libc.a(lib_a-closer.o)
 .debug_aranges
                0x00000000       0x20 k:/electronics/sysgcc/arm-eabi/bin/../lib/gcc/arm-eabi/5.2.0/../../../../arm-eabi/lib/thumb/fpu/cortex_m4\libc.a(lib_a-closer.o)
 .debug_ranges  0x00000000       0x20 k:/electronics/sysgcc/arm-eabi/bin/../lib/gcc/arm-eabi/5.2.0/../../../../arm-eabi/lib/thumb/fpu/cortex_m4\libc.a(lib_a-closer.o)
 .debug_line    0x00000000      0x13c k:/electronics/sysgcc/arm-eabi/bin/../lib/gcc/arm-eabi/5.2.0/../../../../arm-eabi/lib/thumb/fpu/cortex_m4\libc.a(lib_a-closer.o)
 .debug_str     0x00000000      0x5a0 k:/electronics/sysgcc/arm-eabi/bin/../lib/gcc/arm-eabi/5.2.0/../../../../arm-eabi/lib/thumb/fpu/cortex_m4\libc.a(lib_a-closer.o)
 .comment       0x00000000       0x12 k:/electronics/sysgcc/arm-eabi/bin/../lib/gcc/arm-eabi/5.2.0/../../../../arm-eabi/lib/thumb/fpu/cortex_m4\libc.a(lib_a-closer.o)
 .debug_frame   0x00000000       0x2c k:/electronics/sysgcc/arm-eabi/bin/../lib/gcc/arm-eabi/5.2.0/../../../../arm-eabi/lib/thumb/fpu/cortex_m4\libc.a(lib_a-closer.o)
 .ARM.attributes
                0x00000000       0x39 k:/electronics/sysgcc/arm-eabi/bin/../lib/gcc/arm-eabi/5.2.0/../../../../arm-eabi/lib/thumb/fpu/cortex_m4\libc.a(lib_a-closer.o)
 .text          0x00000000       0x94 k:/electronics/sysgcc/arm-eabi/bin/../lib/gcc/arm-eabi/5.2.0/../../../../arm-eabi/lib/thumb/fpu/cortex_m4\libc.a(lib_a-fclose.o)
 .data          0x00000000        0x0 k:/electronics/sysgcc/arm-eabi/bin/../lib/gcc/arm-eabi/5.2.0/../../../../arm-eabi/lib/thumb/fpu/cortex_m4\libc.a(lib_a-fclose.o)
 .bss           0x00000000        0x0 k:/electronics/sysgcc/arm-eabi/bin/../lib/gcc/arm-eabi/5.2.0/../../../../arm-eabi/lib/thumb/fpu/cortex_m4\libc.a(lib_a-fclose.o)
 .debug_info    0x00000000      0xa17 k:/electronics/sysgcc/arm-eabi/bin/../lib/gcc/arm-eabi/5.2.0/../../../../arm-eabi/lib/thumb/fpu/cortex_m4\libc.a(lib_a-fclose.o)
 .debug_abbrev  0x00000000      0x293 k:/electronics/sysgcc/arm-eabi/bin/../lib/gcc/arm-eabi/5.2.0/../../../../arm-eabi/lib/thumb/fpu/cortex_m4\libc.a(lib_a-fclose.o)
 .debug_loc     0x00000000      0x151 k:/electronics/sysgcc/arm-eabi/bin/../lib/gcc/arm-eabi/5.2.0/../../../../arm-eabi/lib/thumb/fpu/cortex_m4\libc.a(lib_a-fclose.o)
 .debug_aranges
                0x00000000       0x20 k:/electronics/sysgcc/arm-eabi/bin/../lib/gcc/arm-eabi/5.2.0/../../../../arm-eabi/lib/thumb/fpu/cortex_m4\libc.a(lib_a-fclose.o)
 .debug_ranges  0x00000000       0x30 k:/electronics/sysgcc/arm-eabi/bin/../lib/gcc/arm-eabi/5.2.0/../../../../arm-eabi/lib/thumb/fpu/cortex_m4\libc.a(lib_a-fclose.o)
 .debug_line    0x00000000      0x1ad k:/electronics/sysgcc/arm-eabi/bin/../lib/gcc/arm-eabi/5.2.0/../../../../arm-eabi/lib/thumb/fpu/cortex_m4\libc.a(lib_a-fclose.o)
 .debug_str     0x00000000      0x609 k:/electronics/sysgcc/arm-eabi/bin/../lib/gcc/arm-eabi/5.2.0/../../../../arm-eabi/lib/thumb/fpu/cortex_m4\libc.a(lib_a-fclose.o)
 .comment       0x00000000       0x12 k:/electronics/sysgcc/arm-eabi/bin/../lib/gcc/arm-eabi/5.2.0/../../../../arm-eabi/lib/thumb/fpu/cortex_m4\libc.a(lib_a-fclose.o)
 .debug_frame   0x00000000       0x44 k:/electronics/sysgcc/arm-eabi/bin/../lib/gcc/arm-eabi/5.2.0/../../../../arm-eabi/lib/thumb/fpu/cortex_m4\libc.a(lib_a-fclose.o)
 .ARM.attributes
                0x00000000       0x39 k:/electronics/sysgcc/arm-eabi/bin/../lib/gcc/arm-eabi/5.2.0/../../../../arm-eabi/lib/thumb/fpu/cortex_m4\libc.a(lib_a-fclose.o)
 .text          0x00000000      0x198 k:/electronics/sysgcc/arm-eabi/bin/../lib/gcc/arm-eabi/5.2.0/../../../../arm-eabi/lib/thumb/fpu/cortex_m4\libc.a(lib_a-fflush.o)
 .data          0x00000000        0x0 k:/electronics/sysgcc/arm-eabi/bin/../lib/gcc/arm-eabi/5.2.0/../../../../arm-eabi/lib/thumb/fpu/cortex_m4\libc.a(lib_a-fflush.o)
 .bss           0x00000000        0x0 k:/electronics/sysgcc/arm-eabi/bin/../lib/gcc/arm-eabi/5.2.0/../../../../arm-eabi/lib/thumb/fpu/cortex_m4\libc.a(lib_a-fflush.o)
 .debug_info    0x00000000      0xa84 k:/electronics/sysgcc/arm-eabi/bin/../lib/gcc/arm-eabi/5.2.0/../../../../arm-eabi/lib/thumb/fpu/cortex_m4\libc.a(lib_a-fflush.o)
 .debug_abbrev  0x00000000      0x281 k:/electronics/sysgcc/arm-eabi/bin/../lib/gcc/arm-eabi/5.2.0/../../../../arm-eabi/lib/thumb/fpu/cortex_m4\libc.a(lib_a-fflush.o)
 .debug_loc     0x00000000      0x2ac k:/electronics/sysgcc/arm-eabi/bin/../lib/gcc/arm-eabi/5.2.0/../../../../arm-eabi/lib/thumb/fpu/cortex_m4\libc.a(lib_a-fflush.o)
 .debug_aranges
                0x00000000       0x20 k:/electronics/sysgcc/arm-eabi/bin/../lib/gcc/arm-eabi/5.2.0/../../../../arm-eabi/lib/thumb/fpu/cortex_m4\libc.a(lib_a-fflush.o)
 .debug_ranges  0x00000000       0x60 k:/electronics/sysgcc/arm-eabi/bin/../lib/gcc/arm-eabi/5.2.0/../../../../arm-eabi/lib/thumb/fpu/cortex_m4\libc.a(lib_a-fflush.o)
 .debug_line    0x00000000      0x23f k:/electronics/sysgcc/arm-eabi/bin/../lib/gcc/arm-eabi/5.2.0/../../../../arm-eabi/lib/thumb/fpu/cortex_m4\libc.a(lib_a-fflush.o)
 .debug_str     0x00000000      0x61c k:/electronics/sysgcc/arm-eabi/bin/../lib/gcc/arm-eabi/5.2.0/../../../../arm-eabi/lib/thumb/fpu/cortex_m4\libc.a(lib_a-fflush.o)
 .comment       0x00000000       0x12 k:/electronics/sysgcc/arm-eabi/bin/../lib/gcc/arm-eabi/5.2.0/../../../../arm-eabi/lib/thumb/fpu/cortex_m4\libc.a(lib_a-fflush.o)
 .debug_frame   0x00000000       0x6c k:/electronics/sysgcc/arm-eabi/bin/../lib/gcc/arm-eabi/5.2.0/../../../../arm-eabi/lib/thumb/fpu/cortex_m4\libc.a(lib_a-fflush.o)
 .ARM.attributes
                0x00000000       0x39 k:/electronics/sysgcc/arm-eabi/bin/../lib/gcc/arm-eabi/5.2.0/../../../../arm-eabi/lib/thumb/fpu/cortex_m4\libc.a(lib_a-fflush.o)
 .text          0x00000000       0x2c k:/electronics/sysgcc/arm-eabi/bin/../lib/gcc/arm-eabi/5.2.0/../../../../arm-eabi/lib/thumb/fpu/cortex_m4\libc.a(lib_a-lseekr.o)
 .data          0x00000000        0x0 k:/electronics/sysgcc/arm-eabi/bin/../lib/gcc/arm-eabi/5.2.0/../../../../arm-eabi/lib/thumb/fpu/cortex_m4\libc.a(lib_a-lseekr.o)
 .bss           0x00000000        0x0 k:/electronics/sysgcc/arm-eabi/bin/../lib/gcc/arm-eabi/5.2.0/../../../../arm-eabi/lib/thumb/fpu/cortex_m4\libc.a(lib_a-lseekr.o)
 .debug_info    0x00000000      0x916 k:/electronics/sysgcc/arm-eabi/bin/../lib/gcc/arm-eabi/5.2.0/../../../../arm-eabi/lib/thumb/fpu/cortex_m4\libc.a(lib_a-lseekr.o)
 .debug_abbrev  0x00000000      0x205 k:/electronics/sysgcc/arm-eabi/bin/../lib/gcc/arm-eabi/5.2.0/../../../../arm-eabi/lib/thumb/fpu/cortex_m4\libc.a(lib_a-lseekr.o)
 .debug_loc     0x00000000       0xb0 k:/electronics/sysgcc/arm-eabi/bin/../lib/gcc/arm-eabi/5.2.0/../../../../arm-eabi/lib/thumb/fpu/cortex_m4\libc.a(lib_a-lseekr.o)
 .debug_aranges
                0x00000000       0x20 k:/electronics/sysgcc/arm-eabi/bin/../lib/gcc/arm-eabi/5.2.0/../../../../arm-eabi/lib/thumb/fpu/cortex_m4\libc.a(lib_a-lseekr.o)
 .debug_ranges  0x00000000       0x28 k:/electronics/sysgcc/arm-eabi/bin/../lib/gcc/arm-eabi/5.2.0/../../../../arm-eabi/lib/thumb/fpu/cortex_m4\libc.a(lib_a-lseekr.o)
 .debug_line    0x00000000      0x13e k:/electronics/sysgcc/arm-eabi/bin/../lib/gcc/arm-eabi/5.2.0/../../../../arm-eabi/lib/thumb/fpu/cortex_m4\libc.a(lib_a-lseekr.o)
 .debug_str     0x00000000      0x5ae k:/electronics/sysgcc/arm-eabi/bin/../lib/gcc/arm-eabi/5.2.0/../../../../arm-eabi/lib/thumb/fpu/cortex_m4\libc.a(lib_a-lseekr.o)
 .comment       0x00000000       0x12 k:/electronics/sysgcc/arm-eabi/bin/../lib/gcc/arm-eabi/5.2.0/../../../../arm-eabi/lib/thumb/fpu/cortex_m4\libc.a(lib_a-lseekr.o)
 .debug_frame   0x00000000       0x2c k:/electronics/sysgcc/arm-eabi/bin/../lib/gcc/arm-eabi/5.2.0/../../../../arm-eabi/lib/thumb/fpu/cortex_m4\libc.a(lib_a-lseekr.o)
 .ARM.attributes
                0x00000000       0x39 k:/electronics/sysgcc/arm-eabi/bin/../lib/gcc/arm-eabi/5.2.0/../../../../arm-eabi/lib/thumb/fpu/cortex_m4\libc.a(lib_a-lseekr.o)
 .text          0x00000000       0x2c k:/electronics/sysgcc/arm-eabi/bin/../lib/gcc/arm-eabi/5.2.0/../../../../arm-eabi/lib/thumb/fpu/cortex_m4\libc.a(lib_a-readr.o)
 .data          0x00000000        0x0 k:/electronics/sysgcc/arm-eabi/bin/../lib/gcc/arm-eabi/5.2.0/../../../../arm-eabi/lib/thumb/fpu/cortex_m4\libc.a(lib_a-readr.o)
 .bss           0x00000000        0x0 k:/electronics/sysgcc/arm-eabi/bin/../lib/gcc/arm-eabi/5.2.0/../../../../arm-eabi/lib/thumb/fpu/cortex_m4\libc.a(lib_a-readr.o)
 .debug_info    0x00000000      0x92c k:/electronics/sysgcc/arm-eabi/bin/../lib/gcc/arm-eabi/5.2.0/../../../../arm-eabi/lib/thumb/fpu/cortex_m4\libc.a(lib_a-readr.o)
 .debug_abbrev  0x00000000      0x1f6 k:/electronics/sysgcc/arm-eabi/bin/../lib/gcc/arm-eabi/5.2.0/../../../../arm-eabi/lib/thumb/fpu/cortex_m4\libc.a(lib_a-readr.o)
 .debug_loc     0x00000000       0xb0 k:/electronics/sysgcc/arm-eabi/bin/../lib/gcc/arm-eabi/5.2.0/../../../../arm-eabi/lib/thumb/fpu/cortex_m4\libc.a(lib_a-readr.o)
 .debug_aranges
                0x00000000       0x20 k:/electronics/sysgcc/arm-eabi/bin/../lib/gcc/arm-eabi/5.2.0/../../../../arm-eabi/lib/thumb/fpu/cortex_m4\libc.a(lib_a-readr.o)
 .debug_ranges  0x00000000       0x28 k:/electronics/sysgcc/arm-eabi/bin/../lib/gcc/arm-eabi/5.2.0/../../../../arm-eabi/lib/thumb/fpu/cortex_m4\libc.a(lib_a-readr.o)
 .debug_line    0x00000000      0x13d k:/electronics/sysgcc/arm-eabi/bin/../lib/gcc/arm-eabi/5.2.0/../../../../arm-eabi/lib/thumb/fpu/cortex_m4\libc.a(lib_a-readr.o)
 .debug_str     0x00000000      0x5ae k:/electronics/sysgcc/arm-eabi/bin/../lib/gcc/arm-eabi/5.2.0/../../../../arm-eabi/lib/thumb/fpu/cortex_m4\libc.a(lib_a-readr.o)
 .comment       0x00000000       0x12 k:/electronics/sysgcc/arm-eabi/bin/../lib/gcc/arm-eabi/5.2.0/../../../../arm-eabi/lib/thumb/fpu/cortex_m4\libc.a(lib_a-readr.o)
 .debug_frame   0x00000000       0x2c k:/electronics/sysgcc/arm-eabi/bin/../lib/gcc/arm-eabi/5.2.0/../../../../arm-eabi/lib/thumb/fpu/cortex_m4\libc.a(lib_a-readr.o)
 .ARM.attributes
                0x00000000       0x39 k:/electronics/sysgcc/arm-eabi/bin/../lib/gcc/arm-eabi/5.2.0/../../../../arm-eabi/lib/thumb/fpu/cortex_m4\libc.a(lib_a-readr.o)

Memory Configuration

Name             Origin             Length             Attributes
FLASH            0x08000000         0x00100000         xr
SRAM             0x20000000         0x00020000         xrw
CCMRAM           0x10000000         0x00010000         xrw
*default*        0x00000000         0xffffffff

Linker script and memory map

START GROUP
LOAD Debug/asinf.o
LOAD Debug/matmath.o
LOAD Debug/memory_mgmt.o
LOAD Debug/twb_common.o
LOAD Debug/twb_debug.o
LOAD Debug/twb_i2c.o
LOAD Debug/twb_i2c_stm32f4.o
LOAD Debug/twb_leds.o
LOAD Debug/twb_math.o
LOAD Debug/twb_serial_eeprom.o
LOAD Debug/twb_strings.o
LOAD Debug/twb_timer.o
LOAD Debug/commo.o
LOAD Debug/msg_parser.o
LOAD Debug/twb_usb.o
LOAD Debug/usbd_cdc_core.o
LOAD Debug/usbd_core.o
LOAD Debug/usbd_desc.o
LOAD Debug/usbd_ioreq.o
LOAD Debug/usbd_req.o
LOAD Debug/usbd_usr.o
LOAD Debug/usb_bsp.o
LOAD Debug/usb_core.o
LOAD Debug/usb_core_cfg.o
LOAD Debug/usb_core_ep.o
LOAD Debug/usb_core_int.o
LOAD Debug/usb_core_io.o
LOAD Debug/usb_dcd.o
LOAD Debug/usb_dcd_int.o
LOAD Debug/wifi.o
LOAD Debug/Median.o
LOAD Debug/autopilot.o
LOAD Debug/ctrl_loop.o
LOAD Debug/ctrl_loop_commo.o
LOAD Debug/ctrl_loop_pid.o
LOAD Debug/pid.o
LOAD Debug/pwm_capture.o
LOAD Debug/pwm_source.o
LOAD Debug/main.o
LOAD Debug/nivek_system.o
LOAD Debug/adxl345.o
LOAD Debug/bmp085.o
LOAD Debug/complementary.o
LOAD Debug/kalman.o
LOAD Debug/kalman_calc.o
LOAD Debug/gps.o
LOAD Debug/hmc5883.o
LOAD Debug/itg3200.o
LOAD Debug/l3g20.o
LOAD Debug/lipo_adc.o
LOAD Debug/lsm303_acc.o
LOAD Debug/lsm303_mag.o
LOAD Debug/mpu60x0_acc.o
LOAD Debug/mpu60x0_gryo.o
LOAD Debug/ms5611.o
LOAD Debug/snsr_actions.o
LOAD Debug/snsr_commo.o
LOAD Debug/snsr_main.o
LOAD Debug/snsr_mgmt.o
LOAD Debug/snsr_zero.o
LOAD Debug/sonar.o
LOAD Debug/stm32f4xx_it.o
LOAD Debug/cli.o
LOAD Debug/system_stm32f4xx.o
LOAD Debug/twb_config.o
LOAD Debug/misc.o
LOAD Debug/stm32f4xx_adc.o
LOAD Debug/stm32f4xx_dma.o
LOAD Debug/stm32f4xx_exti.o
LOAD Debug/stm32f4xx_gpio.o
LOAD Debug/stm32f4xx_i2c.o
LOAD Debug/stm32f4xx_rcc.o
LOAD Debug/stm32f4xx_syscfg.o
LOAD Debug/stm32f4xx_tim.o
LOAD Debug/stm32f4xx_usart.o
LOAD Debug/startup_stm32f4xx.o
END GROUP
LOAD k:/electronics/sysgcc/arm-eabi/bin/../lib/gcc/arm-eabi/5.2.0/../../../../arm-eabi/lib/thumb/fpu/cortex_m4\libstdc++.a
LOAD k:/electronics/sysgcc/arm-eabi/bin/../lib/gcc/arm-eabi/5.2.0/../../../../arm-eabi/lib/thumb/fpu/cortex_m4\libm.a
START GROUP
LOAD k:/electronics/sysgcc/arm-eabi/bin/../lib/gcc/arm-eabi/5.2.0/thumb/fpu/cortex_m4\libgcc.a
LOAD k:/electronics/sysgcc/arm-eabi/bin/../lib/gcc/arm-eabi/5.2.0/../../../../arm-eabi/lib/thumb/fpu/cortex_m4\libc.a
END GROUP
                0x20020000                _estack = 0x20020000

.isr_vector     0x08000000      0x188
                0x08000000                . = ALIGN (0x4)
 *(.isr_vector)
 .isr_vector    0x08000000      0x188 Debug/startup_stm32f4xx.o
                0x08000000                g_pfnVectors
                0x08000188                . = ALIGN (0x4)

.text           0x080001a0    0x21f40
                0x080001a0                . = ALIGN (0x4)
                0x080001a0                _stext = .
 *(.text)
 .text          0x080001a0      0x354 k:/electronics/sysgcc/arm-eabi/bin/../lib/gcc/arm-eabi/5.2.0/../../../../arm-eabi/lib/thumb/fpu/cortex_m4\libm.a(lib_a-wf_pow.o)
                0x080001a0                powf
 .text          0x080004f4      0x5fc k:/electronics/sysgcc/arm-eabi/bin/../lib/gcc/arm-eabi/5.2.0/../../../../arm-eabi/lib/thumb/fpu/cortex_m4\libm.a(lib_a-ef_pow.o)
                0x080004f4                __ieee754_powf
 .text          0x08000af0       0xa4 k:/electronics/sysgcc/arm-eabi/bin/../lib/gcc/arm-eabi/5.2.0/../../../../arm-eabi/lib/thumb/fpu/cortex_m4\libm.a(lib_a-ef_sqrt.o)
                0x08000af0                __ieee754_sqrtf
 .text          0x08000b94        0x4 k:/electronics/sysgcc/arm-eabi/bin/../lib/gcc/arm-eabi/5.2.0/../../../../arm-eabi/lib/thumb/fpu/cortex_m4\libm.a(lib_a-s_matherr.o)
                0x08000b94                matherr
 .text          0x08000b98      0x128 k:/electronics/sysgcc/arm-eabi/bin/../lib/gcc/arm-eabi/5.2.0/../../../../arm-eabi/lib/thumb/fpu/cortex_m4\libm.a(lib_a-s_rint.o)
                0x08000b98                rint
 .text          0x08000cc0       0x10 k:/electronics/sysgcc/arm-eabi/bin/../lib/gcc/arm-eabi/5.2.0/../../../../arm-eabi/lib/thumb/fpu/cortex_m4\libm.a(lib_a-sf_fabs.o)
                0x08000cc0                fabsf
 .text          0x08000cd0       0x14 k:/electronics/sysgcc/arm-eabi/bin/../lib/gcc/arm-eabi/5.2.0/../../../../arm-eabi/lib/thumb/fpu/cortex_m4\libm.a(lib_a-sf_finite.o)
                0x08000cd0                finitef
 .text          0x08000ce4       0x38 k:/electronics/sysgcc/arm-eabi/bin/../lib/gcc/arm-eabi/5.2.0/../../../../arm-eabi/lib/thumb/fpu/cortex_m4\libm.a(lib_a-sf_fpclassify.o)
                0x08000ce4                __fpclassifyf
 .text          0x08000d1c        0xc k:/electronics/sysgcc/arm-eabi/bin/../lib/gcc/arm-eabi/5.2.0/../../../../arm-eabi/lib/thumb/fpu/cortex_m4\libm.a(lib_a-sf_nan.o)
                0x08000d1c                nanf
 .text          0x08000d28       0xd0 k:/electronics/sysgcc/arm-eabi/bin/../lib/gcc/arm-eabi/5.2.0/../../../../arm-eabi/lib/thumb/fpu/cortex_m4\libm.a(lib_a-sf_scalbn.o)
                0x08000d28                scalbnf
 .text          0x08000df8       0x18 k:/electronics/sysgcc/arm-eabi/bin/../lib/gcc/arm-eabi/5.2.0/../../../../arm-eabi/lib/thumb/fpu/cortex_m4\libm.a(lib_a-sf_copysign.o)
                0x08000df8                copysignf
 .text          0x08000e10      0x370 k:/electronics/sysgcc/arm-eabi/bin/../lib/gcc/arm-eabi/5.2.0/thumb/fpu/cortex_m4\libgcc.a(_arm_addsubdf3.o)
                0x08000e10                __aeabi_drsub
                0x08000e18                __aeabi_dsub
                0x08000e18                __subdf3
                0x08000e1c                __aeabi_dadd
                0x08000e1c                __adddf3
                0x08001094                __floatunsidf
                0x08001094                __aeabi_ui2d
                0x080010b4                __floatsidf
                0x080010b4                __aeabi_i2d
                0x080010d8                __aeabi_f2d
                0x080010d8                __extendsfdf2
                0x08001114                __floatundidf
                0x08001114                __aeabi_ul2d
                0x08001124                __floatdidf
                0x08001124                __aeabi_l2d
 .text          0x08001180      0x424 k:/electronics/sysgcc/arm-eabi/bin/../lib/gcc/arm-eabi/5.2.0/thumb/fpu/cortex_m4\libgcc.a(_arm_muldivdf3.o)
                0x08001180                __aeabi_dmul
                0x08001180                __muldf3
                0x080013d4                __divdf3
                0x080013d4                __aeabi_ddiv
 .text          0x080015a4      0x110 k:/electronics/sysgcc/arm-eabi/bin/../lib/gcc/arm-eabi/5.2.0/thumb/fpu/cortex_m4\libgcc.a(_arm_cmpdf2.o)
                0x080015a4                __gtdf2
                0x080015a4                __gedf2
                0x080015ac                __ltdf2
                0x080015ac                __ledf2
                0x080015b4                __nedf2
                0x080015b4                __eqdf2
                0x080015b4                __cmpdf2
                0x08001630                __aeabi_cdrcmple
                0x08001640                __aeabi_cdcmpeq
                0x08001640                __aeabi_cdcmple
                0x08001650                __aeabi_dcmpeq
                0x08001664                __aeabi_dcmplt
                0x08001678                __aeabi_dcmple
                0x0800168c                __aeabi_dcmpge
                0x080016a0                __aeabi_dcmpgt
 .text          0x080016b4       0xa0 k:/electronics/sysgcc/arm-eabi/bin/../lib/gcc/arm-eabi/5.2.0/thumb/fpu/cortex_m4\libgcc.a(_arm_truncdfsf2.o)
                0x080016b4                __truncdfsf2
                0x080016b4                __aeabi_d2f
 .text          0x08001754      0x21c k:/electronics/sysgcc/arm-eabi/bin/../lib/gcc/arm-eabi/5.2.0/thumb/fpu/cortex_m4\libgcc.a(_arm_addsubsf3.o)
                0x08001754                __aeabi_frsub
                0x0800175c                __subsf3
                0x0800175c                __aeabi_fsub
                0x08001760                __aeabi_fadd
                0x08001760                __addsf3
                0x080018c0                __aeabi_ui2f
                0x080018c0                __floatunsisf
                0x080018c8                __aeabi_i2f
                0x080018c8                __floatsisf
                0x080018e4                __aeabi_ul2f
                0x080018e4                __floatundisf
                0x080018f4                __aeabi_l2f
                0x080018f4                __floatdisf
 .text          0x08001970       0x10 k:/electronics/sysgcc/arm-eabi/bin/../lib/gcc/arm-eabi/5.2.0/../../../../arm-eabi/lib/thumb/fpu/cortex_m4\libc.a(lib_a-atoi.o)
                0x08001970                atoi
                0x08001978                _atoi_r
 .text          0x08001980      0x134 k:/electronics/sysgcc/arm-eabi/bin/../lib/gcc/arm-eabi/5.2.0/../../../../arm-eabi/lib/thumb/fpu/cortex_m4\libc.a(lib_a-memcpy.o)
                0x08001980                memcpy
 .text          0x08001ab4       0x9c k:/electronics/sysgcc/arm-eabi/bin/../lib/gcc/arm-eabi/5.2.0/../../../../arm-eabi/lib/thumb/fpu/cortex_m4\libc.a(lib_a-memset.o)
                0x08001ab4                memset
 *fill*         0x08001b50       0x10 
 .text          0x08001b60      0x2dc k:/electronics/sysgcc/arm-eabi/bin/../lib/gcc/arm-eabi/5.2.0/../../../../arm-eabi/lib/thumb/fpu/cortex_m4\libc.a(lib_a-strcmp.o)
                0x08001b68                strcmp
 .text          0x08001e3c       0xbc k:/electronics/sysgcc/arm-eabi/bin/../lib/gcc/arm-eabi/5.2.0/../../../../arm-eabi/lib/thumb/fpu/cortex_m4\libc.a(lib_a-strcpy.o)
                0x08001e3c                strcpy
 .text          0x08001ef8       0x5c k:/electronics/sysgcc/arm-eabi/bin/../lib/gcc/arm-eabi/5.2.0/../../../../arm-eabi/lib/thumb/fpu/cortex_m4\libc.a(lib_a-strlen.o)
                0x08001ef8                strlen
 .text          0x08001f54       0xa0 k:/electronics/sysgcc/arm-eabi/bin/../lib/gcc/arm-eabi/5.2.0/../../../../arm-eabi/lib/thumb/fpu/cortex_m4\libc.a(lib_a-strncmp.o)
                0x08001f54                strncmp
 .text          0x08001ff4       0x68 k:/electronics/sysgcc/arm-eabi/bin/../lib/gcc/arm-eabi/5.2.0/../../../../arm-eabi/lib/thumb/fpu/cortex_m4\libc.a(lib_a-strncpy.o)
                0x08001ff4                strncpy
 .text          0x0800205c      0x140 k:/electronics/sysgcc/arm-eabi/bin/../lib/gcc/arm-eabi/5.2.0/../../../../arm-eabi/lib/thumb/fpu/cortex_m4\libc.a(lib_a-strtol.o)
                0x0800205c                _strtol_r
                0x08002184                strtol
 *(.text*)
 .text.__twb_math_asinfTbl
                0x0800219c       0x60 Debug/asinf.o
                0x0800219c                __twb_math_asinfTbl
 .text.twb_asinf
                0x080021fc      0x1c0 Debug/asinf.o
                0x080021fc                twb_asinf
 .text.pm_malloc
                0x080023bc       0x64 Debug/memory_mgmt.o
                0x080023bc                pm_malloc
 .text.pm_printHeapSize
                0x08002420       0x1c Debug/memory_mgmt.o
                0x08002420                pm_printHeapSize
 .text.TWB_Debug_TimerStart
                0x0800243c       0x18 Debug/twb_debug.o
                0x0800243c                TWB_Debug_TimerStart
 .text.TWB_Debug_TimerEnd
                0x08002454       0x18 Debug/twb_debug.o
                0x08002454                TWB_Debug_TimerEnd
 .text.TWB_Debug_HandleTXE
                0x0800246c       0x84 Debug/twb_debug.o
                0x0800246c                TWB_Debug_HandleTXE
 .text.TWB_Debug_AddCh
                0x080024f0       0x2c Debug/twb_debug.o
                0x080024f0                TWB_Debug_AddCh
 .text.__debug_addCh
                0x0800251c       0x5c Debug/twb_debug.o
                0x0800251c                __debug_addCh
 .text.__debug_SendOverUART
                0x08002578       0x40 Debug/twb_debug.o
                0x08002578                __debug_SendOverUART
 .text.TWB_Debug_SetShouldForwardDebugOverUSB
                0x080025b8       0x2c Debug/twb_debug.o
                0x080025b8                TWB_Debug_SetShouldForwardDebugOverUSB
 .text.TWB_Debug_Print
                0x080025e4       0x34 Debug/twb_debug.o
                0x080025e4                TWB_Debug_Print
 .text.TWB_Debug_PrintInt
                0x08002618       0x38 Debug/twb_debug.o
                0x08002618                TWB_Debug_PrintInt
 .text.TWB_Debug_Print2Int
                0x08002650       0x58 Debug/twb_debug.o
                0x08002650                TWB_Debug_Print2Int
 .text.TWB_Debug_PrintHexString
                0x080026a8       0x50 Debug/twb_debug.o
                0x080026a8                TWB_Debug_PrintHexString
 .text.__twb_debug_setBaudRate
                0x080026f8       0x40 Debug/twb_debug.o
                0x080026f8                __twb_debug_setBaudRate
 .text.__twb_debug_sendStringSync
                0x08002738       0x38 Debug/twb_debug.o
                0x08002738                __twb_debug_sendStringSync
 .text.TWB_Debug_Init
                0x08002770      0x148 Debug/twb_debug.o
                0x08002770                TWB_Debug_Init
 .text.TWB_Debug_ReadDefaults
                0x080028b8       0x14 Debug/twb_debug.o
                0x080028b8                TWB_Debug_ReadDefaults
 .text.TWB_I2C_WriteBuffer
                0x080028cc       0x58 Debug/twb_i2c.o
                0x080028cc                TWB_I2C_WriteBuffer
 .text.TWB_I2C_WriteReadBuffer
                0x08002924       0x64 Debug/twb_i2c.o
                0x08002924                TWB_I2C_WriteReadBuffer
 .text.TWB_I2C_ReadRegisterValue
                0x08002988       0x80 Debug/twb_i2c.o
                0x08002988                TWB_I2C_ReadRegisterValue
 .text.TWB_I2C_ReadU16RegisterValue
                0x08002a08       0x90 Debug/twb_i2c.o
                0x08002a08                TWB_I2C_ReadU16RegisterValue
 .text.TWB_I2C_WriteRegister
                0x08002a98       0x6c Debug/twb_i2c.o
                0x08002a98                TWB_I2C_WriteRegister
 .text.TWB_I2C_ReadRegisterValues
                0x08002b04       0x74 Debug/twb_i2c.o
                0x08002b04                TWB_I2C_ReadRegisterValues
 .text.TWB_I2C_SendU8
                0x08002b78       0x68 Debug/twb_i2c.o
                0x08002b78                TWB_I2C_SendU8
 .text.__i2c_EnableInterrupts
                0x08002be0       0x64 Debug/twb_i2c_stm32f4.o
                0x08002be0                __i2c_EnableInterrupts
 .text.__twb_i2c_pauseBetweenTxAndRx
                0x08002c44       0x24 Debug/twb_i2c_stm32f4.o
                0x08002c44                __twb_i2c_pauseBetweenTxAndRx
 .text.__twb_i2c_startNextJob
                0x08002c68       0xd0 Debug/twb_i2c_stm32f4.o
                0x08002c68                __twb_i2c_startNextJob
 .text.__twb_i2c_startNextJobIfNecessary
                0x08002d38       0x30 Debug/twb_i2c_stm32f4.o
                0x08002d38                __twb_i2c_startNextJobIfNecessary
 .text.__twb_i2c_completeJob
                0x08002d68       0xd0 Debug/twb_i2c_stm32f4.o
                0x08002d68                __twb_i2c_completeJob
 .text.__twb_i2c_switchToReceiveMode
                0x08002e38       0x54 Debug/twb_i2c_stm32f4.o
                0x08002e38                __twb_i2c_switchToReceiveMode
 .text.__twb_i2c_SetAckFlag
                0x08002e8c       0x38 Debug/twb_i2c_stm32f4.o
                0x08002e8c                __twb_i2c_SetAckFlag
 .text.__twb_i2c_SendAddress
                0x08002ec4       0x70 Debug/twb_i2c_stm32f4.o
                0x08002ec4                __twb_i2c_SendAddress
 .text.I2C1_EV_IRQHandler
                0x08002f34      0x21c Debug/twb_i2c_stm32f4.o
                0x08002f34                I2C1_EV_IRQHandler
 .text.TWB_I2C_WatchdogExpired
                0x08003150       0x48 Debug/twb_i2c_stm32f4.o
                0x08003150                TWB_I2C_WatchdogExpired
 .text.I2C1_ER_IRQHandler
                0x08003198       0xa0 Debug/twb_i2c_stm32f4.o
                0x08003198                I2C1_ER_IRQHandler
 .text.TWB_I2C_Init
                0x08003238       0xe4 Debug/twb_i2c_stm32f4.o
                0x08003238                TWB_I2C_Init
 .text.isDone   0x0800331c       0x34 Debug/twb_i2c_stm32f4.o
                0x0800331c                isDone
 .text.__twb_i2c_waitUntilDone
                0x08003350       0x2c Debug/twb_i2c_stm32f4.o
                0x08003350                __twb_i2c_waitUntilDone
 .text.TWB_I2C_QueueAsyncJob
                0x0800337c       0x84 Debug/twb_i2c_stm32f4.o
                0x0800337c                TWB_I2C_QueueAsyncJob
 .text.TWB_I2C_ProcessJobSynchronously
                0x08003400       0x38 Debug/twb_i2c_stm32f4.o
                0x08003400                TWB_I2C_ProcessJobSynchronously
 .text.TWB_LEDS_Init
                0x08003438      0x188 Debug/twb_leds.o
                0x08003438                TWB_LEDS_Init
 .text.TWB_LEDS_UpdateFastBlink
                0x080035c0       0xcc Debug/twb_leds.o
                0x080035c0                TWB_LEDS_UpdateFastBlink
 .text.TWB_LEDS_UpdateSlowBlink
                0x0800368c       0xcc Debug/twb_leds.o
                0x0800368c                TWB_LEDS_UpdateSlowBlink
 .text.TWB_LEDS_SetState
                0x08003758       0x90 Debug/twb_leds.o
                0x08003758                TWB_LEDS_SetState
 .text.twb_clampf
                0x080037e8       0x48 Debug/twb_math.o
                0x080037e8                twb_clampf
 .text.toRadians
                0x08003830       0x20 Debug/twb_math.o
                0x08003830                toRadians
 .text.toDegrees
                0x08003850       0x20 Debug/twb_math.o
                0x08003850                toDegrees
 .text.TWB_MATH_LimitOneToMinusOne
                0x08003870       0x48 Debug/twb_math.o
                0x08003870                TWB_MATH_LimitOneToMinusOne
 .text.twb_sinf
                0x080038b8      0x19c Debug/twb_math.o
                0x080038b8                twb_sinf
 .text.twb_cosf
                0x08003a54      0x1dc Debug/twb_math.o
                0x08003a54                twb_cosf
 .text.twb_atan2f
                0x08003c30      0x130 Debug/twb_math.o
                0x08003c30                twb_atan2f
 .text.TWB_SE_ReadBuffer
                0x08003d60       0x68 Debug/twb_serial_eeprom.o
                0x08003d60                TWB_SE_ReadBuffer
 .text.TWB_SE_ReadU8
                0x08003dc8       0x68 Debug/twb_serial_eeprom.o
                0x08003dc8                TWB_SE_ReadU8
 .text.TWB_SE_ReadU16
                0x08003e30       0x78 Debug/twb_serial_eeprom.o
                0x08003e30                TWB_SE_ReadU16
 .text.TWB_SE_ReadU32
                0x08003ea8       0x84 Debug/twb_serial_eeprom.o
                0x08003ea8                TWB_SE_ReadU32
 .text.TWB_SE_WriteU8
                0x08003f2c       0x4c Debug/twb_serial_eeprom.o
                0x08003f2c                TWB_SE_WriteU8
 .text.TWB_SE_WriteU8Pause
                0x08003f78       0x64 Debug/twb_serial_eeprom.o
                0x08003f78                TWB_SE_WriteU8Pause
 .text.TWB_SE_WriteS8Pause
                0x08003fdc       0x64 Debug/twb_serial_eeprom.o
                0x08003fdc                TWB_SE_WriteS8Pause
 .text.TWB_SE_WriteU16
                0x08004040       0x5c Debug/twb_serial_eeprom.o
                0x08004040                TWB_SE_WriteU16
 .text.TWB_SE_WriteU16Pause
                0x0800409c       0x74 Debug/twb_serial_eeprom.o
                0x0800409c                TWB_SE_WriteU16Pause
 .text.TWB_SE_WriteU32
                0x08004110       0x64 Debug/twb_serial_eeprom.o
                0x08004110                TWB_SE_WriteU32
 .text.TWB_SE_WriteU32Pause
                0x08004174       0x7c Debug/twb_serial_eeprom.o
                0x08004174                TWB_SE_WriteU32Pause
 .text.TWB_SE_WriteBuffer
                0x080041f0       0x90 Debug/twb_serial_eeprom.o
                0x080041f0                TWB_SE_WriteBuffer
 .text.TWB_SE_WriteBufferPause
                0x08004280       0x44 Debug/twb_serial_eeprom.o
                0x08004280                TWB_SE_WriteBufferPause
 .text.TWB_SE_ReadS8
                0x080042c4       0x24 Debug/twb_serial_eeprom.o
                0x080042c4                TWB_SE_ReadS8
 .text.TWB_SE_ReadS16
                0x080042e8       0x24 Debug/twb_serial_eeprom.o
                0x080042e8                TWB_SE_ReadS16
 .text.TWB_SE_ReadS32
                0x0800430c       0x24 Debug/twb_serial_eeprom.o
                0x0800430c                TWB_SE_ReadS32
 .text.TWB_SE_WriteS8
                0x08004330       0x2c Debug/twb_serial_eeprom.o
                0x08004330                TWB_SE_WriteS8
 .text.TWB_SE_WriteS16
                0x0800435c       0x2c Debug/twb_serial_eeprom.o
                0x0800435c                TWB_SE_WriteS16
 .text.TWB_SE_WriteS16Pause
                0x08004388       0x2c Debug/twb_serial_eeprom.o
                0x08004388                TWB_SE_WriteS16Pause
 .text.TWB_SE_WriteS32Pause
                0x080043b4       0x24 Debug/twb_serial_eeprom.o
                0x080043b4                TWB_SE_WriteS32Pause
 .text.TWB_SE_QueueAsyncWrite
                0x080043d8       0x1c Debug/twb_serial_eeprom.o
                0x080043d8                TWB_SE_QueueAsyncWrite
 .text.twb_strreverse
                0x080043f4       0x38 Debug/twb_strings.o
                0x080043f4                twb_strreverse
 .text.twb_itoa
                0x0800442c       0xa0 Debug/twb_strings.o
                0x0800442c                twb_itoa
 .text.__createTimer
                0x080044cc       0xa4 Debug/twb_timer.o
                0x080044cc                __createTimer
 .text.TWB_Timer_GetMSFromSampleRate
                0x08004570       0x8c Debug/twb_timer.o
                0x08004570                TWB_Timer_GetMSFromSampleRate
 .text.TWB_Timer_CreateTimers
                0x080045fc      0x2c4 Debug/twb_timer.o
                0x080045fc                TWB_Timer_CreateTimers
 .text.TWB_Timer_Enable
                0x080048c0       0x28 Debug/twb_timer.o
                0x080048c0                TWB_Timer_Enable
 .text.TWB_Timer_Disable
                0x080048e8       0x10 Debug/twb_timer.o
                0x080048e8                TWB_Timer_Disable
 .text.TWB_Timer_Reset
                0x080048f8       0x20 Debug/twb_timer.o
                0x080048f8                TWB_Timer_Reset
 .text.TWB_Timer_Scan
                0x08004918       0x58 Debug/twb_timer.o
                0x08004918                TWB_Timer_Scan
 .text.SysTick_Handler
                0x08004970       0x58 Debug/twb_timer.o
                0x08004970                SysTick_Handler
 .text.TWB_Timer_SleepMS
                0x080049c8       0x24 Debug/twb_timer.o
                0x080049c8                TWB_Timer_SleepMS
 .text.__commo_MsgBegin
                0x080049ec       0x18 Debug/commo.o
                0x080049ec                __commo_MsgBegin
 .text.__commo_MsgCommit
                0x08004a04       0x7c Debug/commo.o
                0x08004a04                __commo_MsgCommit
 .text.TWB_Commo_Init
                0x08004a80       0x7c Debug/commo.o
                0x08004a80                TWB_Commo_Init
 .text.TWB_Commo_ProcessOutgoingMessages
                0x08004afc       0x60 Debug/commo.o
                0x08004afc                TWB_Commo_ProcessOutgoingMessages
 .text.TWB_Commo_ProcessIncomingMessages
                0x08004b5c      0x118 Debug/commo.o
                0x08004b5c                TWB_Commo_ProcessIncomingMessages
 .text.TWB_Commo_SendMessage
                0x08004c74       0x98 Debug/commo.o
                0x08004c74                TWB_Commo_SendMessage
 .text.TWB_Main_WiFiSendExpired
                0x08004d0c       0x1c Debug/commo.o
                0x08004d0c                TWB_Main_WiFiSendExpired
 .text.TWB_Main_WIFiReceiveExpired
                0x08004d28       0x64 Debug/commo.o
                0x08004d28                TWB_Main_WIFiReceiveExpired
 .text.TWB_Commo_SendNak
                0x08004d8c       0x38 Debug/msg_parser.o
                0x08004d8c                TWB_Commo_SendNak
 .text.TWB_MsgParser_HandleRX_Overrun
                0x08004dc4       0x28 Debug/msg_parser.o
                0x08004dc4                TWB_MsgParser_HandleRX_Overrun
 .text.TWB_MsgParser_HandleTXE
                0x08004dec      0x3c0 Debug/msg_parser.o
                0x08004dec                TWB_MsgParser_HandleTXE
 .text.TWB_MsgParser_HandleRX
                0x080051ac      0x4f8 Debug/msg_parser.o
                0x080051ac                TWB_MsgParser_HandleRX
 .text.__usbd_cdc_createBuffer
                0x080056a4       0x4c Debug/twb_usb.o
                0x080056a4                __usbd_cdc_createBuffer
 .text.TWB_USB_Init
                0x080056f0       0x64 Debug/twb_usb.o
                0x080056f0                TWB_USB_Init
 .text.OTG_FS_IRQHandler
                0x08005754       0x10 Debug/twb_usb.o
                0x08005754                OTG_FS_IRQHandler
 .text.TWB_USB_Handle_ConsoleIn
                0x08005764       0x68 Debug/twb_usb.o
                0x08005764                TWB_USB_Handle_ConsoleIn
 .text.TWB_USB_Handle_TelemetryIn
                0x080057cc       0x60 Debug/twb_usb.o
                0x080057cc                TWB_USB_Handle_TelemetryIn
 .text.usbd_cdc_Init
                0x0800582c       0xd8 Debug/usbd_cdc_core.o
                0x0800582c                usbd_cdc_Init
 .text.usbd_cdc_DeInit
                0x08005904       0x48 Debug/usbd_cdc_core.o
                0x08005904                usbd_cdc_DeInit
 .text.usbd_cdc_Setup
                0x0800594c      0x15c Debug/usbd_cdc_core.o
                0x0800594c                usbd_cdc_Setup
 .text.usbd_cdc_EP0_RxReady
                0x08005aa8       0x20 Debug/usbd_cdc_core.o
                0x08005aa8                usbd_cdc_EP0_RxReady
 .text.usbd_cdc_DataIn
                0x08005ac8      0x11c Debug/usbd_cdc_core.o
                0x08005ac8                usbd_cdc_DataIn
 .text.usbd_cdc_DataOut
                0x08005be4       0xa4 Debug/usbd_cdc_core.o
                0x08005be4                usbd_cdc_DataOut
 .text.usbd_cdc_SOF
                0x08005c88       0x4c Debug/usbd_cdc_core.o
                0x08005c88                usbd_cdc_SOF
 .text.Handle_USBAsynchXfer
                0x08005cd4      0x154 Debug/usbd_cdc_core.o
 .text.USBD_cdc_GetCfgDesc
                0x08005e28       0x1c Debug/usbd_cdc_core.o
 .text.usbd_cdc_iso_in_incomplete
                0x08005e44        0xc Debug/usbd_cdc_core.o
                0x08005e44                usbd_cdc_iso_in_incomplete
 .text.usbd_cdc_iso_out_incomplete
                0x08005e50        0xc Debug/usbd_cdc_core.o
                0x08005e50                usbd_cdc_iso_out_incomplete
 .text.USBD_Init
                0x08005e5c       0x58 Debug/usbd_core.o
                0x08005e5c                USBD_Init
 .text.USBD_DeInit
                0x08005eb4        0xc Debug/usbd_core.o
                0x08005eb4                USBD_DeInit
 .text.USBD_SetupStage
                0x08005ec0       0xa8 Debug/usbd_core.o
                0x08005ec0                USBD_SetupStage
 .text.USBD_DataOutStage
                0x08005f68       0xd0 Debug/usbd_core.o
                0x08005f68                USBD_DataOutStage
 .text.USBD_DataInStage
                0x08006038      0x114 Debug/usbd_core.o
                0x08006038                USBD_DataInStage
 .text.USBD_Reset
                0x0800614c       0x4c Debug/usbd_core.o
                0x0800614c                USBD_Reset
 .text.USBD_Resume
                0x08006198       0x24 Debug/usbd_core.o
                0x08006198                USBD_Resume
 .text.USBD_Suspend
                0x080061bc       0x24 Debug/usbd_core.o
                0x080061bc                USBD_Suspend
 .text.USBD_SOF
                0x080061e0       0x28 Debug/usbd_core.o
                0x080061e0                USBD_SOF
 .text.USBD_SetCfg
                0x08006208       0x34 Debug/usbd_core.o
                0x08006208                USBD_SetCfg
 .text.USBD_ClrCfg
                0x0800623c       0x28 Debug/usbd_core.o
                0x0800623c                USBD_ClrCfg
 .text.USBD_IsoINIncomplete
                0x08006264       0x1c Debug/usbd_core.o
                0x08006264                USBD_IsoINIncomplete
 .text.USBD_IsoOUTIncomplete
                0x08006280       0x1c Debug/usbd_core.o
                0x08006280                USBD_IsoOUTIncomplete
 .text.USBD_USR_DeviceDescriptor
                0x0800629c       0x1c Debug/usbd_desc.o
                0x0800629c                USBD_USR_DeviceDescriptor
 .text.USBD_USR_LangIDStrDescriptor
                0x080062b8       0x1c Debug/usbd_desc.o
                0x080062b8                USBD_USR_LangIDStrDescriptor
 .text.USBD_USR_ProductStrDescriptor
                0x080062d4       0x28 Debug/usbd_desc.o
                0x080062d4                USBD_USR_ProductStrDescriptor
 .text.USBD_USR_ManufacturerStrDescriptor
                0x080062fc       0x28 Debug/usbd_desc.o
                0x080062fc                USBD_USR_ManufacturerStrDescriptor
 .text.USBD_USR_SerialStrDescriptor
                0x08006324       0x28 Debug/usbd_desc.o
                0x08006324                USBD_USR_SerialStrDescriptor
 .text.USBD_USR_ConfigStrDescriptor
                0x0800634c       0x28 Debug/usbd_desc.o
                0x0800634c                USBD_USR_ConfigStrDescriptor
 .text.USBD_USR_InterfaceStrDescriptor
                0x08006374       0x98 Debug/usbd_desc.o
                0x08006374                USBD_USR_InterfaceStrDescriptor
 .text.USBD_USR_OSStrDescriptor
                0x0800640c       0x2c Debug/usbd_desc.o
                0x0800640c                USBD_USR_OSStrDescriptor
 .text.USBD_USR_ExtPropertiesFeatureDescriptor
                0x08006438       0xa8 Debug/usbd_desc.o
                0x08006438                USBD_USR_ExtPropertiesFeatureDescriptor
 .text.USBD_USR_ExtCompatIDFeatureDescriptor
                0x080064e0       0x2c Debug/usbd_desc.o
                0x080064e0                USBD_USR_ExtCompatIDFeatureDescriptor
 .text.USBD_CtlSendData
                0x0800650c       0x4c Debug/usbd_ioreq.o
                0x0800650c                USBD_CtlSendData
 .text.USBD_CtlContinueSendData
                0x08006558       0x30 Debug/usbd_ioreq.o
                0x08006558                USBD_CtlContinueSendData
 .text.USBD_CtlPrepareRx
                0x08006588       0x4c Debug/usbd_ioreq.o
                0x08006588                USBD_CtlPrepareRx
 .text.USBD_CtlContinueRx
                0x080065d4       0x30 Debug/usbd_ioreq.o
                0x080065d4                USBD_CtlContinueRx
 .text.USBD_CtlSendStatus
                0x08006604       0x34 Debug/usbd_ioreq.o
                0x08006604                USBD_CtlSendStatus
 .text.USBD_CtlReceiveStatus
                0x08006638       0x34 Debug/usbd_ioreq.o
                0x08006638                USBD_CtlReceiveStatus
 .text.USBD_StdDevReq
                0x0800666c       0x9c Debug/usbd_req.o
                0x0800666c                USBD_StdDevReq
 .text.USBD_VendDevReq
                0x08006708       0x90 Debug/usbd_req.o
                0x08006708                USBD_VendDevReq
 .text.USBD_StdItfReq
                0x08006798       0x5c Debug/usbd_req.o
                0x08006798                USBD_StdItfReq
 .text.__usb_ep_setFeature
                0x080067f4       0x8c Debug/usbd_req.o
                0x080067f4                __usb_ep_setFeature
 .text.__usp_ep_clearFeature
                0x08006880       0x90 Debug/usbd_req.o
                0x08006880                __usp_ep_clearFeature
 .text.__usp_ep_getStatus
                0x08006910       0xcc Debug/usbd_req.o
                0x08006910                __usp_ep_getStatus
 .text.USBD_StdEPReq
                0x080069dc       0x5c Debug/usbd_req.o
                0x080069dc                USBD_StdEPReq
 .text.USBD_GetDescriptor
                0x08006a38      0x208 Debug/usbd_req.o
 .text.USBD_SetAddress
                0x08006c40       0x84 Debug/usbd_req.o
 .text.USBD_SetConfig
                0x08006cc4       0xf0 Debug/usbd_req.o
 .text.USBD_GetConfig
                0x08006db4       0x7c Debug/usbd_req.o
 .text.USBD_GetStatus
                0x08006e30       0x50 Debug/usbd_req.o
 .text.USBD_SetFeature
                0x08006e80       0xe8 Debug/usbd_req.o
 .text.USBD_ClrFeature
                0x08006f68       0x50 Debug/usbd_req.o
 .text.USBD_ParseSetupRequest
                0x08006fb8       0x88 Debug/usbd_req.o
                0x08006fb8                USBD_ParseSetupRequest
 .text.USBD_CtlError
                0x08007040       0x48 Debug/usbd_req.o
                0x08007040                USBD_CtlError
 .text.USBD_GetString
                0x08007088       0x98 Debug/usbd_req.o
                0x08007088                USBD_GetString
 .text.USBD_GetLen
                0x08007120       0x30 Debug/usbd_req.o
 .text.USBD_USR_Init
                0x08007150        0x4 Debug/usbd_usr.o
                0x08007150                USBD_USR_Init
 .text.USBD_USR_DeviceReset
                0x08007154       0x24 Debug/usbd_usr.o
                0x08007154                USBD_USR_DeviceReset
 .text.USBD_USR_DeviceConfigured
                0x08007178       0x10 Debug/usbd_usr.o
                0x08007178                USBD_USR_DeviceConfigured
 .text.USBD_USR_DeviceConnected
                0x08007188       0x10 Debug/usbd_usr.o
                0x08007188                USBD_USR_DeviceConnected
 .text.USBD_USR_DeviceDisconnected
                0x08007198       0x10 Debug/usbd_usr.o
                0x08007198                USBD_USR_DeviceDisconnected
 .text.USBD_USR_DeviceSuspended
                0x080071a8       0x10 Debug/usbd_usr.o
                0x080071a8                USBD_USR_DeviceSuspended
 .text.USBD_USR_DeviceResumed
                0x080071b8       0x10 Debug/usbd_usr.o
                0x080071b8                USBD_USR_DeviceResumed
 .text.USB_OTG_BSP_Init
                0x080071c8       0x84 Debug/usb_bsp.o
                0x080071c8                USB_OTG_BSP_Init
 .text.USB_OTG_BSP_EnableInterrupt
                0x0800724c       0x38 Debug/usb_bsp.o
                0x0800724c                USB_OTG_BSP_EnableInterrupt
 .text.USB_OTG_BSP_uDelay
                0x08007284       0x40 Debug/usb_bsp.o
                0x08007284                USB_OTG_BSP_uDelay
 .text.USB_OTG_BSP_mDelay
                0x080072c4       0x20 Debug/usb_bsp.o
                0x080072c4                USB_OTG_BSP_mDelay
 .text.USB_OTG_ReadCoreItr
                0x080072e4       0x24 Debug/usb_core.o
                0x080072e4                USB_OTG_ReadCoreItr
 .text.USB_OTG_InitDevSpeed
                0x08007308       0x38 Debug/usb_core.o
                0x08007308                USB_OTG_InitDevSpeed
 .text.USB_OTG_CoreInitDev
                0x08007340      0x244 Debug/usb_core.o
                0x08007340                USB_OTG_CoreInitDev
 .text.USB_OTG_ReadDevAllOutEp_itr
                0x08007584       0x24 Debug/usb_core.o
                0x08007584                USB_OTG_ReadDevAllOutEp_itr
 .text.USB_OTG_ReadDevOutEP_itr
                0x080075a8       0x30 Debug/usb_core.o
                0x080075a8                USB_OTG_ReadDevOutEP_itr
 .text.USB_OTG_ReadDevAllInEPItr
                0x080075d8       0x24 Debug/usb_core.o
                0x080075d8                USB_OTG_ReadDevAllInEPItr
 .text.USB_OTG_CoreReset
                0x080075fc       0x90 Debug/usb_core_cfg.o
                0x080075fc                USB_OTG_CoreReset
 .text.USB_OTG_CoreInit
                0x0800768c      0x274 Debug/usb_core_cfg.o
                0x0800768c                USB_OTG_CoreInit
 .text.USB_OTG_SetCurrentMode
                0x08007900       0x78 Debug/usb_core_cfg.o
                0x08007900                USB_OTG_SetCurrentMode
 .text.USB_OTG_SelectCore
                0x08007978      0x140 Debug/usb_core_cfg.o
                0x08007978                USB_OTG_SelectCore
 .text.USB_OTG_EP0Activate
                0x08007ab8       0x80 Debug/usb_core_ep.o
                0x08007ab8                USB_OTG_EP0Activate
 .text.USB_OTG_EPActivate
                0x08007b38       0xf0 Debug/usb_core_ep.o
                0x08007b38                USB_OTG_EPActivate
 .text.USB_OTG_EPDeactivate
                0x08007c28       0xa0 Debug/usb_core_ep.o
                0x08007c28                USB_OTG_EPDeactivate
 .text.USB_OTG_EPSetStall
                0x08007cc8       0xa4 Debug/usb_core_ep.o
                0x08007cc8                USB_OTG_EPSetStall
 .text.USB_OTG_EPClearStall
                0x08007d6c       0x8c Debug/usb_core_ep.o
                0x08007d6c                USB_OTG_EPClearStall
 .text.USB_OTG_EP0_OutStart
                0x08007df8       0x40 Debug/usb_core_ep.o
                0x08007df8                USB_OTG_EP0_OutStart
 .text.USB_OTG_EnableCommonInt
                0x08007e38       0x5c Debug/usb_core_int.o
                0x08007e38                USB_OTG_EnableCommonInt
 .text.USB_OTG_EnableGlobalInt
                0x08007e94       0x34 Debug/usb_core_int.o
                0x08007e94                USB_OTG_EnableGlobalInt
 .text.USB_OTG_DisableGlobalInt
                0x08007ec8       0x38 Debug/usb_core_int.o
                0x08007ec8                USB_OTG_DisableGlobalInt
 .text.USB_OTG_EnableDevInt
                0x08007f00       0xc0 Debug/usb_core_int.o
                0x08007f00                USB_OTG_EnableDevInt
 .text.USB_OTG_WritePacket
                0x08007fc0       0x70 Debug/usb_core_io.o
                0x08007fc0                USB_OTG_WritePacket
 .text.USB_OTG_ReadPacket
                0x08008030       0x54 Debug/usb_core_io.o
                0x08008030                USB_OTG_ReadPacket
 .text.USB_OTG_FlushTxFifo
                0x08008084       0x74 Debug/usb_core_io.o
                0x08008084                USB_OTG_FlushTxFifo
 .text.USB_OTG_FlushRxFifo
                0x080080f8       0x60 Debug/usb_core_io.o
                0x080080f8                USB_OTG_FlushRxFifo
 .text.__usb_otg_epStartOutXfer
                0x08008158      0x12c Debug/usb_core_io.o
                0x08008158                __usb_otg_epStartOutXfer
 .text.__usb_otg_epStartInXfer
                0x08008284      0x120 Debug/usb_core_io.o
                0x08008284                __usb_otg_epStartInXfer
 .text.USB_OTG_EPStartXfer
                0x080083a4       0x30 Debug/usb_core_io.o
                0x080083a4                USB_OTG_EPStartXfer
 .text.__usb_otg_ep0StartOutXfer
                0x080083d4       0xd0 Debug/usb_core_io.o
                0x080083d4                __usb_otg_ep0StartOutXfer
 .text.__usb_otg_ep0StartInXfer
                0x080084a4       0xfc Debug/usb_core_io.o
                0x080084a4                __usb_otg_ep0StartInXfer
 .text.USB_OTG_EP0StartXfer
                0x080085a0       0x30 Debug/usb_core_io.o
                0x080085a0                USB_OTG_EP0StartXfer
 .text.DCD_Init
                0x080085d0      0x104 Debug/usb_dcd.o
                0x080085d0                DCD_Init
 .text.DCD_EP_Open
                0x080086d4       0xbc Debug/usb_dcd.o
                0x080086d4                DCD_EP_Open
 .text.DCD_EP_Close
                0x08008790       0x7c Debug/usb_dcd.o
                0x08008790                DCD_EP_Close
 .text.DCD_EP_PrepareRx
                0x0800880c       0x8c Debug/usb_dcd.o
                0x0800880c                DCD_EP_PrepareRx
 .text.DCD_EP_Tx
                0x08008898       0x7c Debug/usb_dcd.o
                0x08008898                DCD_EP_Tx
 .text.DCD_EP_Stall
                0x08008914       0x88 Debug/usb_dcd.o
                0x08008914                DCD_EP_Stall
 .text.DCD_EP_ClrStall
                0x0800899c       0x7c Debug/usb_dcd.o
                0x0800899c                DCD_EP_ClrStall
 .text.DCD_EP_SetAddress
                0x08008a18       0x3c Debug/usb_dcd.o
                0x08008a18                DCD_EP_SetAddress
 .text.USBD_OTG_ISR_Handler
                0x08008a54      0x168 Debug/usb_dcd_int.o
                0x08008a54                USBD_OTG_ISR_Handler
 .text.DCD_HandleResume_ISR
                0x08008bbc       0x8c Debug/usb_dcd_int.o
 .text.DCD_HandleUSBSuspend_ISR
                0x08008c48       0xa8 Debug/usb_dcd_int.o
 .text.DCD_HandleInEP_ISR
                0x08008cf0      0x1e8 Debug/usb_dcd_int.o
 .text.DCD_HandleOutEP_ISR
                0x08008ed8      0x124 Debug/usb_dcd_int.o
 .text.DCD_HandleSof_ISR
                0x08008ffc       0x38 Debug/usb_dcd_int.o
 .text.DCD_HandleRxStatusQueueLevel_ISR
                0x08009034      0x114 Debug/usb_dcd_int.o
 .text.DCD_WriteEmptyTxFifo
                0x08009148      0x118 Debug/usb_dcd_int.o
 .text.DCD_HandleUsbReset_ISR
                0x08009260      0x168 Debug/usb_dcd_int.o
 .text.DCD_HandleEnumDone_ISR
                0x080093c8       0x58 Debug/usb_dcd_int.o
 .text.DCD_IsoINIncomplete_ISR
                0x08009420       0x38 Debug/usb_dcd_int.o
 .text.DCD_IsoOUTIncomplete_ISR
                0x08009458       0x38 Debug/usb_dcd_int.o
 .text.DCD_ReadDevInEP
                0x08009490       0x4c Debug/usb_dcd_int.o
 .text.__wifiResolveBaudRate
                0x080094dc       0x64 Debug/wifi.o
                0x080094dc                __wifiResolveBaudRate
 .text.TWB_WiFi_Init
                0x08009540      0x130 Debug/wifi.o
                0x08009540                TWB_WiFi_Init
 .text.TWB_WiFi_GetBaudRate
                0x08009670        0xc Debug/wifi.o
                0x08009670                TWB_WiFi_GetBaudRate
 .text.TWB_WiFi_SetBaud
                0x0800967c       0x48 Debug/wifi.o
                0x0800967c                TWB_WiFi_SetBaud
 .text.TWB_WiFi_Timer_Tick
                0x080096c4       0x2c Debug/wifi.o
                0x080096c4                TWB_WiFi_Timer_Tick
 .text.TWB_WiFi_Reboot
                0x080096f0       0x2c Debug/wifi.o
                0x080096f0                TWB_WiFi_Reboot
 .text.TWB_WiFi_HandleTXE
                0x0800971c       0x60 Debug/wifi.o
                0x0800971c                TWB_WiFi_HandleTXE
 .text.TWB_WiFi_HandleRX
                0x0800977c       0x1c Debug/wifi.o
                0x0800977c                TWB_WiFi_HandleRX
 .text.TWB_Filter_Median_Apply_Float
                0x08009798      0x314 Debug/Median.o
                0x08009798                TWB_Filter_Median_Apply_Float
 .text.TWB_Filter_Median_Apply
                0x08009aac      0x328 Debug/Median.o
                0x08009aac                TWB_Filter_Median_Apply
 .text.TWB_Filter_Median_Apply_Signed
                0x08009dd4      0x358 Debug/Median.o
                0x08009dd4                TWB_Filter_Median_Apply_Signed
 .text.TWB_AutoPilot_Init
                0x0800a12c       0x60 Debug/autopilot.o
                0x0800a12c                TWB_AutoPilot_Init
 .text.TWB_AutoPilot_QueueAltitudeMsg
                0x0800a18c       0x18 Debug/autopilot.o
                0x0800a18c                TWB_AutoPilot_QueueAltitudeMsg
 .text.TWB_AutoPilot_Arm
                0x0800a1a4        0x8 Debug/autopilot.o
                0x0800a1a4                TWB_AutoPilot_Arm
 .text.TWB_AutoPilot_Safe
                0x0800a1ac        0x8 Debug/autopilot.o
                0x0800a1ac                TWB_AutoPilot_Safe
 .text.TWB_AutoPilot_ResetDefaults
                0x0800a1b4        0x8 Debug/autopilot.o
                0x0800a1b4                TWB_AutoPilot_ResetDefaults
 .text.__twb_gpio_manage_yaw
                0x0800a1bc      0x14c Debug/autopilot.o
                0x0800a1bc                __twb_gpio_manage_yaw
 .text.TWB_Autopilot_DetermineAltitude
                0x0800a308      0x1f4 Debug/autopilot.o
                0x0800a308                TWB_Autopilot_DetermineAltitude
 .text.__twb_autoPilot_manage_throttle
                0x0800a4fc      0x13c Debug/autopilot.o
                0x0800a4fc                __twb_autoPilot_manage_throttle
 .text.TWB_AutoPilot_TransitionToFlightMode
                0x0800a638       0xc8 Debug/autopilot.o
                0x0800a638                TWB_AutoPilot_TransitionToFlightMode
 .text.TWB_AutoPilot_Start
                0x0800a700        0x8 Debug/autopilot.o
                0x0800a700                TWB_AutoPilot_Start
 .text.TWB_AutoPilot_Stop
                0x0800a708       0x10 Debug/autopilot.o
                0x0800a708                TWB_AutoPilot_Stop
 .text.TWB_AutoPilot_Pause
                0x0800a718       0x10 Debug/autopilot.o
                0x0800a718                TWB_AutoPilot_Pause
 .text.TWB_AutoPilot_Resume
                0x0800a728        0x8 Debug/autopilot.o
                0x0800a728                TWB_AutoPilot_Resume
 .text.TWB_AutoPilot_Exec
                0x0800a730       0x9c Debug/autopilot.o
                0x0800a730                TWB_AutoPilot_Exec
 .text.TWB_AutoPilot_UpdateSettings
                0x0800a7cc       0x18 Debug/autopilot.o
                0x0800a7cc                TWB_AutoPilot_UpdateSettings
 .text.TWB_GPIO_CtrlLoop_SetPitchRollPID
                0x0800a7e4      0x414 Debug/ctrl_loop.o
                0x0800a7e4                TWB_GPIO_CtrlLoop_SetPitchRollPID
 .text.TWB_GPIO_CtrlLoop_SetAltitudePID
                0x0800abf8      0x1b8 Debug/ctrl_loop.o
                0x0800abf8                TWB_GPIO_CtrlLoop_SetAltitudePID
 .text.TWB_GPIO_CtrlLoop_SetYawPID
                0x0800adb0      0x1c0 Debug/ctrl_loop.o
                0x0800adb0                TWB_GPIO_CtrlLoop_SetYawPID
 .text.TWB_GPIO_CtrlLoop_Init
                0x0800af70      0xd04 Debug/ctrl_loop.o
                0x0800af70                TWB_GPIO_CtrlLoop_Init
 .text.TWB_Targets_QueueMsg
                0x0800bc74       0x18 Debug/ctrl_loop.o
                0x0800bc74                TWB_Targets_QueueMsg
 .text.TWB_GPIO_CtrlLoop_ResetDefaults
                0x0800bc8c      0xdc8 Debug/ctrl_loop.o
                0x0800bc8c                TWB_GPIO_CtrlLoop_ResetDefaults
 .text.TWB_GPIO_Arm
                0x0800ca54       0x3c Debug/ctrl_loop.o
                0x0800ca54                TWB_GPIO_Arm
 .text.TWB_GPIO_Safe
                0x0800ca90       0x2c Debug/ctrl_loop.o
                0x0800ca90                TWB_GPIO_Safe
 .text.TWB_GPIO_SendPIDConfig
                0x0800cabc       0xcc Debug/ctrl_loop_commo.o
                0x0800cabc                TWB_GPIO_SendPIDConfig
 .text.__ctrlLoop_resolve_DFilter
                0x0800cb88       0x90 Debug/ctrl_loop_commo.o
                0x0800cb88                __ctrlLoop_resolve_DFilter
 .text.__ctrlLoop_setPIDConstant
                0x0800cc18      0xfa0 Debug/ctrl_loop_commo.o
                0x0800cc18                __ctrlLoop_setPIDConstant
 .text.TWB_CtrlLoop_HandleMessage
                0x0800dbb8      0x6c0 Debug/ctrl_loop_commo.o
                0x0800dbb8                TWB_CtrlLoop_HandleMessage
 .text.__flightCtrlUpdateMotor
                0x0800e278       0x58 Debug/ctrl_loop_pid.o
                0x0800e278                __flightCtrlUpdateMotor
 .text.__twb_ctrl_loop_xfer_function
                0x0800e2d0      0x434 Debug/ctrl_loop_pid.o
                0x0800e2d0                __twb_ctrl_loop_xfer_function
 .text.__twb_gpio_update_telemetry
                0x0800e704      0x38c Debug/ctrl_loop_pid.o
                0x0800e704                __twb_gpio_update_telemetry
 .text.__twb_gpio_set_safe
                0x0800ea90      0x114 Debug/ctrl_loop_pid.o
                0x0800ea90                __twb_gpio_set_safe
 .text.TWB_GPIO_CtrlLoop_Exec
                0x0800eba4      0x1fc Debug/ctrl_loop_pid.o
                0x0800eba4                TWB_GPIO_CtrlLoop_Exec
 .text.__twb_PID_get_steady_p
                0x0800eda0       0x3c Debug/pid.o
                0x0800eda0                __twb_PID_get_steady_p
 .text.__twb_PID_get_steady_i
                0x0800eddc       0xcc Debug/pid.o
                0x0800eddc                __twb_PID_get_steady_i
 .text.__twb_PID_get_rate_p
                0x0800eea8       0x3c Debug/pid.o
                0x0800eea8                __twb_PID_get_rate_p
 .text.__twb_PID_get_rate_i
                0x0800eee4       0xcc Debug/pid.o
                0x0800eee4                __twb_PID_get_rate_i
 .text.__twb_PID_get_rate_d
                0x0800efb0       0xc8 Debug/pid.o
                0x0800efb0                __twb_PID_get_rate_d
 .text.TWB_PID_Update
                0x0800f078       0xe4 Debug/pid.o
                0x0800f078                TWB_PID_Update
 .text.TWB_PID_Reset
                0x0800f15c       0x34 Debug/pid.o
                0x0800f15c                TWB_PID_Reset
 .text.__pwm_capture_initTimeBase
                0x0800f190       0x44 Debug/pwm_capture.o
                0x0800f190                __pwm_capture_initTimeBase
 .text.__pwm_capture_initPorts
                0x0800f1d4       0x6c Debug/pwm_capture.o
                0x0800f1d4                __pwm_capture_initPorts
 .text.TWB_PWM_Capture_Init
                0x0800f240      0x108 Debug/pwm_capture.o
                0x0800f240                TWB_PWM_Capture_Init
 .text.TWB_PWM_RCWatchDogExpire
                0x0800f348       0x10 Debug/pwm_capture.o
                0x0800f348                TWB_PWM_RCWatchDogExpire
 .text.TWB_PWM_ProcessRCIn
                0x0800f358      0x218 Debug/pwm_capture.o
                0x0800f358                TWB_PWM_ProcessRCIn
 .text.TWB_RCIN_BeginCalibration
                0x0800f570       0x2c Debug/pwm_capture.o
                0x0800f570                TWB_RCIN_BeginCalibration
 .text.TWB_RCIN_QueueMsg
                0x0800f59c       0x18 Debug/pwm_capture.o
                0x0800f59c                TWB_RCIN_QueueMsg
 .text.TWB_RCIN_CancelCalibration
                0x0800f5b4       0x30 Debug/pwm_capture.o
                0x0800f5b4                TWB_RCIN_CancelCalibration
 .text.TWB_RCIN_FinalizeCalibration
                0x0800f5e4       0x78 Debug/pwm_capture.o
                0x0800f5e4                TWB_RCIN_FinalizeCalibration
 .text.__pwmCapture_processRadioChannel
                0x0800f65c      0x104 Debug/pwm_capture.o
                0x0800f65c                __pwmCapture_processRadioChannel
 .text.__pwmCapture_getStickPosition
                0x0800f760       0xc0 Debug/pwm_capture.o
                0x0800f760                __pwmCapture_getStickPosition
 .text.__pwm_capture_readCalibration
                0x0800f820      0x204 Debug/pwm_capture.o
                0x0800f820                __pwm_capture_readCalibration
 .text.TWB_RCIN_CalibrateStick
                0x0800fa24      0x3d4 Debug/pwm_capture.o
                0x0800fa24                TWB_RCIN_CalibrateStick
 .text.__pwm_MapUpdateRate
                0x0800fdf8       0xac Debug/pwm_source.o
                0x0800fdf8                __pwm_MapUpdateRate
 .text.TWB_Motors_QueueMsg
                0x0800fea4       0x18 Debug/pwm_source.o
                0x0800fea4                TWB_Motors_QueueMsg
 .text.TWB_PWM_SetESCPower
                0x0800febc       0x70 Debug/pwm_source.o
                0x0800febc                TWB_PWM_SetESCPower
 .text.__pwm_RefreshDutyCycles
                0x0800ff2c       0xe4 Debug/pwm_source.o
                0x0800ff2c                __pwm_RefreshDutyCycles
 .text.TWB_PWM_SetNewESCUpdateRate
                0x08010010       0x4c Debug/pwm_source.o
                0x08010010                TWB_PWM_SetNewESCUpdateRate
 .text.TWB_PWM_Init_PWM_IO
                0x0801005c       0xb0 Debug/pwm_source.o
                0x0801005c                TWB_PWM_Init_PWM_IO
 .text.TWB_PWM_Init_TimeBase
                0x0801010c       0x78 Debug/pwm_source.o
                0x0801010c                TWB_PWM_Init_TimeBase
 .text.TWB_PWM_Source_Init
                0x08010184      0x12c Debug/pwm_source.o
                0x08010184                TWB_PWM_Source_Init
 .text.TWB_PWM_ManagePower
                0x080102b0      0x378 Debug/pwm_source.o
                0x080102b0                TWB_PWM_ManagePower
 .text.NVIC_SetPriority
                0x08010628       0x50 Debug/main.o
 .text.SysTick_Config
                0x08010678       0x44 Debug/main.o
 .text.__configureEXTI
                0x080106bc       0x80 Debug/main.o
                0x080106bc                __configureEXTI
 .text.__setDefaults
                0x0801073c       0xc4 Debug/main.o
                0x0801073c                __setDefaults
 .text.__initMainLoopTimer
                0x08010800       0x7c Debug/main.o
                0x08010800                __initMainLoopTimer
 .text.__initModules
                0x0801087c       0x74 Debug/main.o
                0x0801087c                __initModules
 .text.__main_sendVersionInfo
                0x080108f0       0xac Debug/main.o
                0x080108f0                __main_sendVersionInfo
 .text.__initMain
                0x0801099c      0x224 Debug/main.o
                0x0801099c                __initMain
 .text.TIM7_IRQHandler
                0x08010bc0       0x70 Debug/main.o
                0x08010bc0                TIM7_IRQHandler
 .text.__startMainLoop
                0x08010c30       0x50 Debug/main.o
                0x08010c30                __startMainLoop
 .text.__twb_main_AllocateMemory
                0x08010c80      0x128 Debug/main.o
                0x08010c80                __twb_main_AllocateMemory
 .text.TWB_Status_QueueMsg
                0x08010da8       0x20 Debug/main.o
                0x08010da8                TWB_Status_QueueMsg
 .text.main     0x08010dc8      0x140 Debug/main.o
                0x08010dc8                main
 .text.TWB_Sys_Init
                0x08010f08       0xcc Debug/nivek_system.o
                0x08010f08                TWB_Sys_Init
 .text.TWB_Sys_Get_ShouldForwardDebugToConsole
                0x08010fd4       0x30 Debug/nivek_system.o
                0x08010fd4                TWB_Sys_Get_ShouldForwardDebugToConsole
 .text.TWB_Sys_Set_ShouldForwardDebugToConsole
                0x08011004       0x3c Debug/nivek_system.o
                0x08011004                TWB_Sys_Set_ShouldForwardDebugToConsole
 .text.TWB_Sys_Set_SerialNumber
                0x08011040       0x48 Debug/nivek_system.o
                0x08011040                TWB_Sys_Set_SerialNumber
 .text.TWB_Sys_Set_Address
                0x08011088       0x58 Debug/nivek_system.o
                0x08011088                TWB_Sys_Set_Address
 .text.TWB_Sys_Set_NiVekName
                0x080110e0       0x64 Debug/nivek_system.o
                0x080110e0                TWB_Sys_Set_NiVekName
 .text.TWB_Sys_Get_BaudRate
                0x08011144       0x30 Debug/nivek_system.o
                0x08011144                TWB_Sys_Get_BaudRate
 .text.TWB_Sys_Set_BaudRate
                0x08011174       0x3c Debug/nivek_system.o
                0x08011174                TWB_Sys_Set_BaudRate
 .text.TWB_Sys_RestoreDefaults
                0x080111b0       0xf4 Debug/nivek_system.o
                0x080111b0                TWB_Sys_RestoreDefaults
 .text.TWB_Sys_HandleMessage
                0x080112a4      0x114 Debug/nivek_system.o
                0x080112a4                TWB_Sys_HandleMessage
 .text.TWB_IMU_ADXL345_Init
                0x080113b8      0x298 Debug/adxl345.o
                0x080113b8                TWB_IMU_ADXL345_Init
 .text.TWB_IMU_ADXL345_ResetDefaults
                0x08011650      0x210 Debug/adxl345.o
                0x08011650                TWB_IMU_ADXL345_ResetDefaults
 .text.TWB_IMU_ADXL345_UpdateSetting
                0x08011860      0x170 Debug/adxl345.o
                0x08011860                TWB_IMU_ADXL345_UpdateSetting
 .text.TWB_IMU_ADXL345_SendDiag
                0x080119d0       0xb4 Debug/adxl345.o
                0x080119d0                TWB_IMU_ADXL345_SendDiag
 .text.bmp085_get_cal_param
                0x08011a84      0x12c Debug/bmp085.o
                0x08011a84                bmp085_get_cal_param
 .text.__twb_imu_bmp085_init_Periph
                0x08011bb0       0x78 Debug/bmp085.o
                0x08011bb0                __twb_imu_bmp085_init_Periph
 .text.TWB_IMU_BMP085_Init
                0x08011c28      0x240 Debug/bmp085.o
                0x08011c28                TWB_IMU_BMP085_Init
 .text.TWB_IMU_BMP085_Zero
                0x08011e68       0xb8 Debug/bmp085.o
                0x08011e68                TWB_IMU_BMP085_Zero
 .text.TWB_IMU_BMP085_UpdateSetting
                0x08011f20       0xf8 Debug/bmp085.o
                0x08011f20                TWB_IMU_BMP085_UpdateSetting
 .text.TWB_IMU_BMP085_ResetDefaults
                0x08012018      0x178 Debug/bmp085.o
                0x08012018                TWB_IMU_BMP085_ResetDefaults
 .text.TWB_IMU_BMP085_Start
                0x08012190       0x1c Debug/bmp085.o
                0x08012190                TWB_IMU_BMP085_Start
 .text.TWB_IMU_BMP085_Stop
                0x080121ac        0x8 Debug/bmp085.o
                0x080121ac                TWB_IMU_BMP085_Stop
 .text.TWB_IMU_BMP085_Pause
                0x080121b4        0x8 Debug/bmp085.o
                0x080121b4                TWB_IMU_BMP085_Pause
 .text.TWB_IMU_BMP085_Resume
                0x080121bc       0x1c Debug/bmp085.o
                0x080121bc                TWB_IMU_BMP085_Resume
 .text.TWB_IMU_BMP085_Read
                0x080121d8       0x24 Debug/bmp085.o
                0x080121d8                TWB_IMU_BMP085_Read
 .text.__snsr_bmp085_startTemperatureConversion
                0x080121fc       0x58 Debug/bmp085.o
                0x080121fc                __snsr_bmp085_startTemperatureConversion
 .text.__snsr_bmp085_startPressureConversion
                0x08012254       0x68 Debug/bmp085.o
                0x08012254                __snsr_bmp085_startPressureConversion
 .text.EXTI3_IRQHandler
                0x080122bc       0x28 Debug/bmp085.o
                0x080122bc                EXTI3_IRQHandler
 .text.TWB_IMU_BMP085_IRQ
                0x080122e4       0x54 Debug/bmp085.o
                0x080122e4                TWB_IMU_BMP085_IRQ
 .text.TWB_IMU_BMP085_I2C_Completed
                0x08012338       0x18 Debug/bmp085.o
                0x08012338                TWB_IMU_BMP085_I2C_Completed
 .text.__snsr_BMP085_ProcessTemperature
                0x08012350       0xa4 Debug/bmp085.o
                0x08012350                __snsr_BMP085_ProcessTemperature
 .text.__snsr_BMP085_GetAltitude
                0x080123f4       0x5c Debug/bmp085.o
                0x080123f4                __snsr_BMP085_GetAltitude
 .text.__snsr_BMP085_ProcessPressure
                0x08012450      0x250 Debug/bmp085.o
                0x08012450                __snsr_BMP085_ProcessPressure
 .text.TWB_IMU_BMP085_ProcessData
                0x080126a0       0x48 Debug/bmp085.o
                0x080126a0                TWB_IMU_BMP085_ProcessData
 .text.TWB_IMU_BMP085_SendDiag
                0x080126e8       0xc8 Debug/bmp085.o
                0x080126e8                TWB_IMU_BMP085_SendDiag
 .text.__snsr_ResolveCompFilter
                0x080127b0      0x188 Debug/complementary.o
                0x080127b0                __snsr_ResolveCompFilter
 .text.__snsr_compFilter_ResolveCompFilters
                0x08012938       0x64 Debug/complementary.o
                0x08012938                __snsr_compFilter_ResolveCompFilters
 .text.__snsr_compFilter_ResolveSensor
                0x0801299c      0x16c Debug/complementary.o
                0x0801299c                __snsr_compFilter_ResolveSensor
 .text.__snsr_compFilter_ResolveSensors
                0x08012b08      0x10c Debug/complementary.o
                0x08012b08                __snsr_compFilter_ResolveSensors
 .text.TWB_SNSR_Complementary_Init
                0x08012c14      0x574 Debug/complementary.o
                0x08012c14                TWB_SNSR_Complementary_Init
 .text.TWB_SNSR_Complementary_ResetDefaults
                0x08013188      0x47c Debug/complementary.o
                0x08013188                TWB_SNSR_Complementary_ResetDefaults
 .text.TWB_SNSR_Complementary_UpdateSettings
                0x08013604      0x3b4 Debug/complementary.o
                0x08013604                TWB_SNSR_Complementary_UpdateSettings
 .text.TWB_SNSR_Complementary_Process
                0x080139b8      0x3d0 Debug/complementary.o
                0x080139b8                TWB_SNSR_Complementary_Process
 .text.TWB_SNSR_Complementary_SendDiag
                0x08013d88      0x380 Debug/complementary.o
                0x08013d88                TWB_SNSR_Complementary_SendDiag
 .text.TWB_SNSR_Kalman_Init
                0x08014108       0x2c Debug/kalman.o
                0x08014108                TWB_SNSR_Kalman_Init
 .text.TWB_SNSR_Kalman_ResetDefaults
                0x08014134        0x8 Debug/kalman.o
                0x08014134                TWB_SNSR_Kalman_ResetDefaults
 .text.TWB_SNSR_Kalman_UpdateSetting
                0x0801413c       0x18 Debug/kalman.o
                0x0801413c                TWB_SNSR_Kalman_UpdateSetting
 .text.TWB_SNSR_Kalman_SendDiag
                0x08014154        0x4 Debug/kalman.o
                0x08014154                TWB_SNSR_Kalman_SendDiag
 .text.__gps_sendCommand
                0x08014158       0x80 Debug/gps.o
                0x08014158                __gps_sendCommand
 .text.TWB_GPS_Geo_Init
                0x080141d8      0x134 Debug/gps.o
                0x080141d8                TWB_GPS_Geo_Init
 .text.TWB_GPS_Heading_Init
                0x0801430c        0x8 Debug/gps.o
                0x0801430c                TWB_GPS_Heading_Init
 .text.TWB_GPS_Alt_Init
                0x08014314        0x8 Debug/gps.o
                0x08014314                TWB_GPS_Alt_Init
 .text.clearBuffer
                0x0801431c       0x20 Debug/gps.o
                0x0801431c                clearBuffer
 .text.determineMessageType
                0x0801433c       0x60 Debug/gps.o
                0x0801433c                determineMessageType
 .text.TWB_GPS_Geo_Update_Setting
                0x0801439c       0x88 Debug/gps.o
                0x0801439c                TWB_GPS_Geo_Update_Setting
 .text.isnumb   0x08014424       0x28 Debug/gps.o
                0x08014424                isnumb
 .text.twb_atof
                0x0801444c      0x100 Debug/gps.o
                0x0801444c                twb_atof
 .text.parseValue
                0x0801454c      0x1e8 Debug/gps.o
                0x0801454c                parseValue
 .text.TWB_GPS_Alt_ResetDefaults
                0x08014734        0x8 Debug/gps.o
                0x08014734                TWB_GPS_Alt_ResetDefaults
 .text.TWB_GPS_Heading_ResetDefaults
                0x0801473c        0x8 Debug/gps.o
                0x0801473c                TWB_GPS_Heading_ResetDefaults
 .text.TWB_GPS_Geo_ResetDefaults
                0x08014744        0x8 Debug/gps.o
                0x08014744                TWB_GPS_Geo_ResetDefaults
 .text.TWB_GPS_Alt_Update_Setting
                0x0801474c       0x18 Debug/gps.o
                0x0801474c                TWB_GPS_Alt_Update_Setting
 .text.TWB_GPS_Heading_Update_Setting
                0x08014764       0x18 Debug/gps.o
                0x08014764                TWB_GPS_Heading_Update_Setting
 .text.TWB_GPS_QueueMsg
                0x0801477c       0x18 Debug/gps.o
                0x0801477c                TWB_GPS_QueueMsg
 .text.TWB_GPS_HandleRX_Overrun
                0x08014794       0x1c Debug/gps.o
                0x08014794                TWB_GPS_HandleRX_Overrun
 .text.TWB_GPS_HandleRX_IRQ
                0x080147b0      0x130 Debug/gps.o
                0x080147b0                TWB_GPS_HandleRX_IRQ
 .text.TWB_IMU_HMC5883_Init
                0x080148e0      0x338 Debug/hmc5883.o
                0x080148e0                TWB_IMU_HMC5883_Init
 .text.TWB_IMU_HMC5883_ResetDefaults
                0x08014c18      0x2e8 Debug/hmc5883.o
                0x08014c18                TWB_IMU_HMC5883_ResetDefaults
 .text.TWB_IMU_HMC5883_UpdateSetting
                0x08014f00      0x1b4 Debug/hmc5883.o
                0x08014f00                TWB_IMU_HMC5883_UpdateSetting
 .text.TWB_IMU_HMC5883_SendDiag
                0x080150b4       0x7c Debug/hmc5883.o
                0x080150b4                TWB_IMU_HMC5883_SendDiag
 .text.TWB_IMU_ITG3200_Init
                0x08015130      0x200 Debug/itg3200.o
                0x08015130                TWB_IMU_ITG3200_Init
 .text.TWB_IMU_ITG3200_ResetDefaults
                0x08015330      0x198 Debug/itg3200.o
                0x08015330                TWB_IMU_ITG3200_ResetDefaults
 .text.TWB_IMU_ITG3200_UpdateSetting
                0x080154c8      0x158 Debug/itg3200.o
                0x080154c8                TWB_IMU_ITG3200_UpdateSetting
 .text.TWB_IMU_ITG3200_SendDiag
                0x08015620       0xd4 Debug/itg3200.o
                0x08015620                TWB_IMU_ITG3200_SendDiag
 .text.__enableL3GD20FiFo
                0x080156f4       0x44 Debug/l3g20.o
                0x080156f4                __enableL3GD20FiFo
 .text.__disableL3GD20FiFo
                0x08015738       0x64 Debug/l3g20.o
                0x08015738                __disableL3GD20FiFo
 .text.__twb_imu_L3GD20_InitPeriph
                0x0801579c      0x134 Debug/l3g20.o
                0x0801579c                __twb_imu_L3GD20_InitPeriph
 .text.TWB_IMU_L3GD20_Init
                0x080158d0      0x2e0 Debug/l3g20.o
                0x080158d0                TWB_IMU_L3GD20_Init
 .text.TWB_IMU_L3GD20_UpdateSetting
                0x08015bb0      0x2ac Debug/l3g20.o
                0x08015bb0                TWB_IMU_L3GD20_UpdateSetting
 .text.TWB_IMU_L3GD20_ResetDefaults
                0x08015e5c      0x288 Debug/l3g20.o
                0x08015e5c                TWB_IMU_L3GD20_ResetDefaults
 .text.TWB_IMU_L3GD20_Start
                0x080160e4       0xa0 Debug/l3g20.o
                0x080160e4                TWB_IMU_L3GD20_Start
 .text.TWB_IMU_L3GD20_Pause
                0x08016184       0x48 Debug/l3g20.o
                0x08016184                TWB_IMU_L3GD20_Pause
 .text.TWB_IMU_L3GD20_Resume
                0x080161cc       0xa0 Debug/l3g20.o
                0x080161cc                TWB_IMU_L3GD20_Resume
 .text.TWB_IMU_L3GD20_Stop
                0x0801626c       0x38 Debug/l3g20.o
                0x0801626c                TWB_IMU_L3GD20_Stop
 .text.TWB_IMU_L3GD20_Zero
                0x080162a4       0x5c Debug/l3g20.o
                0x080162a4                TWB_IMU_L3GD20_Zero
 .text.TWB_IMU_L3GD20_CompleteZero
                0x08016300       0x30 Debug/l3g20.o
                0x08016300                TWB_IMU_L3GD20_CompleteZero
 .text.__l3gd20_getDataRateSeconds
                0x08016330       0xac Debug/l3g20.o
                0x08016330                __l3gd20_getDataRateSeconds
 .text.__l3gd20_calculateScaleValue
                0x080163dc       0xc4 Debug/l3g20.o
                0x080163dc                __l3gd20_calculateScaleValue
 .text.__twb_imu_l3gd20_ProcessSlot
                0x080164a0      0x304 Debug/l3g20.o
                0x080164a0                __twb_imu_l3gd20_ProcessSlot
 .text.__twb_imu_l3gd20_RegisterRead
                0x080167a4       0x18 Debug/l3g20.o
                0x080167a4                __twb_imu_l3gd20_RegisterRead
 .text.__twb_imu_l3gd20_QueueRead
                0x080167bc       0x20 Debug/l3g20.o
                0x080167bc                __twb_imu_l3gd20_QueueRead
 .text.__twb_imu_l3gd20_QueueSizeRead
                0x080167dc       0x20 Debug/l3g20.o
                0x080167dc                __twb_imu_l3gd20_QueueSizeRead
 .text.__twb_imu_l3gd20_QueueFiFoRead
                0x080167fc       0x70 Debug/l3g20.o
                0x080167fc                __twb_imu_l3gd20_QueueFiFoRead
 .text.TWB_IMU_L3GD30_ProcessData
                0x0801686c      0x160 Debug/l3g20.o
                0x0801686c                TWB_IMU_L3GD30_ProcessData
 .text.__twb_imu_l3gd20_Read
                0x080169cc       0x94 Debug/l3g20.o
                0x080169cc                __twb_imu_l3gd20_Read
 .text.TWB_IMU_L3GD20_IRQ
                0x08016a60        0xc Debug/l3g20.o
                0x08016a60                TWB_IMU_L3GD20_IRQ
 .text.TWB_IMU_L3GD20_Read
                0x08016a6c       0x18 Debug/l3g20.o
                0x08016a6c                TWB_IMU_L3GD20_Read
 .text.TWB_IMU_L3GD20_SendDiag
                0x08016a84       0xf4 Debug/l3g20.o
                0x08016a84                TWB_IMU_L3GD20_SendDiag
 .text.TWB_ADC_Init
                0x08016b78      0x208 Debug/lipo_adc.o
                0x08016b78                TWB_ADC_Init
 .text.TWB_ADC_Read
                0x08016d80       0x40 Debug/lipo_adc.o
                0x08016d80                TWB_ADC_Read
 .text.TWB_ADC_ResetDefaults
                0x08016dc0       0xd4 Debug/lipo_adc.o
                0x08016dc0                TWB_ADC_ResetDefaults
 .text.TWB_ADC_UpdateSetting
                0x08016e94       0xdc Debug/lipo_adc.o
                0x08016e94                TWB_ADC_UpdateSetting
 .text.ADC_IRQHandler
                0x08016f70      0x280 Debug/lipo_adc.o
                0x08016f70                ADC_IRQHandler
 .text.TWB_ADC_QueueMsg
                0x080171f0       0x18 Debug/lipo_adc.o
                0x080171f0                TWB_ADC_QueueMsg
 .text.TWB_ADC_SendDiag
                0x08017208       0x88 Debug/lipo_adc.o
                0x08017208                TWB_ADC_SendDiag
 .text.__twb_imu_lsm303_acc_init_periph
                0x08017290       0xdc Debug/lsm303_acc.o
                0x08017290                __twb_imu_lsm303_acc_init_periph
 .text.TWB_IMU_LSM303_Acc_Init
                0x0801736c      0x2bc Debug/lsm303_acc.o
                0x0801736c                TWB_IMU_LSM303_Acc_Init
 .text.TWB_IMU_LSM303_Acc_ResetDefaults
                0x08017628      0x220 Debug/lsm303_acc.o
                0x08017628                TWB_IMU_LSM303_Acc_ResetDefaults
 .text.__lsmacc303_EnableFifo
                0x08017848       0x44 Debug/lsm303_acc.o
                0x08017848                __lsmacc303_EnableFifo
 .text.__lsmacc303_DisableFifo
                0x0801788c       0x44 Debug/lsm303_acc.o
                0x0801788c                __lsmacc303_DisableFifo
 .text.TWB_IMU_LSM303_Acc_UpdateSetting
                0x080178d0      0x1a0 Debug/lsm303_acc.o
                0x080178d0                TWB_IMU_LSM303_Acc_UpdateSetting
 .text.TWB_IMU_LSM303_Acc_Start
                0x08017a70       0x6c Debug/lsm303_acc.o
                0x08017a70                TWB_IMU_LSM303_Acc_Start
 .text.TWB_IMU_LSM303_Acc_Pause
                0x08017adc       0x44 Debug/lsm303_acc.o
                0x08017adc                TWB_IMU_LSM303_Acc_Pause
 .text.TWB_IMU_LSM303_Acc_Resume
                0x08017b20       0x6c Debug/lsm303_acc.o
                0x08017b20                TWB_IMU_LSM303_Acc_Resume
 .text.TWB_IMU_LSM303_Acc_Stop
                0x08017b8c       0x44 Debug/lsm303_acc.o
                0x08017b8c                TWB_IMU_LSM303_Acc_Stop
 .text.TWB_IMU_LSM303_Acc_Zero
                0x08017bd0       0x38 Debug/lsm303_acc.o
                0x08017bd0                TWB_IMU_LSM303_Acc_Zero
 .text.TWB_IMU_LSM303_Acc_CompleteZero
                0x08017c08       0x30 Debug/lsm303_acc.o
                0x08017c08                TWB_IMU_LSM303_Acc_CompleteZero
 .text.__twb_imu_lsm303_acc_RegisterRead
                0x08017c38       0x18 Debug/lsm303_acc.o
                0x08017c38                __twb_imu_lsm303_acc_RegisterRead
 .text.__twb_imu_lsm303_acc_QueueRead
                0x08017c50       0x20 Debug/lsm303_acc.o
                0x08017c50                __twb_imu_lsm303_acc_QueueRead
 .text.__twb_imu_lsm303_acc_QueueSizeRead
                0x08017c70       0x20 Debug/lsm303_acc.o
                0x08017c70                __twb_imu_lsm303_acc_QueueSizeRead
 .text.__twb_imu_lsm303_acc_QueueFiFoRead
                0x08017c90       0x94 Debug/lsm303_acc.o
                0x08017c90                __twb_imu_lsm303_acc_QueueFiFoRead
 .text.__twb_imu_lsm303_acc_ProcessSlot
                0x08017d24       0xf4 Debug/lsm303_acc.o
                0x08017d24                __twb_imu_lsm303_acc_ProcessSlot
 .text.__twb_imu_lsm303_acc_CalcAttitude
                0x08017e18      0x340 Debug/lsm303_acc.o
                0x08017e18                __twb_imu_lsm303_acc_CalcAttitude
 .text.TWB_IMU_LSM303_Acc_ProcessData
                0x08018158       0x88 Debug/lsm303_acc.o
                0x08018158                TWB_IMU_LSM303_Acc_ProcessData
 .text.__twb_imu_lsm303_acc_Read
                0x080181e0       0xa4 Debug/lsm303_acc.o
                0x080181e0                __twb_imu_lsm303_acc_Read
 .text.TWB_IMU_LSM303_Acc_IRQ
                0x08018284        0xc Debug/lsm303_acc.o
                0x08018284                TWB_IMU_LSM303_Acc_IRQ
 .text.TWB_IMU_LSM303_Acc_Read
                0x08018290       0x18 Debug/lsm303_acc.o
                0x08018290                TWB_IMU_LSM303_Acc_Read
 .text.TWB_IMU_LSM303_Acc_SendDiag
                0x080182a8      0x12c Debug/lsm303_acc.o
                0x080182a8                TWB_IMU_LSM303_Acc_SendDiag
 .text.__twb_imu_lsm303_mag_setFullScaleRange
                0x080183d4       0x9c Debug/lsm303_mag.o
                0x080183d4                __twb_imu_lsm303_mag_setFullScaleRange
 .text.__twb_imu_lsm303_mag_init_Periph
                0x08018470       0xa0 Debug/lsm303_mag.o
                0x08018470                __twb_imu_lsm303_mag_init_Periph
 .text.TWB_IMU_LSM303_Mag_Init
                0x08018510      0x2ec Debug/lsm303_mag.o
                0x08018510                TWB_IMU_LSM303_Mag_Init
 .text.TWB_IMU_LSM303_Mag_ResetDefaults
                0x080187fc      0x2e4 Debug/lsm303_mag.o
                0x080187fc                TWB_IMU_LSM303_Mag_ResetDefaults
 .text.TWB_IMU_LSM303_Mag_UpdateSetting
                0x08018ae0      0x190 Debug/lsm303_mag.o
                0x08018ae0                TWB_IMU_LSM303_Mag_UpdateSetting
 .text.TWB_IMU_LSM303_Mag_Start
                0x08018c70       0x38 Debug/lsm303_mag.o
                0x08018c70                TWB_IMU_LSM303_Mag_Start
 .text.TWB_IMU_LSM303_Mag_Stop
                0x08018ca8        0x8 Debug/lsm303_mag.o
                0x08018ca8                TWB_IMU_LSM303_Mag_Stop
 .text.TWB_IMU_LSM303_Mag_Pause
                0x08018cb0        0x8 Debug/lsm303_mag.o
                0x08018cb0                TWB_IMU_LSM303_Mag_Pause
 .text.TWB_IMU_LSM303_Mag_Resume
                0x08018cb8       0x38 Debug/lsm303_mag.o
                0x08018cb8                TWB_IMU_LSM303_Mag_Resume
 .text.TWB_IMU_LSM303_Mag_BeginCalibration
                0x08018cf0       0x70 Debug/lsm303_mag.o
                0x08018cf0                TWB_IMU_LSM303_Mag_BeginCalibration
 .text.TWB_IMU_LSM303_Mag_CancelCalibration
                0x08018d60       0xe8 Debug/lsm303_mag.o
                0x08018d60                TWB_IMU_LSM303_Mag_CancelCalibration
 .text.TWB_IMU_LSM303_Mag_EndCalibration
                0x08018e48      0x170 Debug/lsm303_mag.o
                0x08018e48                TWB_IMU_LSM303_Mag_EndCalibration
 .text.__twb_imu_lsm303_mag_I2CReadComplete
                0x08018fb8       0x18 Debug/lsm303_mag.o
                0x08018fb8                __twb_imu_lsm303_mag_I2CReadComplete
 .text.__imu_lsm303_mag_getTiltHeading
                0x08018fd0      0x208 Debug/lsm303_mag.o
                0x08018fd0                __imu_lsm303_mag_getTiltHeading
 .text.TWB_IMU_LSM303_Mag_ProcessData
                0x080191d8      0x3e4 Debug/lsm303_mag.o
                0x080191d8                TWB_IMU_LSM303_Mag_ProcessData
 .text.TWB_IMU_LSM303_Mag_Read
                0x080195bc       0x50 Debug/lsm303_mag.o
                0x080195bc                TWB_IMU_LSM303_Mag_Read
 .text.TWB_IMU_LSM303_Mag_SendDiag
                0x0801960c       0xc8 Debug/lsm303_mag.o
                0x0801960c                TWB_IMU_LSM303_Mag_SendDiag
 .text.__twb_imu_mpu60x0_Acc_InitPerip
                0x080196d4       0xcc Debug/mpu60x0_acc.o
                0x080196d4                __twb_imu_mpu60x0_Acc_InitPerip
 .text.TWB_IMU_MPU60x0_Acc_Init
                0x080197a0      0x240 Debug/mpu60x0_acc.o
                0x080197a0                TWB_IMU_MPU60x0_Acc_Init
 .text.TWB_IMU_MPU60x0_Acc_ResetDefaults
                0x080199e0      0x1b0 Debug/mpu60x0_acc.o
                0x080199e0                TWB_IMU_MPU60x0_Acc_ResetDefaults
 .text.TWB_IMU_MPU60x0_Acc_UpdateSetting
                0x08019b90      0x134 Debug/mpu60x0_acc.o
                0x08019b90                TWB_IMU_MPU60x0_Acc_UpdateSetting
 .text.TWB_IMU_MPU60x0_Acc_Start
                0x08019cc4       0x38 Debug/mpu60x0_acc.o
                0x08019cc4                TWB_IMU_MPU60x0_Acc_Start
 .text.TWB_IMU_MPU60x0_Acc_Pause
                0x08019cfc        0x8 Debug/mpu60x0_acc.o
                0x08019cfc                TWB_IMU_MPU60x0_Acc_Pause
 .text.TWB_IMU_MPU60x0_Acc_Resume
                0x08019d04       0x38 Debug/mpu60x0_acc.o
                0x08019d04                TWB_IMU_MPU60x0_Acc_Resume
 .text.TWB_IMU_MPU60x0_Acc_Stop
                0x08019d3c        0x8 Debug/mpu60x0_acc.o
                0x08019d3c                TWB_IMU_MPU60x0_Acc_Stop
 .text.TWB_IMU_MPU60x0_Acc_Zero
                0x08019d44       0x3c Debug/mpu60x0_acc.o
                0x08019d44                TWB_IMU_MPU60x0_Acc_Zero
 .text.TWB_IMU_MPU60x0_Acc_CompleteZero
                0x08019d80       0x30 Debug/mpu60x0_acc.o
                0x08019d80                TWB_IMU_MPU60x0_Acc_CompleteZero
 .text.__imu_mpu60x0_acc_dataReady
                0x08019db0       0x18 Debug/mpu60x0_acc.o
                0x08019db0                __imu_mpu60x0_acc_dataReady
 .text.TWB_IMU_MPU60x0_Acc_ProcessData
                0x08019dc8      0x1c4 Debug/mpu60x0_acc.o
                0x08019dc8                TWB_IMU_MPU60x0_Acc_ProcessData
 .text.__twb_imu_MPU60x0_Acc_Read
                0x08019f8c       0x44 Debug/mpu60x0_acc.o
                0x08019f8c                __twb_imu_MPU60x0_Acc_Read
 .text.TWB_IMU_MPU60x0_Acc_Read
                0x08019fd0       0x18 Debug/mpu60x0_acc.o
                0x08019fd0                TWB_IMU_MPU60x0_Acc_Read
 .text.TWB_IMU_MPU60x0_Acc_IRQ
                0x08019fe8        0xc Debug/mpu60x0_acc.o
                0x08019fe8                TWB_IMU_MPU60x0_Acc_IRQ
 .text.TWB_IMU_MPU60x0_Acc_SendDiag
                0x08019ff4       0xf4 Debug/mpu60x0_acc.o
                0x08019ff4                TWB_IMU_MPU60x0_Acc_SendDiag
 .text.__setMPUGyroLSBSensitivity
                0x0801a0e8       0x68 Debug/mpu60x0_gryo.o
                0x0801a0e8                __setMPUGyroLSBSensitivity
 .text.__twb_imu_MPU60x0_Gyro_InitPeriph
                0x0801a150       0xf4 Debug/mpu60x0_gryo.o
                0x0801a150                __twb_imu_MPU60x0_Gyro_InitPeriph
 .text.TWB_IMU_MPU60x0_Gyro_Init
                0x0801a244      0x294 Debug/mpu60x0_gryo.o
                0x0801a244                TWB_IMU_MPU60x0_Gyro_Init
 .text.TWB_IMU_MPU60x0_Gyro_ResetDefaults
                0x0801a4d8      0x1fc Debug/mpu60x0_gryo.o
                0x0801a4d8                TWB_IMU_MPU60x0_Gyro_ResetDefaults
 .text.TWB_IMU_MPU60x0_Gyro_Zero
                0x0801a6d4       0x84 Debug/mpu60x0_gryo.o
                0x0801a6d4                TWB_IMU_MPU60x0_Gyro_Zero
 .text.TWB_IMU_MPU60x0_Gyro_CompleteZero
                0x0801a758       0x30 Debug/mpu60x0_gryo.o
                0x0801a758                TWB_IMU_MPU60x0_Gyro_CompleteZero
 .text.TWB_IMU_MPU60x0_Gyro_UpdateSetting
                0x0801a788      0x148 Debug/mpu60x0_gryo.o
                0x0801a788                TWB_IMU_MPU60x0_Gyro_UpdateSetting
 .text.TWB_IMU_MPU60x0_Gyro_Start
                0x0801a8d0       0xac Debug/mpu60x0_gryo.o
                0x0801a8d0                TWB_IMU_MPU60x0_Gyro_Start
 .text.TWB_IMU_MPU60x0_Gyro_Pause
                0x0801a97c       0x5c Debug/mpu60x0_gryo.o
                0x0801a97c                TWB_IMU_MPU60x0_Gyro_Pause
 .text.TWB_IMU_MPU60x0_Gyro_Resume
                0x0801a9d8       0xc8 Debug/mpu60x0_gryo.o
                0x0801a9d8                TWB_IMU_MPU60x0_Gyro_Resume
 .text.TWB_IMU_MPU60x0_Gyro_Stop
                0x0801aaa0       0x5c Debug/mpu60x0_gryo.o
                0x0801aaa0                TWB_IMU_MPU60x0_Gyro_Stop
 .text.__twb_imu_mpu60x0_gyro_RegisterRead
                0x0801aafc       0x18 Debug/mpu60x0_gryo.o
                0x0801aafc                __twb_imu_mpu60x0_gyro_RegisterRead
 .text.__twb_imu_mpu60x0_gyro_QueueRead
                0x0801ab14       0x20 Debug/mpu60x0_gryo.o
                0x0801ab14                __twb_imu_mpu60x0_gyro_QueueRead
 .text.__twb_imu_mpu60x0_gyro_QueueSizeRead
                0x0801ab34       0x20 Debug/mpu60x0_gryo.o
                0x0801ab34                __twb_imu_mpu60x0_gyro_QueueSizeRead
 .text.__twb_imu_mpu60x0_gyro_QueueFiFoRead
                0x0801ab54       0x80 Debug/mpu60x0_gryo.o
                0x0801ab54                __twb_imu_mpu60x0_gyro_QueueFiFoRead
 .text.__mpu60x0_getDataRateSeconds
                0x0801abd4       0x9c Debug/mpu60x0_gryo.o
                0x0801abd4                __mpu60x0_getDataRateSeconds
 .text.__mpu60x0_gyro_calculateScaleValue
                0x0801ac70       0xcc Debug/mpu60x0_gryo.o
                0x0801ac70                __mpu60x0_gyro_calculateScaleValue
 .text.__twb_imu_mpu60x0_gyro_ProcessSlot
                0x0801ad3c      0x208 Debug/mpu60x0_gryo.o
                0x0801ad3c                __twb_imu_mpu60x0_gyro_ProcessSlot
 .text.TWB_IMU_MPU60x0_Gyro_ProcessData
                0x0801af44      0x148 Debug/mpu60x0_gryo.o
                0x0801af44                TWB_IMU_MPU60x0_Gyro_ProcessData
 .text.__twb_imu_mpu60x0_gyro_Read
                0x0801b08c       0x94 Debug/mpu60x0_gryo.o
                0x0801b08c                __twb_imu_mpu60x0_gyro_Read
 .text.TWB_IMU_MPU60x0_Gyro_Read
                0x0801b120       0x18 Debug/mpu60x0_gryo.o
                0x0801b120                TWB_IMU_MPU60x0_Gyro_Read
 .text.TWB_IMU_MPU60x0_Gyro_IRQ
                0x0801b138        0xc Debug/mpu60x0_gryo.o
                0x0801b138                TWB_IMU_MPU60x0_Gyro_IRQ
 .text.TWB_IMU_MPU60x0_Gyro_SendDiag
                0x0801b144       0xd4 Debug/mpu60x0_gryo.o
                0x0801b144                TWB_IMU_MPU60x0_Gyro_SendDiag
 .text.reset    0x0801b218       0x34 Debug/ms5611.o
                0x0801b218                reset
 .text.__snsr_MS5611_GetAltitude
                0x0801b24c       0x50 Debug/ms5611.o
                0x0801b24c                __snsr_MS5611_GetAltitude
 .text.__imu_ms5611_readCalibration
                0x0801b29c      0x188 Debug/ms5611.o
                0x0801b29c                __imu_ms5611_readCalibration
 .text.__twb_imu_ms5611_init_Periph
                0x0801b424        0xc Debug/ms5611.o
                0x0801b424                __twb_imu_ms5611_init_Periph
 .text.TWB_IMU_MS5611_Init
                0x0801b430      0x27c Debug/ms5611.o
                0x0801b430                TWB_IMU_MS5611_Init
 .text.TWB_IMU_MS5611_ResetDefaults
                0x0801b6ac       0x64 Debug/ms5611.o
                0x0801b6ac                TWB_IMU_MS5611_ResetDefaults
 .text.TWB_IMU_MS5611_UpdateSetting
                0x0801b710       0xe4 Debug/ms5611.o
                0x0801b710                TWB_IMU_MS5611_UpdateSetting
 .text.TWB_IMU_MS5611_Zero
                0x0801b7f4       0xe4 Debug/ms5611.o
                0x0801b7f4                TWB_IMU_MS5611_Zero
 .text.__ms5611_readRawTemperature
                0x0801b8d8       0x50 Debug/ms5611.o
                0x0801b8d8                __ms5611_readRawTemperature
 .text.__ms5611_processTemperature
                0x0801b928       0x8c Debug/ms5611.o
                0x0801b928                __ms5611_processTemperature
 .text.__ms5611_readRawPressure
                0x0801b9b4       0x50 Debug/ms5611.o
                0x0801b9b4                __ms5611_readRawPressure
 .text.__ms5611_processPressure
                0x0801ba04      0x1c8 Debug/ms5611.o
                0x0801ba04                __ms5611_processPressure
 .text.TWB_IMU_MS5611_I2C_Completed
                0x0801bbcc       0x18 Debug/ms5611.o
                0x0801bbcc                TWB_IMU_MS5611_I2C_Completed
 .text.__imu_ms5611_startTemperatureConversion
                0x0801bbe4       0x44 Debug/ms5611.o
                0x0801bbe4                __imu_ms5611_startTemperatureConversion
 .text.__imu_ms5611_startPressureConversion
                0x0801bc28       0x44 Debug/ms5611.o
                0x0801bc28                __imu_ms5611_startPressureConversion
 .text.__imu_ms5611_readTemperature
                0x0801bc6c       0x20 Debug/ms5611.o
                0x0801bc6c                __imu_ms5611_readTemperature
 .text.__imu_ms5611_startTemperatureRead
                0x0801bc8c       0x48 Debug/ms5611.o
                0x0801bc8c                __imu_ms5611_startTemperatureRead
 .text.__imu_ms5611_readPressure
                0x0801bcd4       0x30 Debug/ms5611.o
                0x0801bcd4                __imu_ms5611_readPressure
 .text.__imu_ms5611_startPressureRead
                0x0801bd04       0x48 Debug/ms5611.o
                0x0801bd04                __imu_ms5611_startPressureRead
 .text.TWB_IMU_MS5611_Read
                0x0801bd4c       0x3c Debug/ms5611.o
                0x0801bd4c                TWB_IMU_MS5611_Read
 .text.TWB_IMU_MS5611_ProcessData
                0x0801bd88       0x28 Debug/ms5611.o
                0x0801bd88                TWB_IMU_MS5611_ProcessData
 .text.TWB_IMU_MS5611_SendDiag
                0x0801bdb0       0xc8 Debug/ms5611.o
                0x0801bdb0                TWB_IMU_MS5611_SendDiag
 .text.TWB_IMU_MS5611_Start
                0x0801be78        0x8 Debug/ms5611.o
                0x0801be78                TWB_IMU_MS5611_Start
 .text.TWB_IMU_MS5611_Stop
                0x0801be80        0x8 Debug/ms5611.o
                0x0801be80                TWB_IMU_MS5611_Stop
 .text.TWB_IMU_MS5611_Pause
                0x0801be88        0x8 Debug/ms5611.o
                0x0801be88                TWB_IMU_MS5611_Pause
 .text.TWB_IMU_MS5611_Resume
                0x0801be90        0x8 Debug/ms5611.o
                0x0801be90                TWB_IMU_MS5611_Resume
 .text.TWB_IMU_RestoreDefaults
                0x0801be98      0x208 Debug/snsr_actions.o
                0x0801be98                TWB_IMU_RestoreDefaults
 .text.TWB_Sensors_Start
                0x0801c0a0       0x74 Debug/snsr_actions.o
                0x0801c0a0                TWB_Sensors_Start
 .text.TWB_Sensors_Pause
                0x0801c114       0x78 Debug/snsr_actions.o
                0x0801c114                TWB_Sensors_Pause
 .text.TWB_Sensors_Resume
                0x0801c18c       0x98 Debug/snsr_actions.o
                0x0801c18c                TWB_Sensors_Resume
 .text.TWB_Sensors_Stop
                0x0801c224       0x6c Debug/snsr_actions.o
                0x0801c224                TWB_Sensors_Stop
 .text.__sensorsUpdateSensorSetting
                0x0801c290      0x144 Debug/snsr_commo.o
                0x0801c290                __sensorsUpdateSensorSetting
 .text.TWB_Sensors_HandleMessage
                0x0801c3d4      0x3cc Debug/snsr_commo.o
                0x0801c3d4                TWB_Sensors_HandleMessage
 .text.TWB_Sensors_QueueMsg
                0x0801c7a0      0x10c Debug/snsr_commo.o
                0x0801c7a0                TWB_Sensors_QueueMsg
 .text.__snsr_Configure_Timer
                0x0801c8ac       0x58 Debug/snsr_main.o
                0x0801c8ac                __snsr_Configure_Timer
 .text.__snsr_Configure_Incoming_IRQs
                0x0801c904       0xd4 Debug/snsr_main.o
                0x0801c904                __snsr_Configure_Incoming_IRQs
 .text.__initSensorData
                0x0801c9d8      0x114 Debug/snsr_main.o
                0x0801c9d8                __initSensorData
 .text.TWB_Sensors_Init
                0x0801caec      0x10c Debug/snsr_main.o
                0x0801caec                TWB_Sensors_Init
 .text.TWB_IMU_ProcessSensors
                0x0801cbf8      0x1c8 Debug/snsr_main.o
                0x0801cbf8                TWB_IMU_ProcessSensors
 .text.__addSensor
                0x0801cdc0       0xe0 Debug/snsr_mgmt.o
                0x0801cdc0                __addSensor
 .text.TWB_InitSensorArray
                0x0801cea0      0x418 Debug/snsr_mgmt.o
                0x0801cea0                TWB_InitSensorArray
 .text.__twb_sensorWriteCalComplete
                0x0801d2b8       0x20 Debug/snsr_zero.o
                0x0801d2b8                __twb_sensorWriteCalComplete
 .text.__twb_sensorCalComplete
                0x0801d2d8      0x194 Debug/snsr_zero.o
                0x0801d2d8                __twb_sensorCalComplete
 .text.TWB_Sensor_Calibrate
                0x0801d46c       0xc0 Debug/snsr_zero.o
                0x0801d46c                TWB_Sensor_Calibrate
 .text.__twb_Sensors_BeginZero
                0x0801d52c       0x98 Debug/snsr_zero.o
                0x0801d52c                __twb_Sensors_BeginZero
 .text.TWB_Sensors_Start_Zero
                0x0801d5c4       0x2c Debug/snsr_zero.o
                0x0801d5c4                TWB_Sensors_Start_Zero
 .text.TWB_Sensors_Zero
                0x0801d5f0      0x26c Debug/snsr_zero.o
                0x0801d5f0                TWB_Sensors_Zero
 .text.__sonar_initTimeBase
                0x0801d85c       0x58 Debug/sonar.o
                0x0801d85c                __sonar_initTimeBase
 .text.TWB_IMU_Sonar_Init
                0x0801d8b4      0x1d0 Debug/sonar.o
                0x0801d8b4                TWB_IMU_Sonar_Init
 .text.TWB_IMU_Sonar_Zero
                0x0801da84       0x14 Debug/sonar.o
                0x0801da84                TWB_IMU_Sonar_Zero
 .text.TWB_IMU_Sonar_ResetDefaults
                0x0801da98      0x10c Debug/sonar.o
                0x0801da98                TWB_IMU_Sonar_ResetDefaults
 .text.TWB_IMU_Sonar_UpdateSetting
                0x0801dba4       0xfc Debug/sonar.o
                0x0801dba4                TWB_IMU_Sonar_UpdateSetting
 .text.TWB_IMU_Sonar_Start
                0x0801dca0       0x18 Debug/sonar.o
                0x0801dca0                TWB_IMU_Sonar_Start
 .text.TWB_IMU_Sonar_Stop
                0x0801dcb8        0x8 Debug/sonar.o
                0x0801dcb8                TWB_IMU_Sonar_Stop
 .text.TWB_IMU_Sonar_Pause
                0x0801dcc0        0x8 Debug/sonar.o
                0x0801dcc0                TWB_IMU_Sonar_Pause
 .text.TWB_IMU_Sonar_Resume
                0x0801dcc8       0x18 Debug/sonar.o
                0x0801dcc8                TWB_IMU_Sonar_Resume
 .text.TWB_IMU_Sonar_Read
                0x0801dce0       0x5c Debug/sonar.o
                0x0801dce0                TWB_IMU_Sonar_Read
 .text.EXTI2_IRQHandler
                0x0801dd3c       0x74 Debug/sonar.o
                0x0801dd3c                EXTI2_IRQHandler
 .text.TWB_IMU_SONAR_ProcessData
                0x0801ddb0       0x80 Debug/sonar.o
                0x0801ddb0                TWB_IMU_SONAR_ProcessData
 .text.TWB_IMU_SONAR_SendDiag
                0x0801de30       0x74 Debug/sonar.o
                0x0801de30                TWB_IMU_SONAR_SendDiag
 .text.NMI_Handler
                0x0801dea4       0x30 Debug/stm32f4xx_it.o
                0x0801dea4                NMI_Handler
 .text.__sendChSync
                0x0801ded4       0x34 Debug/stm32f4xx_it.o
                0x0801ded4                __sendChSync
 .text.__printHexByteSync
                0x0801df08       0x44 Debug/stm32f4xx_it.o
                0x0801df08                __printHexByteSync
 .text.__printLongSync
                0x0801df4c       0x48 Debug/stm32f4xx_it.o
                0x0801df4c                __printLongSync
 .text.__printStrSync
                0x0801df94       0x30 Debug/stm32f4xx_it.o
                0x0801df94                __printStrSync
 .text.__printRegister
                0x0801dfc4       0x30 Debug/stm32f4xx_it.o
                0x0801dfc4                __printRegister
 .text.hard_fault_handler_c
                0x0801dff4      0x13c Debug/stm32f4xx_it.o
                0x0801dff4                hard_fault_handler_c
 .text.USART1_IRQHandler
                0x0801e130       0x50 Debug/stm32f4xx_it.o
                0x0801e130                USART1_IRQHandler
 .text.USART2_IRQHandler
                0x0801e180       0xf8 Debug/stm32f4xx_it.o
                0x0801e180                USART2_IRQHandler
 .text.EXTI0_IRQHandler
                0x0801e278        0x4 Debug/stm32f4xx_it.o
                0x0801e278                EXTI0_IRQHandler
 .text.EXTI1_IRQHandler
                0x0801e27c        0x4 Debug/stm32f4xx_it.o
                0x0801e27c                EXTI1_IRQHandler
 .text.EXTI4_IRQHandler
                0x0801e280       0x50 Debug/stm32f4xx_it.o
                0x0801e280                EXTI4_IRQHandler
 .text.EXTI9_5_IRQHandler
                0x0801e2d0      0x158 Debug/stm32f4xx_it.o
                0x0801e2d0                EXTI9_5_IRQHandler
 .text.EXTI15_10_IRQHandler
                0x0801e428      0x148 Debug/stm32f4xx_it.o
                0x0801e428                EXTI15_10_IRQHandler
 .text.RCC_IRQHandler
                0x0801e570       0x50 Debug/stm32f4xx_it.o
                0x0801e570                RCC_IRQHandler
 .text.SVC_Handler
                0x0801e5c0        0x4 Debug/stm32f4xx_it.o
                0x0801e5c0                SVC_Handler
 .text.PendSV_Handler
                0x0801e5c4        0x4 Debug/stm32f4xx_it.o
                0x0801e5c4                PendSV_Handler
 .text.TWB_CLI_Init
                0x0801e5c8       0x84 Debug/cli.o
                0x0801e5c8                TWB_CLI_Init
 .text.TWB_CLI_ParseCH
                0x0801e64c       0xd8 Debug/cli.o
                0x0801e64c                TWB_CLI_ParseCH
 .text.TWB_CLI_ProcessCommands
                0x0801e724      0x754 Debug/cli.o
                0x0801e724                TWB_CLI_ProcessCommands
 .text.TWB_CLI_OutStr
                0x0801ee78       0x58 Debug/cli.o
                0x0801ee78                TWB_CLI_OutStr
 .text.TWB_CLI_OutCH
                0x0801eed0       0x44 Debug/cli.o
                0x0801eed0                TWB_CLI_OutCH
 .text.TWB_CLI_HandleTXE
                0x0801ef14       0x80 Debug/cli.o
                0x0801ef14                TWB_CLI_HandleTXE
 .text.TWB_CLI_HandleRX
                0x0801ef94       0x1c Debug/cli.o
                0x0801ef94                TWB_CLI_HandleRX
 .text.TWB_CLI_HandleRX_Overrun
                0x0801efb0        0x4 Debug/cli.o
                0x0801efb0                TWB_CLI_HandleRX_Overrun
 .text.SystemInit
                0x0801efb4       0x68 Debug/system_stm32f4xx.o
                0x0801efb4                SystemInit
 .text.SetSysClock
                0x0801f01c       0xec Debug/system_stm32f4xx.o
 .text.NVIC_PriorityGroupConfig
                0x0801f108       0x1c Debug/misc.o
                0x0801f108                NVIC_PriorityGroupConfig
 .text.NVIC_Init
                0x0801f124       0xdc Debug/misc.o
                0x0801f124                NVIC_Init
 .text.ADC_DeInit
                0x0801f200       0x1c Debug/stm32f4xx_adc.o
                0x0801f200                ADC_DeInit
 .text.ADC_Init
                0x0801f21c       0xa8 Debug/stm32f4xx_adc.o
                0x0801f21c                ADC_Init
 .text.ADC_CommonInit
                0x0801f2c4       0x48 Debug/stm32f4xx_adc.o
                0x0801f2c4                ADC_CommonInit
 .text.ADC_Cmd  0x0801f30c       0x34 Debug/stm32f4xx_adc.o
                0x0801f30c                ADC_Cmd
 .text.ADC_RegularChannelConfig
                0x0801f340      0x1b4 Debug/stm32f4xx_adc.o
                0x0801f340                ADC_RegularChannelConfig
 .text.ADC_SoftwareStartConv
                0x0801f4f4       0x18 Debug/stm32f4xx_adc.o
                0x0801f4f4                ADC_SoftwareStartConv
 .text.ADC_ITConfig
                0x0801f50c       0x50 Debug/stm32f4xx_adc.o
                0x0801f50c                ADC_ITConfig
 .text.ADC_GetITStatus
                0x0801f55c       0x60 Debug/stm32f4xx_adc.o
                0x0801f55c                ADC_GetITStatus
 .text.ADC_ClearITPendingBit
                0x0801f5bc       0x2c Debug/stm32f4xx_adc.o
                0x0801f5bc                ADC_ClearITPendingBit
 .text.EXTI_Init
                0x0801f5e8       0xdc Debug/stm32f4xx_exti.o
                0x0801f5e8                EXTI_Init
 .text.EXTI_ClearITPendingBit
                0x0801f6c4       0x14 Debug/stm32f4xx_exti.o
                0x0801f6c4                EXTI_ClearITPendingBit
 .text.GPIO_Init
                0x0801f6d8      0x114 Debug/stm32f4xx_gpio.o
                0x0801f6d8                GPIO_Init
 .text.GPIO_WriteBit
                0x0801f7ec       0x30 Debug/stm32f4xx_gpio.o
                0x0801f7ec                GPIO_WriteBit
 .text.GPIO_PinAFConfig
                0x0801f81c       0x9c Debug/stm32f4xx_gpio.o
                0x0801f81c                GPIO_PinAFConfig
 .text.I2C_DeInit
                0x0801f8b8       0x74 Debug/stm32f4xx_i2c.o
                0x0801f8b8                I2C_DeInit
 .text.I2C_Init
                0x0801f92c      0x1cc Debug/stm32f4xx_i2c.o
                0x0801f92c                I2C_Init
 .text.I2C_Cmd  0x0801faf8       0x3c Debug/stm32f4xx_i2c.o
                0x0801faf8                I2C_Cmd
 .text.I2C_ITConfig
                0x0801fb34       0x48 Debug/stm32f4xx_i2c.o
                0x0801fb34                I2C_ITConfig
 .text.I2C_GetFlagStatus
                0x0801fb7c       0x64 Debug/stm32f4xx_i2c.o
                0x0801fb7c                I2C_GetFlagStatus
 .text.RCC_HSEConfig
                0x0801fbe0       0x20 Debug/stm32f4xx_rcc.o
                0x0801fbe0                RCC_HSEConfig
 .text.RCC_WaitForHSEStartUp
                0x0801fc00       0x5c Debug/stm32f4xx_rcc.o
                0x0801fc00                RCC_WaitForHSEStartUp
 .text.RCC_PLLCmd
                0x0801fc5c       0x1c Debug/stm32f4xx_rcc.o
                0x0801fc5c                RCC_PLLCmd
 .text.RCC_ClockSecuritySystemCmd
                0x0801fc78       0x1c Debug/stm32f4xx_rcc.o
                0x0801fc78                RCC_ClockSecuritySystemCmd
 .text.RCC_SYSCLKConfig
                0x0801fc94       0x30 Debug/stm32f4xx_rcc.o
                0x0801fc94                RCC_SYSCLKConfig
 .text.RCC_GetClocksFreq
                0x0801fcc4      0x14c Debug/stm32f4xx_rcc.o
                0x0801fcc4                RCC_GetClocksFreq
 .text.RCC_AHB1PeriphClockCmd
                0x0801fe10       0x38 Debug/stm32f4xx_rcc.o
                0x0801fe10                RCC_AHB1PeriphClockCmd
 .text.RCC_AHB2PeriphClockCmd
                0x0801fe48       0x38 Debug/stm32f4xx_rcc.o
                0x0801fe48                RCC_AHB2PeriphClockCmd
 .text.RCC_APB1PeriphClockCmd
                0x0801fe80       0x38 Debug/stm32f4xx_rcc.o
                0x0801fe80                RCC_APB1PeriphClockCmd
 .text.RCC_APB2PeriphClockCmd
                0x0801feb8       0x38 Debug/stm32f4xx_rcc.o
                0x0801feb8                RCC_APB2PeriphClockCmd
 .text.RCC_APB1PeriphResetCmd
                0x0801fef0       0x38 Debug/stm32f4xx_rcc.o
                0x0801fef0                RCC_APB1PeriphResetCmd
 .text.RCC_APB2PeriphResetCmd
                0x0801ff28       0x38 Debug/stm32f4xx_rcc.o
                0x0801ff28                RCC_APB2PeriphResetCmd
 .text.RCC_ITConfig
                0x0801ff60       0x4c Debug/stm32f4xx_rcc.o
                0x0801ff60                RCC_ITConfig
 .text.RCC_GetFlagStatus
                0x0801ffac       0x78 Debug/stm32f4xx_rcc.o
                0x0801ffac                RCC_GetFlagStatus
 .text.RCC_GetITStatus
                0x08020024       0x38 Debug/stm32f4xx_rcc.o
                0x08020024                RCC_GetITStatus
 .text.RCC_ClearITPendingBit
                0x0802005c       0x1c Debug/stm32f4xx_rcc.o
                0x0802005c                RCC_ClearITPendingBit
 .text.SYSCFG_EXTILineConfig
                0x08020078       0x94 Debug/stm32f4xx_syscfg.o
                0x08020078                SYSCFG_EXTILineConfig
 .text.TIM_TimeBaseInit
                0x0802010c       0xe4 Debug/stm32f4xx_tim.o
                0x0802010c                TIM_TimeBaseInit
 .text.TIM_Cmd  0x080201f0       0x3c Debug/stm32f4xx_tim.o
                0x080201f0                TIM_Cmd
 .text.TIM_OC1Init
                0x0802022c      0x134 Debug/stm32f4xx_tim.o
                0x0802022c                TIM_OC1Init
 .text.TIM_OC2Init
                0x08020360      0x150 Debug/stm32f4xx_tim.o
                0x08020360                TIM_OC2Init
 .text.TIM_OC3Init
                0x080204b0      0x14c Debug/stm32f4xx_tim.o
                0x080204b0                TIM_OC3Init
 .text.TIM_OC4Init
                0x080205fc       0xf8 Debug/stm32f4xx_tim.o
                0x080205fc                TIM_OC4Init
 .text.USART_Init
                0x080206f4      0x174 Debug/stm32f4xx_usart.o
                0x080206f4                USART_Init
 .text.USART_Cmd
                0x08020868       0x3c Debug/stm32f4xx_usart.o
                0x08020868                USART_Cmd
 .text.USART_SendData
                0x080208a4       0x20 Debug/stm32f4xx_usart.o
                0x080208a4                USART_SendData
 .text.USART_ITConfig
                0x080208c4       0x90 Debug/stm32f4xx_usart.o
                0x080208c4                USART_ITConfig
 .text.USART_ClearFlag
                0x08020954       0x1c Debug/stm32f4xx_usart.o
                0x08020954                USART_ClearFlag
 .text.HardFault_Handler
                0x08020970       0x12 Debug/startup_stm32f4xx.o
                0x08020970                HardFault_Handler
 *fill*         0x08020982        0x2 
 .text.Reset_Handler
                0x08020984       0x50 Debug/startup_stm32f4xx.o
                0x08020984                Reset_Handler
 .text.Default_Handler
                0x080209d4        0x2 Debug/startup_stm32f4xx.o
                0x080209d4                RTC_Alarm_IRQHandler
                0x080209d4                HASH_RNG_IRQHandler
                0x080209d4                TIM8_CC_IRQHandler
                0x080209d4                DebugMon_Handler
                0x080209d4                TIM1_CC_IRQHandler
                0x080209d4                DMA2_Stream5_IRQHandler
                0x080209d4                DMA1_Stream5_IRQHandler
                0x080209d4                PVD_IRQHandler
                0x080209d4                SDIO_IRQHandler
                0x080209d4                TAMP_STAMP_IRQHandler
                0x080209d4                CAN2_RX1_IRQHandler
                0x080209d4                TIM8_TRG_COM_TIM14_IRQHandler
                0x080209d4                TIM1_UP_TIM10_IRQHandler
                0x080209d4                TIM8_UP_TIM13_IRQHandler
                0x080209d4                I2C3_ER_IRQHandler
                0x080209d4                I2C2_EV_IRQHandler
                0x080209d4                DMA1_Stream2_IRQHandler
                0x080209d4                CAN1_RX0_IRQHandler
                0x080209d4                FPU_IRQHandler
                0x080209d4                OTG_HS_WKUP_IRQHandler
                0x080209d4                UsageFault_Handler
                0x080209d4                CAN2_SCE_IRQHandler
                0x080209d4                DMA2_Stream2_IRQHandler
                0x080209d4                SPI1_IRQHandler
                0x080209d4                TIM6_DAC_IRQHandler
                0x080209d4                TIM1_BRK_TIM9_IRQHandler
                0x080209d4                DCMI_IRQHandler
                0x080209d4                CAN2_RX0_IRQHandler
                0x080209d4                DMA2_Stream3_IRQHandler
                0x080209d4                USART6_IRQHandler
                0x080209d4                USART3_IRQHandler
                0x080209d4                CRYP_IRQHandler
                0x080209d4                CAN1_RX1_IRQHandler
                0x080209d4                UART5_IRQHandler
                0x080209d4                DMA2_Stream0_IRQHandler
                0x080209d4                TIM4_IRQHandler
                0x080209d4                DMA1_Stream6_IRQHandler
                0x080209d4                DMA1_Stream1_IRQHandler
                0x080209d4                UART4_IRQHandler
                0x080209d4                TIM3_IRQHandler
                0x080209d4                TIM8_BRK_TIM12_IRQHandler
                0x080209d4                Default_Handler
                0x080209d4                DMA1_Stream7_IRQHandler
                0x080209d4                CAN2_TX_IRQHandler
                0x080209d4                TIM5_IRQHandler
                0x080209d4                DMA2_Stream7_IRQHandler
                0x080209d4                I2C3_EV_IRQHandler
                0x080209d4                RTC_WKUP_IRQHandler
                0x080209d4                ETH_WKUP_IRQHandler
                0x080209d4                SPI2_IRQHandler
                0x080209d4                OTG_HS_EP1_IN_IRQHandler
                0x080209d4                MemManage_Handler
                0x080209d4                DMA1_Stream0_IRQHandler
                0x080209d4                CAN1_TX_IRQHandler
                0x080209d4                FSMC_IRQHandler
                0x080209d4                ETH_IRQHandler
                0x080209d4                OTG_HS_EP1_OUT_IRQHandler
                0x080209d4                WWDG_IRQHandler
                0x080209d4                TIM2_IRQHandler
                0x080209d4                OTG_FS_WKUP_IRQHandler
                0x080209d4                TIM1_TRG_COM_TIM11_IRQHandler
                0x080209d4                OTG_HS_IRQHandler
                0x080209d4                I2C2_ER_IRQHandler
                0x080209d4                DMA2_Stream1_IRQHandler
                0x080209d4                CAN1_SCE_IRQHandler
                0x080209d4                FLASH_IRQHandler
                0x080209d4                DMA2_Stream4_IRQHandler
                0x080209d4                BusFault_Handler
                0x080209d4                SPI3_IRQHandler
                0x080209d4                DMA1_Stream4_IRQHandler
                0x080209d4                DMA2_Stream6_IRQHandler
                0x080209d4                DMA1_Stream3_IRQHandler
 *fill*         0x080209d6        0x2 
 .text.Default_Handler.__stub
                0x080209d8       0x10 linker stubs
 *(.rodata)
 *fill*         0x080209e8        0x0 
 .rodata        0x080209e8       0x13 Debug/memory_mgmt.o
 *fill*         0x080209fb        0x1 
 .rodata        0x080209fc       0x31 Debug/twb_debug.o
 *fill*         0x08020a2d        0x3 
 .rodata        0x08020a30       0x42 Debug/twb_i2c_stm32f4.o
 *fill*         0x08020a72        0x2 
 .rodata        0x08020a74       0x12 Debug/twb_leds.o
 *fill*         0x08020a86        0x2 
 .rodata        0x08020a88       0x16 Debug/twb_serial_eeprom.o
 *fill*         0x08020a9e        0x2 
 .rodata        0x08020aa0       0x8d Debug/twb_timer.o
 *fill*         0x08020b2d        0x3 
 .rodata        0x08020b30       0x60 Debug/commo.o
 .rodata        0x08020b90       0x47 Debug/msg_parser.o
 *fill*         0x08020bd7        0x1 
 .rodata        0x08020bd8       0x23 Debug/twb_usb.o
 *fill*         0x08020bfb        0x1 
 .rodata        0x08020bfc       0x15 Debug/usbd_cdc_core.o
 *fill*         0x08020c11        0x3 
 .rodata        0x08020c14       0x31 Debug/usbd_core.o
 *fill*         0x08020c45        0x3 
 .rodata        0x08020c48       0xba Debug/usbd_desc.o
 *fill*         0x08020d02        0x2 
 .rodata        0x08020d04       0x1d Debug/usbd_req.o
 *fill*         0x08020d21        0x3 
 .rodata        0x08020d24       0x79 Debug/usbd_usr.o
 *fill*         0x08020d9d        0x3 
 .rodata        0x08020da0       0x39 Debug/usb_core_ep.o
 *fill*         0x08020dd9        0x3 
 .rodata        0x08020ddc        0xd Debug/usb_core_io.o
 *fill*         0x08020de9        0x3 
 .rodata        0x08020dec        0xf Debug/usb_dcd.o
 *fill*         0x08020dfb        0x1 
 .rodata        0x08020dfc       0x9f Debug/wifi.o
                0x08020e0c                RebootLength
                0x08020e38                EnableAPModeLength
                0x08020e4a                CloseLength
 *fill*         0x08020e9b        0x1 
 .rodata        0x08020e9c       0x8a Debug/ctrl_loop.o
 *fill*         0x08020f26        0x2 
 .rodata        0x08020f28      0x320 Debug/ctrl_loop_commo.o
 .rodata        0x08021248       0x6a Debug/pwm_capture.o
 *fill*         0x080212b2        0x2 
 .rodata        0x080212b4       0x3e Debug/pwm_source.o
 *fill*         0x080212f2        0x2 
 .rodata        0x080212f4      0x14a Debug/main.o
 *fill*         0x0802143e        0x2 
 .rodata        0x08021440       0xfe Debug/nivek_system.o
 *fill*         0x0802153e        0x2 
 .rodata        0x08021540       0x2d Debug/adxl345.o
 *fill*         0x0802156d        0x3 
 .rodata        0x08021570       0x19 Debug/bmp085.o
 *fill*         0x08021589        0x3 
 .rodata        0x0802158c       0xd2 Debug/gps.o
 *fill*         0x0802165e        0x2 
 .rodata        0x08021660       0x2d Debug/hmc5883.o
 *fill*         0x0802168d        0x3 
 .rodata        0x08021690        0x9 Debug/itg3200.o
 *fill*         0x08021699        0x3 
 .rodata        0x0802169c       0x28 Debug/l3g20.o
 .rodata        0x080216c4       0x1d Debug/lipo_adc.o
 *fill*         0x080216e1        0x3 
 .rodata        0x080216e4       0x1a Debug/lsm303_acc.o
 *fill*         0x080216fe        0x2 
 .rodata        0x08021700        0xc Debug/lsm303_mag.o
 .rodata        0x0802170c       0x21 Debug/mpu60x0_acc.o
 *fill*         0x0802172d        0x3 
 .rodata        0x08021730       0x22 Debug/mpu60x0_gryo.o
 *fill*         0x08021752        0x2 
 .rodata        0x08021754       0x92 Debug/ms5611.o
 *fill*         0x080217e6        0x2 
 .rodata        0x080217e8       0xae Debug/snsr_actions.o
 *fill*         0x08021896        0x2 
 .rodata        0x08021898      0x14d Debug/snsr_commo.o
 *fill*         0x080219e5        0x3 
 .rodata        0x080219e8       0x3c Debug/snsr_main.o
 .rodata        0x08021a24       0xba Debug/snsr_mgmt.o
 *fill*         0x08021ade        0x2 
 .rodata        0x08021ae0       0x4f Debug/snsr_zero.o
 *fill*         0x08021b2f        0x1 
 .rodata        0x08021b30       0x33 Debug/sonar.o
 *fill*         0x08021b63        0x1 
 .rodata        0x08021b64       0x50 Debug/stm32f4xx_it.o
 .rodata        0x08021bb4      0x408 Debug/cli.o
 *fill*         0x08021fbc        0x4 
 .rodata        0x08021fc0       0x10 k:/electronics/sysgcc/arm-eabi/bin/../lib/gcc/arm-eabi/5.2.0/../../../../arm-eabi/lib/thumb/fpu/cortex_m4\libm.a(lib_a-s_rint.o)
 .rodata        0x08021fd0      0x101 k:/electronics/sysgcc/arm-eabi/bin/../lib/gcc/arm-eabi/5.2.0/../../../../arm-eabi/lib/thumb/fpu/cortex_m4\libc.a(lib_a-ctype_.o)
                0x08021fd0                _ctype_
 *(.rodata*)
 *fill*         0x080220d1        0x3 
 .rodata.str1.4
                0x080220d4        0x5 k:/electronics/sysgcc/arm-eabi/bin/../lib/gcc/arm-eabi/5.2.0/../../../../arm-eabi/lib/thumb/fpu/cortex_m4\libm.a(lib_a-wf_pow.o)
 .rodata.str1.4
                0x00000000        0x5 k:/electronics/sysgcc/arm-eabi/bin/../lib/gcc/arm-eabi/5.2.0/../../../../arm-eabi/lib/thumb/fpu/cortex_m4\libm.a(lib_a-ef_pow.o)
                                  0x1 (size before relaxing)
 *fill*         0x080220d9        0x3 
 .rodata.str1.4
                0x080220dc        0x4 k:/electronics/sysgcc/arm-eabi/bin/../lib/gcc/arm-eabi/5.2.0/../../../../arm-eabi/lib/thumb/fpu/cortex_m4\libc.a(lib_a-impure.o)
                                  0x2 (size before relaxing)
 *(.glue_7)
 .glue_7        0x00000000        0x0 linker stubs
 *(.glue_7t)
 .glue_7t       0x00000000        0x0 linker stubs
 *(.init)
 *(.fini)
                0x080220e0                . = ALIGN (0x4)
                0x080220e0                _etext = .

.vfp11_veneer   0x080220e0        0x0
 .vfp11_veneer  0x00000000        0x0 linker stubs

.v4_bx          0x080220e0        0x0
 .v4_bx         0x00000000        0x0 linker stubs

.iplt           0x080220e0        0x0
 .iplt          0x00000000        0x0 Debug/asinf.o

.rel.dyn        0x080220e0        0x0
 .rel.iplt      0x00000000        0x0 Debug/asinf.o

.ARM.extab      0x080220e0        0x0
                0x080220e0                . = ALIGN (0x4)
 *(.ARM.extab)
 *(.gnu.linkonce.armextab.*)
                0x080220e0                . = ALIGN (0x4)

.exidx          0x080220e0        0x0
                0x080220e0                . = ALIGN (0x4)
                0x080220e0                PROVIDE (__exidx_start, .)
 *(.ARM.exidx*)
                0x080220e0                . = ALIGN (0x4)
                0x080220e0                PROVIDE (__exidx_end, .)

.ARM.attributes
                0x080220e0       0x37
 *(.ARM.attributes)
 .ARM.attributes
                0x080220e0       0x39 Debug/asinf.o
 .ARM.attributes
                0x08022119       0x39 Debug/memory_mgmt.o
 .ARM.attributes
                0x08022152       0x39 Debug/twb_debug.o
 .ARM.attributes
                0x0802218b       0x39 Debug/twb_i2c.o
 .ARM.attributes
                0x080221c4       0x39 Debug/twb_i2c_stm32f4.o
 .ARM.attributes
                0x080221fd       0x39 Debug/twb_leds.o
 .ARM.attributes
                0x08022236       0x39 Debug/twb_math.o
 .ARM.attributes
                0x0802226f       0x39 Debug/twb_serial_eeprom.o
 .ARM.attributes
                0x080222a8       0x39 Debug/twb_strings.o
 .ARM.attributes
                0x080222e1       0x39 Debug/twb_timer.o
 .ARM.attributes
                0x0802231a       0x39 Debug/commo.o
 .ARM.attributes
                0x08022353       0x39 Debug/msg_parser.o
 .ARM.attributes
                0x0802238c       0x39 Debug/twb_usb.o
 .ARM.attributes
                0x080223c5       0x39 Debug/usbd_cdc_core.o
 .ARM.attributes
                0x080223fe       0x39 Debug/usbd_core.o
 .ARM.attributes
                0x08022437       0x39 Debug/usbd_desc.o
 .ARM.attributes
                0x08022470       0x39 Debug/usbd_ioreq.o
 .ARM.attributes
                0x080224a9       0x39 Debug/usbd_req.o
 .ARM.attributes
                0x080224e2       0x39 Debug/usbd_usr.o
 .ARM.attributes
                0x0802251b       0x39 Debug/usb_bsp.o
 .ARM.attributes
                0x08022554       0x39 Debug/usb_core.o
 .ARM.attributes
                0x0802258d       0x39 Debug/usb_core_cfg.o
 .ARM.attributes
                0x080225c6       0x39 Debug/usb_core_ep.o
 .ARM.attributes
                0x080225ff       0x39 Debug/usb_core_int.o
 .ARM.attributes
                0x08022638       0x39 Debug/usb_core_io.o
 .ARM.attributes
                0x08022671       0x39 Debug/usb_dcd.o
 .ARM.attributes
                0x080226aa       0x39 Debug/usb_dcd_int.o
 .ARM.attributes
                0x080226e3       0x39 Debug/wifi.o
 .ARM.attributes
                0x0802271c       0x39 Debug/Median.o
 .ARM.attributes
                0x08022755       0x39 Debug/autopilot.o
 .ARM.attributes
                0x0802278e       0x39 Debug/ctrl_loop.o
 .ARM.attributes
                0x080227c7       0x39 Debug/ctrl_loop_commo.o
 .ARM.attributes
                0x08022800       0x39 Debug/ctrl_loop_pid.o
 .ARM.attributes
                0x08022839       0x39 Debug/pid.o
 .ARM.attributes
                0x08022872       0x39 Debug/pwm_capture.o
 .ARM.attributes
                0x080228ab       0x39 Debug/pwm_source.o
 .ARM.attributes
                0x080228e4       0x39 Debug/main.o
 .ARM.attributes
                0x0802291d       0x39 Debug/nivek_system.o
 .ARM.attributes
                0x08022956       0x39 Debug/adxl345.o
 .ARM.attributes
                0x0802298f       0x39 Debug/bmp085.o
 .ARM.attributes
                0x080229c8       0x39 Debug/complementary.o
 .ARM.attributes
                0x08022a01       0x39 Debug/kalman.o
 .ARM.attributes
                0x08022a3a       0x39 Debug/gps.o
 .ARM.attributes
                0x08022a73       0x39 Debug/hmc5883.o
 .ARM.attributes
                0x08022aac       0x39 Debug/itg3200.o
 .ARM.attributes
                0x08022ae5       0x39 Debug/l3g20.o
 .ARM.attributes
                0x08022b1e       0x39 Debug/lipo_adc.o
 .ARM.attributes
                0x08022b57       0x39 Debug/lsm303_acc.o
 .ARM.attributes
                0x08022b90       0x39 Debug/lsm303_mag.o
 .ARM.attributes
                0x08022bc9       0x39 Debug/mpu60x0_acc.o
 .ARM.attributes
                0x08022c02       0x39 Debug/mpu60x0_gryo.o
 .ARM.attributes
                0x08022c3b       0x39 Debug/ms5611.o
 .ARM.attributes
                0x08022c74       0x39 Debug/snsr_actions.o
 .ARM.attributes
                0x08022cad       0x39 Debug/snsr_commo.o
 .ARM.attributes
                0x08022ce6       0x39 Debug/snsr_main.o
 .ARM.attributes
                0x08022d1f       0x39 Debug/snsr_mgmt.o
 .ARM.attributes
                0x08022d58       0x39 Debug/snsr_zero.o
 .ARM.attributes
                0x08022d91       0x39 Debug/sonar.o
 .ARM.attributes
                0x08022dca       0x39 Debug/stm32f4xx_it.o
 .ARM.attributes
                0x08022e03       0x39 Debug/cli.o
 .ARM.attributes
                0x08022e3c       0x39 Debug/system_stm32f4xx.o
 .ARM.attributes
                0x08022e75       0x39 Debug/twb_config.o
 .ARM.attributes
                0x08022eae       0x39 Debug/misc.o
 .ARM.attributes
                0x08022ee7       0x39 Debug/stm32f4xx_adc.o
 .ARM.attributes
                0x08022f20       0x39 Debug/stm32f4xx_exti.o
 .ARM.attributes
                0x08022f59       0x39 Debug/stm32f4xx_gpio.o
 .ARM.attributes
                0x08022f92       0x39 Debug/stm32f4xx_i2c.o
 .ARM.attributes
                0x08022fcb       0x39 Debug/stm32f4xx_rcc.o
 .ARM.attributes
                0x08023004       0x39 Debug/stm32f4xx_syscfg.o
 .ARM.attributes
                0x0802303d       0x39 Debug/stm32f4xx_tim.o
 .ARM.attributes
                0x08023076       0x39 Debug/stm32f4xx_usart.o
 .ARM.attributes
                0x080230af       0x21 Debug/startup_stm32f4xx.o
 .ARM.attributes
                0x080230d0       0x39 k:/electronics/sysgcc/arm-eabi/bin/../lib/gcc/arm-eabi/5.2.0/../../../../arm-eabi/lib/thumb/fpu/cortex_m4\libm.a(lib_a-wf_pow.o)
 .ARM.attributes
                0x08023109       0x39 k:/electronics/sysgcc/arm-eabi/bin/../lib/gcc/arm-eabi/5.2.0/../../../../arm-eabi/lib/thumb/fpu/cortex_m4\libm.a(lib_a-ef_pow.o)
 .ARM.attributes
                0x08023142       0x39 k:/electronics/sysgcc/arm-eabi/bin/../lib/gcc/arm-eabi/5.2.0/../../../../arm-eabi/lib/thumb/fpu/cortex_m4\libm.a(lib_a-ef_sqrt.o)
 .ARM.attributes
                0x0802317b       0x39 k:/electronics/sysgcc/arm-eabi/bin/../lib/gcc/arm-eabi/5.2.0/../../../../arm-eabi/lib/thumb/fpu/cortex_m4\libm.a(lib_a-s_lib_ver.o)
 .ARM.attributes
                0x080231b4       0x39 k:/electronics/sysgcc/arm-eabi/bin/../lib/gcc/arm-eabi/5.2.0/../../../../arm-eabi/lib/thumb/fpu/cortex_m4\libm.a(lib_a-s_matherr.o)
 .ARM.attributes
                0x080231ed       0x39 k:/electronics/sysgcc/arm-eabi/bin/../lib/gcc/arm-eabi/5.2.0/../../../../arm-eabi/lib/thumb/fpu/cortex_m4\libm.a(lib_a-s_rint.o)
 .ARM.attributes
                0x08023226       0x39 k:/electronics/sysgcc/arm-eabi/bin/../lib/gcc/arm-eabi/5.2.0/../../../../arm-eabi/lib/thumb/fpu/cortex_m4\libm.a(lib_a-sf_fabs.o)
 .ARM.attributes
                0x0802325f       0x39 k:/electronics/sysgcc/arm-eabi/bin/../lib/gcc/arm-eabi/5.2.0/../../../../arm-eabi/lib/thumb/fpu/cortex_m4\libm.a(lib_a-sf_finite.o)
 .ARM.attributes
                0x08023298       0x39 k:/electronics/sysgcc/arm-eabi/bin/../lib/gcc/arm-eabi/5.2.0/../../../../arm-eabi/lib/thumb/fpu/cortex_m4\libm.a(lib_a-sf_fpclassify.o)
 .ARM.attributes
                0x080232d1       0x39 k:/electronics/sysgcc/arm-eabi/bin/../lib/gcc/arm-eabi/5.2.0/../../../../arm-eabi/lib/thumb/fpu/cortex_m4\libm.a(lib_a-sf_nan.o)
 .ARM.attributes
                0x0802330a       0x39 k:/electronics/sysgcc/arm-eabi/bin/../lib/gcc/arm-eabi/5.2.0/../../../../arm-eabi/lib/thumb/fpu/cortex_m4\libm.a(lib_a-sf_scalbn.o)
 .ARM.attributes
                0x08023343       0x39 k:/electronics/sysgcc/arm-eabi/bin/../lib/gcc/arm-eabi/5.2.0/../../../../arm-eabi/lib/thumb/fpu/cortex_m4\libm.a(lib_a-sf_copysign.o)
 .ARM.attributes
                0x0802337c       0x23 k:/electronics/sysgcc/arm-eabi/bin/../lib/gcc/arm-eabi/5.2.0/thumb/fpu/cortex_m4\libgcc.a(_arm_addsubdf3.o)
 .ARM.attributes
                0x0802339f       0x23 k:/electronics/sysgcc/arm-eabi/bin/../lib/gcc/arm-eabi/5.2.0/thumb/fpu/cortex_m4\libgcc.a(_arm_muldivdf3.o)
 .ARM.attributes
                0x080233c2       0x23 k:/electronics/sysgcc/arm-eabi/bin/../lib/gcc/arm-eabi/5.2.0/thumb/fpu/cortex_m4\libgcc.a(_arm_cmpdf2.o)
 .ARM.attributes
                0x080233e5       0x23 k:/electronics/sysgcc/arm-eabi/bin/../lib/gcc/arm-eabi/5.2.0/thumb/fpu/cortex_m4\libgcc.a(_arm_truncdfsf2.o)
 .ARM.attributes
                0x08023408       0x23 k:/electronics/sysgcc/arm-eabi/bin/../lib/gcc/arm-eabi/5.2.0/thumb/fpu/cortex_m4\libgcc.a(_arm_addsubsf3.o)
 .ARM.attributes
                0x0802342b       0x39 k:/electronics/sysgcc/arm-eabi/bin/../lib/gcc/arm-eabi/5.2.0/../../../../arm-eabi/lib/thumb/fpu/cortex_m4\libc.a(lib_a-atoi.o)
 .ARM.attributes
                0x08023464       0x21 k:/electronics/sysgcc/arm-eabi/bin/../lib/gcc/arm-eabi/5.2.0/../../../../arm-eabi/lib/thumb/fpu/cortex_m4\libc.a(lib_a-memcpy.o)
 .ARM.attributes
                0x08023485       0x39 k:/electronics/sysgcc/arm-eabi/bin/../lib/gcc/arm-eabi/5.2.0/../../../../arm-eabi/lib/thumb/fpu/cortex_m4\libc.a(lib_a-memset.o)
 .ARM.attributes
                0x080234be       0x21 k:/electronics/sysgcc/arm-eabi/bin/../lib/gcc/arm-eabi/5.2.0/../../../../arm-eabi/lib/thumb/fpu/cortex_m4\libc.a(lib_a-strcmp.o)
 .ARM.attributes
                0x080234df       0x39 k:/electronics/sysgcc/arm-eabi/bin/../lib/gcc/arm-eabi/5.2.0/../../../../arm-eabi/lib/thumb/fpu/cortex_m4\libc.a(lib_a-strcpy.o)
 .ARM.attributes
                0x08023518       0x39 k:/electronics/sysgcc/arm-eabi/bin/../lib/gcc/arm-eabi/5.2.0/../../../../arm-eabi/lib/thumb/fpu/cortex_m4\libc.a(lib_a-strlen.o)
 .ARM.attributes
                0x08023551       0x39 k:/electronics/sysgcc/arm-eabi/bin/../lib/gcc/arm-eabi/5.2.0/../../../../arm-eabi/lib/thumb/fpu/cortex_m4\libc.a(lib_a-strncmp.o)
 .ARM.attributes
                0x0802358a       0x39 k:/electronics/sysgcc/arm-eabi/bin/../lib/gcc/arm-eabi/5.2.0/../../../../arm-eabi/lib/thumb/fpu/cortex_m4\libc.a(lib_a-strncpy.o)
 .ARM.attributes
                0x080235c3       0x39 k:/electronics/sysgcc/arm-eabi/bin/../lib/gcc/arm-eabi/5.2.0/../../../../arm-eabi/lib/thumb/fpu/cortex_m4\libc.a(lib_a-strtol.o)
 .ARM.attributes
                0x080235fc       0x39 k:/electronics/sysgcc/arm-eabi/bin/../lib/gcc/arm-eabi/5.2.0/../../../../arm-eabi/lib/thumb/fpu/cortex_m4\libc.a(lib_a-ctype_.o)
 .ARM.attributes
                0x08023635       0x39 k:/electronics/sysgcc/arm-eabi/bin/../lib/gcc/arm-eabi/5.2.0/../../../../arm-eabi/lib/thumb/fpu/cortex_m4\libc.a(lib_a-impure.o)

.preinit_array  0x080220e0        0x0
                0x080220e0                PROVIDE (__preinit_array_start, .)
 *(.preinit_array*)
                0x080220e0                PROVIDE (__preinit_array_end, .)

.init_array     0x080220e0        0x0
                0x080220e0                PROVIDE (__init_array_start, .)
 *(SORT(.init_array.*))
 *(.init_array*)
                0x080220e0                PROVIDE (__init_array_end, .)

.fini_array     0x080220e0        0x0
                0x080220e0                PROVIDE (__fini_array_start, .)
 *(.fini_array*)
 *(SORT(.fini_array.*))
                0x080220e0                PROVIDE (__fini_array_end, .)
                0x080220e0                . = ALIGN (0x4)
                0x080220e0                _sidata = .

.data           0x20000000      0xa28 load address 0x08023670
                0x20000000                . = ALIGN (0x4)
                0x20000000                _sdata = .
                0x20000000                PROVIDE (__data_start__, _sdata)
 *(.data)
 .data          0x20000000       0xec Debug/asinf.o
                0x20000000                asinf_tbl
 .data          0x200000ec        0x4 Debug/twb_debug.o
                0x200000ec                __hexLookup
 .data          0x200000f0       0x25 Debug/twb_strings.o
 *fill*         0x20000115        0x3 
 .data          0x20000118       0xa4 Debug/usbd_cdc_core.o
                0x20000118                usbd_cdc_CfgDesc
                0x20000190                USBD_CDC_cb
 .data          0x200001bc       0x30 Debug/usbd_core.o
                0x200001bc                USBD_DCD_INT_cb
                0x200001e8                USBD_DCD_INT_fops
 .data          0x200001ec      0x3a0 Debug/usbd_desc.o
                0x200001ec                USR_desc
                0x20000214                USBD_DeviceDesc
                0x20000228                USBD_DeviceQualifierDesc
                0x20000234                USBD_LangIDDesc
                0x20000238                USBD_OSStrDesc
                0x2000024c                USBD_CompatIDDesc
                0x200002bc                USBD_ExtPropertiesDesc0
                0x20000370                USBD_ExtPropertiesDesc1
                0x20000424                USBD_ExtPropertiesDesc2
                0x200004d8                USBD_ExtPropertiesDesc3
 .data          0x2000058c       0x1c Debug/usbd_usr.o
                0x2000058c                USR_cb
 .data          0x200005a8        0x1 Debug/nivek_system.o
                0x200005a8                StartupPhase
 *fill*         0x200005a9        0x3 
 .data          0x200005ac       0x18 Debug/gps.o
                0x200005ac                msgTypes
 .data          0x200005c4        0x4 Debug/l3g20.o
                0x200005c4                __l3gd20Factor
 .data          0x200005c8        0x1 Debug/snsr_zero.o
                0x200005c8                __zero_CurrentState
 *fill*         0x200005c9        0x3 
 .data          0x200005cc       0x14 Debug/system_stm32f4xx.o
                0x200005cc                SystemCoreClock
                0x200005d0                AHBPrescTable
 .data          0x200005e0       0x10 Debug/stm32f4xx_rcc.o
 .data          0x200005f0        0x1 k:/electronics/sysgcc/arm-eabi/bin/../lib/gcc/arm-eabi/5.2.0/../../../../arm-eabi/lib/thumb/fpu/cortex_m4\libm.a(lib_a-s_lib_ver.o)
                0x200005f0                __fdlib_version
 *fill*         0x200005f1        0x3 
 .data          0x200005f4        0x4 k:/electronics/sysgcc/arm-eabi/bin/../lib/gcc/arm-eabi/5.2.0/../../../../arm-eabi/lib/thumb/fpu/cortex_m4\libc.a(lib_a-ctype_.o)
                0x200005f4                __ctype_ptr__
 .data          0x200005f8      0x430 k:/electronics/sysgcc/arm-eabi/bin/../lib/gcc/arm-eabi/5.2.0/../../../../arm-eabi/lib/thumb/fpu/cortex_m4\libc.a(lib_a-impure.o)
                0x200005f8                _impure_ptr
 *(.data*)
                0x20000a28                . = ALIGN (0x4)
                0x20000a28                _edata = .
                0x20000a28                PROVIDE (__data_end__, _edata)

.igot.plt       0x20000a28        0x0 load address 0x08024098
 .igot.plt      0x00000000        0x0 Debug/asinf.o

.bss            0x20000a28     0x9628 load address 0x08024098
                0x20000a28                . = ALIGN (0x4)
                0x20000a28                _sbss = .
                0x20000a28                PROVIDE (__bss_start__, _sbss)
 *(.bss)
 .bss           0x20000a28        0x2 Debug/memory_mgmt.o
                0x20000a28                __heapPtr
 .bss           0x20000a2a        0x6 Debug/twb_debug.o
                0x20000a2a                __debugReady
                0x20000a2b                __lastDebugToggle
                0x20000a2c                __dbg_BufferHead
                0x20000a2e                __dbg_BufferTail
 .bss           0x20000a30        0x8 Debug/twb_i2c_stm32f4.o
                0x20000a30                __i2cLastError
                0x20000a34                __lastFlag
 .bss           0x20000a38        0x4 Debug/twb_timer.o
                0x20000a38                _watchDogHead
 .bss           0x20000a3c        0xd Debug/commo.o
                0x20000a3c                OutgoingMsgQueueHead
                0x20000a3d                OutgoingMsgQueueTail
                0x20000a3e                TWB_Commo_RxMsgHead
                0x20000a3f                TWB_Commo_RxMsgTail
                0x20000a40                TWB_Commo_TxMsgHead
                0x20000a41                TWB_Commo_TxMsgTail
                0x20000a42                TWB_Commo_RxChIdx
                0x20000a44                TWB_Commo_TXChIdx
                0x20000a46                __serialNumber
                0x20000a48                __messageInProcessFlag
 .bss           0x20000a49        0x2 Debug/msg_parser.o
                0x20000a49                _commoTXState
                0x20000a4a                _commoParserState
 *fill*         0x20000a4b        0x1 
 .bss           0x20000a4c       0x10 Debug/usbd_cdc_core.o
                0x20000a50                __usb_txState
 .bss           0x20000a5c        0xd Debug/usbd_req.o
                0x20000a5c                USBD_ep_status
                0x20000a60                USBD_default_cfg
                0x20000a64                USBD_cfg_status
 *fill*         0x20000a69        0x3 
 .bss           0x20000a6c        0xc Debug/autopilot.o
                0x20000a6c                _gpsLaunchAltitude
                0x20000a70                _bmp085_pressureLaunchAltitude
                0x20000a74                _ms5611_pressureLaunchAltitude
 .bss           0x20000a78        0xb Debug/ctrl_loop_pid.o
                0x20000a78                _lastCountInitilized
                0x20000a7a                _lastCountTimer3
                0x20000a7c                currentTimer
                0x20000a7e                deltaCount
                0x20000a80                countsPer
                0x20000a82                _transitionedToFlightMode
 *fill*         0x20000a83        0x1 
 .bss           0x20000a84        0x6 Debug/pwm_source.o
                0x20000a84                __escLeftTargetPower
                0x20000a85                __escRearTargetPower
                0x20000a86                __escFrontTargetPower
                0x20000a87                __escRightTargetPower
                0x20000a88                __pwmRangeScaler
 .bss           0x20000a8a        0x2 Debug/main.o
                0x20000a8a                tickCounter
 .bss           0x20000a8c        0x4 Debug/nivek_system.o
                0x20000a8c                NiVekName
 .bss           0x20000a90        0x1 Debug/l3g20.o
                0x20000a90                L3GD20FiFoState
 .bss           0x20000a91        0x1 Debug/lipo_adc.o
                0x20000a91                __adcChannelSeq
 .bss           0x20000a92        0x1 Debug/lsm303_acc.o
                0x20000a92                LSM303AccFiFoState
 .bss           0x20000a93        0x1 Debug/mpu60x0_gryo.o
                0x20000a93                MPU60x0GyroFiFoState
 .bss           0x20000a94        0x1 Debug/ms5611.o
                0x20000a94                __ms5611_sensorReading
 *fill*         0x20000a95        0x3 
 .bss           0x20000a98        0x4 Debug/snsr_main.o
                0x20000a98                __sensorInFocus
 .bss           0x20000a9c        0xc Debug/snsr_zero.o
                0x20000a9c                __zero_TempCounts
 .bss           0x20000aa8        0x5 Debug/cli.o
                0x20000aa8                _cli_in_buffer_idx
                0x20000aa9                _cli_out_buffer_head
                0x20000aaa                _cli_out_buffer_tail
                0x20000aab                _cli_commandQueue_head
                0x20000aac                _cli_commandQueue_tail
 *(.bss*)
 *(COMMON)
 *fill*         0x20000aad        0x3 
 COMMON         0x20000ab0     0x8000 Debug/memory_mgmt.o
                0x20000ab0                __customHeap
 COMMON         0x20008ab0       0x11 Debug/twb_debug.o
                0x20008ab0                __debug_Temp_IntBuffer
                0x20008abc                __dbg_Buffer
                0x20008ac0                __debug_shouldForward
 *fill*         0x20008ac1        0x3 
 COMMON         0x20008ac4       0x3e Debug/twb_i2c.o
                0x20008ac4                __i2cTempInBuffer
                0x20008acc                I2CQueue
                0x20008afc                __i2cTempOutBuffer
 *fill*         0x20008b02        0x2 
 COMMON         0x20008b04        0xc Debug/twb_i2c_stm32f4.o
                0x20008b04                __twbI2CSyncJob
                0x20008b08                I2CQueueJobHead
                0x20008b09                I2CQueueJobTail
                0x20008b0c                __twbI2CCurrentJob
 COMMON         0x20008b10       0x3c Debug/twb_leds.o
                0x20008b10                LEDS
 COMMON         0x20008b4c        0xc Debug/twb_math.o
                0x20008b4c                initialCosValue
                0x20008b50                inputAngle
                0x20008b54                cosValue
 COMMON         0x20008b58       0x48 Debug/twb_serial_eeprom.o
                0x20008b58                __eepromReadBuffer
                0x20008b7c                __eepromWriteBuffer
 COMMON         0x20008ba0       0x40 Debug/twb_timer.o
                0x20008ba0                SendSensorData
                0x20008ba4                WiFiActionTimer
                0x20008ba8                I2CWatchDog
                0x20008bac                SendBatteryData
                0x20008bb0                SendAltitudeData
                0x20008bb4                I2CZeroJob
                0x20008bb8                __sleepTimer
                0x20008bbc                SendPWMInData
                0x20008bc0                WiFiHeartBeatTimer
                0x20008bc4                RCWatchDog
                0x20008bc8                WiFiCmds
                0x20008bcc                SendMotorData
                0x20008bd0                SendGPSData
                0x20008bd4                SendStatusData
                0x20008bd8                SendTargetData
                0x20008bdc                WiFiInWatchDog
 COMMON         0x20008be0      0x550 Debug/commo.o
                0x20008be0                TWB_Incoming_Messages
                0x20008d20                TWB_Outgoing_Messages
                0x20009120                OutgoingMsgQueue
 COMMON         0x20009130        0x8 Debug/msg_parser.o
                0x20009130                __dstAddress
                0x20009131                __srcAddress
                0x20009134                TWB_OutgoingMsg
 COMMON         0x20009138      0x5f4 Debug/twb_usb.o
                0x20009138                USB_OTG_dev
 COMMON         0x2000972c       0x88 Debug/usbd_cdc_core.o
                0x2000972c                USB_Telemetry_Buffer
                0x20009730                USB_Debug_Buffer
                0x20009734                usbd_cdc_OtherCfgDesc
                0x200097a8                USB_Console_Buffer
                0x200097ac                CmdBuff
 COMMON         0x200097b4       0x32 Debug/usbd_req.o
                0x200097b4                USBD_StrDesc
 *fill*         0x200097e6        0x2 
 COMMON         0x200097e8        0x4 Debug/usb_dcd_int.o
                0x200097e8                __xfer_len
 COMMON         0x200097ec       0x31 Debug/wifi.o
                0x200097ec                WiFiState
                0x200097ed                __wiFiCommandIdx
                0x200097ee                __commandIdx
                0x200097f0                Commands
                0x200097f4                _currentBaudRate
                0x200097f8                __wiFi_Config
                0x20009808                __wiFiCommandLength
                0x2000980c                __wiFiCommandBuffer
                0x2000981c                __commandLength
 *fill*         0x2000981d        0x3 
 COMMON         0x20009820       0x4c Debug/Median.o
                0x20009820                __medianFilterTempHistory
                0x20009834                __medianFilterSignedTempHistory
                0x20009848                __medianFilterFloatTempHistory
 COMMON         0x2000986c        0x5 Debug/autopilot.o
                0x2000986c                __autopilotDeltaT
                0x20009870                AutoPilotState
 *fill*         0x20009871        0x3 
 COMMON         0x20009874       0x18 Debug/ctrl_loop_pid.o
                0x20009874                PIDPitch
                0x20009878                _targetHeadingPrecise
                0x2000987c                PIDAltitude
                0x20009880                PIDYaw
                0x20009884                PIDRoll
                0x20009888                __ctrlLoopDeltaT
 COMMON         0x2000988c       0x20 Debug/pwm_capture.o
                0x2000988c                __rcInRise
                0x20009898                __rcInFall
                0x200098a4                __pwmTimer
                0x200098a8                PWMIn
 COMMON         0x200098ac        0xc Debug/pwm_source.o
                0x200098ac                _timer14
                0x200098b0                _GPIOC
                0x200098b4                _timer3
 COMMON         0x200098b8        0x8 Debug/nivek_system.o
                0x200098b8                NiVekAddress
                0x200098bc                NivekSerialNumber
 COMMON         0x200098c0       0x62 Debug/adxl345.o
                0x200098c0                __adxlAcc_offset
                0x200098c8                _adxlYFilter
                0x200098e4                _adxlZFilter
                0x20009900                __adxlAcc_currentRaw
                0x20009908                _adxlXFilter
 *fill*         0x20009922        0x2 
 COMMON         0x20009924       0x44 Debug/bmp085.o
                0x20009924                _bmp085_RawTemperature
                0x20009928                __bmp085_defaultAltitudeZero
                0x2000992c                __bmp085_altitudeRaw
                0x20009930                __bmp085Filter
                0x20009934                __bmp085_altitudeM
                0x20009938                __bmp085ReadState
                0x2000993c                __bmp085Calib
                0x20009954                BMPI2CJob
                0x20009958                __bmp085_pressure
                0x2000995c                __bmp085ParamB5
                0x20009960                __bmp085_altitudeZero
                0x20009964                __bmp085_temperature
 COMMON         0x20009968       0x18 Debug/complementary.o
                0x20009968                SensorFusionMsg
                0x2000996c                CompFilterPitch
                0x20009970                CompFilterRoll
                0x20009974                CompFilterHeading
                0x20009978                ComplementaryFilterConfig
                0x2000997c                CompFilterAltitude
 COMMON         0x20009980       0x16 Debug/gps.o
                0x20009980                _msgType
                0x20009981                _valueIndex
                0x20009982                _state
                0x20009984                _uartRXBuffer
                0x20009994                _uartRXBufferIndex
                0x20009995                checkSum
 *fill*         0x20009996        0x2 
 COMMON         0x20009998       0x62 Debug/hmc5883.o
                0x20009998                _hmc5883XFilter
                0x200099b4                __hmcMagMin
                0x200099bc                __hmcMagMax
                0x200099c4                _hmc5883ZFilter
                0x200099e0                _hmc5883YFilter
 *fill*         0x200099fa        0x2 
 COMMON         0x200099fc       0x5a Debug/itg3200.o
                0x200099fc                __itg3200XFilter
                0x20009a18                __itgOffset
                0x20009a20                __itg3200YFilter
                0x20009a3c                __itg3200ZFilter
 *fill*         0x20009a56        0x2 
 COMMON         0x20009a58       0x6c Debug/l3g20.o
                0x20009a58                __l3gd20LSBSensitivity
                0x20009a5c                _l3gd20XFilter
                0x20009a78                L3GD20GryoI2CJob
                0x20009a7c                _l3gd20ZFilter
                0x20009a98                __l3gd20Offset
                0x20009aa0                _l3gd20YFilter
                0x20009abc                __l3gd20DataRateSeconds
                0x20009ac0                __l3gdGyroExtendedData
 COMMON         0x20009ac4       0x9e Debug/lipo_adc.o
                0x20009ac4                __adcCell3
                0x20009ac8                __lipoAdcFilter2
                0x20009ae4                __lipoADC
                0x20009ae8                __adcCell2
                0x20009aec                __lipoAdcFilter3
                0x20009b08                __lipoAdcFilter1
                0x20009b24                DMA_InitStructure
                0x20009b60                __adcCell1
 *fill*         0x20009b62        0x2 
 COMMON         0x20009b64       0x90 Debug/lsm303_acc.o
                0x20009b64                LSM303AccI2CJob
                0x20009b68                _accX
                0x20009b6c                tmpX
                0x20009b70                __lsm303AccX
                0x20009b74                _accY
                0x20009b78                __lsm303AccY
                0x20009b7c                _accZ
                0x20009b80                __lsm303AccZFilter
                0x20009b9c                __lsm303acc_currentRaw
                0x20009ba4                tmpZ
                0x20009ba8                __lsm303acc_offset
                0x20009bb0                __lsm303AccYFilter
                0x20009bcc                __lsm303AccXFilter
                0x20009be8                _resultF
                0x20009bec                tmpY
                0x20009bf0                __lsm303AccZ
 COMMON         0x20009bf4      0x1aa Debug/lsm303_mag.o
                0x20009bf4                N
                0x20009c00                __lsm303MagMax
                0x20009c08                acc
                0x20009c14                _rawY
                0x20009c18                _tmpY
                0x20009c1c                _rangeX
                0x20009c20                LSM303MagI2CJob
                0x20009c24                _ratioZ
                0x20009c28                magycomp
                0x20009c2c                _fatanresult
                0x20009c30                _rawX
                0x20009c34                accynorm
                0x20009c38                from
                0x20009c44                _otherHeading
                0x20009c48                __lsm303MagZFilter
                0x20009c64                accxnorm
                0x20009c68                Yh
                0x20009c6c                acc_norm
                0x20009c78                magxcomp
                0x20009c7c                __writeCalibrationFactorsI2CJob
                0x20009c80                __lsm303CalibrationMagZFilter
                0x20009c9c                rollRadians
                0x20009ca0                _fratio
                0x20009ca4                _tmpX
                0x20009ca8                _ratioX
                0x20009cac                _yComponent
                0x20009cb0                Xh
                0x20009cb4                __lsm303MagYFilter
                0x20009cd0                _zComponent
                0x20009cd4                __lsm303CalibrationMagYFilter
                0x20009cf0                pitchRadians
                0x20009cf4                _rangeZ
                0x20009cf8                cosPitch
                0x20009cfc                cosRoll
                0x20009d00                _deltaY
                0x20009d04                __MagDenom
                0x20009d08                __lsm303MagXFilter
                0x20009d24                tanRatio
                0x20009d28                tempHeading
                0x20009d2c                _fheading
                0x20009d30                _xComponent
                0x20009d34                __lsm303MagMin
                0x20009d3c                _tmpZ
                0x20009d40                __MagPitch
                0x20009d44                E
                0x20009d50                _ratioY
                0x20009d54                _rawZ
                0x20009d58                tempArcTan
                0x20009d5c                _deltaZ
                0x20009d60                sinPitch
                0x20009d64                m
                0x20009d70                sinRoll
                0x20009d74                _deltaX
                0x20009d78                __MagRoll
                0x20009d7c                _lsm303FullScaleRange
                0x20009d80                _rangeY
                0x20009d84                __lsm303CalibrationMagXFilter
 *fill*         0x20009d9e        0x2 
 COMMON         0x20009da0       0x70 Debug/mpu60x0_acc.o
                0x20009da0                MPU60x0AccI2CJob
                0x20009da4                __mpu60x0AccScaler
                0x20009da8                __mpu60x0AccOffset
                0x20009db0                _mpuAccX
                0x20009db4                _mpuAccZ
                0x20009db8                __mpuAcc60x0YFilter
                0x20009dd4                __mpuAcc60x0XFilter
                0x20009df0                __mpuAcc60x0ZFilter
                0x20009e0c                _mpuAccY
 COMMON         0x20009e10       0x72 Debug/mpu60x0_gryo.o
                0x20009e10                __mpuGyro60x0XFilter
                0x20009e2c                __mpu60x0GyroExtendedData
                0x20009e30                __mpuGyro60x0YFilter
                0x20009e4c                __mpu60x0Factor
                0x20009e50                __mpu60x0GyroOffset
                0x20009e58                __mpu60x0DataRateSeconds
                0x20009e5c                __lsbSensitivity
                0x20009e60                MPU60x0GyroI2CJob
                0x20009e64                __mpu60x0LSBSensitivity
                0x20009e68                __mpuGyro60x0ZFilter
 *fill*         0x20009e82        0x2 
 COMMON         0x20009e84       0x38 Debug/ms5611.o
                0x20009e84                __ms5611_altitudeM
                0x20009e88                __ms5611_defaultAltitudeZero
                0x20009e8c                __ms5611ReadState
                0x20009e90                _temp_sub
                0x20009e94                __ms5611Calib
                0x20009e98                __ms5611_temperature
                0x20009e9c                __ms5611Filter
                0x20009ea0                __ms5611_pressure
                0x20009ea4                __ms5611_rawPressure
                0x20009ea8                __ms5611_altitudeZero
                0x20009eac                MS5611I2CJob
                0x20009eb0                __ms5611_rawTemperature
                0x20009eb4                __ms5611_altitudeRaw
                0x20009eb8                __ms5611_deltaTemperature
 COMMON         0x20009ebc        0x1 Debug/snsr_actions.o
                0x20009ebc                _sensorStateBeforePause
 *fill*         0x20009ebd        0x3 
 COMMON         0x20009ec0       0x4a Debug/snsr_main.o
                0x20009ec0                sensorIndex
                0x20009ec4                tickTimer
                0x20009ec8                ms
                0x20009ecc                tbid
                0x20009ed8                thisCountHere
                0x20009edc                lastSensorCount
                0x20009ee0                deltaT
                0x20009ee4                __commonSensorBuffer
                0x20009f04                ticks
                0x20009f08                _msThreshold
 *fill*         0x20009f0a        0x2 
 COMMON         0x20009f0c       0x50 Debug/snsr_mgmt.o
                0x20009f0c                AccMPU60x0Sensor
                0x20009f10                SensorsList
                0x20009f14                ComplementarySnsrFusion
                0x20009f18                PressureBMP085Sensor
                0x20009f1c                ADCLipoSensor
                0x20009f20                SonarSensor
                0x20009f24                GyroL3GD20Sensor
                0x20009f28                AltGPSSensor
                0x20009f2c                PIDControllerAction
                0x20009f30                GeoGPSSensor
                0x20009f34                KalmanSnsrFusion
                0x20009f38                AccLSM303Sensor
                0x20009f3c                GyroMPU60x0Sensor
                0x20009f40                HeadingGPSSensor
                0x20009f44                AutoPilotAction
                0x20009f48                MagHMC5883Sensor
                0x20009f4c                AccADXL345Sensor
                0x20009f50                MagLSM303Sensor
                0x20009f54                PressureMS5611Sensor
                0x20009f58                GyroITG3200Sensor
 COMMON         0x20009f5c       0x1c Debug/snsr_zero.o
                0x20009f5c                __zero_TotalSampleCount
                0x20009f60                __sensorBeingZeroed
                0x20009f64                __zero_BigEndian
                0x20009f68                _tmpBuffer
                0x20009f6c                __zero_PauseMS
                0x20009f70                __zero_EEPROM_Address
                0x20009f72                __zero_SamplesIndex
                0x20009f74                __zeroMsAccum
 COMMON         0x20009f78       0x4c Debug/sonar.o
                0x20009f78                __sonarFilter
                0x20009fac                __sonar_Meters
                0x20009fb0                __sonar_PWM_uSeconds
                0x20009fb4                __sonar_ThisCount
                0x20009fb8                __sonarTimer
                0x20009fbc                __sonar_CountDelta
                0x20009fc0                __sonar_LastCount
 COMMON         0x20009fc4        0xc Debug/stm32f4xx_it.o
                0x20009fc4                thisCount
                0x20009fc8                isr
                0x20009fcc                __hf_stacked_pc
 COMMON         0x20009fd0       0x24 Debug/cli.o
                0x20009fd0                _cli_out_buffer
                0x20009fd4                _cli_commandQueue
                0x20009fe4                __cli_temp_IntBuffer
                0x20009ff0                _cli_in_buffer
 COMMON         0x20009ff4       0x5c Debug/twb_config.o
                0x20009ff4                PIDSensorData
                0x20009ff8                InternalState
                0x20009ffc                __errno
                0x2000a000                AltitudeData
                0x2000a004                SensorConfig
                0x2000a008                BatteryCondition
                0x2000a00c                WiFiIsConnected
                0x2000a010                Targets
                0x2000a014                SystemStatus
                0x2000a018                WiFiAux1
                0x2000a01c                PitchPIDDetails
                0x2000a020                CurrentGPSReading
                0x2000a024                PIDConstants
                0x2000a028                GPSData
                0x2000a02c                PIDConstantsConfig
                0x2000a030                _commonDiagBuffer
                0x2000a034                MotorStatus
                0x2000a038                WiFiAux2
                0x2000a039                WiFiYaw
                0x2000a03a                WiFiRoll
                0x2000a03c                RollPIDDetails
                0x2000a040                WiFiThrottle
                0x2000a044                SensorData
                0x2000a048                WiFiPitch
                0x2000a04c                HomeGPSReading
                0x2000a050                . = ALIGN (0x4)
                0x2000a050                _ebss = .
                0x2000a050                PROVIDE (__bss_end__, _ebss)
                0x2000a050                PROVIDE (end, .)

.heap           0x2000a050        0x0
                0x2000a050                . = ALIGN (0x4)
                0x2000a050                PROVIDE (__heap_start__, .)
 *(.heap)
                0x2000a050                . = ALIGN (0x4)
                0x2000a050                PROVIDE (__heap_end__, .)

.reserved_for_stack
                0x2000a050        0x0
                0x2000a050                . = ALIGN (0x4)
                0x2000a050                PROVIDE (__reserved_for_stack_start__, .)
 *(.reserved_for_stack)
                0x2000a050                . = ALIGN (0x4)
                0x2000a050                PROVIDE (__reserved_for_stack_end__, .)
OUTPUT(Debug/NiVeKQC32.elf elf32-littlearm)

.debug_info     0x00000000    0x46e1d
 .debug_info    0x00000000      0x120 Debug/asinf.o
 .debug_info    0x00000120      0x1db Debug/memory_mgmt.o
 .debug_info    0x000002fb      0xb34 Debug/twb_debug.o
 .debug_info    0x00000e2f      0x68c Debug/twb_i2c.o
 .debug_info    0x000014bb      0xcf7 Debug/twb_i2c_stm32f4.o
 .debug_info    0x000021b2      0x559 Debug/twb_leds.o
 .debug_info    0x0000270b      0x479 Debug/twb_math.o
 .debug_info    0x00002b84      0x889 Debug/twb_serial_eeprom.o
 .debug_info    0x0000340d      0x1ca Debug/twb_strings.o
 .debug_info    0x000035d7      0xd6d Debug/twb_timer.o
 .debug_info    0x00004344      0xb69 Debug/commo.o
 .debug_info    0x00004ead      0x606 Debug/msg_parser.o
 .debug_info    0x000054b3      0xfb7 Debug/twb_usb.o
 .debug_info    0x0000646a     0x1145 Debug/usbd_cdc_core.o
 .debug_info    0x000075af     0x10d2 Debug/usbd_core.o
 .debug_info    0x00008681      0x83b Debug/usbd_desc.o
 .debug_info    0x00008ebc      0xeb6 Debug/usbd_ioreq.o
 .debug_info    0x00009d72     0x12f0 Debug/usbd_req.o
 .debug_info    0x0000b062      0x21d Debug/usbd_usr.o
 .debug_info    0x0000b27f     0x121d Debug/usb_bsp.o
 .debug_info    0x0000c49c     0x16a7 Debug/usb_core.o
 .debug_info    0x0000db43     0x139a Debug/usb_core_cfg.o
 .debug_info    0x0000eedd     0x144e Debug/usb_core_ep.o
 .debug_info    0x0001032b     0x10ea Debug/usb_core_int.o
 .debug_info    0x00011415     0x1408 Debug/usb_core_io.o
 .debug_info    0x0001281d     0x1144 Debug/usb_dcd.o
 .debug_info    0x00013961     0x20bf Debug/usb_dcd_int.o
 .debug_info    0x00015a20      0xbb2 Debug/wifi.o
 .debug_info    0x000165d2      0x5c0 Debug/Median.o
 .debug_info    0x00016b92     0x1be8 Debug/autopilot.o
 .debug_info    0x0001877a     0x130d Debug/ctrl_loop.o
 .debug_info    0x00019a87     0x17b5 Debug/ctrl_loop_commo.o
 .debug_info    0x0001b23c     0x145d Debug/ctrl_loop_pid.o
 .debug_info    0x0001c699      0x432 Debug/pid.o
 .debug_info    0x0001cacb      0xee8 Debug/pwm_capture.o
 .debug_info    0x0001d9b3      0xf0f Debug/pwm_source.o
 .debug_info    0x0001e8c2     0x2bd6 Debug/main.o
 .debug_info    0x00021498      0x5ef Debug/nivek_system.o
 .debug_info    0x00021a87     0x100c Debug/adxl345.o
 .debug_info    0x00022a93     0x1689 Debug/bmp085.o
 .debug_info    0x0002411c     0x12cb Debug/complementary.o
 .debug_info    0x000253e7      0xdbe Debug/kalman.o
 .debug_info    0x000261a5     0x146e Debug/gps.o
 .debug_info    0x00027613     0x12bd Debug/hmc5883.o
 .debug_info    0x000288d0     0x105b Debug/itg3200.o
 .debug_info    0x0002992b     0x1455 Debug/l3g20.o
 .debug_info    0x0002ad80     0x180e Debug/lipo_adc.o
 .debug_info    0x0002c58e     0x1388 Debug/lsm303_acc.o
 .debug_info    0x0002d916     0x1a1b Debug/lsm303_mag.o
 .debug_info    0x0002f331     0x115f Debug/mpu60x0_acc.o
 .debug_info    0x00030490     0x1420 Debug/mpu60x0_gryo.o
 .debug_info    0x000318b0     0x159f Debug/ms5611.o
 .debug_info    0x00032e4f     0x112f Debug/snsr_actions.o
 .debug_info    0x00033f7e     0x1407 Debug/snsr_commo.o
 .debug_info    0x00035385     0x1947 Debug/snsr_main.o
 .debug_info    0x00036ccc      0x8da Debug/snsr_mgmt.o
 .debug_info    0x000375a6      0xc81 Debug/snsr_zero.o
 .debug_info    0x00038227     0x1604 Debug/sonar.o
 .debug_info    0x0003982b      0xfd1 Debug/stm32f4xx_it.o
 .debug_info    0x0003a7fc      0x74f Debug/cli.o
 .debug_info    0x0003af4b      0x629 Debug/system_stm32f4xx.o
 .debug_info    0x0003b574     0x184e Debug/twb_config.o
 .debug_info    0x0003cdc2      0x5bb Debug/misc.o
 .debug_info    0x0003d37d      0xd4b Debug/stm32f4xx_adc.o
 .debug_info    0x0003e0c8      0x39c Debug/stm32f4xx_exti.o
 .debug_info    0x0003e464      0x687 Debug/stm32f4xx_gpio.o
 .debug_info    0x0003eaeb      0xbe7 Debug/stm32f4xx_i2c.o
 .debug_info    0x0003f6d2      0xd82 Debug/stm32f4xx_rcc.o
 .debug_info    0x00040454      0x2a6 Debug/stm32f4xx_syscfg.o
 .debug_info    0x000406fa     0x1eb5 Debug/stm32f4xx_tim.o
 .debug_info    0x000425af      0xa9d Debug/stm32f4xx_usart.o
 .debug_info    0x0004304c       0x62 Debug/startup_stm32f4xx.o
 .debug_info    0x000430ae      0x352 k:/electronics/sysgcc/arm-eabi/bin/../lib/gcc/arm-eabi/5.2.0/../../../../arm-eabi/lib/thumb/fpu/cortex_m4\libm.a(lib_a-wf_pow.o)
 .debug_info    0x00043400      0x6f9 k:/electronics/sysgcc/arm-eabi/bin/../lib/gcc/arm-eabi/5.2.0/../../../../arm-eabi/lib/thumb/fpu/cortex_m4\libm.a(lib_a-ef_pow.o)
 .debug_info    0x00043af9      0x1c8 k:/electronics/sysgcc/arm-eabi/bin/../lib/gcc/arm-eabi/5.2.0/../../../../arm-eabi/lib/thumb/fpu/cortex_m4\libm.a(lib_a-ef_sqrt.o)
 .debug_info    0x00043cc1       0xc2 k:/electronics/sysgcc/arm-eabi/bin/../lib/gcc/arm-eabi/5.2.0/../../../../arm-eabi/lib/thumb/fpu/cortex_m4\libm.a(lib_a-s_lib_ver.o)
 .debug_info    0x00043d83      0x129 k:/electronics/sysgcc/arm-eabi/bin/../lib/gcc/arm-eabi/5.2.0/../../../../arm-eabi/lib/thumb/fpu/cortex_m4\libm.a(lib_a-s_matherr.o)
 .debug_info    0x00043eac      0x204 k:/electronics/sysgcc/arm-eabi/bin/../lib/gcc/arm-eabi/5.2.0/../../../../arm-eabi/lib/thumb/fpu/cortex_m4\libm.a(lib_a-s_rint.o)
 .debug_info    0x000440b0       0xcc k:/electronics/sysgcc/arm-eabi/bin/../lib/gcc/arm-eabi/5.2.0/../../../../arm-eabi/lib/thumb/fpu/cortex_m4\libm.a(lib_a-sf_fabs.o)
 .debug_info    0x0004417c       0xd2 k:/electronics/sysgcc/arm-eabi/bin/../lib/gcc/arm-eabi/5.2.0/../../../../arm-eabi/lib/thumb/fpu/cortex_m4\libm.a(lib_a-sf_finite.o)
 .debug_info    0x0004424e       0xc8 k:/electronics/sysgcc/arm-eabi/bin/../lib/gcc/arm-eabi/5.2.0/../../../../arm-eabi/lib/thumb/fpu/cortex_m4\libm.a(lib_a-sf_fpclassify.o)
 .debug_info    0x00044316       0xcc k:/electronics/sysgcc/arm-eabi/bin/../lib/gcc/arm-eabi/5.2.0/../../../../arm-eabi/lib/thumb/fpu/cortex_m4\libm.a(lib_a-sf_nan.o)
 .debug_info    0x000443e2      0x20e k:/electronics/sysgcc/arm-eabi/bin/../lib/gcc/arm-eabi/5.2.0/../../../../arm-eabi/lib/thumb/fpu/cortex_m4\libm.a(lib_a-sf_scalbn.o)
 .debug_info    0x000445f0      0x128 k:/electronics/sysgcc/arm-eabi/bin/../lib/gcc/arm-eabi/5.2.0/../../../../arm-eabi/lib/thumb/fpu/cortex_m4\libm.a(lib_a-sf_copysign.o)
 .debug_info    0x00044718       0xde k:/electronics/sysgcc/arm-eabi/bin/../lib/gcc/arm-eabi/5.2.0/thumb/fpu/cortex_m4\libgcc.a(_arm_addsubdf3.o)
 .debug_info    0x000447f6       0xde k:/electronics/sysgcc/arm-eabi/bin/../lib/gcc/arm-eabi/5.2.0/thumb/fpu/cortex_m4\libgcc.a(_arm_muldivdf3.o)
 .debug_info    0x000448d4       0xde k:/electronics/sysgcc/arm-eabi/bin/../lib/gcc/arm-eabi/5.2.0/thumb/fpu/cortex_m4\libgcc.a(_arm_cmpdf2.o)
 .debug_info    0x000449b2       0xde k:/electronics/sysgcc/arm-eabi/bin/../lib/gcc/arm-eabi/5.2.0/thumb/fpu/cortex_m4\libgcc.a(_arm_truncdfsf2.o)
 .debug_info    0x00044a90       0xde k:/electronics/sysgcc/arm-eabi/bin/../lib/gcc/arm-eabi/5.2.0/thumb/fpu/cortex_m4\libgcc.a(_arm_addsubsf3.o)
 .debug_info    0x00044b6e      0x919 k:/electronics/sysgcc/arm-eabi/bin/../lib/gcc/arm-eabi/5.2.0/../../../../arm-eabi/lib/thumb/fpu/cortex_m4\libc.a(lib_a-atoi.o)
 .debug_info    0x00045487      0x101 k:/electronics/sysgcc/arm-eabi/bin/../lib/gcc/arm-eabi/5.2.0/../../../../arm-eabi/lib/thumb/fpu/cortex_m4\libc.a(lib_a-memcpy.o)
 .debug_info    0x00045588      0x11e k:/electronics/sysgcc/arm-eabi/bin/../lib/gcc/arm-eabi/5.2.0/../../../../arm-eabi/lib/thumb/fpu/cortex_m4\libc.a(lib_a-memset.o)
 .debug_info    0x000456a6      0x100 k:/electronics/sysgcc/arm-eabi/bin/../lib/gcc/arm-eabi/5.2.0/../../../../arm-eabi/lib/thumb/fpu/cortex_m4\libc.a(lib_a-strcmp.o)
 .debug_info    0x000457a6       0xc4 k:/electronics/sysgcc/arm-eabi/bin/../lib/gcc/arm-eabi/5.2.0/../../../../arm-eabi/lib/thumb/fpu/cortex_m4\libc.a(lib_a-strcpy.o)
 .debug_info    0x0004586a       0xbc k:/electronics/sysgcc/arm-eabi/bin/../lib/gcc/arm-eabi/5.2.0/../../../../arm-eabi/lib/thumb/fpu/cortex_m4\libc.a(lib_a-strlen.o)
 .debug_info    0x00045926       0xfc k:/electronics/sysgcc/arm-eabi/bin/../lib/gcc/arm-eabi/5.2.0/../../../../arm-eabi/lib/thumb/fpu/cortex_m4\libc.a(lib_a-strncmp.o)
 .debug_info    0x00045a22      0x139 k:/electronics/sysgcc/arm-eabi/bin/../lib/gcc/arm-eabi/5.2.0/../../../../arm-eabi/lib/thumb/fpu/cortex_m4\libc.a(lib_a-strncpy.o)
 .debug_info    0x00045b5b      0x9b8 k:/electronics/sysgcc/arm-eabi/bin/../lib/gcc/arm-eabi/5.2.0/../../../../arm-eabi/lib/thumb/fpu/cortex_m4\libc.a(lib_a-strtol.o)
 .debug_info    0x00046513       0x6f k:/electronics/sysgcc/arm-eabi/bin/../lib/gcc/arm-eabi/5.2.0/../../../../arm-eabi/lib/thumb/fpu/cortex_m4\libc.a(lib_a-ctype_.o)
 .debug_info    0x00046582      0x89b k:/electronics/sysgcc/arm-eabi/bin/../lib/gcc/arm-eabi/5.2.0/../../../../arm-eabi/lib/thumb/fpu/cortex_m4\libc.a(lib_a-impure.o)

.debug_abbrev   0x00000000     0x943d
 .debug_abbrev  0x00000000       0xb4 Debug/asinf.o
 .debug_abbrev  0x000000b4      0x120 Debug/memory_mgmt.o
 .debug_abbrev  0x000001d4      0x1fc Debug/twb_debug.o
 .debug_abbrev  0x000003d0      0x176 Debug/twb_i2c.o
 .debug_abbrev  0x00000546      0x28c Debug/twb_i2c_stm32f4.o
 .debug_abbrev  0x000007d2      0x18b Debug/twb_leds.o
 .debug_abbrev  0x0000095d      0x14a Debug/twb_math.o
 .debug_abbrev  0x00000aa7      0x13f Debug/twb_serial_eeprom.o
 .debug_abbrev  0x00000be6       0xdc Debug/twb_strings.o
 .debug_abbrev  0x00000cc2      0x20c Debug/twb_timer.o
 .debug_abbrev  0x00000ece      0x211 Debug/commo.o
 .debug_abbrev  0x000010df      0x1bb Debug/msg_parser.o
 .debug_abbrev  0x0000129a      0x22f Debug/twb_usb.o
 .debug_abbrev  0x000014c9      0x218 Debug/usbd_cdc_core.o
 .debug_abbrev  0x000016e1      0x1b3 Debug/usbd_core.o
 .debug_abbrev  0x00001894      0x123 Debug/usbd_desc.o
 .debug_abbrev  0x000019b7      0x197 Debug/usbd_ioreq.o
 .debug_abbrev  0x00001b4e      0x2be Debug/usbd_req.o
 .debug_abbrev  0x00001e0c       0xf9 Debug/usbd_usr.o
 .debug_abbrev  0x00001f05      0x1ce Debug/usb_bsp.o
 .debug_abbrev  0x000020d3      0x238 Debug/usb_core.o
 .debug_abbrev  0x0000230b      0x1ea Debug/usb_core_cfg.o
 .debug_abbrev  0x000024f5      0x23c Debug/usb_core_ep.o
 .debug_abbrev  0x00002731      0x1e0 Debug/usb_core_int.o
 .debug_abbrev  0x00002911      0x233 Debug/usb_core_io.o
 .debug_abbrev  0x00002b44      0x1ed Debug/usb_dcd.o
 .debug_abbrev  0x00002d31      0x263 Debug/usb_dcd_int.o
 .debug_abbrev  0x00002f94      0x23a Debug/wifi.o
 .debug_abbrev  0x000031ce      0x128 Debug/Median.o
 .debug_abbrev  0x000032f6      0x213 Debug/autopilot.o
 .debug_abbrev  0x00003509      0x18b Debug/ctrl_loop.o
 .debug_abbrev  0x00003694      0x1ce Debug/ctrl_loop_commo.o
 .debug_abbrev  0x00003862      0x1b1 Debug/ctrl_loop_pid.o
 .debug_abbrev  0x00003a13       0xfa Debug/pid.o
 .debug_abbrev  0x00003b0d      0x25d Debug/pwm_capture.o
 .debug_abbrev  0x00003d6a      0x1b0 Debug/pwm_source.o
 .debug_abbrev  0x00003f1a      0x296 Debug/main.o
 .debug_abbrev  0x000041b0      0x133 Debug/nivek_system.o
 .debug_abbrev  0x000042e3      0x1e8 Debug/adxl345.o
 .debug_abbrev  0x000044cb      0x281 Debug/bmp085.o
 .debug_abbrev  0x0000474c      0x243 Debug/complementary.o
 .debug_abbrev  0x0000498f      0x18d Debug/kalman.o
 .debug_abbrev  0x00004b1c      0x2dd Debug/gps.o
 .debug_abbrev  0x00004df9      0x202 Debug/hmc5883.o
 .debug_abbrev  0x00004ffb      0x1e8 Debug/itg3200.o
 .debug_abbrev  0x000051e3      0x295 Debug/l3g20.o
 .debug_abbrev  0x00005478      0x209 Debug/lipo_adc.o
 .debug_abbrev  0x00005681      0x27b Debug/lsm303_acc.o
 .debug_abbrev  0x000058fc      0x29b Debug/lsm303_mag.o
 .debug_abbrev  0x00005b97      0x247 Debug/mpu60x0_acc.o
 .debug_abbrev  0x00005dde      0x2b3 Debug/mpu60x0_gryo.o
 .debug_abbrev  0x00006091      0x265 Debug/ms5611.o
 .debug_abbrev  0x000062f6      0x186 Debug/snsr_actions.o
 .debug_abbrev  0x0000647c      0x1c8 Debug/snsr_commo.o
 .debug_abbrev  0x00006644      0x1ce Debug/snsr_main.o
 .debug_abbrev  0x00006812      0x1a7 Debug/snsr_mgmt.o
 .debug_abbrev  0x000069b9      0x1c8 Debug/snsr_zero.o
 .debug_abbrev  0x00006b81      0x236 Debug/sonar.o
 .debug_abbrev  0x00006db7      0x280 Debug/stm32f4xx_it.o
 .debug_abbrev  0x00007037      0x234 Debug/cli.o
 .debug_abbrev  0x0000726b      0x13c Debug/system_stm32f4xx.o
 .debug_abbrev  0x000073a7       0xf2 Debug/twb_config.o
 .debug_abbrev  0x00007499      0x12d Debug/misc.o
 .debug_abbrev  0x000075c6      0x19c Debug/stm32f4xx_adc.o
 .debug_abbrev  0x00007762      0x1ad Debug/stm32f4xx_exti.o
 .debug_abbrev  0x0000790f      0x19c Debug/stm32f4xx_gpio.o
 .debug_abbrev  0x00007aab      0x16a Debug/stm32f4xx_i2c.o
 .debug_abbrev  0x00007c15      0x1e9 Debug/stm32f4xx_rcc.o
 .debug_abbrev  0x00007dfe      0x137 Debug/stm32f4xx_syscfg.o
 .debug_abbrev  0x00007f35      0x18d Debug/stm32f4xx_tim.o
 .debug_abbrev  0x000080c2      0x15b Debug/stm32f4xx_usart.o
 .debug_abbrev  0x0000821d       0x12 Debug/startup_stm32f4xx.o
 .debug_abbrev  0x0000822f      0x12e k:/electronics/sysgcc/arm-eabi/bin/../lib/gcc/arm-eabi/5.2.0/../../../../arm-eabi/lib/thumb/fpu/cortex_m4\libm.a(lib_a-wf_pow.o)
 .debug_abbrev  0x0000835d      0x179 k:/electronics/sysgcc/arm-eabi/bin/../lib/gcc/arm-eabi/5.2.0/../../../../arm-eabi/lib/thumb/fpu/cortex_m4\libm.a(lib_a-ef_pow.o)
 .debug_abbrev  0x000084d6       0xed k:/electronics/sysgcc/arm-eabi/bin/../lib/gcc/arm-eabi/5.2.0/../../../../arm-eabi/lib/thumb/fpu/cortex_m4\libm.a(lib_a-ef_sqrt.o)
 .debug_abbrev  0x000085c3       0x5a k:/electronics/sysgcc/arm-eabi/bin/../lib/gcc/arm-eabi/5.2.0/../../../../arm-eabi/lib/thumb/fpu/cortex_m4\libm.a(lib_a-s_lib_ver.o)
 .debug_abbrev  0x0000861d       0x9a k:/electronics/sysgcc/arm-eabi/bin/../lib/gcc/arm-eabi/5.2.0/../../../../arm-eabi/lib/thumb/fpu/cortex_m4\libm.a(lib_a-s_matherr.o)
 .debug_abbrev  0x000086b7      0x120 k:/electronics/sysgcc/arm-eabi/bin/../lib/gcc/arm-eabi/5.2.0/../../../../arm-eabi/lib/thumb/fpu/cortex_m4\libm.a(lib_a-s_rint.o)
 .debug_abbrev  0x000087d7       0x6f k:/electronics/sysgcc/arm-eabi/bin/../lib/gcc/arm-eabi/5.2.0/../../../../arm-eabi/lib/thumb/fpu/cortex_m4\libm.a(lib_a-sf_fabs.o)
 .debug_abbrev  0x00008846       0x6f k:/electronics/sysgcc/arm-eabi/bin/../lib/gcc/arm-eabi/5.2.0/../../../../arm-eabi/lib/thumb/fpu/cortex_m4\libm.a(lib_a-sf_finite.o)
 .debug_abbrev  0x000088b5       0x6f k:/electronics/sysgcc/arm-eabi/bin/../lib/gcc/arm-eabi/5.2.0/../../../../arm-eabi/lib/thumb/fpu/cortex_m4\libm.a(lib_a-sf_fpclassify.o)
 .debug_abbrev  0x00008924       0x72 k:/electronics/sysgcc/arm-eabi/bin/../lib/gcc/arm-eabi/5.2.0/../../../../arm-eabi/lib/thumb/fpu/cortex_m4\libm.a(lib_a-sf_nan.o)
 .debug_abbrev  0x00008996      0x113 k:/electronics/sysgcc/arm-eabi/bin/../lib/gcc/arm-eabi/5.2.0/../../../../arm-eabi/lib/thumb/fpu/cortex_m4\libm.a(lib_a-sf_scalbn.o)
 .debug_abbrev  0x00008aa9       0xca k:/electronics/sysgcc/arm-eabi/bin/../lib/gcc/arm-eabi/5.2.0/../../../../arm-eabi/lib/thumb/fpu/cortex_m4\libm.a(lib_a-sf_copysign.o)
 .debug_abbrev  0x00008b73       0x14 k:/electronics/sysgcc/arm-eabi/bin/../lib/gcc/arm-eabi/5.2.0/thumb/fpu/cortex_m4\libgcc.a(_arm_addsubdf3.o)
 .debug_abbrev  0x00008b87       0x14 k:/electronics/sysgcc/arm-eabi/bin/../lib/gcc/arm-eabi/5.2.0/thumb/fpu/cortex_m4\libgcc.a(_arm_muldivdf3.o)
 .debug_abbrev  0x00008b9b       0x14 k:/electronics/sysgcc/arm-eabi/bin/../lib/gcc/arm-eabi/5.2.0/thumb/fpu/cortex_m4\libgcc.a(_arm_cmpdf2.o)
 .debug_abbrev  0x00008baf       0x14 k:/electronics/sysgcc/arm-eabi/bin/../lib/gcc/arm-eabi/5.2.0/thumb/fpu/cortex_m4\libgcc.a(_arm_truncdfsf2.o)
 .debug_abbrev  0x00008bc3       0x14 k:/electronics/sysgcc/arm-eabi/bin/../lib/gcc/arm-eabi/5.2.0/thumb/fpu/cortex_m4\libgcc.a(_arm_addsubsf3.o)
 .debug_abbrev  0x00008bd7      0x1ba k:/electronics/sysgcc/arm-eabi/bin/../lib/gcc/arm-eabi/5.2.0/../../../../arm-eabi/lib/thumb/fpu/cortex_m4\libc.a(lib_a-atoi.o)
 .debug_abbrev  0x00008d91       0x14 k:/electronics/sysgcc/arm-eabi/bin/../lib/gcc/arm-eabi/5.2.0/../../../../arm-eabi/lib/thumb/fpu/cortex_m4\libc.a(lib_a-memcpy.o)
 .debug_abbrev  0x00008da5       0x9f k:/electronics/sysgcc/arm-eabi/bin/../lib/gcc/arm-eabi/5.2.0/../../../../arm-eabi/lib/thumb/fpu/cortex_m4\libc.a(lib_a-memset.o)
 .debug_abbrev  0x00008e44       0x14 k:/electronics/sysgcc/arm-eabi/bin/../lib/gcc/arm-eabi/5.2.0/../../../../arm-eabi/lib/thumb/fpu/cortex_m4\libc.a(lib_a-strcmp.o)
 .debug_abbrev  0x00008e58       0x72 k:/electronics/sysgcc/arm-eabi/bin/../lib/gcc/arm-eabi/5.2.0/../../../../arm-eabi/lib/thumb/fpu/cortex_m4\libc.a(lib_a-strcpy.o)
 .debug_abbrev  0x00008eca       0x70 k:/electronics/sysgcc/arm-eabi/bin/../lib/gcc/arm-eabi/5.2.0/../../../../arm-eabi/lib/thumb/fpu/cortex_m4\libc.a(lib_a-strlen.o)
 .debug_abbrev  0x00008f3a       0x81 k:/electronics/sysgcc/arm-eabi/bin/../lib/gcc/arm-eabi/5.2.0/../../../../arm-eabi/lib/thumb/fpu/cortex_m4\libc.a(lib_a-strncmp.o)
 .debug_abbrev  0x00008fbb       0xa6 k:/electronics/sysgcc/arm-eabi/bin/../lib/gcc/arm-eabi/5.2.0/../../../../arm-eabi/lib/thumb/fpu/cortex_m4\libc.a(lib_a-strncpy.o)
 .debug_abbrev  0x00009061      0x20e k:/electronics/sysgcc/arm-eabi/bin/../lib/gcc/arm-eabi/5.2.0/../../../../arm-eabi/lib/thumb/fpu/cortex_m4\libc.a(lib_a-strtol.o)
 .debug_abbrev  0x0000926f       0x4e k:/electronics/sysgcc/arm-eabi/bin/../lib/gcc/arm-eabi/5.2.0/../../../../arm-eabi/lib/thumb/fpu/cortex_m4\libc.a(lib_a-ctype_.o)
 .debug_abbrev  0x000092bd      0x180 k:/electronics/sysgcc/arm-eabi/bin/../lib/gcc/arm-eabi/5.2.0/../../../../arm-eabi/lib/thumb/fpu/cortex_m4\libc.a(lib_a-impure.o)

.debug_loc      0x00000000     0xb85b
 .debug_loc     0x00000000       0x64 Debug/asinf.o
 .debug_loc     0x00000064       0x84 Debug/memory_mgmt.o
 .debug_loc     0x000000e8      0x354 Debug/twb_debug.o
 .debug_loc     0x0000043c      0x188 Debug/twb_i2c.o
 .debug_loc     0x000005c4      0x2c4 Debug/twb_i2c_stm32f4.o
 .debug_loc     0x00000888       0xe0 Debug/twb_leds.o
 .debug_loc     0x00000968      0x254 Debug/twb_math.o
 .debug_loc     0x00000bbc      0x4d0 Debug/twb_serial_eeprom.o
 .debug_loc     0x0000108c       0x64 Debug/twb_strings.o
 .debug_loc     0x000010f0      0x1d0 Debug/twb_timer.o
 .debug_loc     0x000012c0      0x18c Debug/commo.o
 .debug_loc     0x0000144c       0xc8 Debug/msg_parser.o
 .debug_loc     0x00001514      0x184 Debug/twb_usb.o
 .debug_loc     0x00001698      0x238 Debug/usbd_cdc_core.o
 .debug_loc     0x000018d0      0x2cc Debug/usbd_core.o
 .debug_loc     0x00001b9c      0x218 Debug/usbd_desc.o
 .debug_loc     0x00001db4      0x17c Debug/usbd_ioreq.o
 .debug_loc     0x00001f30      0x3d8 Debug/usbd_req.o
 .debug_loc     0x00002308       0xcc Debug/usbd_usr.o
 .debug_loc     0x000023d4      0x12c Debug/usb_bsp.o
 .debug_loc     0x00002500      0x2a4 Debug/usb_core.o
 .debug_loc     0x000027a4       0xd4 Debug/usb_core_cfg.o
 .debug_loc     0x00002878      0x200 Debug/usb_core_ep.o
 .debug_loc     0x00002a78       0xbc Debug/usb_core_int.o
 .debug_loc     0x00002b34      0x1f4 Debug/usb_core_io.o
 .debug_loc     0x00002d28      0x2b4 Debug/usb_dcd.o
 .debug_loc     0x00002fdc      0x2cc Debug/usb_dcd_int.o
 .debug_loc     0x000032a8      0x1f0 Debug/wifi.o
 .debug_loc     0x00003498       0xa8 Debug/Median.o
 .debug_loc     0x00003540      0x164 Debug/autopilot.o
 .debug_loc     0x000036a4      0x100 Debug/ctrl_loop.o
 .debug_loc     0x000037a4       0xbc Debug/ctrl_loop_commo.o
 .debug_loc     0x00003860       0xf4 Debug/ctrl_loop_pid.o
 .debug_loc     0x00003954      0x158 Debug/pid.o
 .debug_loc     0x00003aac      0x248 Debug/pwm_capture.o
 .debug_loc     0x00003cf4      0x190 Debug/pwm_source.o
 .debug_loc     0x00003e84      0x248 Debug/main.o
 .debug_loc     0x000040cc      0x218 Debug/nivek_system.o
 .debug_loc     0x000042e4      0x138 Debug/adxl345.o
 .debug_loc     0x0000441c      0x2f8 Debug/bmp085.o
 .debug_loc     0x00004714      0x18c Debug/complementary.o
 .debug_loc     0x000048a0       0x58 Debug/kalman.o
 .debug_loc     0x000048f8      0x254 Debug/gps.o
 .debug_loc     0x00004b4c      0x120 Debug/hmc5883.o
 .debug_loc     0x00004c6c      0x1b0 Debug/itg3200.o
 .debug_loc     0x00004e1c      0x420 Debug/l3g20.o
 .debug_loc     0x0000523c      0x141 Debug/lipo_adc.o
 .debug_loc     0x0000537d      0x3e4 Debug/lsm303_acc.o
 .debug_loc     0x00005761      0x23c Debug/lsm303_mag.o
 .debug_loc     0x0000599d      0x210 Debug/mpu60x0_acc.o
 .debug_loc     0x00005bad      0x40c Debug/mpu60x0_gryo.o
 .debug_loc     0x00005fb9      0x33d Debug/ms5611.o
 .debug_loc     0x000062f6      0x118 Debug/snsr_actions.o
 .debug_loc     0x0000640e       0x90 Debug/snsr_commo.o
 .debug_loc     0x0000649e       0xc8 Debug/snsr_main.o
 .debug_loc     0x00006566       0x70 Debug/snsr_mgmt.o
 .debug_loc     0x000065d6      0x120 Debug/snsr_zero.o
 .debug_loc     0x000066f6      0x1b0 Debug/sonar.o
 .debug_loc     0x000068a6      0x254 Debug/stm32f4xx_it.o
 .debug_loc     0x00006afa      0x1bc Debug/cli.o
 .debug_loc     0x00006cb6       0x78 Debug/system_stm32f4xx.o
 .debug_loc     0x00006d2e       0xdc Debug/misc.o
 .debug_loc     0x00006e0a      0x650 Debug/stm32f4xx_adc.o
 .debug_loc     0x0000745a      0x134 Debug/stm32f4xx_exti.o
 .debug_loc     0x0000758e      0x274 Debug/stm32f4xx_gpio.o
 .debug_loc     0x00007802      0x5c4 Debug/stm32f4xx_i2c.o
 .debug_loc     0x00007dc6      0x718 Debug/stm32f4xx_rcc.o
 .debug_loc     0x000084de      0x114 Debug/stm32f4xx_syscfg.o
 .debug_loc     0x000085f2     0x1024 Debug/stm32f4xx_tim.o
 .debug_loc     0x00009616      0x514 Debug/stm32f4xx_usart.o
 .debug_loc     0x00009b2a       0xee k:/electronics/sysgcc/arm-eabi/bin/../lib/gcc/arm-eabi/5.2.0/../../../../arm-eabi/lib/thumb/fpu/cortex_m4\libm.a(lib_a-wf_pow.o)
 .debug_loc     0x00009c18      0xba6 k:/electronics/sysgcc/arm-eabi/bin/../lib/gcc/arm-eabi/5.2.0/../../../../arm-eabi/lib/thumb/fpu/cortex_m4\libm.a(lib_a-ef_pow.o)
 .debug_loc     0x0000a7be      0x265 k:/electronics/sysgcc/arm-eabi/bin/../lib/gcc/arm-eabi/5.2.0/../../../../arm-eabi/lib/thumb/fpu/cortex_m4\libm.a(lib_a-ef_sqrt.o)
 .debug_loc     0x0000aa23       0x21 k:/electronics/sysgcc/arm-eabi/bin/../lib/gcc/arm-eabi/5.2.0/../../../../arm-eabi/lib/thumb/fpu/cortex_m4\libm.a(lib_a-s_matherr.o)
 .debug_loc     0x0000aa44      0x2a1 k:/electronics/sysgcc/arm-eabi/bin/../lib/gcc/arm-eabi/5.2.0/../../../../arm-eabi/lib/thumb/fpu/cortex_m4\libm.a(lib_a-s_rint.o)
 .debug_loc     0x0000ace5       0x3e k:/electronics/sysgcc/arm-eabi/bin/../lib/gcc/arm-eabi/5.2.0/../../../../arm-eabi/lib/thumb/fpu/cortex_m4\libm.a(lib_a-sf_fabs.o)
 .debug_loc     0x0000ad23      0x261 k:/electronics/sysgcc/arm-eabi/bin/../lib/gcc/arm-eabi/5.2.0/../../../../arm-eabi/lib/thumb/fpu/cortex_m4\libm.a(lib_a-sf_scalbn.o)
 .debug_loc     0x0000af84       0x47 k:/electronics/sysgcc/arm-eabi/bin/../lib/gcc/arm-eabi/5.2.0/../../../../arm-eabi/lib/thumb/fpu/cortex_m4\libm.a(lib_a-sf_copysign.o)
 .debug_loc     0x0000afcb       0x63 k:/electronics/sysgcc/arm-eabi/bin/../lib/gcc/arm-eabi/5.2.0/../../../../arm-eabi/lib/thumb/fpu/cortex_m4\libc.a(lib_a-atoi.o)
 .debug_loc     0x0000b02e      0x1ae k:/electronics/sysgcc/arm-eabi/bin/../lib/gcc/arm-eabi/5.2.0/../../../../arm-eabi/lib/thumb/fpu/cortex_m4\libc.a(lib_a-memset.o)
 .debug_loc     0x0000b1dc       0x21 k:/electronics/sysgcc/arm-eabi/bin/../lib/gcc/arm-eabi/5.2.0/../../../../arm-eabi/lib/thumb/fpu/cortex_m4\libc.a(lib_a-strcpy.o)
 .debug_loc     0x0000b1fd       0x21 k:/electronics/sysgcc/arm-eabi/bin/../lib/gcc/arm-eabi/5.2.0/../../../../arm-eabi/lib/thumb/fpu/cortex_m4\libc.a(lib_a-strlen.o)
 .debug_loc     0x0000b21e      0x1b0 k:/electronics/sysgcc/arm-eabi/bin/../lib/gcc/arm-eabi/5.2.0/../../../../arm-eabi/lib/thumb/fpu/cortex_m4\libc.a(lib_a-strncmp.o)
 .debug_loc     0x0000b3ce      0x13d k:/electronics/sysgcc/arm-eabi/bin/../lib/gcc/arm-eabi/5.2.0/../../../../arm-eabi/lib/thumb/fpu/cortex_m4\libc.a(lib_a-strncpy.o)
 .debug_loc     0x0000b50b      0x350 k:/electronics/sysgcc/arm-eabi/bin/../lib/gcc/arm-eabi/5.2.0/../../../../arm-eabi/lib/thumb/fpu/cortex_m4\libc.a(lib_a-strtol.o)

.debug_aranges  0x00000000     0x26b0
 .debug_aranges
                0x00000000       0x28 Debug/asinf.o
 .debug_aranges
                0x00000028       0x30 Debug/memory_mgmt.o
 .debug_aranges
                0x00000058       0xa8 Debug/twb_debug.o
 .debug_aranges
                0x00000100       0x50 Debug/twb_i2c.o
 .debug_aranges
                0x00000150       0x98 Debug/twb_i2c_stm32f4.o
 .debug_aranges
                0x000001e8       0x38 Debug/twb_leds.o
 .debug_aranges
                0x00000220       0x80 Debug/twb_math.o
 .debug_aranges
                0x000002a0       0xd0 Debug/twb_serial_eeprom.o
 .debug_aranges
                0x00000370       0x28 Debug/twb_strings.o
 .debug_aranges
                0x00000398       0x70 Debug/twb_timer.o
 .debug_aranges
                0x00000408       0x68 Debug/commo.o
 .debug_aranges
                0x00000470       0x38 Debug/msg_parser.o
 .debug_aranges
                0x000004a8       0x58 Debug/twb_usb.o
 .debug_aranges
                0x00000500       0x70 Debug/usbd_cdc_core.o
 .debug_aranges
                0x00000570       0x80 Debug/usbd_core.o
 .debug_aranges
                0x000005f0       0x68 Debug/usbd_desc.o
 .debug_aranges
                0x00000658       0x50 Debug/usbd_ioreq.o
 .debug_aranges
                0x000006a8       0xa8 Debug/usbd_req.o
 .debug_aranges
                0x00000750       0x50 Debug/usbd_usr.o
 .debug_aranges
                0x000007a0       0x48 Debug/usb_bsp.o
 .debug_aranges
                0x000007e8       0x88 Debug/usb_core.o
 .debug_aranges
                0x00000870       0x38 Debug/usb_core_cfg.o
 .debug_aranges
                0x000008a8       0x68 Debug/usb_core_ep.o
 .debug_aranges
                0x00000910       0x38 Debug/usb_core_int.o
 .debug_aranges
                0x00000948       0x68 Debug/usb_core_io.o
 .debug_aranges
                0x000009b0       0x80 Debug/usb_dcd.o
 .debug_aranges
                0x00000a30       0x80 Debug/usb_dcd_int.o
 .debug_aranges
                0x00000ab0       0x78 Debug/wifi.o
 .debug_aranges
                0x00000b28       0x30 Debug/Median.o
 .debug_aranges
                0x00000b58       0x98 Debug/autopilot.o
 .debug_aranges
                0x00000bf0       0x58 Debug/ctrl_loop.o
 .debug_aranges
                0x00000c48       0x38 Debug/ctrl_loop_commo.o
 .debug_aranges
                0x00000c80       0x40 Debug/ctrl_loop_pid.o
 .debug_aranges
                0x00000cc0       0x50 Debug/pid.o
 .debug_aranges
                0x00000d10       0x80 Debug/pwm_capture.o
 .debug_aranges
                0x00000d90       0x60 Debug/pwm_source.o
 .debug_aranges
                0x00000df0       0x80 Debug/main.o
 .debug_aranges
                0x00000e70       0x68 Debug/nivek_system.o
 .debug_aranges
                0x00000ed8       0x48 Debug/adxl345.o
 .debug_aranges
                0x00000f20       0xc0 Debug/bmp085.o
 .debug_aranges
                0x00000fe0       0x60 Debug/complementary.o
 .debug_aranges
                0x00001040       0x40 Debug/kalman.o
 .debug_aranges
                0x00001080       0xb0 Debug/gps.o
 .debug_aranges
                0x00001130       0x50 Debug/hmc5883.o
 .debug_aranges
                0x00001180       0x60 Debug/itg3200.o
 .debug_aranges
                0x000011e0       0xe8 Debug/l3g20.o
 .debug_aranges
                0x000012c8       0x50 Debug/lipo_adc.o
 .debug_aranges
                0x00001318       0xd8 Debug/lsm303_acc.o
 .debug_aranges
                0x000013f0       0xa8 Debug/lsm303_mag.o
 .debug_aranges
                0x00001498       0x98 Debug/mpu60x0_acc.o
 .debug_aranges
                0x00001530       0xd0 Debug/mpu60x0_gryo.o
 .debug_aranges
                0x00001600       0xe8 Debug/ms5611.o
 .debug_aranges
                0x000016e8       0x40 Debug/snsr_actions.o
 .debug_aranges
                0x00001728       0x30 Debug/snsr_commo.o
 .debug_aranges
                0x00001758       0x40 Debug/snsr_main.o
 .debug_aranges
                0x00001798       0x28 Debug/snsr_mgmt.o
 .debug_aranges
                0x000017c0       0x48 Debug/snsr_zero.o
 .debug_aranges
                0x00001808       0x80 Debug/sonar.o
 .debug_aranges
                0x00001888       0xa0 Debug/stm32f4xx_it.o
 .debug_aranges
                0x00001928       0x68 Debug/cli.o
 .debug_aranges
                0x00001990       0x30 Debug/system_stm32f4xx.o
 .debug_aranges
                0x000019c0       0x18 Debug/twb_config.o
 .debug_aranges
                0x000019d8       0x40 Debug/misc.o
 .debug_aranges
                0x00001a18      0x148 Debug/stm32f4xx_adc.o
 .debug_aranges
                0x00001b60       0x58 Debug/stm32f4xx_exti.o
 .debug_aranges
                0x00001bb8       0x88 Debug/stm32f4xx_gpio.o
 .debug_aranges
                0x00001c40      0x120 Debug/stm32f4xx_i2c.o
 .debug_aranges
                0x00001d60      0x178 Debug/stm32f4xx_rcc.o
 .debug_aranges
                0x00001ed8       0x48 Debug/stm32f4xx_syscfg.o
 .debug_aranges
                0x00001f20      0x2f8 Debug/stm32f4xx_tim.o
 .debug_aranges
                0x00002218      0x100 Debug/stm32f4xx_usart.o
 .debug_aranges
                0x00002318       0x30 Debug/startup_stm32f4xx.o
 .debug_aranges
                0x00002348       0x20 k:/electronics/sysgcc/arm-eabi/bin/../lib/gcc/arm-eabi/5.2.0/../../../../arm-eabi/lib/thumb/fpu/cortex_m4\libm.a(lib_a-wf_pow.o)
 .debug_aranges
                0x00002368       0x20 k:/electronics/sysgcc/arm-eabi/bin/../lib/gcc/arm-eabi/5.2.0/../../../../arm-eabi/lib/thumb/fpu/cortex_m4\libm.a(lib_a-ef_pow.o)
 .debug_aranges
                0x00002388       0x20 k:/electronics/sysgcc/arm-eabi/bin/../lib/gcc/arm-eabi/5.2.0/../../../../arm-eabi/lib/thumb/fpu/cortex_m4\libm.a(lib_a-ef_sqrt.o)
 .debug_aranges
                0x000023a8       0x18 k:/electronics/sysgcc/arm-eabi/bin/../lib/gcc/arm-eabi/5.2.0/../../../../arm-eabi/lib/thumb/fpu/cortex_m4\libm.a(lib_a-s_lib_ver.o)
 .debug_aranges
                0x000023c0       0x20 k:/electronics/sysgcc/arm-eabi/bin/../lib/gcc/arm-eabi/5.2.0/../../../../arm-eabi/lib/thumb/fpu/cortex_m4\libm.a(lib_a-s_matherr.o)
 .debug_aranges
                0x000023e0       0x20 k:/electronics/sysgcc/arm-eabi/bin/../lib/gcc/arm-eabi/5.2.0/../../../../arm-eabi/lib/thumb/fpu/cortex_m4\libm.a(lib_a-s_rint.o)
 .debug_aranges
                0x00002400       0x20 k:/electronics/sysgcc/arm-eabi/bin/../lib/gcc/arm-eabi/5.2.0/../../../../arm-eabi/lib/thumb/fpu/cortex_m4\libm.a(lib_a-sf_fabs.o)
 .debug_aranges
                0x00002420       0x20 k:/electronics/sysgcc/arm-eabi/bin/../lib/gcc/arm-eabi/5.2.0/../../../../arm-eabi/lib/thumb/fpu/cortex_m4\libm.a(lib_a-sf_finite.o)
 .debug_aranges
                0x00002440       0x20 k:/electronics/sysgcc/arm-eabi/bin/../lib/gcc/arm-eabi/5.2.0/../../../../arm-eabi/lib/thumb/fpu/cortex_m4\libm.a(lib_a-sf_fpclassify.o)
 .debug_aranges
                0x00002460       0x20 k:/electronics/sysgcc/arm-eabi/bin/../lib/gcc/arm-eabi/5.2.0/../../../../arm-eabi/lib/thumb/fpu/cortex_m4\libm.a(lib_a-sf_nan.o)
 .debug_aranges
                0x00002480       0x20 k:/electronics/sysgcc/arm-eabi/bin/../lib/gcc/arm-eabi/5.2.0/../../../../arm-eabi/lib/thumb/fpu/cortex_m4\libm.a(lib_a-sf_scalbn.o)
 .debug_aranges
                0x000024a0       0x20 k:/electronics/sysgcc/arm-eabi/bin/../lib/gcc/arm-eabi/5.2.0/../../../../arm-eabi/lib/thumb/fpu/cortex_m4\libm.a(lib_a-sf_copysign.o)
 .debug_aranges
                0x000024c0       0x20 k:/electronics/sysgcc/arm-eabi/bin/../lib/gcc/arm-eabi/5.2.0/thumb/fpu/cortex_m4\libgcc.a(_arm_addsubdf3.o)
 .debug_aranges
                0x000024e0       0x20 k:/electronics/sysgcc/arm-eabi/bin/../lib/gcc/arm-eabi/5.2.0/thumb/fpu/cortex_m4\libgcc.a(_arm_muldivdf3.o)
 .debug_aranges
                0x00002500       0x20 k:/electronics/sysgcc/arm-eabi/bin/../lib/gcc/arm-eabi/5.2.0/thumb/fpu/cortex_m4\libgcc.a(_arm_cmpdf2.o)
 .debug_aranges
                0x00002520       0x20 k:/electronics/sysgcc/arm-eabi/bin/../lib/gcc/arm-eabi/5.2.0/thumb/fpu/cortex_m4\libgcc.a(_arm_truncdfsf2.o)
 .debug_aranges
                0x00002540       0x20 k:/electronics/sysgcc/arm-eabi/bin/../lib/gcc/arm-eabi/5.2.0/thumb/fpu/cortex_m4\libgcc.a(_arm_addsubsf3.o)
 .debug_aranges
                0x00002560       0x20 k:/electronics/sysgcc/arm-eabi/bin/../lib/gcc/arm-eabi/5.2.0/../../../../arm-eabi/lib/thumb/fpu/cortex_m4\libc.a(lib_a-atoi.o)
 .debug_aranges
                0x00002580       0x20 k:/electronics/sysgcc/arm-eabi/bin/../lib/gcc/arm-eabi/5.2.0/../../../../arm-eabi/lib/thumb/fpu/cortex_m4\libc.a(lib_a-memcpy.o)
 .debug_aranges
                0x000025a0       0x20 k:/electronics/sysgcc/arm-eabi/bin/../lib/gcc/arm-eabi/5.2.0/../../../../arm-eabi/lib/thumb/fpu/cortex_m4\libc.a(lib_a-memset.o)
 .debug_aranges
                0x000025c0       0x20 k:/electronics/sysgcc/arm-eabi/bin/../lib/gcc/arm-eabi/5.2.0/../../../../arm-eabi/lib/thumb/fpu/cortex_m4\libc.a(lib_a-strcmp.o)
 .debug_aranges
                0x000025e0       0x20 k:/electronics/sysgcc/arm-eabi/bin/../lib/gcc/arm-eabi/5.2.0/../../../../arm-eabi/lib/thumb/fpu/cortex_m4\libc.a(lib_a-strcpy.o)
 .debug_aranges
                0x00002600       0x20 k:/electronics/sysgcc/arm-eabi/bin/../lib/gcc/arm-eabi/5.2.0/../../../../arm-eabi/lib/thumb/fpu/cortex_m4\libc.a(lib_a-strlen.o)
 .debug_aranges
                0x00002620       0x20 k:/electronics/sysgcc/arm-eabi/bin/../lib/gcc/arm-eabi/5.2.0/../../../../arm-eabi/lib/thumb/fpu/cortex_m4\libc.a(lib_a-strncmp.o)
 .debug_aranges
                0x00002640       0x20 k:/electronics/sysgcc/arm-eabi/bin/../lib/gcc/arm-eabi/5.2.0/../../../../arm-eabi/lib/thumb/fpu/cortex_m4\libc.a(lib_a-strncpy.o)
 .debug_aranges
                0x00002660       0x20 k:/electronics/sysgcc/arm-eabi/bin/../lib/gcc/arm-eabi/5.2.0/../../../../arm-eabi/lib/thumb/fpu/cortex_m4\libc.a(lib_a-strtol.o)
 .debug_aranges
                0x00002680       0x18 k:/electronics/sysgcc/arm-eabi/bin/../lib/gcc/arm-eabi/5.2.0/../../../../arm-eabi/lib/thumb/fpu/cortex_m4\libc.a(lib_a-ctype_.o)
 .debug_aranges
                0x00002698       0x18 k:/electronics/sysgcc/arm-eabi/bin/../lib/gcc/arm-eabi/5.2.0/../../../../arm-eabi/lib/thumb/fpu/cortex_m4\libc.a(lib_a-impure.o)

.debug_ranges   0x00000000     0x20b8
 .debug_ranges  0x00000000       0x18 Debug/asinf.o
 .debug_ranges  0x00000018       0x20 Debug/memory_mgmt.o
 .debug_ranges  0x00000038       0x98 Debug/twb_debug.o
 .debug_ranges  0x000000d0       0x40 Debug/twb_i2c.o
 .debug_ranges  0x00000110       0x88 Debug/twb_i2c_stm32f4.o
 .debug_ranges  0x00000198       0x28 Debug/twb_leds.o
 .debug_ranges  0x000001c0       0x70 Debug/twb_math.o
 .debug_ranges  0x00000230       0xc0 Debug/twb_serial_eeprom.o
 .debug_ranges  0x000002f0       0x18 Debug/twb_strings.o
 .debug_ranges  0x00000308       0x60 Debug/twb_timer.o
 .debug_ranges  0x00000368       0x58 Debug/commo.o
 .debug_ranges  0x000003c0       0x28 Debug/msg_parser.o
 .debug_ranges  0x000003e8       0x48 Debug/twb_usb.o
 .debug_ranges  0x00000430       0x60 Debug/usbd_cdc_core.o
 .debug_ranges  0x00000490       0x70 Debug/usbd_core.o
 .debug_ranges  0x00000500       0x58 Debug/usbd_desc.o
 .debug_ranges  0x00000558       0x40 Debug/usbd_ioreq.o
 .debug_ranges  0x00000598       0x98 Debug/usbd_req.o
 .debug_ranges  0x00000630       0x40 Debug/usbd_usr.o
 .debug_ranges  0x00000670       0x38 Debug/usb_bsp.o
 .debug_ranges  0x000006a8       0x78 Debug/usb_core.o
 .debug_ranges  0x00000720       0x28 Debug/usb_core_cfg.o
 .debug_ranges  0x00000748       0x58 Debug/usb_core_ep.o
 .debug_ranges  0x000007a0       0x28 Debug/usb_core_int.o
 .debug_ranges  0x000007c8       0x58 Debug/usb_core_io.o
 .debug_ranges  0x00000820       0x70 Debug/usb_dcd.o
 .debug_ranges  0x00000890       0x70 Debug/usb_dcd_int.o
 .debug_ranges  0x00000900       0x68 Debug/wifi.o
 .debug_ranges  0x00000968       0x20 Debug/Median.o
 .debug_ranges  0x00000988       0x88 Debug/autopilot.o
 .debug_ranges  0x00000a10       0x48 Debug/ctrl_loop.o
 .debug_ranges  0x00000a58       0x40 Debug/ctrl_loop_commo.o
 .debug_ranges  0x00000a98       0x30 Debug/ctrl_loop_pid.o
 .debug_ranges  0x00000ac8       0x40 Debug/pid.o
 .debug_ranges  0x00000b08       0x70 Debug/pwm_capture.o
 .debug_ranges  0x00000b78       0x50 Debug/pwm_source.o
 .debug_ranges  0x00000bc8       0x70 Debug/main.o
 .debug_ranges  0x00000c38       0x58 Debug/nivek_system.o
 .debug_ranges  0x00000c90       0x38 Debug/adxl345.o
 .debug_ranges  0x00000cc8       0xb0 Debug/bmp085.o
 .debug_ranges  0x00000d78       0x50 Debug/complementary.o
 .debug_ranges  0x00000dc8       0x30 Debug/kalman.o
 .debug_ranges  0x00000df8       0xa0 Debug/gps.o
 .debug_ranges  0x00000e98       0x40 Debug/hmc5883.o
 .debug_ranges  0x00000ed8       0x50 Debug/itg3200.o
 .debug_ranges  0x00000f28       0xd8 Debug/l3g20.o
 .debug_ranges  0x00001000       0x58 Debug/lipo_adc.o
 .debug_ranges  0x00001058       0xc8 Debug/lsm303_acc.o
 .debug_ranges  0x00001120       0x98 Debug/lsm303_mag.o
 .debug_ranges  0x000011b8       0x88 Debug/mpu60x0_acc.o
 .debug_ranges  0x00001240       0xc0 Debug/mpu60x0_gryo.o
 .debug_ranges  0x00001300       0xd8 Debug/ms5611.o
 .debug_ranges  0x000013d8       0x30 Debug/snsr_actions.o
 .debug_ranges  0x00001408       0x20 Debug/snsr_commo.o
 .debug_ranges  0x00001428       0x30 Debug/snsr_main.o
 .debug_ranges  0x00001458       0x18 Debug/snsr_mgmt.o
 .debug_ranges  0x00001470       0x50 Debug/snsr_zero.o
 .debug_ranges  0x000014c0       0x70 Debug/sonar.o
 .debug_ranges  0x00001530       0x90 Debug/stm32f4xx_it.o
 .debug_ranges  0x000015c0       0x58 Debug/cli.o
 .debug_ranges  0x00001618       0x20 Debug/system_stm32f4xx.o
 .debug_ranges  0x00001638       0x30 Debug/misc.o
 .debug_ranges  0x00001668      0x138 Debug/stm32f4xx_adc.o
 .debug_ranges  0x000017a0       0x48 Debug/stm32f4xx_exti.o
 .debug_ranges  0x000017e8       0x78 Debug/stm32f4xx_gpio.o
 .debug_ranges  0x00001860      0x110 Debug/stm32f4xx_i2c.o
 .debug_ranges  0x00001970      0x168 Debug/stm32f4xx_rcc.o
 .debug_ranges  0x00001ad8       0x38 Debug/stm32f4xx_syscfg.o
 .debug_ranges  0x00001b10      0x2e8 Debug/stm32f4xx_tim.o
 .debug_ranges  0x00001df8       0xf0 Debug/stm32f4xx_usart.o
 .debug_ranges  0x00001ee8       0x28 Debug/startup_stm32f4xx.o
 .debug_ranges  0x00001f10       0xf8 k:/electronics/sysgcc/arm-eabi/bin/../lib/gcc/arm-eabi/5.2.0/../../../../arm-eabi/lib/thumb/fpu/cortex_m4\libm.a(lib_a-ef_pow.o)
 .debug_ranges  0x00002008       0x58 k:/electronics/sysgcc/arm-eabi/bin/../lib/gcc/arm-eabi/5.2.0/../../../../arm-eabi/lib/thumb/fpu/cortex_m4\libm.a(lib_a-s_rint.o)
 .debug_ranges  0x00002060       0x10 k:/electronics/sysgcc/arm-eabi/bin/../lib/gcc/arm-eabi/5.2.0/../../../../arm-eabi/lib/thumb/fpu/cortex_m4\libm.a(lib_a-sf_fabs.o)
 .debug_ranges  0x00002070       0x18 k:/electronics/sysgcc/arm-eabi/bin/../lib/gcc/arm-eabi/5.2.0/../../../../arm-eabi/lib/thumb/fpu/cortex_m4\libm.a(lib_a-sf_scalbn.o)
 .debug_ranges  0x00002088       0x10 k:/electronics/sysgcc/arm-eabi/bin/../lib/gcc/arm-eabi/5.2.0/../../../../arm-eabi/lib/thumb/fpu/cortex_m4\libm.a(lib_a-sf_copysign.o)
 .debug_ranges  0x00002098       0x10 k:/electronics/sysgcc/arm-eabi/bin/../lib/gcc/arm-eabi/5.2.0/../../../../arm-eabi/lib/thumb/fpu/cortex_m4\libc.a(lib_a-strcpy.o)
 .debug_ranges  0x000020a8       0x10 k:/electronics/sysgcc/arm-eabi/bin/../lib/gcc/arm-eabi/5.2.0/../../../../arm-eabi/lib/thumb/fpu/cortex_m4\libc.a(lib_a-strlen.o)

.debug_line     0x00000000    0x11816
 .debug_line    0x00000000       0x86 Debug/asinf.o
 .debug_line    0x00000086      0x149 Debug/memory_mgmt.o
 .debug_line    0x000001cf      0x3bb Debug/twb_debug.o
 .debug_line    0x0000058a      0x200 Debug/twb_i2c.o
 .debug_line    0x0000078a      0x40f Debug/twb_i2c_stm32f4.o
 .debug_line    0x00000b99      0x267 Debug/twb_leds.o
 .debug_line    0x00000e00      0x298 Debug/twb_math.o
 .debug_line    0x00001098      0x373 Debug/twb_serial_eeprom.o
 .debug_line    0x0000140b      0x154 Debug/twb_strings.o
 .debug_line    0x0000155f      0x364 Debug/twb_timer.o
 .debug_line    0x000018c3      0x33d Debug/commo.o
 .debug_line    0x00001c00      0x2b8 Debug/msg_parser.o
 .debug_line    0x00001eb8      0x298 Debug/twb_usb.o
 .debug_line    0x00002150      0x2ad Debug/usbd_cdc_core.o
 .debug_line    0x000023fd      0x2cc Debug/usbd_core.o
 .debug_line    0x000026c9      0x21e Debug/usbd_desc.o
 .debug_line    0x000028e7      0x1e5 Debug/usbd_ioreq.o
 .debug_line    0x00002acc      0x3e5 Debug/usbd_req.o
 .debug_line    0x00002eb1      0x1b4 Debug/usbd_usr.o
 .debug_line    0x00003065      0x226 Debug/usb_bsp.o
 .debug_line    0x0000328b      0x2fe Debug/usb_core.o
 .debug_line    0x00003589      0x24a Debug/usb_core_cfg.o
 .debug_line    0x000037d3      0x282 Debug/usb_core_ep.o
 .debug_line    0x00003a55      0x1b0 Debug/usb_core_int.o
 .debug_line    0x00003c05      0x293 Debug/usb_core_io.o
 .debug_line    0x00003e98      0x2f9 Debug/usb_dcd.o
 .debug_line    0x00004191      0x3fa Debug/usb_dcd_int.o
 .debug_line    0x0000458b      0x31c Debug/wifi.o
 .debug_line    0x000048a7      0x23c Debug/Median.o
 .debug_line    0x00004ae3      0x3fe Debug/autopilot.o
 .debug_line    0x00004ee1      0x952 Debug/ctrl_loop.o
 .debug_line    0x00005833      0x533 Debug/ctrl_loop_commo.o
 .debug_line    0x00005d66      0x2c8 Debug/ctrl_loop_pid.o
 .debug_line    0x0000602e      0x218 Debug/pid.o
 .debug_line    0x00006246      0x4e6 Debug/pwm_capture.o
 .debug_line    0x0000672c      0x370 Debug/pwm_source.o
 .debug_line    0x00006a9c      0x52f Debug/main.o
 .debug_line    0x00006fcb      0x32b Debug/nivek_system.o
 .debug_line    0x000072f6      0x38d Debug/adxl345.o
 .debug_line    0x00007683      0x50e Debug/bmp085.o
 .debug_line    0x00007b91      0x6b8 Debug/complementary.o
 .debug_line    0x00008249      0x1ed Debug/kalman.o
 .debug_line    0x00008436      0x41b Debug/gps.o
 .debug_line    0x00008851      0x452 Debug/hmc5883.o
 .debug_line    0x00008ca3      0x3ab Debug/itg3200.o
 .debug_line    0x0000904e      0x659 Debug/l3g20.o
 .debug_line    0x000096a7      0x3d8 Debug/lipo_adc.o
 .debug_line    0x00009a7f      0x5d1 Debug/lsm303_acc.o
 .debug_line    0x0000a050      0x5ab Debug/lsm303_mag.o
 .debug_line    0x0000a5fb      0x454 Debug/mpu60x0_acc.o
 .debug_line    0x0000aa4f      0x5b2 Debug/mpu60x0_gryo.o
 .debug_line    0x0000b001      0x4fd Debug/ms5611.o
 .debug_line    0x0000b4fe      0x2b3 Debug/snsr_actions.o
 .debug_line    0x0000b7b1      0x2bc Debug/snsr_commo.o
 .debug_line    0x0000ba6d      0x320 Debug/snsr_main.o
 .debug_line    0x0000bd8d      0x22f Debug/snsr_mgmt.o
 .debug_line    0x0000bfbc      0x312 Debug/snsr_zero.o
 .debug_line    0x0000c2ce      0x409 Debug/sonar.o
 .debug_line    0x0000c6d7      0x484 Debug/stm32f4xx_it.o
 .debug_line    0x0000cb5b      0x3be Debug/cli.o
 .debug_line    0x0000cf19      0x191 Debug/system_stm32f4xx.o
 .debug_line    0x0000d0aa      0x105 Debug/twb_config.o
 .debug_line    0x0000d1af      0x1bb Debug/misc.o
 .debug_line    0x0000d36a      0x4db Debug/stm32f4xx_adc.o
 .debug_line    0x0000d845      0x21e Debug/stm32f4xx_exti.o
 .debug_line    0x0000da63      0x2db Debug/stm32f4xx_gpio.o
 .debug_line    0x0000dd3e      0x469 Debug/stm32f4xx_i2c.o
 .debug_line    0x0000e1a7      0x522 Debug/stm32f4xx_rcc.o
 .debug_line    0x0000e6c9      0x18e Debug/stm32f4xx_syscfg.o
 .debug_line    0x0000e857      0xa41 Debug/stm32f4xx_tim.o
 .debug_line    0x0000f298      0x435 Debug/stm32f4xx_usart.o
 .debug_line    0x0000f6cd       0x8e Debug/startup_stm32f4xx.o
 .debug_line    0x0000f75b      0x20e k:/electronics/sysgcc/arm-eabi/bin/../lib/gcc/arm-eabi/5.2.0/../../../../arm-eabi/lib/thumb/fpu/cortex_m4\libm.a(lib_a-wf_pow.o)
 .debug_line    0x0000f969      0x29d k:/electronics/sysgcc/arm-eabi/bin/../lib/gcc/arm-eabi/5.2.0/../../../../arm-eabi/lib/thumb/fpu/cortex_m4\libm.a(lib_a-ef_pow.o)
 .debug_line    0x0000fc06      0x143 k:/electronics/sysgcc/arm-eabi/bin/../lib/gcc/arm-eabi/5.2.0/../../../../arm-eabi/lib/thumb/fpu/cortex_m4\libm.a(lib_a-ef_sqrt.o)
 .debug_line    0x0000fd49       0x9b k:/electronics/sysgcc/arm-eabi/bin/../lib/gcc/arm-eabi/5.2.0/../../../../arm-eabi/lib/thumb/fpu/cortex_m4\libm.a(lib_a-s_lib_ver.o)
 .debug_line    0x0000fde4       0xac k:/electronics/sysgcc/arm-eabi/bin/../lib/gcc/arm-eabi/5.2.0/../../../../arm-eabi/lib/thumb/fpu/cortex_m4\libm.a(lib_a-s_matherr.o)
 .debug_line    0x0000fe90      0x144 k:/electronics/sysgcc/arm-eabi/bin/../lib/gcc/arm-eabi/5.2.0/../../../../arm-eabi/lib/thumb/fpu/cortex_m4\libm.a(lib_a-s_rint.o)
 .debug_line    0x0000ffd4       0xf1 k:/electronics/sysgcc/arm-eabi/bin/../lib/gcc/arm-eabi/5.2.0/../../../../arm-eabi/lib/thumb/fpu/cortex_m4\libm.a(lib_a-sf_fabs.o)
 .debug_line    0x000100c5       0xf5 k:/electronics/sysgcc/arm-eabi/bin/../lib/gcc/arm-eabi/5.2.0/../../../../arm-eabi/lib/thumb/fpu/cortex_m4\libm.a(lib_a-sf_finite.o)
 .debug_line    0x000101ba       0xff k:/electronics/sysgcc/arm-eabi/bin/../lib/gcc/arm-eabi/5.2.0/../../../../arm-eabi/lib/thumb/fpu/cortex_m4\libm.a(lib_a-sf_fpclassify.o)
 .debug_line    0x000102b9       0xa8 k:/electronics/sysgcc/arm-eabi/bin/../lib/gcc/arm-eabi/5.2.0/../../../../arm-eabi/lib/thumb/fpu/cortex_m4\libm.a(lib_a-sf_nan.o)
 .debug_line    0x00010361      0x166 k:/electronics/sysgcc/arm-eabi/bin/../lib/gcc/arm-eabi/5.2.0/../../../../arm-eabi/lib/thumb/fpu/cortex_m4\libm.a(lib_a-sf_scalbn.o)
 .debug_line    0x000104c7      0x139 k:/electronics/sysgcc/arm-eabi/bin/../lib/gcc/arm-eabi/5.2.0/../../../../arm-eabi/lib/thumb/fpu/cortex_m4\libm.a(lib_a-sf_copysign.o)
 .debug_line    0x00010600      0x202 k:/electronics/sysgcc/arm-eabi/bin/../lib/gcc/arm-eabi/5.2.0/thumb/fpu/cortex_m4\libgcc.a(_arm_addsubdf3.o)
 .debug_line    0x00010802      0x223 k:/electronics/sysgcc/arm-eabi/bin/../lib/gcc/arm-eabi/5.2.0/thumb/fpu/cortex_m4\libgcc.a(_arm_muldivdf3.o)
 .debug_line    0x00010a25      0x109 k:/electronics/sysgcc/arm-eabi/bin/../lib/gcc/arm-eabi/5.2.0/thumb/fpu/cortex_m4\libgcc.a(_arm_cmpdf2.o)
 .debug_line    0x00010b2e       0x97 k:/electronics/sysgcc/arm-eabi/bin/../lib/gcc/arm-eabi/5.2.0/thumb/fpu/cortex_m4\libgcc.a(_arm_truncdfsf2.o)
 .debug_line    0x00010bc5      0x123 k:/electronics/sysgcc/arm-eabi/bin/../lib/gcc/arm-eabi/5.2.0/thumb/fpu/cortex_m4\libgcc.a(_arm_addsubsf3.o)
 .debug_line    0x00010ce8      0x133 k:/electronics/sysgcc/arm-eabi/bin/../lib/gcc/arm-eabi/5.2.0/../../../../arm-eabi/lib/thumb/fpu/cortex_m4\libc.a(lib_a-atoi.o)
 .debug_line    0x00010e1b       0xc5 k:/electronics/sysgcc/arm-eabi/bin/../lib/gcc/arm-eabi/5.2.0/../../../../arm-eabi/lib/thumb/fpu/cortex_m4\libc.a(lib_a-memcpy.o)
 .debug_line    0x00010ee0      0x110 k:/electronics/sysgcc/arm-eabi/bin/../lib/gcc/arm-eabi/5.2.0/../../../../arm-eabi/lib/thumb/fpu/cortex_m4\libc.a(lib_a-memset.o)
 .debug_line    0x00010ff0      0x149 k:/electronics/sysgcc/arm-eabi/bin/../lib/gcc/arm-eabi/5.2.0/../../../../arm-eabi/lib/thumb/fpu/cortex_m4\libc.a(lib_a-strcmp.o)
 .debug_line    0x00011139       0xb2 k:/electronics/sysgcc/arm-eabi/bin/../lib/gcc/arm-eabi/5.2.0/../../../../arm-eabi/lib/thumb/fpu/cortex_m4\libc.a(lib_a-strcpy.o)
 .debug_line    0x000111eb       0xe9 k:/electronics/sysgcc/arm-eabi/bin/../lib/gcc/arm-eabi/5.2.0/../../../../arm-eabi/lib/thumb/fpu/cortex_m4\libc.a(lib_a-strlen.o)
 .debug_line    0x000112d4      0x143 k:/electronics/sysgcc/arm-eabi/bin/../lib/gcc/arm-eabi/5.2.0/../../../../arm-eabi/lib/thumb/fpu/cortex_m4\libc.a(lib_a-strncmp.o)
 .debug_line    0x00011417      0x10b k:/electronics/sysgcc/arm-eabi/bin/../lib/gcc/arm-eabi/5.2.0/../../../../arm-eabi/lib/thumb/fpu/cortex_m4\libc.a(lib_a-strncpy.o)
 .debug_line    0x00011522      0x1b7 k:/electronics/sysgcc/arm-eabi/bin/../lib/gcc/arm-eabi/5.2.0/../../../../arm-eabi/lib/thumb/fpu/cortex_m4\libc.a(lib_a-strtol.o)
 .debug_line    0x000116d9       0x55 k:/electronics/sysgcc/arm-eabi/bin/../lib/gcc/arm-eabi/5.2.0/../../../../arm-eabi/lib/thumb/fpu/cortex_m4\libc.a(lib_a-ctype_.o)
 .debug_line    0x0001172e       0xe8 k:/electronics/sysgcc/arm-eabi/bin/../lib/gcc/arm-eabi/5.2.0/../../../../arm-eabi/lib/thumb/fpu/cortex_m4\libc.a(lib_a-impure.o)

.debug_str      0x00000000     0xd848
 .debug_str     0x00000000      0x148 Debug/asinf.o
                                0x18f (size before relaxing)
 .debug_str     0x00000148       0x87 Debug/memory_mgmt.o
                                0x1ed (size before relaxing)
 .debug_str     0x000001cf      0xb60 Debug/twb_debug.o
                                0xd1f (size before relaxing)
 .debug_str     0x00000d2f      0x25c Debug/twb_i2c.o
                                0x53b (size before relaxing)
 .debug_str     0x00000f8b      0x31e Debug/twb_i2c_stm32f4.o
                                0xe60 (size before relaxing)
 .debug_str     0x000012a9      0x139 Debug/twb_leds.o
                                0x53a (size before relaxing)
 .debug_str     0x000013e2      0x119 Debug/twb_math.o
                                0x2b2 (size before relaxing)
 .debug_str     0x000014fb      0x1e1 Debug/twb_serial_eeprom.o
                                0x59c (size before relaxing)
 .debug_str     0x000016dc       0x41 Debug/twb_strings.o
                                0x1de (size before relaxing)
 .debug_str     0x0000171d      0xcba Debug/twb_timer.o
                               0x10be (size before relaxing)
 .debug_str     0x000023d7      0x898 Debug/commo.o
                                0xddf (size before relaxing)
 .debug_str     0x00002c6f      0x27f Debug/msg_parser.o
                                0x6b2 (size before relaxing)
 .debug_str     0x00002eee      0x817 Debug/twb_usb.o
                                0xbcf (size before relaxing)
 .debug_str     0x00003705      0x1f8 Debug/usbd_cdc_core.o
                                0xbdf (size before relaxing)
 .debug_str     0x000038fd      0x15c Debug/usbd_core.o
                                0xb6c (size before relaxing)
 .debug_str     0x00003a59      0x448 Debug/usbd_desc.o
                                0x772 (size before relaxing)
 .debug_str     0x00003ea1       0xa3 Debug/usbd_ioreq.o
                                0xa44 (size before relaxing)
 .debug_str     0x00003f44      0x209 Debug/usbd_req.o
                                0xbfd (size before relaxing)
 .debug_str     0x0000414d       0xbb Debug/usbd_usr.o
                                0x2c7 (size before relaxing)
 .debug_str     0x00004208       0xa8 Debug/usb_bsp.o
                               0x115f (size before relaxing)
 .debug_str     0x000042b0      0x42d Debug/usb_core.o
                                0xf04 (size before relaxing)
 .debug_str     0x000046dd      0x32a Debug/usb_core_cfg.o
                                0xdaf (size before relaxing)
 .debug_str     0x00004a07      0x17b Debug/usb_core_ep.o
                                0xcf1 (size before relaxing)
 .debug_str     0x00004b82      0x1cd Debug/usb_core_int.o
                                0xc31 (size before relaxing)
 .debug_str     0x00004d4f      0x143 Debug/usb_core_io.o
                                0xc9f (size before relaxing)
 .debug_str     0x00004e92       0xe9 Debug/usb_dcd.o
                                0xb45 (size before relaxing)
 .debug_str     0x00004f7b      0x2cb Debug/usb_dcd_int.o
                               0x12ed (size before relaxing)
 .debug_str     0x00005246      0x247 Debug/wifi.o
                                0xdcc (size before relaxing)
 .debug_str     0x0000548d      0x19c Debug/Median.o
                                0x5be (size before relaxing)
 .debug_str     0x00005629     0x1115 Debug/autopilot.o
                               0x1fbb (size before relaxing)
 .debug_str     0x0000673e      0x1c5 Debug/ctrl_loop.o
                               0x15c8 (size before relaxing)
 .debug_str     0x00006903      0x107 Debug/ctrl_loop_commo.o
                               0x176a (size before relaxing)
 .debug_str     0x00006a0a      0x192 Debug/ctrl_loop_pid.o
                               0x15d1 (size before relaxing)
 .debug_str     0x00006b9c       0xa6 Debug/pid.o
                                0x43e (size before relaxing)
 .debug_str     0x00006c42      0x303 Debug/pwm_capture.o
                                0xf93 (size before relaxing)
 .debug_str     0x00006f45      0x27a Debug/pwm_source.o
                                0xe78 (size before relaxing)
 .debug_str     0x000071bf      0x33c Debug/main.o
                               0x2cea (size before relaxing)
 .debug_str     0x000074fb      0x122 Debug/nivek_system.o
                                0x624 (size before relaxing)
 .debug_str     0x0000761d      0x151 Debug/adxl345.o
                               0x1306 (size before relaxing)
 .debug_str     0x0000776e      0x3a3 Debug/bmp085.o
                               0x175a (size before relaxing)
 .debug_str     0x00007b11      0x2ce Debug/complementary.o
                               0x1778 (size before relaxing)
 .debug_str     0x00007ddf       0xaf Debug/kalman.o
                               0x11a7 (size before relaxing)
 .debug_str     0x00007e8e      0x293 Debug/gps.o
                               0x1562 (size before relaxing)
 .debug_str     0x00008121      0x11d Debug/hmc5883.o
                               0x18cc (size before relaxing)
 .debug_str     0x0000823e      0x132 Debug/itg3200.o
                               0x1341 (size before relaxing)
 .debug_str     0x00008370      0x41c Debug/l3g20.o
                               0x169e (size before relaxing)
 .debug_str     0x0000878c      0x384 Debug/lipo_adc.o
                               0x1cbe (size before relaxing)
 .debug_str     0x00008b10      0x391 Debug/lsm303_acc.o
                               0x164c (size before relaxing)
 .debug_str     0x00008ea1      0x49e Debug/lsm303_mag.o
                               0x1db5 (size before relaxing)
 .debug_str     0x0000933f      0x26c Debug/mpu60x0_acc.o
                               0x1485 (size before relaxing)
 .debug_str     0x000095ab      0x3e1 Debug/mpu60x0_gryo.o
                               0x1706 (size before relaxing)
 .debug_str     0x0000998c      0x4ab Debug/ms5611.o
                               0x1844 (size before relaxing)
 .debug_str     0x00009e37       0xa4 Debug/snsr_actions.o
                               0x17c9 (size before relaxing)
 .debug_str     0x00009edb       0xbe Debug/snsr_commo.o
                               0x1b27 (size before relaxing)
 .debug_str     0x00009f99       0xd7 Debug/snsr_main.o
                               0x1cd2 (size before relaxing)
 .debug_str     0x0000a070       0x8a Debug/snsr_mgmt.o
                                0x8e8 (size before relaxing)
 .debug_str     0x0000a0fa      0x237 Debug/snsr_zero.o
                                0xfbe (size before relaxing)
 .debug_str     0x0000a331      0x1f4 Debug/sonar.o
                               0x1713 (size before relaxing)
 .debug_str     0x0000a525      0x172 Debug/stm32f4xx_it.o
                                0xcce (size before relaxing)
 .debug_str     0x0000a697      0x16e Debug/cli.o
                                0x5ff (size before relaxing)
 .debug_str     0x0000a805      0x151 Debug/system_stm32f4xx.o
                                0x3a8 (size before relaxing)
 .debug_str     0x0000a956       0x2b Debug/twb_config.o
                               0x1bc2 (size before relaxing)
 .debug_str     0x0000a981       0xee Debug/misc.o
                                0x3d4 (size before relaxing)
 .debug_str     0x0000aa6f      0x4d8 Debug/stm32f4xx_adc.o
                                0x80a (size before relaxing)
 .debug_str     0x0000af47       0xbc Debug/stm32f4xx_exti.o
                                0x35f (size before relaxing)
 .debug_str     0x0000b003      0x15a Debug/stm32f4xx_gpio.o
                                0x4a9 (size before relaxing)
 .debug_str     0x0000b15d      0x34c Debug/stm32f4xx_i2c.o
                                0x66b (size before relaxing)
 .debug_str     0x0000b4a9      0x4d6 Debug/stm32f4xx_rcc.o
                                0x856 (size before relaxing)
 .debug_str     0x0000b97f      0x13c Debug/stm32f4xx_syscfg.o
                                0x2fa (size before relaxing)
 .debug_str     0x0000babb      0x9d7 Debug/stm32f4xx_tim.o
                                0xdd6 (size before relaxing)
 .debug_str     0x0000c492      0x383 Debug/stm32f4xx_usart.o
                                0x695 (size before relaxing)
 .debug_str     0x0000c815      0x1e3 k:/electronics/sysgcc/arm-eabi/bin/../lib/gcc/arm-eabi/5.2.0/../../../../arm-eabi/lib/thumb/fpu/cortex_m4\libm.a(lib_a-wf_pow.o)
                                0x2a5 (size before relaxing)
 .debug_str     0x0000c9f8       0xd9 k:/electronics/sysgcc/arm-eabi/bin/../lib/gcc/arm-eabi/5.2.0/../../../../arm-eabi/lib/thumb/fpu/cortex_m4\libm.a(lib_a-ef_pow.o)
                                0x2aa (size before relaxing)
 .debug_str     0x0000cad1       0x40 k:/electronics/sysgcc/arm-eabi/bin/../lib/gcc/arm-eabi/5.2.0/../../../../arm-eabi/lib/thumb/fpu/cortex_m4\libm.a(lib_a-ef_sqrt.o)
                                0x23c (size before relaxing)
 .debug_str     0x0000cb11       0xce k:/electronics/sysgcc/arm-eabi/bin/../lib/gcc/arm-eabi/5.2.0/../../../../arm-eabi/lib/thumb/fpu/cortex_m4\libm.a(lib_a-s_lib_ver.o)
                                0x248 (size before relaxing)
 .debug_str     0x0000cbdf       0x44 k:/electronics/sysgcc/arm-eabi/bin/../lib/gcc/arm-eabi/5.2.0/../../../../arm-eabi/lib/thumb/fpu/cortex_m4\libm.a(lib_a-s_matherr.o)
                                0x21a (size before relaxing)
 .debug_str     0x0000cc23      0x10a k:/electronics/sysgcc/arm-eabi/bin/../lib/gcc/arm-eabi/5.2.0/../../../../arm-eabi/lib/thumb/fpu/cortex_m4\libm.a(lib_a-s_rint.o)
                                0x249 (size before relaxing)
 .debug_str     0x0000cd2d       0x40 k:/electronics/sysgcc/arm-eabi/bin/../lib/gcc/arm-eabi/5.2.0/../../../../arm-eabi/lib/thumb/fpu/cortex_m4\libm.a(lib_a-sf_fabs.o)
                                0x1f8 (size before relaxing)
 .debug_str     0x0000cd6d       0x44 k:/electronics/sysgcc/arm-eabi/bin/../lib/gcc/arm-eabi/5.2.0/../../../../arm-eabi/lib/thumb/fpu/cortex_m4\libm.a(lib_a-sf_finite.o)
                                0x1ff (size before relaxing)
 .debug_str     0x0000cdb1       0x48 k:/electronics/sysgcc/arm-eabi/bin/../lib/gcc/arm-eabi/5.2.0/../../../../arm-eabi/lib/thumb/fpu/cortex_m4\libm.a(lib_a-sf_fpclassify.o)
                                0x20a (size before relaxing)
 .debug_str     0x0000cdf9       0x41 k:/electronics/sysgcc/arm-eabi/bin/../lib/gcc/arm-eabi/5.2.0/../../../../arm-eabi/lib/thumb/fpu/cortex_m4\libm.a(lib_a-sf_nan.o)
                                0x1f6 (size before relaxing)
 .debug_str     0x0000ce3a       0x5b k:/electronics/sysgcc/arm-eabi/bin/../lib/gcc/arm-eabi/5.2.0/../../../../arm-eabi/lib/thumb/fpu/cortex_m4\libm.a(lib_a-sf_scalbn.o)
                                0x256 (size before relaxing)
 .debug_str     0x0000ce95       0x46 k:/electronics/sysgcc/arm-eabi/bin/../lib/gcc/arm-eabi/5.2.0/../../../../arm-eabi/lib/thumb/fpu/cortex_m4\libm.a(lib_a-sf_copysign.o)
                                0x22a (size before relaxing)
 .debug_str     0x0000cedb      0x482 k:/electronics/sysgcc/arm-eabi/bin/../lib/gcc/arm-eabi/5.2.0/../../../../arm-eabi/lib/thumb/fpu/cortex_m4\libc.a(lib_a-atoi.o)
                                0x5af (size before relaxing)
 .debug_str     0x0000d35d       0xdf k:/electronics/sysgcc/arm-eabi/bin/../lib/gcc/arm-eabi/5.2.0/../../../../arm-eabi/lib/thumb/fpu/cortex_m4\libc.a(lib_a-memset.o)
                                0x1ff (size before relaxing)
 .debug_str     0x0000d43c       0xdf k:/electronics/sysgcc/arm-eabi/bin/../lib/gcc/arm-eabi/5.2.0/../../../../arm-eabi/lib/thumb/fpu/cortex_m4\libc.a(lib_a-strcpy.o)
                                0x1f1 (size before relaxing)
 .debug_str     0x0000d51b       0x50 k:/electronics/sysgcc/arm-eabi/bin/../lib/gcc/arm-eabi/5.2.0/../../../../arm-eabi/lib/thumb/fpu/cortex_m4\libc.a(lib_a-strlen.o)
                                0x1f8 (size before relaxing)
 .debug_str     0x0000d56b       0x4a k:/electronics/sysgcc/arm-eabi/bin/../lib/gcc/arm-eabi/5.2.0/../../../../arm-eabi/lib/thumb/fpu/cortex_m4\libc.a(lib_a-strncmp.o)
                                0x1ed (size before relaxing)
 .debug_str     0x0000d5b5       0x6c k:/electronics/sysgcc/arm-eabi/bin/../lib/gcc/arm-eabi/5.2.0/../../../../arm-eabi/lib/thumb/fpu/cortex_m4\libc.a(lib_a-strncpy.o)
                                0x215 (size before relaxing)
 .debug_str     0x0000d621       0x6e k:/electronics/sysgcc/arm-eabi/bin/../lib/gcc/arm-eabi/5.2.0/../../../../arm-eabi/lib/thumb/fpu/cortex_m4\libc.a(lib_a-strtol.o)
                                0x5e2 (size before relaxing)
 .debug_str     0x0000d68f       0xd1 k:/electronics/sysgcc/arm-eabi/bin/../lib/gcc/arm-eabi/5.2.0/../../../../arm-eabi/lib/thumb/fpu/cortex_m4\libc.a(lib_a-ctype_.o)
                                0x161 (size before relaxing)
 .debug_str     0x0000d760       0xe8 k:/electronics/sysgcc/arm-eabi/bin/../lib/gcc/arm-eabi/5.2.0/../../../../arm-eabi/lib/thumb/fpu/cortex_m4\libc.a(lib_a-impure.o)
                                0x5bc (size before relaxing)

.comment        0x00000000       0x11
 .comment       0x00000000       0x11 Debug/asinf.o
                                 0x12 (size before relaxing)
 .comment       0x00000000       0x12 Debug/memory_mgmt.o
 .comment       0x00000000       0x12 Debug/twb_debug.o
 .comment       0x00000000       0x12 Debug/twb_i2c.o
 .comment       0x00000000       0x12 Debug/twb_i2c_stm32f4.o
 .comment       0x00000000       0x12 Debug/twb_leds.o
 .comment       0x00000000       0x12 Debug/twb_math.o
 .comment       0x00000000       0x12 Debug/twb_serial_eeprom.o
 .comment       0x00000000       0x12 Debug/twb_strings.o
 .comment       0x00000000       0x12 Debug/twb_timer.o
 .comment       0x00000000       0x12 Debug/commo.o
 .comment       0x00000000       0x12 Debug/msg_parser.o
 .comment       0x00000000       0x12 Debug/twb_usb.o
 .comment       0x00000000       0x12 Debug/usbd_cdc_core.o
 .comment       0x00000000       0x12 Debug/usbd_core.o
 .comment       0x00000000       0x12 Debug/usbd_desc.o
 .comment       0x00000000       0x12 Debug/usbd_ioreq.o
 .comment       0x00000000       0x12 Debug/usbd_req.o
 .comment       0x00000000       0x12 Debug/usbd_usr.o
 .comment       0x00000000       0x12 Debug/usb_bsp.o
 .comment       0x00000000       0x12 Debug/usb_core.o
 .comment       0x00000000       0x12 Debug/usb_core_cfg.o
 .comment       0x00000000       0x12 Debug/usb_core_ep.o
 .comment       0x00000000       0x12 Debug/usb_core_int.o
 .comment       0x00000000       0x12 Debug/usb_core_io.o
 .comment       0x00000000       0x12 Debug/usb_dcd.o
 .comment       0x00000000       0x12 Debug/usb_dcd_int.o
 .comment       0x00000000       0x12 Debug/wifi.o
 .comment       0x00000000       0x12 Debug/Median.o
 .comment       0x00000000       0x12 Debug/autopilot.o
 .comment       0x00000000       0x12 Debug/ctrl_loop.o
 .comment       0x00000000       0x12 Debug/ctrl_loop_commo.o
 .comment       0x00000000       0x12 Debug/ctrl_loop_pid.o
 .comment       0x00000000       0x12 Debug/pid.o
 .comment       0x00000000       0x12 Debug/pwm_capture.o
 .comment       0x00000000       0x12 Debug/pwm_source.o
 .comment       0x00000000       0x12 Debug/main.o
 .comment       0x00000000       0x12 Debug/nivek_system.o
 .comment       0x00000000       0x12 Debug/adxl345.o
 .comment       0x00000000       0x12 Debug/bmp085.o
 .comment       0x00000000       0x12 Debug/complementary.o
 .comment       0x00000000       0x12 Debug/kalman.o
 .comment       0x00000000       0x12 Debug/gps.o
 .comment       0x00000000       0x12 Debug/hmc5883.o
 .comment       0x00000000       0x12 Debug/itg3200.o
 .comment       0x00000000       0x12 Debug/l3g20.o
 .comment       0x00000000       0x12 Debug/lipo_adc.o
 .comment       0x00000000       0x12 Debug/lsm303_acc.o
 .comment       0x00000000       0x12 Debug/lsm303_mag.o
 .comment       0x00000000       0x12 Debug/mpu60x0_acc.o
 .comment       0x00000000       0x12 Debug/mpu60x0_gryo.o
 .comment       0x00000000       0x12 Debug/ms5611.o
 .comment       0x00000000       0x12 Debug/snsr_actions.o
 .comment       0x00000000       0x12 Debug/snsr_commo.o
 .comment       0x00000000       0x12 Debug/snsr_main.o
 .comment       0x00000000       0x12 Debug/snsr_mgmt.o
 .comment       0x00000000       0x12 Debug/snsr_zero.o
 .comment       0x00000000       0x12 Debug/sonar.o
 .comment       0x00000000       0x12 Debug/stm32f4xx_it.o
 .comment       0x00000000       0x12 Debug/cli.o
 .comment       0x00000000       0x12 Debug/system_stm32f4xx.o
 .comment       0x00000000       0x12 Debug/twb_config.o
 .comment       0x00000000       0x12 Debug/misc.o
 .comment       0x00000000       0x12 Debug/stm32f4xx_adc.o
 .comment       0x00000000       0x12 Debug/stm32f4xx_exti.o
 .comment       0x00000000       0x12 Debug/stm32f4xx_gpio.o
 .comment       0x00000000       0x12 Debug/stm32f4xx_i2c.o
 .comment       0x00000000       0x12 Debug/stm32f4xx_rcc.o
 .comment       0x00000000       0x12 Debug/stm32f4xx_syscfg.o
 .comment       0x00000000       0x12 Debug/stm32f4xx_tim.o
 .comment       0x00000000       0x12 Debug/stm32f4xx_usart.o
 .comment       0x00000000       0x12 k:/electronics/sysgcc/arm-eabi/bin/../lib/gcc/arm-eabi/5.2.0/../../../../arm-eabi/lib/thumb/fpu/cortex_m4\libm.a(lib_a-wf_pow.o)
 .comment       0x00000000       0x12 k:/electronics/sysgcc/arm-eabi/bin/../lib/gcc/arm-eabi/5.2.0/../../../../arm-eabi/lib/thumb/fpu/cortex_m4\libm.a(lib_a-ef_pow.o)
 .comment       0x00000000       0x12 k:/electronics/sysgcc/arm-eabi/bin/../lib/gcc/arm-eabi/5.2.0/../../../../arm-eabi/lib/thumb/fpu/cortex_m4\libm.a(lib_a-ef_sqrt.o)
 .comment       0x00000000       0x12 k:/electronics/sysgcc/arm-eabi/bin/../lib/gcc/arm-eabi/5.2.0/../../../../arm-eabi/lib/thumb/fpu/cortex_m4\libm.a(lib_a-s_lib_ver.o)
 .comment       0x00000000       0x12 k:/electronics/sysgcc/arm-eabi/bin/../lib/gcc/arm-eabi/5.2.0/../../../../arm-eabi/lib/thumb/fpu/cortex_m4\libm.a(lib_a-s_matherr.o)
 .comment       0x00000000       0x12 k:/electronics/sysgcc/arm-eabi/bin/../lib/gcc/arm-eabi/5.2.0/../../../../arm-eabi/lib/thumb/fpu/cortex_m4\libm.a(lib_a-s_rint.o)
 .comment       0x00000000       0x12 k:/electronics/sysgcc/arm-eabi/bin/../lib/gcc/arm-eabi/5.2.0/../../../../arm-eabi/lib/thumb/fpu/cortex_m4\libm.a(lib_a-sf_fabs.o)
 .comment       0x00000000       0x12 k:/electronics/sysgcc/arm-eabi/bin/../lib/gcc/arm-eabi/5.2.0/../../../../arm-eabi/lib/thumb/fpu/cortex_m4\libm.a(lib_a-sf_finite.o)
 .comment       0x00000000       0x12 k:/electronics/sysgcc/arm-eabi/bin/../lib/gcc/arm-eabi/5.2.0/../../../../arm-eabi/lib/thumb/fpu/cortex_m4\libm.a(lib_a-sf_fpclassify.o)
 .comment       0x00000000       0x12 k:/electronics/sysgcc/arm-eabi/bin/../lib/gcc/arm-eabi/5.2.0/../../../../arm-eabi/lib/thumb/fpu/cortex_m4\libm.a(lib_a-sf_nan.o)
 .comment       0x00000000       0x12 k:/electronics/sysgcc/arm-eabi/bin/../lib/gcc/arm-eabi/5.2.0/../../../../arm-eabi/lib/thumb/fpu/cortex_m4\libm.a(lib_a-sf_scalbn.o)
 .comment       0x00000000       0x12 k:/electronics/sysgcc/arm-eabi/bin/../lib/gcc/arm-eabi/5.2.0/../../../../arm-eabi/lib/thumb/fpu/cortex_m4\libm.a(lib_a-sf_copysign.o)
 .comment       0x00000000       0x12 k:/electronics/sysgcc/arm-eabi/bin/../lib/gcc/arm-eabi/5.2.0/../../../../arm-eabi/lib/thumb/fpu/cortex_m4\libc.a(lib_a-atoi.o)
 .comment       0x00000000       0x12 k:/electronics/sysgcc/arm-eabi/bin/../lib/gcc/arm-eabi/5.2.0/../../../../arm-eabi/lib/thumb/fpu/cortex_m4\libc.a(lib_a-memset.o)
 .comment       0x00000000       0x12 k:/electronics/sysgcc/arm-eabi/bin/../lib/gcc/arm-eabi/5.2.0/../../../../arm-eabi/lib/thumb/fpu/cortex_m4\libc.a(lib_a-strcpy.o)
 .comment       0x00000000       0x12 k:/electronics/sysgcc/arm-eabi/bin/../lib/gcc/arm-eabi/5.2.0/../../../../arm-eabi/lib/thumb/fpu/cortex_m4\libc.a(lib_a-strlen.o)
 .comment       0x00000000       0x12 k:/electronics/sysgcc/arm-eabi/bin/../lib/gcc/arm-eabi/5.2.0/../../../../arm-eabi/lib/thumb/fpu/cortex_m4\libc.a(lib_a-strncmp.o)
 .comment       0x00000000       0x12 k:/electronics/sysgcc/arm-eabi/bin/../lib/gcc/arm-eabi/5.2.0/../../../../arm-eabi/lib/thumb/fpu/cortex_m4\libc.a(lib_a-strncpy.o)
 .comment       0x00000000       0x12 k:/electronics/sysgcc/arm-eabi/bin/../lib/gcc/arm-eabi/5.2.0/../../../../arm-eabi/lib/thumb/fpu/cortex_m4\libc.a(lib_a-strtol.o)
 .comment       0x00000000       0x12 k:/electronics/sysgcc/arm-eabi/bin/../lib/gcc/arm-eabi/5.2.0/../../../../arm-eabi/lib/thumb/fpu/cortex_m4\libc.a(lib_a-ctype_.o)
 .comment       0x00000000       0x12 k:/electronics/sysgcc/arm-eabi/bin/../lib/gcc/arm-eabi/5.2.0/../../../../arm-eabi/lib/thumb/fpu/cortex_m4\libc.a(lib_a-impure.o)

.debug_frame    0x00000000     0x618c
 .debug_frame   0x00000000       0x44 Debug/asinf.o
 .debug_frame   0x00000044       0x5c Debug/memory_mgmt.o
 .debug_frame   0x000000a0      0x1e8 Debug/twb_debug.o
 .debug_frame   0x00000288       0xd4 Debug/twb_i2c.o
 .debug_frame   0x0000035c      0x1ac Debug/twb_i2c_stm32f4.o
 .debug_frame   0x00000508       0x80 Debug/twb_leds.o
 .debug_frame   0x00000588      0x158 Debug/twb_math.o
 .debug_frame   0x000006e0      0x288 Debug/twb_serial_eeprom.o
 .debug_frame   0x00000968       0x44 Debug/twb_strings.o
 .debug_frame   0x000009ac      0x120 Debug/twb_timer.o
 .debug_frame   0x00000acc      0x10c Debug/commo.o
 .debug_frame   0x00000bd8       0x84 Debug/msg_parser.o
 .debug_frame   0x00000c5c       0xe0 Debug/twb_usb.o
 .debug_frame   0x00000d3c      0x134 Debug/usbd_cdc_core.o
 .debug_frame   0x00000e70      0x178 Debug/usbd_core.o
 .debug_frame   0x00000fe8      0x120 Debug/usbd_desc.o
 .debug_frame   0x00001108       0xd0 Debug/usbd_ioreq.o
 .debug_frame   0x000011d8      0x200 Debug/usbd_req.o
 .debug_frame   0x000013d8       0xb0 Debug/usbd_usr.o
 .debug_frame   0x00001488       0xac Debug/usb_bsp.o
 .debug_frame   0x00001534      0x178 Debug/usb_core.o
 .debug_frame   0x000016ac       0x80 Debug/usb_core_cfg.o
 .debug_frame   0x0000172c      0x118 Debug/usb_core_ep.o
 .debug_frame   0x00001844       0x74 Debug/usb_core_int.o
 .debug_frame   0x000018b8      0x114 Debug/usb_core_io.o
 .debug_frame   0x000019cc      0x170 Debug/usb_dcd.o
 .debug_frame   0x00001b3c      0x178 Debug/usb_dcd_int.o
 .debug_frame   0x00001cb4      0x13c Debug/wifi.o
 .debug_frame   0x00001df0       0x70 Debug/Median.o
 .debug_frame   0x00001e60      0x160 Debug/autopilot.o
 .debug_frame   0x00001fc0       0xd0 Debug/ctrl_loop.o
 .debug_frame   0x00002090       0x80 Debug/ctrl_loop_commo.o
 .debug_frame   0x00002110       0x98 Debug/ctrl_loop_pid.o
 .debug_frame   0x000021a8       0xc4 Debug/pid.o
 .debug_frame   0x0000226c      0x16c Debug/pwm_capture.o
 .debug_frame   0x000023d8       0xf8 Debug/pwm_source.o
 .debug_frame   0x000024d0      0x160 Debug/main.o
 .debug_frame   0x00002630      0x124 Debug/nivek_system.o
 .debug_frame   0x00002754       0xb8 Debug/adxl345.o
 .debug_frame   0x0000280c      0x20c Debug/bmp085.o
 .debug_frame   0x00002a18      0x104 Debug/complementary.o
 .debug_frame   0x00002b1c       0x70 Debug/kalman.o
 .debug_frame   0x00002b8c      0x1c4 Debug/gps.o
 .debug_frame   0x00002d50       0xc4 Debug/hmc5883.o
 .debug_frame   0x00002e14      0x100 Debug/itg3200.o
 .debug_frame   0x00002f14      0x2a0 Debug/l3g20.o
 .debug_frame   0x000031b4       0xcc Debug/lipo_adc.o
 .debug_frame   0x00003280      0x26c Debug/lsm303_acc.o
 .debug_frame   0x000034ec      0x1b8 Debug/lsm303_mag.o
 .debug_frame   0x000036a4      0x184 Debug/mpu60x0_acc.o
 .debug_frame   0x00003828      0x260 Debug/mpu60x0_gryo.o
 .debug_frame   0x00003a88      0x280 Debug/ms5611.o
 .debug_frame   0x00003d08       0x9c Debug/snsr_actions.o
 .debug_frame   0x00003da4       0x64 Debug/snsr_commo.o
 .debug_frame   0x00003e08       0x90 Debug/snsr_main.o
 .debug_frame   0x00003e98       0x4c Debug/snsr_mgmt.o
 .debug_frame   0x00003ee4       0xb4 Debug/snsr_zero.o
 .debug_frame   0x00003f98      0x13c Debug/sonar.o
 .debug_frame   0x000040d4      0x1a4 Debug/stm32f4xx_it.o
 .debug_frame   0x00004278      0x114 Debug/cli.o
 .debug_frame   0x0000438c       0x58 Debug/system_stm32f4xx.o
 .debug_frame   0x000043e4       0x88 Debug/misc.o
 .debug_frame   0x0000446c      0x398 Debug/stm32f4xx_adc.o
 .debug_frame   0x00004804       0xc8 Debug/stm32f4xx_exti.o
 .debug_frame   0x000048cc      0x164 Debug/stm32f4xx_gpio.o
 .debug_frame   0x00004a30      0x330 Debug/stm32f4xx_i2c.o
 .debug_frame   0x00004d60      0x41c Debug/stm32f4xx_rcc.o
 .debug_frame   0x0000517c       0xa8 Debug/stm32f4xx_syscfg.o
 .debug_frame   0x00005224      0x8cc Debug/stm32f4xx_tim.o
 .debug_frame   0x00005af0      0x2d0 Debug/stm32f4xx_usart.o
 .debug_frame   0x00005dc0       0x50 k:/electronics/sysgcc/arm-eabi/bin/../lib/gcc/arm-eabi/5.2.0/../../../../arm-eabi/lib/thumb/fpu/cortex_m4\libm.a(lib_a-wf_pow.o)
 .debug_frame   0x00005e10       0x80 k:/electronics/sysgcc/arm-eabi/bin/../lib/gcc/arm-eabi/5.2.0/../../../../arm-eabi/lib/thumb/fpu/cortex_m4\libm.a(lib_a-ef_pow.o)
 .debug_frame   0x00005e90       0x3c k:/electronics/sysgcc/arm-eabi/bin/../lib/gcc/arm-eabi/5.2.0/../../../../arm-eabi/lib/thumb/fpu/cortex_m4\libm.a(lib_a-ef_sqrt.o)
 .debug_frame   0x00005ecc       0x20 k:/electronics/sysgcc/arm-eabi/bin/../lib/gcc/arm-eabi/5.2.0/../../../../arm-eabi/lib/thumb/fpu/cortex_m4\libm.a(lib_a-s_matherr.o)
 .debug_frame   0x00005eec       0x3c k:/electronics/sysgcc/arm-eabi/bin/../lib/gcc/arm-eabi/5.2.0/../../../../arm-eabi/lib/thumb/fpu/cortex_m4\libm.a(lib_a-s_rint.o)
 .debug_frame   0x00005f28       0x20 k:/electronics/sysgcc/arm-eabi/bin/../lib/gcc/arm-eabi/5.2.0/../../../../arm-eabi/lib/thumb/fpu/cortex_m4\libm.a(lib_a-sf_fabs.o)
 .debug_frame   0x00005f48       0x20 k:/electronics/sysgcc/arm-eabi/bin/../lib/gcc/arm-eabi/5.2.0/../../../../arm-eabi/lib/thumb/fpu/cortex_m4\libm.a(lib_a-sf_finite.o)
 .debug_frame   0x00005f68       0x20 k:/electronics/sysgcc/arm-eabi/bin/../lib/gcc/arm-eabi/5.2.0/../../../../arm-eabi/lib/thumb/fpu/cortex_m4\libm.a(lib_a-sf_fpclassify.o)
 .debug_frame   0x00005f88       0x20 k:/electronics/sysgcc/arm-eabi/bin/../lib/gcc/arm-eabi/5.2.0/../../../../arm-eabi/lib/thumb/fpu/cortex_m4\libm.a(lib_a-sf_nan.o)
 .debug_frame   0x00005fa8       0x44 k:/electronics/sysgcc/arm-eabi/bin/../lib/gcc/arm-eabi/5.2.0/../../../../arm-eabi/lib/thumb/fpu/cortex_m4\libm.a(lib_a-sf_scalbn.o)
 .debug_frame   0x00005fec       0x20 k:/electronics/sysgcc/arm-eabi/bin/../lib/gcc/arm-eabi/5.2.0/../../../../arm-eabi/lib/thumb/fpu/cortex_m4\libm.a(lib_a-sf_copysign.o)
 .debug_frame   0x0000600c       0x30 k:/electronics/sysgcc/arm-eabi/bin/../lib/gcc/arm-eabi/5.2.0/../../../../arm-eabi/lib/thumb/fpu/cortex_m4\libc.a(lib_a-atoi.o)
 .debug_frame   0x0000603c       0x34 k:/electronics/sysgcc/arm-eabi/bin/../lib/gcc/arm-eabi/5.2.0/../../../../arm-eabi/lib/thumb/fpu/cortex_m4\libc.a(lib_a-memset.o)
 .debug_frame   0x00006070       0x20 k:/electronics/sysgcc/arm-eabi/bin/../lib/gcc/arm-eabi/5.2.0/../../../../arm-eabi/lib/thumb/fpu/cortex_m4\libc.a(lib_a-strcpy.o)
 .debug_frame   0x00006090       0x20 k:/electronics/sysgcc/arm-eabi/bin/../lib/gcc/arm-eabi/5.2.0/../../../../arm-eabi/lib/thumb/fpu/cortex_m4\libc.a(lib_a-strlen.o)
 .debug_frame   0x000060b0       0x54 k:/electronics/sysgcc/arm-eabi/bin/../lib/gcc/arm-eabi/5.2.0/../../../../arm-eabi/lib/thumb/fpu/cortex_m4\libc.a(lib_a-strncmp.o)
 .debug_frame   0x00006104       0x34 k:/electronics/sysgcc/arm-eabi/bin/../lib/gcc/arm-eabi/5.2.0/../../../../arm-eabi/lib/thumb/fpu/cortex_m4\libc.a(lib_a-strncpy.o)
 .debug_frame   0x00006138       0x54 k:/electronics/sysgcc/arm-eabi/bin/../lib/gcc/arm-eabi/5.2.0/../../../../arm-eabi/lib/thumb/fpu/cortex_m4\libc.a(lib_a-strtol.o)

Cross Reference Table

Symbol                                            File
ADCLipoSensor                                     Debug/snsr_mgmt.o
                                                  Debug/lipo_adc.o
ADC_AnalogWatchdogCmd                             Debug/stm32f4xx_adc.o
ADC_AnalogWatchdogSingleChannelConfig             Debug/stm32f4xx_adc.o
ADC_AnalogWatchdogThresholdsConfig                Debug/stm32f4xx_adc.o
ADC_AutoInjectedConvCmd                           Debug/stm32f4xx_adc.o
ADC_ClearFlag                                     Debug/stm32f4xx_adc.o
ADC_ClearITPendingBit                             Debug/stm32f4xx_adc.o
                                                  Debug/lipo_adc.o
ADC_Cmd                                           Debug/stm32f4xx_adc.o
                                                  Debug/lipo_adc.o
ADC_CommonInit                                    Debug/stm32f4xx_adc.o
                                                  Debug/lipo_adc.o
ADC_CommonStructInit                              Debug/stm32f4xx_adc.o
ADC_ContinuousModeCmd                             Debug/stm32f4xx_adc.o
ADC_DMACmd                                        Debug/stm32f4xx_adc.o
ADC_DMARequestAfterLastTransferCmd                Debug/stm32f4xx_adc.o
ADC_DeInit                                        Debug/stm32f4xx_adc.o
                                                  Debug/lipo_adc.o
ADC_DiscModeChannelCountConfig                    Debug/stm32f4xx_adc.o
ADC_DiscModeCmd                                   Debug/stm32f4xx_adc.o
ADC_EOCOnEachRegularChannelCmd                    Debug/stm32f4xx_adc.o
ADC_ExternalTrigInjectedConvConfig                Debug/stm32f4xx_adc.o
ADC_ExternalTrigInjectedConvEdgeConfig            Debug/stm32f4xx_adc.o
ADC_GetConversionValue                            Debug/stm32f4xx_adc.o
ADC_GetFlagStatus                                 Debug/stm32f4xx_adc.o
ADC_GetITStatus                                   Debug/stm32f4xx_adc.o
                                                  Debug/lipo_adc.o
ADC_GetInjectedConversionValue                    Debug/stm32f4xx_adc.o
ADC_GetMultiModeConversionValue                   Debug/stm32f4xx_adc.o
ADC_GetSoftwareStartConvStatus                    Debug/stm32f4xx_adc.o
ADC_GetSoftwareStartInjectedConvCmdStatus         Debug/stm32f4xx_adc.o
ADC_IRQHandler                                    Debug/lipo_adc.o
ADC_ITConfig                                      Debug/stm32f4xx_adc.o
                                                  Debug/lipo_adc.o
ADC_Init                                          Debug/stm32f4xx_adc.o
                                                  Debug/lipo_adc.o
ADC_InjectedChannelConfig                         Debug/stm32f4xx_adc.o
ADC_InjectedDiscModeCmd                           Debug/stm32f4xx_adc.o
ADC_InjectedSequencerLengthConfig                 Debug/stm32f4xx_adc.o
ADC_MultiModeDMARequestAfterLastTransferCmd       Debug/stm32f4xx_adc.o
ADC_RegularChannelConfig                          Debug/stm32f4xx_adc.o
                                                  Debug/lipo_adc.o
ADC_SetInjectedOffset                             Debug/stm32f4xx_adc.o
ADC_SoftwareStartConv                             Debug/stm32f4xx_adc.o
                                                  Debug/lipo_adc.o
ADC_SoftwareStartInjectedConv                     Debug/stm32f4xx_adc.o
ADC_StructInit                                    Debug/stm32f4xx_adc.o
ADC_TempSensorVrefintCmd                          Debug/stm32f4xx_adc.o
ADC_VBATCmd                                       Debug/stm32f4xx_adc.o
AHBPrescTable                                     Debug/system_stm32f4xx.o
AccADXL345Sensor                                  Debug/snsr_mgmt.o
                                                  Debug/stm32f4xx_it.o
                                                  Debug/complementary.o
                                                  Debug/adxl345.o
AccLSM303Sensor                                   Debug/snsr_mgmt.o
                                                  Debug/stm32f4xx_it.o
                                                  Debug/lsm303_acc.o
                                                  Debug/complementary.o
AccMPU60x0Sensor                                  Debug/snsr_mgmt.o
                                                  Debug/mpu60x0_acc.o
                                                  Debug/complementary.o
AddCommands                                       Debug/wifi.o
AltGPSSensor                                      Debug/snsr_mgmt.o
                                                  Debug/autopilot.o
AltitudeData                                      Debug/twb_config.o
                                                  Debug/sonar.o
                                                  Debug/ms5611.o
                                                  Debug/gps.o
                                                  Debug/bmp085.o
                                                  Debug/main.o
                                                  Debug/autopilot.o
AutoPilotAction                                   Debug/snsr_mgmt.o
                                                  Debug/autopilot.o
AutoPilotState                                    Debug/autopilot.o
BMPI2CJob                                         Debug/bmp085.o
BatteryCondition                                  Debug/twb_config.o
                                                  Debug/lipo_adc.o
                                                  Debug/main.o
BusFault_Handler                                  Debug/startup_stm32f4xx.o
CAN1_RX0_IRQHandler                               Debug/startup_stm32f4xx.o
CAN1_RX1_IRQHandler                               Debug/startup_stm32f4xx.o
CAN1_SCE_IRQHandler                               Debug/startup_stm32f4xx.o
CAN1_TX_IRQHandler                                Debug/startup_stm32f4xx.o
CAN2_RX0_IRQHandler                               Debug/startup_stm32f4xx.o
CAN2_RX1_IRQHandler                               Debug/startup_stm32f4xx.o
CAN2_SCE_IRQHandler                               Debug/startup_stm32f4xx.o
CAN2_TX_IRQHandler                                Debug/startup_stm32f4xx.o
CRYP_IRQHandler                                   Debug/startup_stm32f4xx.o
CloseLength                                       Debug/wifi.o
CloseSequence                                     Debug/wifi.o
CmdBuff                                           Debug/usbd_cdc_core.o
Commands                                          Debug/wifi.o
CompFilterAltitude                                Debug/complementary.o
CompFilterHeading                                 Debug/complementary.o
CompFilterPitch                                   Debug/complementary.o
CompFilterRoll                                    Debug/complementary.o
ComplementaryFilterConfig                         Debug/complementary.o
                                                  Debug/snsr_commo.o
                                                  Debug/main.o
                                                  Debug/autopilot.o
ComplementarySnsrFusion                           Debug/snsr_mgmt.o
                                                  Debug/snsr_commo.o
                                                  Debug/complementary.o
CurrentGPSReading                                 Debug/twb_config.o
                                                  Debug/gps.o
                                                  Debug/main.o
                                                  Debug/autopilot.o
DCD_DevConnect                                    Debug/usb_dcd.o
DCD_DevDisconnect                                 Debug/usb_dcd.o
DCD_EP_Close                                      Debug/usb_dcd.o
                                                  Debug/usbd_cdc_core.o
DCD_EP_ClrStall                                   Debug/usb_dcd.o
                                                  Debug/usbd_req.o
DCD_EP_Flush                                      Debug/usb_dcd.o
DCD_EP_Open                                       Debug/usb_dcd.o
                                                  Debug/usbd_core.o
                                                  Debug/usbd_cdc_core.o
DCD_EP_PrepareRx                                  Debug/usb_dcd.o
                                                  Debug/usbd_ioreq.o
                                                  Debug/usbd_cdc_core.o
DCD_EP_SetAddress                                 Debug/usb_dcd.o
                                                  Debug/usbd_req.o
DCD_EP_Stall                                      Debug/usb_dcd.o
                                                  Debug/usbd_req.o
                                                  Debug/usbd_core.o
DCD_EP_Tx                                         Debug/usb_dcd.o
                                                  Debug/usbd_ioreq.o
                                                  Debug/usbd_cdc_core.o
DCD_GetEPStatus                                   Debug/usb_dcd.o
DCD_Init                                          Debug/usb_dcd.o
                                                  Debug/usbd_core.o
DCD_SetEPStatus                                   Debug/usb_dcd.o
DCMI_IRQHandler                                   Debug/startup_stm32f4xx.o
DMA1_Stream0_IRQHandler                           Debug/startup_stm32f4xx.o
DMA1_Stream1_IRQHandler                           Debug/startup_stm32f4xx.o
DMA1_Stream2_IRQHandler                           Debug/startup_stm32f4xx.o
DMA1_Stream3_IRQHandler                           Debug/startup_stm32f4xx.o
DMA1_Stream4_IRQHandler                           Debug/startup_stm32f4xx.o
DMA1_Stream5_IRQHandler                           Debug/startup_stm32f4xx.o
DMA1_Stream6_IRQHandler                           Debug/startup_stm32f4xx.o
DMA1_Stream7_IRQHandler                           Debug/startup_stm32f4xx.o
DMA2_Stream0_IRQHandler                           Debug/startup_stm32f4xx.o
DMA2_Stream1_IRQHandler                           Debug/startup_stm32f4xx.o
DMA2_Stream2_IRQHandler                           Debug/startup_stm32f4xx.o
DMA2_Stream3_IRQHandler                           Debug/startup_stm32f4xx.o
DMA2_Stream4_IRQHandler                           Debug/startup_stm32f4xx.o
DMA2_Stream5_IRQHandler                           Debug/startup_stm32f4xx.o
DMA2_Stream6_IRQHandler                           Debug/startup_stm32f4xx.o
DMA2_Stream7_IRQHandler                           Debug/startup_stm32f4xx.o
DMA_ClearFlag                                     Debug/stm32f4xx_dma.o
DMA_ClearITPendingBit                             Debug/stm32f4xx_dma.o
DMA_Cmd                                           Debug/stm32f4xx_dma.o
DMA_DeInit                                        Debug/stm32f4xx_dma.o
DMA_DoubleBufferModeCmd                           Debug/stm32f4xx_dma.o
DMA_DoubleBufferModeConfig                        Debug/stm32f4xx_dma.o
DMA_FlowControllerConfig                          Debug/stm32f4xx_dma.o
DMA_GetCmdStatus                                  Debug/stm32f4xx_dma.o
DMA_GetCurrDataCounter                            Debug/stm32f4xx_dma.o
DMA_GetCurrentMemoryTarget                        Debug/stm32f4xx_dma.o
DMA_GetFIFOStatus                                 Debug/stm32f4xx_dma.o
DMA_GetFlagStatus                                 Debug/stm32f4xx_dma.o
DMA_GetITStatus                                   Debug/stm32f4xx_dma.o
DMA_ITConfig                                      Debug/stm32f4xx_dma.o
DMA_Init                                          Debug/stm32f4xx_dma.o
DMA_InitStructure                                 Debug/lipo_adc.o
DMA_MemoryTargetConfig                            Debug/stm32f4xx_dma.o
DMA_PeriphIncOffsetSizeConfig                     Debug/stm32f4xx_dma.o
DMA_SetCurrDataCounter                            Debug/stm32f4xx_dma.o
DMA_StructInit                                    Debug/stm32f4xx_dma.o
DebugMon_Handler                                  Debug/startup_stm32f4xx.o
Default_Handler                                   Debug/startup_stm32f4xx.o
E                                                 Debug/lsm303_mag.o
ETH_IRQHandler                                    Debug/startup_stm32f4xx.o
ETH_WKUP_IRQHandler                               Debug/startup_stm32f4xx.o
EXTI0_IRQHandler                                  Debug/stm32f4xx_it.o
EXTI15_10_IRQHandler                              Debug/stm32f4xx_it.o
EXTI1_IRQHandler                                  Debug/stm32f4xx_it.o
EXTI2_IRQHandler                                  Debug/sonar.o
EXTI3_IRQHandler                                  Debug/bmp085.o
EXTI4_IRQHandler                                  Debug/stm32f4xx_it.o
EXTI9_5_IRQHandler                                Debug/stm32f4xx_it.o
EXTI_ClearFlag                                    Debug/stm32f4xx_exti.o
EXTI_ClearITPendingBit                            Debug/stm32f4xx_exti.o
                                                  Debug/stm32f4xx_it.o
                                                  Debug/sonar.o
                                                  Debug/bmp085.o
                                                  Debug/usb_bsp.o
EXTI_DeInit                                       Debug/stm32f4xx_exti.o
EXTI_GenerateSWInterrupt                          Debug/stm32f4xx_exti.o
EXTI_GetFlagStatus                                Debug/stm32f4xx_exti.o
EXTI_GetITStatus                                  Debug/stm32f4xx_exti.o
EXTI_Init                                         Debug/stm32f4xx_exti.o
                                                  Debug/main.o
EXTI_StructInit                                   Debug/stm32f4xx_exti.o
EnableAPMode                                      Debug/wifi.o
EnableAPModeLength                                Debug/wifi.o
FLASH_IRQHandler                                  Debug/startup_stm32f4xx.o
FPU_IRQHandler                                    Debug/startup_stm32f4xx.o
FSMC_IRQHandler                                   Debug/startup_stm32f4xx.o
GPIO_DeInit                                       Debug/stm32f4xx_gpio.o
GPIO_Init                                         Debug/stm32f4xx_gpio.o
                                                  Debug/stm32f4xx_it.o
                                                  Debug/sonar.o
                                                  Debug/snsr_main.o
                                                  Debug/lipo_adc.o
                                                  Debug/pwm_source.o
                                                  Debug/pwm_capture.o
                                                  Debug/wifi.o
                                                  Debug/usb_bsp.o
                                                  Debug/twb_leds.o
                                                  Debug/twb_i2c_stm32f4.o
                                                  Debug/twb_debug.o
GPIO_PinAFConfig                                  Debug/stm32f4xx_gpio.o
                                                  Debug/pwm_source.o
                                                  Debug/wifi.o
                                                  Debug/usb_bsp.o
                                                  Debug/twb_i2c_stm32f4.o
                                                  Debug/twb_debug.o
GPIO_PinLockConfig                                Debug/stm32f4xx_gpio.o
GPIO_ReadInputData                                Debug/stm32f4xx_gpio.o
GPIO_ReadInputDataBit                             Debug/stm32f4xx_gpio.o
GPIO_ReadOutputData                               Debug/stm32f4xx_gpio.o
GPIO_ReadOutputDataBit                            Debug/stm32f4xx_gpio.o
GPIO_ResetBits                                    Debug/stm32f4xx_gpio.o
GPIO_SetBits                                      Debug/stm32f4xx_gpio.o
GPIO_StructInit                                   Debug/stm32f4xx_gpio.o
GPIO_ToggleBits                                   Debug/stm32f4xx_gpio.o
GPIO_Write                                        Debug/stm32f4xx_gpio.o
GPIO_WriteBit                                     Debug/stm32f4xx_gpio.o
                                                  Debug/stm32f4xx_it.o
                                                  Debug/sonar.o
                                                  Debug/main.o
                                                  Debug/wifi.o
                                                  Debug/twb_leds.o
                                                  Debug/twb_debug.o
GPSData                                           Debug/twb_config.o
                                                  Debug/gps.o
                                                  Debug/main.o
GeoGPSSensor                                      Debug/snsr_mgmt.o
                                                  Debug/gps.o
                                                  Debug/complementary.o
GyroITG3200Sensor                                 Debug/snsr_mgmt.o
                                                  Debug/stm32f4xx_it.o
                                                  Debug/itg3200.o
                                                  Debug/complementary.o
GyroL3GD20Sensor                                  Debug/snsr_mgmt.o
                                                  Debug/stm32f4xx_it.o
                                                  Debug/l3g20.o
                                                  Debug/complementary.o
GyroMPU60x0Sensor                                 Debug/snsr_mgmt.o
                                                  Debug/stm32f4xx_it.o
                                                  Debug/mpu60x0_gryo.o
                                                  Debug/complementary.o
HASH_RNG_IRQHandler                               Debug/startup_stm32f4xx.o
HardFault_Handler                                 Debug/startup_stm32f4xx.o
HeadingGPSSensor                                  Debug/snsr_mgmt.o
HomeGPSReading                                    Debug/twb_config.o
                                                  Debug/main.o
I2C1_ER_IRQHandler                                Debug/twb_i2c_stm32f4.o
I2C1_EV_IRQHandler                                Debug/twb_i2c_stm32f4.o
I2C2_ER_IRQHandler                                Debug/startup_stm32f4xx.o
I2C2_EV_IRQHandler                                Debug/startup_stm32f4xx.o
I2C3_ER_IRQHandler                                Debug/startup_stm32f4xx.o
I2C3_EV_IRQHandler                                Debug/startup_stm32f4xx.o
I2CQueue                                          Debug/twb_i2c.o
                                                  Debug/twb_i2c_stm32f4.o
I2CQueueJobHead                                   Debug/twb_i2c_stm32f4.o
I2CQueueJobTail                                   Debug/twb_i2c_stm32f4.o
I2CWatchDog                                       Debug/twb_timer.o
                                                  Debug/twb_i2c_stm32f4.o
I2CZeroJob                                        Debug/stm32f4xx_it.o
                                                  Debug/sonar.o
                                                  Debug/snsr_zero.o
                                                  Debug/snsr_mgmt.o
                                                  Debug/snsr_main.o
                                                  Debug/snsr_commo.o
                                                  Debug/snsr_actions.o
                                                  Debug/ms5611.o
                                                  Debug/mpu60x0_gryo.o
                                                  Debug/mpu60x0_acc.o
                                                  Debug/lsm303_mag.o
                                                  Debug/lsm303_acc.o
                                                  Debug/lipo_adc.o
                                                  Debug/l3g20.o
                                                  Debug/itg3200.o
                                                  Debug/hmc5883.o
                                                  Debug/gps.o
                                                  Debug/kalman.o
                                                  Debug/complementary.o
                                                  Debug/bmp085.o
                                                  Debug/adxl345.o
                                                  Debug/main.o
                                                  Debug/ctrl_loop_pid.o
                                                  Debug/ctrl_loop_commo.o
                                                  Debug/ctrl_loop.o
                                                  Debug/autopilot.o
                                                  Debug/commo.o
                                                  Debug/twb_timer.o
I2C_ARPCmd                                        Debug/stm32f4xx_i2c.o
I2C_AcknowledgeConfig                             Debug/stm32f4xx_i2c.o
I2C_CalculatePEC                                  Debug/stm32f4xx_i2c.o
I2C_CheckEvent                                    Debug/stm32f4xx_i2c.o
I2C_ClearFlag                                     Debug/stm32f4xx_i2c.o
I2C_ClearITPendingBit                             Debug/stm32f4xx_i2c.o
I2C_Cmd                                           Debug/stm32f4xx_i2c.o
                                                  Debug/twb_i2c_stm32f4.o
I2C_DMACmd                                        Debug/stm32f4xx_i2c.o
I2C_DMALastTransferCmd                            Debug/stm32f4xx_i2c.o
I2C_DeInit                                        Debug/stm32f4xx_i2c.o
                                                  Debug/twb_i2c_stm32f4.o
I2C_DualAddressCmd                                Debug/stm32f4xx_i2c.o
I2C_FastModeDutyCycleConfig                       Debug/stm32f4xx_i2c.o
I2C_GeneralCallCmd                                Debug/stm32f4xx_i2c.o
I2C_GenerateSTART                                 Debug/stm32f4xx_i2c.o
I2C_GenerateSTOP                                  Debug/stm32f4xx_i2c.o
I2C_GetFlagStatus                                 Debug/stm32f4xx_i2c.o
                                                  Debug/twb_i2c_stm32f4.o
I2C_GetITStatus                                   Debug/stm32f4xx_i2c.o
I2C_GetLastEvent                                  Debug/stm32f4xx_i2c.o
I2C_GetPEC                                        Debug/stm32f4xx_i2c.o
I2C_ITConfig                                      Debug/stm32f4xx_i2c.o
                                                  Debug/twb_i2c_stm32f4.o
I2C_Init                                          Debug/stm32f4xx_i2c.o
                                                  Debug/twb_i2c_stm32f4.o
I2C_NACKPositionConfig                            Debug/stm32f4xx_i2c.o
I2C_OwnAddress2Config                             Debug/stm32f4xx_i2c.o
I2C_PECPositionConfig                             Debug/stm32f4xx_i2c.o
I2C_ReadRegister                                  Debug/stm32f4xx_i2c.o
I2C_ReceiveData                                   Debug/stm32f4xx_i2c.o
I2C_SMBusAlertConfig                              Debug/stm32f4xx_i2c.o
I2C_Send7bitAddress                               Debug/stm32f4xx_i2c.o
I2C_SendData                                      Debug/stm32f4xx_i2c.o
I2C_SoftwareResetCmd                              Debug/stm32f4xx_i2c.o
I2C_StretchClockCmd                               Debug/stm32f4xx_i2c.o
I2C_StructInit                                    Debug/stm32f4xx_i2c.o
I2C_TransmitPEC                                   Debug/stm32f4xx_i2c.o
InternalState                                     Debug/twb_config.o
                                                  Debug/snsr_main.o
                                                  Debug/ms5611.o
                                                  Debug/lsm303_mag.o
                                                  Debug/complementary.o
                                                  Debug/bmp085.o
                                                  Debug/main.o
                                                  Debug/ctrl_loop_pid.o
                                                  Debug/ctrl_loop_commo.o
                                                  Debug/autopilot.o
KalmanSnsrFusion                                  Debug/snsr_mgmt.o
                                                  Debug/kalman.o
L3GD20FiFoState                                   Debug/l3g20.o
L3GD20GryoI2CJob                                  Debug/l3g20.o
LEDS                                              Debug/twb_leds.o
LSM303AccFiFoState                                Debug/lsm303_acc.o
LSM303AccI2CJob                                   Debug/lsm303_acc.o
LSM303MagI2CJob                                   Debug/lsm303_mag.o
MPU60x0AccI2CJob                                  Debug/mpu60x0_acc.o
MPU60x0GyroFiFoState                              Debug/mpu60x0_gryo.o
MPU60x0GyroI2CJob                                 Debug/mpu60x0_gryo.o
MS5611I2CJob                                      Debug/ms5611.o
MagHMC5883Sensor                                  Debug/snsr_mgmt.o
                                                  Debug/hmc5883.o
                                                  Debug/complementary.o
MagLSM303Sensor                                   Debug/snsr_mgmt.o
                                                  Debug/snsr_commo.o
                                                  Debug/lsm303_mag.o
                                                  Debug/complementary.o
MemManage_Handler                                 Debug/startup_stm32f4xx.o
MotorStatus                                       Debug/twb_config.o
                                                  Debug/snsr_main.o
                                                  Debug/main.o
                                                  Debug/pwm_source.o
                                                  Debug/ctrl_loop_commo.o
N                                                 Debug/lsm303_mag.o
NMI_Handler                                       Debug/stm32f4xx_it.o
NVIC_Init                                         Debug/misc.o
                                                  Debug/lipo_adc.o
                                                  Debug/main.o
                                                  Debug/wifi.o
                                                  Debug/usb_bsp.o
                                                  Debug/twb_i2c_stm32f4.o
                                                  Debug/twb_debug.o
NVIC_PriorityGroupConfig                          Debug/misc.o
                                                  Debug/main.o
                                                  Debug/usb_bsp.o
NVIC_SetVectorTable                               Debug/misc.o
NVIC_SystemLPConfig                               Debug/misc.o
NiVekAddress                                      Debug/nivek_system.o
                                                  Debug/cli.o
NiVekName                                         Debug/nivek_system.o
                                                  Debug/cli.o
                                                  Debug/main.o
NivekSerialNumber                                 Debug/nivek_system.o
                                                  Debug/cli.o
OTG_FS_IRQHandler                                 Debug/twb_usb.o
OTG_FS_WKUP_IRQHandler                            Debug/startup_stm32f4xx.o
OTG_HS_EP1_IN_IRQHandler                          Debug/startup_stm32f4xx.o
OTG_HS_EP1_OUT_IRQHandler                         Debug/startup_stm32f4xx.o
OTG_HS_IRQHandler                                 Debug/startup_stm32f4xx.o
OTG_HS_WKUP_IRQHandler                            Debug/startup_stm32f4xx.o
OutgoingMsgQueue                                  Debug/commo.o
OutgoingMsgQueueHead                              Debug/commo.o
OutgoingMsgQueueTail                              Debug/commo.o
PIDAltitude                                       Debug/ctrl_loop_pid.o
                                                  Debug/ctrl_loop_commo.o
                                                  Debug/ctrl_loop.o
                                                  Debug/autopilot.o
PIDConstants                                      Debug/twb_config.o
                                                  Debug/main.o
                                                  Debug/pwm_source.o
                                                  Debug/ctrl_loop_pid.o
                                                  Debug/ctrl_loop_commo.o
                                                  Debug/ctrl_loop.o
PIDConstantsConfig                                Debug/twb_config.o
                                                  Debug/main.o
                                                  Debug/pwm_source.o
                                                  Debug/ctrl_loop_pid.o
                                                  Debug/ctrl_loop_commo.o
                                                  Debug/ctrl_loop.o
                                                  Debug/autopilot.o
PIDControllerAction                               Debug/snsr_mgmt.o
                                                  Debug/ctrl_loop_commo.o
                                                  Debug/ctrl_loop.o
PIDPitch                                          Debug/ctrl_loop_pid.o
                                                  Debug/ctrl_loop_commo.o
                                                  Debug/ctrl_loop.o
PIDRoll                                           Debug/ctrl_loop_pid.o
                                                  Debug/ctrl_loop_commo.o
                                                  Debug/ctrl_loop.o
PIDSensorData                                     Debug/twb_config.o
                                                  Debug/main.o
                                                  Debug/ctrl_loop_commo.o
PIDYaw                                            Debug/ctrl_loop_pid.o
                                                  Debug/ctrl_loop_commo.o
                                                  Debug/ctrl_loop.o
                                                  Debug/autopilot.o
PVD_IRQHandler                                    Debug/startup_stm32f4xx.o
PWMIn                                             Debug/pwm_capture.o
                                                  Debug/main.o
                                                  Debug/ctrl_loop_pid.o
                                                  Debug/autopilot.o
PendSV_Handler                                    Debug/stm32f4xx_it.o
PitchPIDDetails                                   Debug/twb_config.o
                                                  Debug/ctrl_loop_pid.o
                                                  Debug/ctrl_loop_commo.o
                                                  Debug/ctrl_loop.o
PressureBMP085Sensor                              Debug/snsr_mgmt.o
                                                  Debug/complementary.o
                                                  Debug/bmp085.o
                                                  Debug/autopilot.o
PressureMS5611Sensor                              Debug/snsr_mgmt.o
                                                  Debug/ms5611.o
                                                  Debug/complementary.o
                                                  Debug/autopilot.o
RCC_AHB1PeriphClockCmd                            Debug/stm32f4xx_rcc.o
                                                  Debug/stm32f4xx_it.o
                                                  Debug/snsr_main.o
                                                  Debug/lipo_adc.o
                                                  Debug/pwm_source.o
                                                  Debug/pwm_capture.o
                                                  Debug/wifi.o
                                                  Debug/usb_bsp.o
                                                  Debug/twb_leds.o
                                                  Debug/twb_i2c_stm32f4.o
                                                  Debug/twb_debug.o
RCC_AHB1PeriphClockLPModeCmd                      Debug/stm32f4xx_rcc.o
RCC_AHB1PeriphResetCmd                            Debug/stm32f4xx_rcc.o
                                                  Debug/stm32f4xx_gpio.o
RCC_AHB2PeriphClockCmd                            Debug/stm32f4xx_rcc.o
                                                  Debug/usb_bsp.o
RCC_AHB2PeriphClockLPModeCmd                      Debug/stm32f4xx_rcc.o
RCC_AHB2PeriphResetCmd                            Debug/stm32f4xx_rcc.o
RCC_AHB3PeriphClockCmd                            Debug/stm32f4xx_rcc.o
RCC_AHB3PeriphClockLPModeCmd                      Debug/stm32f4xx_rcc.o
RCC_AHB3PeriphResetCmd                            Debug/stm32f4xx_rcc.o
RCC_APB1PeriphClockCmd                            Debug/stm32f4xx_rcc.o
                                                  Debug/main.o
                                                  Debug/pwm_source.o
                                                  Debug/pwm_capture.o
                                                  Debug/wifi.o
                                                  Debug/twb_i2c_stm32f4.o
RCC_APB1PeriphClockLPModeCmd                      Debug/stm32f4xx_rcc.o
RCC_APB1PeriphResetCmd                            Debug/stm32f4xx_rcc.o
                                                  Debug/stm32f4xx_usart.o
                                                  Debug/stm32f4xx_tim.o
                                                  Debug/stm32f4xx_i2c.o
                                                  Debug/usb_bsp.o
RCC_APB2PeriphClockCmd                            Debug/stm32f4xx_rcc.o
                                                  Debug/sonar.o
                                                  Debug/snsr_main.o
                                                  Debug/lipo_adc.o
                                                  Debug/pwm_capture.o
                                                  Debug/usb_bsp.o
                                                  Debug/twb_debug.o
RCC_APB2PeriphClockLPModeCmd                      Debug/stm32f4xx_rcc.o
RCC_APB2PeriphResetCmd                            Debug/stm32f4xx_rcc.o
                                                  Debug/stm32f4xx_usart.o
                                                  Debug/stm32f4xx_tim.o
                                                  Debug/stm32f4xx_syscfg.o
                                                  Debug/stm32f4xx_adc.o
RCC_AdjustHSICalibrationValue                     Debug/stm32f4xx_rcc.o
RCC_BackupResetCmd                                Debug/stm32f4xx_rcc.o
RCC_ClearFlag                                     Debug/stm32f4xx_rcc.o
RCC_ClearITPendingBit                             Debug/stm32f4xx_rcc.o
                                                  Debug/stm32f4xx_it.o
RCC_ClockSecuritySystemCmd                        Debug/stm32f4xx_rcc.o
                                                  Debug/main.o
RCC_DeInit                                        Debug/stm32f4xx_rcc.o
RCC_GetClocksFreq                                 Debug/stm32f4xx_rcc.o
                                                  Debug/stm32f4xx_usart.o
                                                  Debug/stm32f4xx_i2c.o
RCC_GetFlagStatus                                 Debug/stm32f4xx_rcc.o
                                                  Debug/stm32f4xx_it.o
RCC_GetITStatus                                   Debug/stm32f4xx_rcc.o
                                                  Debug/stm32f4xx_it.o
RCC_GetSYSCLKSource                               Debug/stm32f4xx_rcc.o
RCC_HCLKConfig                                    Debug/stm32f4xx_rcc.o
RCC_HSEConfig                                     Debug/stm32f4xx_rcc.o
                                                  Debug/stm32f4xx_it.o
                                                  Debug/main.o
RCC_HSICmd                                        Debug/stm32f4xx_rcc.o
RCC_I2SCLKConfig                                  Debug/stm32f4xx_rcc.o
RCC_IRQHandler                                    Debug/stm32f4xx_it.o
RCC_ITConfig                                      Debug/stm32f4xx_rcc.o
                                                  Debug/stm32f4xx_it.o
RCC_LSEConfig                                     Debug/stm32f4xx_rcc.o
RCC_LSICmd                                        Debug/stm32f4xx_rcc.o
RCC_MCO1Config                                    Debug/stm32f4xx_rcc.o
RCC_MCO2Config                                    Debug/stm32f4xx_rcc.o
RCC_PCLK1Config                                   Debug/stm32f4xx_rcc.o
RCC_PCLK2Config                                   Debug/stm32f4xx_rcc.o
RCC_PLLCmd                                        Debug/stm32f4xx_rcc.o
                                                  Debug/stm32f4xx_it.o
RCC_PLLConfig                                     Debug/stm32f4xx_rcc.o
RCC_PLLI2SCmd                                     Debug/stm32f4xx_rcc.o
RCC_PLLI2SConfig                                  Debug/stm32f4xx_rcc.o
RCC_RTCCLKCmd                                     Debug/stm32f4xx_rcc.o
RCC_RTCCLKConfig                                  Debug/stm32f4xx_rcc.o
RCC_SYSCLKConfig                                  Debug/stm32f4xx_rcc.o
                                                  Debug/stm32f4xx_it.o
RCC_WaitForHSEStartUp                             Debug/stm32f4xx_rcc.o
                                                  Debug/main.o
RCWatchDog                                        Debug/twb_timer.o
                                                  Debug/pwm_capture.o
RTC_Alarm_IRQHandler                              Debug/startup_stm32f4xx.o
RTC_WKUP_IRQHandler                               Debug/startup_stm32f4xx.o
RebootLength                                      Debug/wifi.o
RebootSequence                                    Debug/wifi.o
Reset_Handler                                     Debug/startup_stm32f4xx.o
RollPIDDetails                                    Debug/twb_config.o
                                                  Debug/ctrl_loop_pid.o
                                                  Debug/ctrl_loop_commo.o
                                                  Debug/ctrl_loop.o
SDIO_IRQHandler                                   Debug/startup_stm32f4xx.o
SPI1_IRQHandler                                   Debug/startup_stm32f4xx.o
SPI2_IRQHandler                                   Debug/startup_stm32f4xx.o
SPI3_IRQHandler                                   Debug/startup_stm32f4xx.o
SVC_Handler                                       Debug/stm32f4xx_it.o
SYSCFG_CompensationCellCmd                        Debug/stm32f4xx_syscfg.o
SYSCFG_DeInit                                     Debug/stm32f4xx_syscfg.o
SYSCFG_ETH_MediaInterfaceConfig                   Debug/stm32f4xx_syscfg.o
SYSCFG_EXTILineConfig                             Debug/stm32f4xx_syscfg.o
                                                  Debug/snsr_main.o
                                                  Debug/pwm_capture.o
SYSCFG_GetCompensationCellStatus                  Debug/stm32f4xx_syscfg.o
SYSCFG_MemoryRemapConfig                          Debug/stm32f4xx_syscfg.o
SendAltitudeData                                  Debug/twb_timer.o
                                                  Debug/main.o
SendBatteryData                                   Debug/twb_timer.o
                                                  Debug/main.o
SendGPSData                                       Debug/twb_timer.o
                                                  Debug/main.o
SendMotorData                                     Debug/twb_timer.o
                                                  Debug/main.o
SendPWMInData                                     Debug/twb_timer.o
                                                  Debug/pwm_capture.o
SendSensorData                                    Debug/twb_timer.o
                                                  Debug/main.o
SendStatusData                                    Debug/twb_timer.o
                                                  Debug/main.o
SendTargetData                                    Debug/twb_timer.o
                                                  Debug/main.o
SensorConfig                                      Debug/twb_config.o
                                                  Debug/sonar.o
                                                  Debug/snsr_main.o
                                                  Debug/snsr_commo.o
                                                  Debug/snsr_actions.o
                                                  Debug/ms5611.o
                                                  Debug/mpu60x0_gryo.o
                                                  Debug/mpu60x0_acc.o
                                                  Debug/lsm303_mag.o
                                                  Debug/lsm303_acc.o
                                                  Debug/lipo_adc.o
                                                  Debug/l3g20.o
                                                  Debug/itg3200.o
                                                  Debug/hmc5883.o
                                                  Debug/gps.o
                                                  Debug/kalman.o
                                                  Debug/bmp085.o
                                                  Debug/adxl345.o
                                                  Debug/main.o
                                                  Debug/twb_timer.o
SensorData                                        Debug/twb_config.o
                                                  Debug/snsr_main.o
                                                  Debug/snsr_commo.o
                                                  Debug/complementary.o
                                                  Debug/main.o
                                                  Debug/ctrl_loop_pid.o
                                                  Debug/ctrl_loop_commo.o
                                                  Debug/autopilot.o
SensorFusionMsg                                   Debug/complementary.o
SensorsList                                       Debug/snsr_mgmt.o
                                                  Debug/snsr_zero.o
                                                  Debug/snsr_main.o
                                                  Debug/snsr_commo.o
                                                  Debug/snsr_actions.o
SonarSensor                                       Debug/snsr_mgmt.o
                                                  Debug/sonar.o
                                                  Debug/complementary.o
                                                  Debug/autopilot.o
StartupPhase                                      Debug/nivek_system.o
                                                  Debug/snsr_actions.o
                                                  Debug/main.o
SysTick_CLKSourceConfig                           Debug/misc.o
SysTick_Handler                                   Debug/twb_timer.o
SystemCoreClock                                   Debug/system_stm32f4xx.o
                                                  Debug/main.o
SystemCoreClockUpdate                             Debug/system_stm32f4xx.o
SystemInit                                        Debug/system_stm32f4xx.o
                                                  Debug/startup_stm32f4xx.o
SystemStatus                                      Debug/twb_config.o
                                                  Debug/snsr_zero.o
                                                  Debug/snsr_main.o
                                                  Debug/snsr_commo.o
                                                  Debug/snsr_actions.o
                                                  Debug/lsm303_mag.o
                                                  Debug/hmc5883.o
                                                  Debug/complementary.o
                                                  Debug/main.o
                                                  Debug/pwm_capture.o
                                                  Debug/ctrl_loop_pid.o
                                                  Debug/ctrl_loop_commo.o
                                                  Debug/ctrl_loop.o
                                                  Debug/autopilot.o
                                                  Debug/commo.o
TAMP_STAMP_IRQHandler                             Debug/startup_stm32f4xx.o
TIM1_BRK_TIM9_IRQHandler                          Debug/startup_stm32f4xx.o
TIM1_CC_IRQHandler                                Debug/startup_stm32f4xx.o
TIM1_TRG_COM_TIM11_IRQHandler                     Debug/startup_stm32f4xx.o
TIM1_UP_TIM10_IRQHandler                          Debug/startup_stm32f4xx.o
TIM2_IRQHandler                                   Debug/startup_stm32f4xx.o
TIM3_IRQHandler                                   Debug/startup_stm32f4xx.o
TIM4_IRQHandler                                   Debug/startup_stm32f4xx.o
TIM5_IRQHandler                                   Debug/startup_stm32f4xx.o
TIM6_DAC_IRQHandler                               Debug/startup_stm32f4xx.o
TIM7_IRQHandler                                   Debug/main.o
TIM8_BRK_TIM12_IRQHandler                         Debug/startup_stm32f4xx.o
TIM8_CC_IRQHandler                                Debug/startup_stm32f4xx.o
TIM8_TRG_COM_TIM14_IRQHandler                     Debug/startup_stm32f4xx.o
TIM8_UP_TIM13_IRQHandler                          Debug/startup_stm32f4xx.o
TIM_ARRPreloadConfig                              Debug/stm32f4xx_tim.o
TIM_BDTRConfig                                    Debug/stm32f4xx_tim.o
TIM_BDTRStructInit                                Debug/stm32f4xx_tim.o
TIM_CCPreloadControl                              Debug/stm32f4xx_tim.o
TIM_CCxCmd                                        Debug/stm32f4xx_tim.o
TIM_CCxNCmd                                       Debug/stm32f4xx_tim.o
TIM_ClearFlag                                     Debug/stm32f4xx_tim.o
TIM_ClearITPendingBit                             Debug/stm32f4xx_tim.o
TIM_ClearOC1Ref                                   Debug/stm32f4xx_tim.o
TIM_ClearOC2Ref                                   Debug/stm32f4xx_tim.o
TIM_ClearOC3Ref                                   Debug/stm32f4xx_tim.o
TIM_ClearOC4Ref                                   Debug/stm32f4xx_tim.o
TIM_Cmd                                           Debug/stm32f4xx_tim.o
                                                  Debug/sonar.o
                                                  Debug/snsr_main.o
                                                  Debug/main.o
                                                  Debug/pwm_source.o
                                                  Debug/pwm_capture.o
TIM_CounterModeConfig                             Debug/stm32f4xx_tim.o
TIM_CtrlPWMOutputs                                Debug/stm32f4xx_tim.o
TIM_DMACmd                                        Debug/stm32f4xx_tim.o
TIM_DMAConfig                                     Debug/stm32f4xx_tim.o
TIM_DeInit                                        Debug/stm32f4xx_tim.o
TIM_ETRClockMode1Config                           Debug/stm32f4xx_tim.o
TIM_ETRClockMode2Config                           Debug/stm32f4xx_tim.o
TIM_ETRConfig                                     Debug/stm32f4xx_tim.o
TIM_EncoderInterfaceConfig                        Debug/stm32f4xx_tim.o
TIM_ForcedOC1Config                               Debug/stm32f4xx_tim.o
TIM_ForcedOC2Config                               Debug/stm32f4xx_tim.o
TIM_ForcedOC3Config                               Debug/stm32f4xx_tim.o
TIM_ForcedOC4Config                               Debug/stm32f4xx_tim.o
TIM_GenerateEvent                                 Debug/stm32f4xx_tim.o
TIM_GetCapture1                                   Debug/stm32f4xx_tim.o
TIM_GetCapture2                                   Debug/stm32f4xx_tim.o
TIM_GetCapture3                                   Debug/stm32f4xx_tim.o
TIM_GetCapture4                                   Debug/stm32f4xx_tim.o
TIM_GetCounter                                    Debug/stm32f4xx_tim.o
TIM_GetFlagStatus                                 Debug/stm32f4xx_tim.o
TIM_GetITStatus                                   Debug/stm32f4xx_tim.o
TIM_GetPrescaler                                  Debug/stm32f4xx_tim.o
TIM_ICInit                                        Debug/stm32f4xx_tim.o
TIM_ICStructInit                                  Debug/stm32f4xx_tim.o
TIM_ITConfig                                      Debug/stm32f4xx_tim.o
TIM_ITRxExternalClockConfig                       Debug/stm32f4xx_tim.o
TIM_InternalClockConfig                           Debug/stm32f4xx_tim.o
TIM_OC1FastConfig                                 Debug/stm32f4xx_tim.o
TIM_OC1Init                                       Debug/stm32f4xx_tim.o
                                                  Debug/pwm_source.o
TIM_OC1NPolarityConfig                            Debug/stm32f4xx_tim.o
TIM_OC1PolarityConfig                             Debug/stm32f4xx_tim.o
TIM_OC1PreloadConfig                              Debug/stm32f4xx_tim.o
TIM_OC2FastConfig                                 Debug/stm32f4xx_tim.o
TIM_OC2Init                                       Debug/stm32f4xx_tim.o
                                                  Debug/pwm_source.o
TIM_OC2NPolarityConfig                            Debug/stm32f4xx_tim.o
TIM_OC2PolarityConfig                             Debug/stm32f4xx_tim.o
TIM_OC2PreloadConfig                              Debug/stm32f4xx_tim.o
TIM_OC3FastConfig                                 Debug/stm32f4xx_tim.o
TIM_OC3Init                                       Debug/stm32f4xx_tim.o
                                                  Debug/pwm_source.o
TIM_OC3NPolarityConfig                            Debug/stm32f4xx_tim.o
TIM_OC3PolarityConfig                             Debug/stm32f4xx_tim.o
TIM_OC3PreloadConfig                              Debug/stm32f4xx_tim.o
TIM_OC4FastConfig                                 Debug/stm32f4xx_tim.o
TIM_OC4Init                                       Debug/stm32f4xx_tim.o
                                                  Debug/pwm_source.o
TIM_OC4PolarityConfig                             Debug/stm32f4xx_tim.o
TIM_OC4PreloadConfig                              Debug/stm32f4xx_tim.o
TIM_OCStructInit                                  Debug/stm32f4xx_tim.o
TIM_PWMIConfig                                    Debug/stm32f4xx_tim.o
TIM_PrescalerConfig                               Debug/stm32f4xx_tim.o
TIM_RemapConfig                                   Debug/stm32f4xx_tim.o
TIM_SelectCCDMA                                   Debug/stm32f4xx_tim.o
TIM_SelectCOM                                     Debug/stm32f4xx_tim.o
TIM_SelectHallSensor                              Debug/stm32f4xx_tim.o
TIM_SelectInputTrigger                            Debug/stm32f4xx_tim.o
TIM_SelectMasterSlaveMode                         Debug/stm32f4xx_tim.o
TIM_SelectOCxM                                    Debug/stm32f4xx_tim.o
TIM_SelectOnePulseMode                            Debug/stm32f4xx_tim.o
TIM_SelectOutputTrigger                           Debug/stm32f4xx_tim.o
TIM_SelectSlaveMode                               Debug/stm32f4xx_tim.o
TIM_SetAutoreload                                 Debug/stm32f4xx_tim.o
TIM_SetClockDivision                              Debug/stm32f4xx_tim.o
TIM_SetCompare1                                   Debug/stm32f4xx_tim.o
TIM_SetCompare2                                   Debug/stm32f4xx_tim.o
TIM_SetCompare3                                   Debug/stm32f4xx_tim.o
TIM_SetCompare4                                   Debug/stm32f4xx_tim.o
TIM_SetCounter                                    Debug/stm32f4xx_tim.o
TIM_SetIC1Prescaler                               Debug/stm32f4xx_tim.o
TIM_SetIC2Prescaler                               Debug/stm32f4xx_tim.o
TIM_SetIC3Prescaler                               Debug/stm32f4xx_tim.o
TIM_SetIC4Prescaler                               Debug/stm32f4xx_tim.o
TIM_TIxExternalClockConfig                        Debug/stm32f4xx_tim.o
TIM_TimeBaseInit                                  Debug/stm32f4xx_tim.o
                                                  Debug/sonar.o
                                                  Debug/snsr_main.o
                                                  Debug/main.o
                                                  Debug/pwm_source.o
                                                  Debug/pwm_capture.o
TIM_TimeBaseStructInit                            Debug/stm32f4xx_tim.o
TIM_UpdateDisableConfig                           Debug/stm32f4xx_tim.o
TIM_UpdateRequestConfig                           Debug/stm32f4xx_tim.o
TWB_ADC_Init                                      Debug/lipo_adc.o
                                                  Debug/snsr_mgmt.o
TWB_ADC_QueueMsg                                  Debug/lipo_adc.o
                                                  Debug/commo.o
                                                  Debug/twb_timer.o
TWB_ADC_Read                                      Debug/lipo_adc.o
TWB_ADC_ResetDefaults                             Debug/lipo_adc.o
                                                  Debug/snsr_mgmt.o
TWB_ADC_SendDiag                                  Debug/lipo_adc.o
                                                  Debug/snsr_mgmt.o
TWB_ADC_UpdateSetting                             Debug/lipo_adc.o
                                                  Debug/snsr_mgmt.o
TWB_AutoPilot_Arm                                 Debug/autopilot.o
                                                  Debug/ctrl_loop.o
TWB_AutoPilot_Exec                                Debug/autopilot.o
TWB_AutoPilot_Init                                Debug/autopilot.o
                                                  Debug/snsr_mgmt.o
TWB_AutoPilot_Pause                               Debug/autopilot.o
TWB_AutoPilot_QueueAltitudeMsg                    Debug/autopilot.o
                                                  Debug/twb_timer.o
TWB_AutoPilot_ResetDefaults                       Debug/autopilot.o
                                                  Debug/snsr_mgmt.o
TWB_AutoPilot_Resume                              Debug/autopilot.o
TWB_AutoPilot_Safe                                Debug/autopilot.o
                                                  Debug/ctrl_loop.o
TWB_AutoPilot_Start                               Debug/autopilot.o
TWB_AutoPilot_Stop                                Debug/autopilot.o
TWB_AutoPilot_TransitionFromFlightMode            Debug/autopilot.o
TWB_AutoPilot_TransitionToFlightMode              Debug/autopilot.o
                                                  Debug/ctrl_loop_pid.o
TWB_AutoPilot_UpdateSettings                      Debug/autopilot.o
                                                  Debug/snsr_mgmt.o
TWB_Autopilot_DetermineAltitude                   Debug/autopilot.o
                                                  Debug/complementary.o
TWB_CLI_HandleRX                                  Debug/cli.o
                                                  Debug/stm32f4xx_it.o
TWB_CLI_HandleRX_Overrun                          Debug/cli.o
                                                  Debug/stm32f4xx_it.o
TWB_CLI_HandleTXE                                 Debug/cli.o
                                                  Debug/stm32f4xx_it.o
TWB_CLI_Init                                      Debug/cli.o
                                                  Debug/main.o
TWB_CLI_OutBuffer                                 Debug/cli.o
TWB_CLI_OutCH                                     Debug/cli.o
TWB_CLI_OutStr                                    Debug/cli.o
TWB_CLI_ParseBuffer                               Debug/cli.o
TWB_CLI_ParseCH                                   Debug/cli.o
                                                  Debug/twb_usb.o
TWB_CLI_ProcessCommands                           Debug/cli.o
                                                  Debug/main.o
TWB_Commo_Init                                    Debug/commo.o
                                                  Debug/main.o
TWB_Commo_ProcessIncomingMessages                 Debug/commo.o
                                                  Debug/main.o
TWB_Commo_ProcessOutgoingMessages                 Debug/commo.o
                                                  Debug/main.o
TWB_Commo_QueueOutgoingMsg                        Debug/commo.o
TWB_Commo_RxChIdx                                 Debug/commo.o
                                                  Debug/msg_parser.o
TWB_Commo_RxMsgHead                               Debug/commo.o
TWB_Commo_RxMsgTail                               Debug/commo.o
                                                  Debug/msg_parser.o
TWB_Commo_SendKeepAlivePing                       Debug/commo.o
TWB_Commo_SendMessage                             Debug/commo.o
                                                  Debug/sonar.o
                                                  Debug/snsr_commo.o
                                                  Debug/ms5611.o
                                                  Debug/mpu60x0_gryo.o
                                                  Debug/mpu60x0_acc.o
                                                  Debug/lsm303_mag.o
                                                  Debug/lsm303_acc.o
                                                  Debug/lipo_adc.o
                                                  Debug/l3g20.o
                                                  Debug/itg3200.o
                                                  Debug/hmc5883.o
                                                  Debug/gps.o
                                                  Debug/complementary.o
                                                  Debug/bmp085.o
                                                  Debug/adxl345.o
                                                  Debug/nivek_system.o
                                                  Debug/main.o
                                                  Debug/pwm_source.o
                                                  Debug/pwm_capture.o
                                                  Debug/ctrl_loop_commo.o
                                                  Debug/ctrl_loop.o
                                                  Debug/autopilot.o
                                                  Debug/msg_parser.o
TWB_Commo_SendNak                                 Debug/msg_parser.o
                                                  Debug/ctrl_loop_commo.o
TWB_Commo_TXChIdx                                 Debug/commo.o
                                                  Debug/msg_parser.o
TWB_Commo_TxMsgHead                               Debug/commo.o
                                                  Debug/msg_parser.o
TWB_Commo_TxMsgTail                               Debug/commo.o
                                                  Debug/msg_parser.o
TWB_CtrlLoop_HandleMessage                        Debug/ctrl_loop_commo.o
                                                  Debug/commo.o
TWB_Debug_AddCh                                   Debug/twb_debug.o
                                                  Debug/wifi.o
                                                  Debug/twb_usb.o
                                                  Debug/msg_parser.o
TWB_Debug_HandleTXE                               Debug/twb_debug.o
                                                  Debug/stm32f4xx_it.o
TWB_Debug_Init                                    Debug/twb_debug.o
                                                  Debug/main.o
TWB_Debug_Print                                   Debug/twb_debug.o
                                                  Debug/cli.o
                                                  Debug/sonar.o
                                                  Debug/snsr_zero.o
                                                  Debug/snsr_main.o
                                                  Debug/snsr_commo.o
                                                  Debug/snsr_actions.o
                                                  Debug/ms5611.o
                                                  Debug/mpu60x0_gryo.o
                                                  Debug/mpu60x0_acc.o
                                                  Debug/lsm303_mag.o
                                                  Debug/lsm303_acc.o
                                                  Debug/lipo_adc.o
                                                  Debug/l3g20.o
                                                  Debug/itg3200.o
                                                  Debug/hmc5883.o
                                                  Debug/gps.o
                                                  Debug/bmp085.o
                                                  Debug/adxl345.o
                                                  Debug/nivek_system.o
                                                  Debug/main.o
                                                  Debug/pwm_source.o
                                                  Debug/pwm_capture.o
                                                  Debug/ctrl_loop_commo.o
                                                  Debug/ctrl_loop.o
                                                  Debug/wifi.o
                                                  Debug/usb_dcd.o
                                                  Debug/usbd_usr.o
                                                  Debug/usbd_req.o
                                                  Debug/usbd_desc.o
                                                  Debug/usbd_core.o
                                                  Debug/usbd_cdc_core.o
                                                  Debug/twb_usb.o
                                                  Debug/msg_parser.o
                                                  Debug/commo.o
                                                  Debug/twb_leds.o
                                                  Debug/twb_i2c_stm32f4.o
TWB_Debug_Print2Int                               Debug/twb_debug.o
                                                  Debug/cli.o
                                                  Debug/snsr_commo.o
                                                  Debug/ctrl_loop_commo.o
                                                  Debug/usb_core_io.o
                                                  Debug/usb_core_ep.o
                                                  Debug/usbd_cdc_core.o
                                                  Debug/msg_parser.o
                                                  Debug/twb_i2c_stm32f4.o
TWB_Debug_PrintHexNumb                            Debug/twb_debug.o
TWB_Debug_PrintHexString                          Debug/twb_debug.o
                                                  Debug/gps.o
TWB_Debug_PrintInt                                Debug/twb_debug.o
                                                  Debug/snsr_commo.o
                                                  Debug/snsr_actions.o
                                                  Debug/ms5611.o
                                                  Debug/lsm303_acc.o
                                                  Debug/bmp085.o
                                                  Debug/nivek_system.o
                                                  Debug/main.o
                                                  Debug/pwm_source.o
                                                  Debug/ctrl_loop_commo.o
                                                  Debug/usb_core_ep.o
                                                  Debug/twb_usb.o
                                                  Debug/msg_parser.o
                                                  Debug/twb_serial_eeprom.o
                                                  Debug/twb_i2c_stm32f4.o
                                                  Debug/memory_mgmt.o
TWB_Debug_ReadDefaults                            Debug/twb_debug.o
                                                  Debug/main.o
TWB_Debug_SetShouldForwardDebugOverUSB            Debug/twb_debug.o
                                                  Debug/cli.o
TWB_Debug_TimerEnd                                Debug/twb_debug.o
                                                  Debug/usb_dcd_int.o
TWB_Debug_TimerStart                              Debug/twb_debug.o
                                                  Debug/usb_dcd_int.o
TWB_Debug_Toggle                                  Debug/twb_debug.o
TWB_Filter_Median_Apply                           Debug/Median.o
                                                  Debug/mpu60x0_gryo.o
                                                  Debug/lsm303_mag.o
                                                  Debug/lipo_adc.o
                                                  Debug/itg3200.o
                                                  Debug/hmc5883.o
                                                  Debug/adxl345.o
TWB_Filter_Median_Apply_Float                     Debug/Median.o
                                                  Debug/ms5611.o
                                                  Debug/complementary.o
                                                  Debug/bmp085.o
                                                  Debug/autopilot.o
TWB_Filter_Median_Apply_Signed                    Debug/Median.o
                                                  Debug/mpu60x0_acc.o
                                                  Debug/lsm303_mag.o
                                                  Debug/lsm303_acc.o
                                                  Debug/l3g20.o
TWB_GPIO_Arm                                      Debug/ctrl_loop.o
                                                  Debug/ctrl_loop_commo.o
TWB_GPIO_CtrlLoop_Exec                            Debug/ctrl_loop_pid.o
                                                  Debug/ctrl_loop.o
TWB_GPIO_CtrlLoop_Init                            Debug/ctrl_loop.o
                                                  Debug/snsr_mgmt.o
TWB_GPIO_CtrlLoop_ResetDefaults                   Debug/ctrl_loop.o
                                                  Debug/snsr_mgmt.o
                                                  Debug/ctrl_loop_commo.o
TWB_GPIO_CtrlLoop_SetAltitudePID                  Debug/ctrl_loop.o
TWB_GPIO_CtrlLoop_SetPitchRollPID                 Debug/ctrl_loop.o
                                                  Debug/ctrl_loop_commo.o
TWB_GPIO_CtrlLoop_SetYawPID                       Debug/ctrl_loop.o
TWB_GPIO_Safe                                     Debug/ctrl_loop.o
                                                  Debug/ctrl_loop_commo.o
TWB_GPIO_SendPIDConfig                            Debug/ctrl_loop_commo.o
                                                  Debug/snsr_commo.o
TWB_GPS_Alt_Init                                  Debug/gps.o
                                                  Debug/snsr_mgmt.o
TWB_GPS_Alt_ResetDefaults                         Debug/gps.o
                                                  Debug/snsr_mgmt.o
TWB_GPS_Alt_Update_Setting                        Debug/gps.o
                                                  Debug/snsr_mgmt.o
TWB_GPS_Geo_Init                                  Debug/gps.o
                                                  Debug/snsr_mgmt.o
TWB_GPS_Geo_ResetDefaults                         Debug/gps.o
                                                  Debug/snsr_mgmt.o
TWB_GPS_Geo_Update_Setting                        Debug/gps.o
                                                  Debug/snsr_mgmt.o
TWB_GPS_HandleRX_IRQ                              Debug/gps.o
                                                  Debug/stm32f4xx_it.o
TWB_GPS_HandleRX_Overrun                          Debug/gps.o
                                                  Debug/stm32f4xx_it.o
TWB_GPS_Heading_Init                              Debug/gps.o
                                                  Debug/snsr_mgmt.o
TWB_GPS_Heading_ResetDefaults                     Debug/gps.o
                                                  Debug/snsr_mgmt.o
TWB_GPS_Heading_Update_Setting                    Debug/gps.o
                                                  Debug/snsr_mgmt.o
TWB_GPS_QueueMsg                                  Debug/gps.o
                                                  Debug/commo.o
                                                  Debug/twb_timer.o
TWB_GPS_SetHomeLocation                           Debug/gps.o
TWB_GetEdgeType                                   Debug/twb_common.o
TWB_I2C_Init                                      Debug/twb_i2c_stm32f4.o
                                                  Debug/main.o
TWB_I2C_ProcessJobSynchronously                   Debug/twb_i2c_stm32f4.o
                                                  Debug/twb_i2c.o
TWB_I2C_QueueAsyncJob                             Debug/twb_i2c_stm32f4.o
                                                  Debug/snsr_zero.o
                                                  Debug/ms5611.o
                                                  Debug/mpu60x0_gryo.o
                                                  Debug/mpu60x0_acc.o
                                                  Debug/lsm303_mag.o
                                                  Debug/lsm303_acc.o
                                                  Debug/l3g20.o
                                                  Debug/bmp085.o
                                                  Debug/twb_serial_eeprom.o
TWB_I2C_ReadRegisterValue                         Debug/twb_i2c.o
                                                  Debug/mpu60x0_gryo.o
                                                  Debug/mpu60x0_acc.o
                                                  Debug/l3g20.o
                                                  Debug/itg3200.o
                                                  Debug/hmc5883.o
                                                  Debug/bmp085.o
                                                  Debug/adxl345.o
TWB_I2C_ReadRegisterValues                        Debug/twb_i2c.o
                                                  Debug/itg3200.o
                                                  Debug/hmc5883.o
                                                  Debug/bmp085.o
                                                  Debug/adxl345.o
TWB_I2C_ReadU16RegisterValue                      Debug/twb_i2c.o
                                                  Debug/ms5611.o
TWB_I2C_SendU8                                    Debug/twb_i2c.o
                                                  Debug/ms5611.o
TWB_I2C_WatchdogExpired                           Debug/twb_i2c_stm32f4.o
                                                  Debug/twb_timer.o
TWB_I2C_WriteBuffer                               Debug/twb_i2c.o
                                                  Debug/twb_serial_eeprom.o
TWB_I2C_WriteReadBuffer                           Debug/twb_i2c.o
                                                  Debug/twb_serial_eeprom.o
TWB_I2C_WriteRegister                             Debug/twb_i2c.o
                                                  Debug/mpu60x0_gryo.o
                                                  Debug/mpu60x0_acc.o
                                                  Debug/lsm303_mag.o
                                                  Debug/lsm303_acc.o
                                                  Debug/l3g20.o
                                                  Debug/itg3200.o
                                                  Debug/hmc5883.o
                                                  Debug/adxl345.o
TWB_IMU_ADXL345_Init                              Debug/adxl345.o
                                                  Debug/snsr_mgmt.o
TWB_IMU_ADXL345_Read                              Debug/adxl345.o
TWB_IMU_ADXL345_ResetDefaults                     Debug/adxl345.o
                                                  Debug/snsr_mgmt.o
TWB_IMU_ADXL345_SendDiag                          Debug/adxl345.o
                                                  Debug/snsr_mgmt.o
TWB_IMU_ADXL345_UpdateSetting                     Debug/adxl345.o
                                                  Debug/snsr_mgmt.o
TWB_IMU_ADXL345_Zero                              Debug/adxl345.o
TWB_IMU_BMP085_I2C_Completed                      Debug/bmp085.o
TWB_IMU_BMP085_IRQ                                Debug/bmp085.o
TWB_IMU_BMP085_Init                               Debug/bmp085.o
                                                  Debug/snsr_mgmt.o
TWB_IMU_BMP085_Pause                              Debug/bmp085.o
TWB_IMU_BMP085_ProcessData                        Debug/bmp085.o
TWB_IMU_BMP085_Read                               Debug/bmp085.o
TWB_IMU_BMP085_ResetDefaults                      Debug/bmp085.o
                                                  Debug/snsr_mgmt.o
TWB_IMU_BMP085_Resume                             Debug/bmp085.o
TWB_IMU_BMP085_SendDiag                           Debug/bmp085.o
                                                  Debug/snsr_mgmt.o
TWB_IMU_BMP085_Start                              Debug/bmp085.o
TWB_IMU_BMP085_Stop                               Debug/bmp085.o
TWB_IMU_BMP085_UpdateSetting                      Debug/bmp085.o
                                                  Debug/snsr_mgmt.o
TWB_IMU_BMP085_Zero                               Debug/bmp085.o
                                                  Debug/autopilot.o
TWB_IMU_HMC5883_BeginCalibration                  Debug/hmc5883.o
TWB_IMU_HMC5883_EndCalibration                    Debug/hmc5883.o
TWB_IMU_HMC5883_Init                              Debug/hmc5883.o
                                                  Debug/snsr_mgmt.o
TWB_IMU_HMC5883_Read                              Debug/hmc5883.o
TWB_IMU_HMC5883_ResetDefaults                     Debug/hmc5883.o
                                                  Debug/snsr_mgmt.o
TWB_IMU_HMC5883_SendDiag                          Debug/hmc5883.o
                                                  Debug/snsr_mgmt.o
TWB_IMU_HMC5883_UpdateSetting                     Debug/hmc5883.o
                                                  Debug/snsr_mgmt.o
TWB_IMU_ITG3200_DisableIRQ                        Debug/itg3200.o
TWB_IMU_ITG3200_EnableIRQ                         Debug/itg3200.o
TWB_IMU_ITG3200_IRQ                               Debug/itg3200.o
TWB_IMU_ITG3200_Init                              Debug/itg3200.o
                                                  Debug/snsr_mgmt.o
TWB_IMU_ITG3200_Read                              Debug/itg3200.o
TWB_IMU_ITG3200_ResetDefaults                     Debug/itg3200.o
                                                  Debug/snsr_mgmt.o
TWB_IMU_ITG3200_SendDiag                          Debug/itg3200.o
                                                  Debug/snsr_mgmt.o
TWB_IMU_ITG3200_UpdateSetting                     Debug/itg3200.o
                                                  Debug/snsr_mgmt.o
TWB_IMU_ITG3200_Zero                              Debug/itg3200.o
TWB_IMU_L3GD20_CompleteZero                       Debug/l3g20.o
TWB_IMU_L3GD20_DisableIRQ                         Debug/l3g20.o
TWB_IMU_L3GD20_EnableIRQ                          Debug/l3g20.o
TWB_IMU_L3GD20_IRQ                                Debug/l3g20.o
TWB_IMU_L3GD20_Init                               Debug/l3g20.o
                                                  Debug/snsr_mgmt.o
TWB_IMU_L3GD20_Pause                              Debug/l3g20.o
TWB_IMU_L3GD20_Read                               Debug/l3g20.o
TWB_IMU_L3GD20_ResetDefaults                      Debug/l3g20.o
                                                  Debug/snsr_mgmt.o
TWB_IMU_L3GD20_Resume                             Debug/l3g20.o
TWB_IMU_L3GD20_SendDiag                           Debug/l3g20.o
                                                  Debug/snsr_mgmt.o
TWB_IMU_L3GD20_Start                              Debug/l3g20.o
TWB_IMU_L3GD20_Stop                               Debug/l3g20.o
TWB_IMU_L3GD20_UpdateSetting                      Debug/l3g20.o
                                                  Debug/snsr_mgmt.o
TWB_IMU_L3GD20_Zero                               Debug/l3g20.o
TWB_IMU_L3GD30_ProcessData                        Debug/l3g20.o
TWB_IMU_LSM303_Acc_CompleteZero                   Debug/lsm303_acc.o
TWB_IMU_LSM303_Acc_IRQ                            Debug/lsm303_acc.o
TWB_IMU_LSM303_Acc_Init                           Debug/lsm303_acc.o
                                                  Debug/snsr_mgmt.o
TWB_IMU_LSM303_Acc_Pause                          Debug/lsm303_acc.o
TWB_IMU_LSM303_Acc_ProcessData                    Debug/lsm303_acc.o
TWB_IMU_LSM303_Acc_Read                           Debug/lsm303_acc.o
TWB_IMU_LSM303_Acc_ResetDefaults                  Debug/lsm303_acc.o
                                                  Debug/snsr_mgmt.o
TWB_IMU_LSM303_Acc_Resume                         Debug/lsm303_acc.o
TWB_IMU_LSM303_Acc_SendDiag                       Debug/lsm303_acc.o
                                                  Debug/snsr_mgmt.o
TWB_IMU_LSM303_Acc_Start                          Debug/lsm303_acc.o
TWB_IMU_LSM303_Acc_Stop                           Debug/lsm303_acc.o
TWB_IMU_LSM303_Acc_UpdateSetting                  Debug/lsm303_acc.o
                                                  Debug/snsr_mgmt.o
TWB_IMU_LSM303_Acc_Zero                           Debug/lsm303_acc.o
TWB_IMU_LSM303_Mag_BeginCalibration               Debug/lsm303_mag.o
                                                  Debug/snsr_commo.o
TWB_IMU_LSM303_Mag_CancelCalibration              Debug/lsm303_mag.o
                                                  Debug/snsr_commo.o
TWB_IMU_LSM303_Mag_EndCalibration                 Debug/lsm303_mag.o
                                                  Debug/snsr_commo.o
TWB_IMU_LSM303_Mag_Init                           Debug/lsm303_mag.o
                                                  Debug/snsr_mgmt.o
TWB_IMU_LSM303_Mag_Pause                          Debug/lsm303_mag.o
TWB_IMU_LSM303_Mag_ProcessData                    Debug/lsm303_mag.o
TWB_IMU_LSM303_Mag_Read                           Debug/lsm303_mag.o
TWB_IMU_LSM303_Mag_ResetDefaults                  Debug/lsm303_mag.o
                                                  Debug/snsr_mgmt.o
TWB_IMU_LSM303_Mag_Resume                         Debug/lsm303_mag.o
TWB_IMU_LSM303_Mag_SendDiag                       Debug/lsm303_mag.o
                                                  Debug/snsr_mgmt.o
TWB_IMU_LSM303_Mag_Start                          Debug/lsm303_mag.o
TWB_IMU_LSM303_Mag_Stop                           Debug/lsm303_mag.o
TWB_IMU_LSM303_Mag_UpdateSetting                  Debug/lsm303_mag.o
                                                  Debug/snsr_mgmt.o
TWB_IMU_LSM303_ReadComplete                       Debug/lsm303_acc.o
TWB_IMU_MPU60x0_Acc_CompleteZero                  Debug/mpu60x0_acc.o
TWB_IMU_MPU60x0_Acc_IRQ                           Debug/mpu60x0_acc.o
TWB_IMU_MPU60x0_Acc_Init                          Debug/mpu60x0_acc.o
                                                  Debug/snsr_mgmt.o
TWB_IMU_MPU60x0_Acc_Pause                         Debug/mpu60x0_acc.o
TWB_IMU_MPU60x0_Acc_ProcessData                   Debug/mpu60x0_acc.o
TWB_IMU_MPU60x0_Acc_Read                          Debug/mpu60x0_acc.o
TWB_IMU_MPU60x0_Acc_ResetDefaults                 Debug/mpu60x0_acc.o
                                                  Debug/snsr_mgmt.o
TWB_IMU_MPU60x0_Acc_Resume                        Debug/mpu60x0_acc.o
TWB_IMU_MPU60x0_Acc_SendDiag                      Debug/mpu60x0_acc.o
                                                  Debug/snsr_mgmt.o
TWB_IMU_MPU60x0_Acc_Start                         Debug/mpu60x0_acc.o
TWB_IMU_MPU60x0_Acc_Stop                          Debug/mpu60x0_acc.o
TWB_IMU_MPU60x0_Acc_UpdateSetting                 Debug/mpu60x0_acc.o
                                                  Debug/snsr_mgmt.o
TWB_IMU_MPU60x0_Acc_Zero                          Debug/mpu60x0_acc.o
TWB_IMU_MPU60x0_Gyro_CompleteZero                 Debug/mpu60x0_gryo.o
TWB_IMU_MPU60x0_Gyro_IRQ                          Debug/mpu60x0_gryo.o
TWB_IMU_MPU60x0_Gyro_Init                         Debug/mpu60x0_gryo.o
                                                  Debug/snsr_mgmt.o
TWB_IMU_MPU60x0_Gyro_Pause                        Debug/mpu60x0_gryo.o
TWB_IMU_MPU60x0_Gyro_ProcessData                  Debug/mpu60x0_gryo.o
TWB_IMU_MPU60x0_Gyro_Read                         Debug/mpu60x0_gryo.o
TWB_IMU_MPU60x0_Gyro_ResetDefaults                Debug/mpu60x0_gryo.o
                                                  Debug/snsr_mgmt.o
TWB_IMU_MPU60x0_Gyro_Resume                       Debug/mpu60x0_gryo.o
TWB_IMU_MPU60x0_Gyro_SendDiag                     Debug/mpu60x0_gryo.o
                                                  Debug/snsr_mgmt.o
TWB_IMU_MPU60x0_Gyro_Start                        Debug/mpu60x0_gryo.o
TWB_IMU_MPU60x0_Gyro_Stop                         Debug/mpu60x0_gryo.o
TWB_IMU_MPU60x0_Gyro_UpdateSetting                Debug/mpu60x0_gryo.o
                                                  Debug/snsr_mgmt.o
TWB_IMU_MPU60x0_Gyro_Zero                         Debug/mpu60x0_gryo.o
TWB_IMU_MS5611_I2C_Completed                      Debug/ms5611.o
TWB_IMU_MS5611_Init                               Debug/ms5611.o
                                                  Debug/snsr_mgmt.o
TWB_IMU_MS5611_Pause                              Debug/ms5611.o
TWB_IMU_MS5611_ProcessData                        Debug/ms5611.o
TWB_IMU_MS5611_Read                               Debug/ms5611.o
TWB_IMU_MS5611_ResetDefaults                      Debug/ms5611.o
                                                  Debug/snsr_mgmt.o
TWB_IMU_MS5611_Resume                             Debug/ms5611.o
TWB_IMU_MS5611_SendDiag                           Debug/ms5611.o
                                                  Debug/snsr_mgmt.o
TWB_IMU_MS5611_Start                              Debug/ms5611.o
TWB_IMU_MS5611_Stop                               Debug/ms5611.o
TWB_IMU_MS5611_UpdateSetting                      Debug/ms5611.o
                                                  Debug/snsr_mgmt.o
TWB_IMU_MS5611_Zero                               Debug/ms5611.o
TWB_IMU_ProcessSensors                            Debug/snsr_main.o
                                                  Debug/main.o
TWB_IMU_RestoreDefaults                           Debug/snsr_actions.o
                                                  Debug/snsr_commo.o
                                                  Debug/main.o
TWB_IMU_SONAR_ProcessData                         Debug/sonar.o
TWB_IMU_SONAR_SendDiag                            Debug/sonar.o
                                                  Debug/snsr_mgmt.o
TWB_IMU_Sonar_Init                                Debug/sonar.o
                                                  Debug/snsr_mgmt.o
TWB_IMU_Sonar_Pause                               Debug/sonar.o
TWB_IMU_Sonar_Read                                Debug/sonar.o
TWB_IMU_Sonar_ResetDefaults                       Debug/sonar.o
                                                  Debug/snsr_mgmt.o
TWB_IMU_Sonar_Resume                              Debug/sonar.o
TWB_IMU_Sonar_Start                               Debug/sonar.o
TWB_IMU_Sonar_Stop                                Debug/sonar.o
TWB_IMU_Sonar_UpdateSetting                       Debug/sonar.o
                                                  Debug/snsr_mgmt.o
TWB_IMU_Sonar_Zero                                Debug/sonar.o
TWB_Incoming_Messages                             Debug/commo.o
                                                  Debug/msg_parser.o
TWB_InitSensorArray                               Debug/snsr_mgmt.o
                                                  Debug/main.o
TWB_LEDS_Init                                     Debug/twb_leds.o
                                                  Debug/main.o
TWB_LEDS_SetState                                 Debug/twb_leds.o
                                                  Debug/snsr_zero.o
                                                  Debug/snsr_main.o
                                                  Debug/snsr_actions.o
                                                  Debug/nivek_system.o
                                                  Debug/main.o
                                                  Debug/pwm_capture.o
                                                  Debug/commo.o
TWB_LEDS_UpdateFastBlink                          Debug/twb_leds.o
                                                  Debug/twb_timer.o
TWB_LEDS_UpdateSlowBlink                          Debug/twb_leds.o
                                                  Debug/twb_timer.o
TWB_MATH_LimitOneToMinusOne                       Debug/twb_math.o
                                                  Debug/mpu60x0_acc.o
                                                  Debug/lsm303_acc.o
TWB_Main_WIFiReceiveExpired                       Debug/commo.o
                                                  Debug/twb_timer.o
TWB_Main_WiFiSendExpired                          Debug/commo.o
                                                  Debug/twb_timer.o
TWB_Math_Asin                                     Debug/twb_math.o
TWB_Motors_QueueMsg                               Debug/pwm_source.o
                                                  Debug/twb_timer.o
TWB_MsgParser_HandleRX                            Debug/msg_parser.o
                                                  Debug/stm32f4xx_it.o
TWB_MsgParser_HandleRX_Overrun                    Debug/msg_parser.o
                                                  Debug/stm32f4xx_it.o
TWB_MsgParser_HandleTXE                           Debug/msg_parser.o
                                                  Debug/stm32f4xx_it.o
TWB_OutgoingMsg                                   Debug/msg_parser.o
TWB_Outgoing_Messages                             Debug/commo.o
                                                  Debug/msg_parser.o
TWB_PID_Reset                                     Debug/pid.o
                                                  Debug/ctrl_loop_pid.o
TWB_PID_Update                                    Debug/pid.o
                                                  Debug/ctrl_loop_pid.o
                                                  Debug/autopilot.o
TWB_PWM_Capture_Init                              Debug/pwm_capture.o
                                                  Debug/main.o
TWB_PWM_Init_PWM_IO                               Debug/pwm_source.o
TWB_PWM_Init_TimeBase                             Debug/pwm_source.o
TWB_PWM_ManagePower                               Debug/pwm_source.o
                                                  Debug/main.o
TWB_PWM_ProcessRCIn                               Debug/pwm_capture.o
                                                  Debug/main.o
TWB_PWM_RCWatchDogExpire                          Debug/pwm_capture.o
                                                  Debug/twb_timer.o
TWB_PWM_SetESCPower                               Debug/pwm_source.o
                                                  Debug/ctrl_loop_pid.o
                                                  Debug/ctrl_loop_commo.o
TWB_PWM_SetNewESCUpdateRate                       Debug/pwm_source.o
                                                  Debug/ctrl_loop_commo.o
                                                  Debug/ctrl_loop.o
TWB_PWM_Source_Init                               Debug/pwm_source.o
                                                  Debug/main.o
TWB_RCIN_BeginCalibration                         Debug/pwm_capture.o
                                                  Debug/ctrl_loop_commo.o
TWB_RCIN_CalibrateStick                           Debug/pwm_capture.o
                                                  Debug/ctrl_loop_commo.o
TWB_RCIN_CancelCalibration                        Debug/pwm_capture.o
                                                  Debug/ctrl_loop_commo.o
TWB_RCIN_FinalizeCalibration                      Debug/pwm_capture.o
                                                  Debug/ctrl_loop_commo.o
TWB_RCIN_QueueMsg                                 Debug/pwm_capture.o
                                                  Debug/twb_timer.o
TWB_SE_Init                                       Debug/twb_serial_eeprom.o
TWB_SE_QueueAsyncWrite                            Debug/twb_serial_eeprom.o
                                                  Debug/snsr_zero.o
                                                  Debug/lsm303_mag.o
TWB_SE_ReadBuffer                                 Debug/twb_serial_eeprom.o
                                                  Debug/nivek_system.o
TWB_SE_ReadS16                                    Debug/twb_serial_eeprom.o
                                                  Debug/mpu60x0_gryo.o
                                                  Debug/mpu60x0_acc.o
                                                  Debug/lsm303_mag.o
                                                  Debug/lsm303_acc.o
                                                  Debug/l3g20.o
                                                  Debug/itg3200.o
                                                  Debug/hmc5883.o
                                                  Debug/bmp085.o
                                                  Debug/adxl345.o
                                                  Debug/ctrl_loop.o
TWB_SE_ReadS32                                    Debug/twb_serial_eeprom.o
                                                  Debug/ms5611.o
TWB_SE_ReadS8                                     Debug/twb_serial_eeprom.o
                                                  Debug/ctrl_loop.o
TWB_SE_ReadU16                                    Debug/twb_serial_eeprom.o
                                                  Debug/pwm_capture.o
                                                  Debug/ctrl_loop.o
TWB_SE_ReadU32                                    Debug/twb_serial_eeprom.o
                                                  Debug/nivek_system.o
TWB_SE_ReadU8                                     Debug/twb_serial_eeprom.o
                                                  Debug/sonar.o
                                                  Debug/snsr_main.o
                                                  Debug/ms5611.o
                                                  Debug/mpu60x0_gryo.o
                                                  Debug/mpu60x0_acc.o
                                                  Debug/lsm303_mag.o
                                                  Debug/lsm303_acc.o
                                                  Debug/lipo_adc.o
                                                  Debug/l3g20.o
                                                  Debug/itg3200.o
                                                  Debug/hmc5883.o
                                                  Debug/gps.o
                                                  Debug/complementary.o
                                                  Debug/bmp085.o
                                                  Debug/adxl345.o
                                                  Debug/nivek_system.o
                                                  Debug/main.o
                                                  Debug/pwm_source.o
                                                  Debug/pwm_capture.o
                                                  Debug/ctrl_loop.o
                                                  Debug/twb_timer.o
TWB_SE_WriteBuffer                                Debug/twb_serial_eeprom.o
                                                  Debug/nivek_system.o
TWB_SE_WriteBufferPause                           Debug/twb_serial_eeprom.o
                                                  Debug/nivek_system.o
TWB_SE_WriteS16                                   Debug/twb_serial_eeprom.o
                                                  Debug/ctrl_loop_commo.o
TWB_SE_WriteS16Pause                              Debug/twb_serial_eeprom.o
                                                  Debug/mpu60x0_gryo.o
                                                  Debug/mpu60x0_acc.o
                                                  Debug/lsm303_mag.o
                                                  Debug/itg3200.o
                                                  Debug/hmc5883.o
                                                  Debug/adxl345.o
TWB_SE_WriteS32                                   Debug/twb_serial_eeprom.o
TWB_SE_WriteS32Pause                              Debug/twb_serial_eeprom.o
                                                  Debug/bmp085.o
TWB_SE_WriteS8                                    Debug/twb_serial_eeprom.o
                                                  Debug/ctrl_loop_commo.o
TWB_SE_WriteS8Pause                               Debug/twb_serial_eeprom.o
                                                  Debug/ctrl_loop.o
TWB_SE_WriteU16                                   Debug/twb_serial_eeprom.o
                                                  Debug/pwm_capture.o
TWB_SE_WriteU16Pause                              Debug/twb_serial_eeprom.o
                                                  Debug/lsm303_acc.o
                                                  Debug/l3g20.o
                                                  Debug/ctrl_loop.o
TWB_SE_WriteU32                                   Debug/twb_serial_eeprom.o
                                                  Debug/nivek_system.o
TWB_SE_WriteU32Pause                              Debug/twb_serial_eeprom.o
                                                  Debug/ms5611.o
                                                  Debug/nivek_system.o
TWB_SE_WriteU8                                    Debug/twb_serial_eeprom.o
                                                  Debug/snsr_commo.o
                                                  Debug/nivek_system.o
                                                  Debug/pwm_capture.o
                                                  Debug/ctrl_loop_commo.o
TWB_SE_WriteU8Pause                               Debug/twb_serial_eeprom.o
                                                  Debug/sonar.o
                                                  Debug/snsr_actions.o
                                                  Debug/mpu60x0_gryo.o
                                                  Debug/mpu60x0_acc.o
                                                  Debug/lsm303_mag.o
                                                  Debug/lsm303_acc.o
                                                  Debug/lipo_adc.o
                                                  Debug/l3g20.o
                                                  Debug/itg3200.o
                                                  Debug/hmc5883.o
                                                  Debug/complementary.o
                                                  Debug/bmp085.o
                                                  Debug/adxl345.o
                                                  Debug/nivek_system.o
                                                  Debug/main.o
                                                  Debug/ctrl_loop.o
TWB_SNSR_Complementary_Init                       Debug/complementary.o
                                                  Debug/snsr_mgmt.o
TWB_SNSR_Complementary_Process                    Debug/complementary.o
TWB_SNSR_Complementary_ResetDefaults              Debug/complementary.o
                                                  Debug/snsr_mgmt.o
TWB_SNSR_Complementary_SendDiag                   Debug/complementary.o
                                                  Debug/snsr_mgmt.o
TWB_SNSR_Complementary_UpdateSettings             Debug/complementary.o
                                                  Debug/snsr_mgmt.o
TWB_SNSR_Kalman_Init                              Debug/kalman.o
                                                  Debug/snsr_mgmt.o
TWB_SNSR_Kalman_Process                           Debug/kalman.o
TWB_SNSR_Kalman_ResetDefaults                     Debug/kalman.o
                                                  Debug/snsr_mgmt.o
TWB_SNSR_Kalman_SendDiag                          Debug/kalman.o
                                                  Debug/snsr_mgmt.o
TWB_SNSR_Kalman_UpdateSetting                     Debug/kalman.o
                                                  Debug/snsr_mgmt.o
TWB_Sensor_Calibrate                              Debug/snsr_zero.o
                                                  Debug/mpu60x0_gryo.o
                                                  Debug/mpu60x0_acc.o
                                                  Debug/lsm303_acc.o
                                                  Debug/l3g20.o
                                                  Debug/itg3200.o
                                                  Debug/adxl345.o
TWB_Sensors_HandleMessage                         Debug/snsr_commo.o
                                                  Debug/commo.o
TWB_Sensors_Init                                  Debug/snsr_main.o
                                                  Debug/snsr_commo.o
                                                  Debug/main.o
TWB_Sensors_Pause                                 Debug/snsr_actions.o
                                                  Debug/snsr_commo.o
TWB_Sensors_QueueMsg                              Debug/snsr_commo.o
                                                  Debug/commo.o
                                                  Debug/twb_timer.o
TWB_Sensors_Resume                                Debug/snsr_actions.o
                                                  Debug/snsr_zero.o
                                                  Debug/snsr_commo.o
TWB_Sensors_Start                                 Debug/snsr_actions.o
                                                  Debug/snsr_commo.o
                                                  Debug/main.o
TWB_Sensors_Start_Zero                            Debug/snsr_zero.o
                                                  Debug/snsr_commo.o
TWB_Sensors_Stop                                  Debug/snsr_actions.o
                                                  Debug/snsr_commo.o
TWB_Sensors_Zero                                  Debug/snsr_zero.o
                                                  Debug/snsr_main.o
TWB_Status_QueueMsg                               Debug/main.o
                                                  Debug/twb_timer.o
TWB_Sys_Get_BaudRate                              Debug/nivek_system.o
                                                  Debug/wifi.o
TWB_Sys_Get_ShouldForwardDebugToConsole           Debug/nivek_system.o
                                                  Debug/twb_debug.o
TWB_Sys_HandleMessage                             Debug/nivek_system.o
                                                  Debug/commo.o
TWB_Sys_Init                                      Debug/nivek_system.o
                                                  Debug/main.o
TWB_Sys_RestoreDefaults                           Debug/nivek_system.o
                                                  Debug/main.o
TWB_Sys_Set_Address                               Debug/nivek_system.o
                                                  Debug/cli.o
TWB_Sys_Set_BaudRate                              Debug/nivek_system.o
                                                  Debug/wifi.o
TWB_Sys_Set_NiVekName                             Debug/nivek_system.o
                                                  Debug/cli.o
TWB_Sys_Set_SerialNumber                          Debug/nivek_system.o
                                                  Debug/cli.o
TWB_Sys_Set_ShouldForwardDebugToConsole           Debug/nivek_system.o
                                                  Debug/twb_debug.o
TWB_Targets_QueueMsg                              Debug/ctrl_loop.o
                                                  Debug/twb_timer.o
TWB_Timer_CreateTimers                            Debug/twb_timer.o
                                                  Debug/main.o
TWB_Timer_Disable                                 Debug/twb_timer.o
                                                  Debug/pwm_capture.o
                                                  Debug/wifi.o
                                                  Debug/commo.o
                                                  Debug/twb_i2c_stm32f4.o
TWB_Timer_Enable                                  Debug/twb_timer.o
                                                  Debug/nivek_system.o
                                                  Debug/main.o
                                                  Debug/pwm_capture.o
                                                  Debug/wifi.o
                                                  Debug/twb_i2c_stm32f4.o
TWB_Timer_GetMS                                   Debug/twb_timer.o
TWB_Timer_GetMSFromSampleRate                     Debug/twb_timer.o
                                                  Debug/snsr_main.o
                                                  Debug/mpu60x0_gryo.o
                                                  Debug/l3g20.o
                                                  Debug/complementary.o
TWB_Timer_ReadTimeouts                            Debug/twb_timer.o
TWB_Timer_Reset                                   Debug/twb_timer.o
                                                  Debug/pwm_capture.o
                                                  Debug/msg_parser.o
                                                  Debug/commo.o
                                                  Debug/twb_i2c_stm32f4.o
TWB_Timer_Scan                                    Debug/twb_timer.o
                                                  Debug/main.o
TWB_Timer_SleepMS                                 Debug/twb_timer.o
                                                  Debug/ms5611.o
                                                  Debug/gps.o
                                                  Debug/main.o
                                                  Debug/twb_serial_eeprom.o
                                                  Debug/twb_debug.o
TWB_USB_Handle_ConsoleIn                          Debug/twb_usb.o
                                                  Debug/usbd_cdc_core.o
TWB_USB_Handle_TelemetryIn                        Debug/twb_usb.o
                                                  Debug/usbd_cdc_core.o
TWB_USB_Init                                      Debug/twb_usb.o
                                                  Debug/main.o
TWB_USB_Write_Console_Out                         Debug/twb_usb.o
TWB_USB_Write_Debug_Out                           Debug/twb_usb.o
TWB_USB_Write_Telemetry_Out                       Debug/twb_usb.o
TWB_WiFi_CloseConnection                          Debug/wifi.o
TWB_WiFi_GetBaudRate                              Debug/wifi.o
                                                  Debug/cli.o
TWB_WiFi_HandleRX                                 Debug/wifi.o
                                                  Debug/stm32f4xx_it.o
TWB_WiFi_HandleTXE                                Debug/wifi.o
                                                  Debug/stm32f4xx_it.o
TWB_WiFi_Init                                     Debug/wifi.o
                                                  Debug/main.o
TWB_WiFi_PerformActions                           Debug/wifi.o
TWB_WiFi_Reboot                                   Debug/wifi.o
                                                  Debug/main.o
                                                  Debug/commo.o
TWB_WiFi_SetBaud                                  Debug/wifi.o
                                                  Debug/cli.o
TWB_WiFi_Timer_Tick                               Debug/wifi.o
                                                  Debug/twb_timer.o
Targets                                           Debug/twb_config.o
                                                  Debug/snsr_main.o
                                                  Debug/main.o
                                                  Debug/ctrl_loop_pid.o
                                                  Debug/ctrl_loop_commo.o
                                                  Debug/ctrl_loop.o
                                                  Debug/autopilot.o
UART4_IRQHandler                                  Debug/startup_stm32f4xx.o
UART5_IRQHandler                                  Debug/startup_stm32f4xx.o
USART1_IRQHandler                                 Debug/stm32f4xx_it.o
USART2_IRQHandler                                 Debug/stm32f4xx_it.o
USART3_IRQHandler                                 Debug/startup_stm32f4xx.o
USART6_IRQHandler                                 Debug/startup_stm32f4xx.o
USART_ClearFlag                                   Debug/stm32f4xx_usart.o
                                                  Debug/gps.o
                                                  Debug/msg_parser.o
USART_ClearITPendingBit                           Debug/stm32f4xx_usart.o
USART_ClockInit                                   Debug/stm32f4xx_usart.o
USART_ClockStructInit                             Debug/stm32f4xx_usart.o
USART_Cmd                                         Debug/stm32f4xx_usart.o
                                                  Debug/wifi.o
                                                  Debug/twb_debug.o
USART_DMACmd                                      Debug/stm32f4xx_usart.o
USART_DeInit                                      Debug/stm32f4xx_usart.o
USART_GetFlagStatus                               Debug/stm32f4xx_usart.o
USART_GetITStatus                                 Debug/stm32f4xx_usart.o
USART_HalfDuplexCmd                               Debug/stm32f4xx_usart.o
USART_ITConfig                                    Debug/stm32f4xx_usart.o
                                                  Debug/cli.o
                                                  Debug/stm32f4xx_it.o
                                                  Debug/gps.o
                                                  Debug/wifi.o
                                                  Debug/msg_parser.o
                                                  Debug/commo.o
                                                  Debug/twb_debug.o
USART_Init                                        Debug/stm32f4xx_usart.o
                                                  Debug/wifi.o
                                                  Debug/twb_debug.o
USART_IrDACmd                                     Debug/stm32f4xx_usart.o
USART_IrDAConfig                                  Debug/stm32f4xx_usart.o
USART_LINBreakDetectLengthConfig                  Debug/stm32f4xx_usart.o
USART_LINCmd                                      Debug/stm32f4xx_usart.o
USART_OneBitMethodCmd                             Debug/stm32f4xx_usart.o
USART_OverSampling8Cmd                            Debug/stm32f4xx_usart.o
USART_ReceiveData                                 Debug/stm32f4xx_usart.o
USART_ReceiverWakeUpCmd                           Debug/stm32f4xx_usart.o
USART_SendBreak                                   Debug/stm32f4xx_usart.o
USART_SendData                                    Debug/stm32f4xx_usart.o
                                                  Debug/stm32f4xx_it.o
                                                  Debug/twb_debug.o
USART_SetAddress                                  Debug/stm32f4xx_usart.o
USART_SetGuardTime                                Debug/stm32f4xx_usart.o
USART_SetPrescaler                                Debug/stm32f4xx_usart.o
USART_SmartCardCmd                                Debug/stm32f4xx_usart.o
USART_SmartCardNACKCmd                            Debug/stm32f4xx_usart.o
USART_StructInit                                  Debug/stm32f4xx_usart.o
USART_WakeUpConfig                                Debug/stm32f4xx_usart.o
USBD_CDC_cb                                       Debug/usbd_cdc_core.o
                                                  Debug/twb_usb.o
USBD_ClrCfg                                       Debug/usbd_core.o
                                                  Debug/usbd_req.o
USBD_CompatIDDesc                                 Debug/usbd_desc.o
USBD_CtlContinueRx                                Debug/usbd_ioreq.o
                                                  Debug/usbd_core.o
USBD_CtlContinueSendData                          Debug/usbd_ioreq.o
                                                  Debug/usbd_core.o
USBD_CtlError                                     Debug/usbd_req.o
                                                  Debug/usbd_cdc_core.o
USBD_CtlPrepareRx                                 Debug/usbd_ioreq.o
                                                  Debug/usbd_cdc_core.o
USBD_CtlReceiveStatus                             Debug/usbd_ioreq.o
                                                  Debug/usbd_core.o
USBD_CtlSendData                                  Debug/usbd_ioreq.o
                                                  Debug/usbd_req.o
                                                  Debug/usbd_cdc_core.o
USBD_CtlSendStatus                                Debug/usbd_ioreq.o
                                                  Debug/usbd_req.o
                                                  Debug/usbd_core.o
USBD_DCD_INT_cb                                   Debug/usbd_core.o
USBD_DCD_INT_fops                                 Debug/usbd_core.o
                                                  Debug/usb_dcd_int.o
USBD_DataInStage                                  Debug/usbd_core.o
USBD_DataOutStage                                 Debug/usbd_core.o
USBD_DeInit                                       Debug/usbd_core.o
USBD_DeviceDesc                                   Debug/usbd_desc.o
                                                  Debug/usbd_cdc_core.o
USBD_DeviceQualifierDesc                          Debug/usbd_desc.o
                                                  Debug/usbd_req.o
USBD_ExtPropertiesDesc0                           Debug/usbd_desc.o
USBD_ExtPropertiesDesc1                           Debug/usbd_desc.o
USBD_ExtPropertiesDesc2                           Debug/usbd_desc.o
USBD_ExtPropertiesDesc3                           Debug/usbd_desc.o
USBD_GetRxCount                                   Debug/usbd_ioreq.o
USBD_GetString                                    Debug/usbd_req.o
                                                  Debug/usbd_desc.o
USBD_Init                                         Debug/usbd_core.o
                                                  Debug/twb_usb.o
USBD_IsoINIncomplete                              Debug/usbd_core.o
USBD_IsoOUTIncomplete                             Debug/usbd_core.o
USBD_LangIDDesc                                   Debug/usbd_desc.o
USBD_OSStrDesc                                    Debug/usbd_desc.o
USBD_OTG_ISR_Handler                              Debug/usb_dcd_int.o
                                                  Debug/twb_usb.o
USBD_ParseSetupRequest                            Debug/usbd_req.o
                                                  Debug/usbd_core.o
USBD_Reset                                        Debug/usbd_core.o
USBD_Resume                                       Debug/usbd_core.o
USBD_SOF                                          Debug/usbd_core.o
USBD_SetCfg                                       Debug/usbd_core.o
                                                  Debug/usbd_req.o
USBD_SetupStage                                   Debug/usbd_core.o
USBD_StdDevReq                                    Debug/usbd_req.o
                                                  Debug/usbd_core.o
USBD_StdEPReq                                     Debug/usbd_req.o
                                                  Debug/usbd_core.o
USBD_StdItfReq                                    Debug/usbd_req.o
                                                  Debug/usbd_core.o
USBD_StrDesc                                      Debug/usbd_req.o
                                                  Debug/usbd_desc.o
USBD_Suspend                                      Debug/usbd_core.o
USBD_USR_ConfigStrDescriptor                      Debug/usbd_desc.o
USBD_USR_DeviceConfigured                         Debug/usbd_usr.o
USBD_USR_DeviceConnected                          Debug/usbd_usr.o
USBD_USR_DeviceDescriptor                         Debug/usbd_desc.o
USBD_USR_DeviceDisconnected                       Debug/usbd_usr.o
USBD_USR_DeviceReset                              Debug/usbd_usr.o
USBD_USR_DeviceResumed                            Debug/usbd_usr.o
USBD_USR_DeviceSuspended                          Debug/usbd_usr.o
USBD_USR_ExtCompatIDFeatureDescriptor             Debug/usbd_desc.o
USBD_USR_ExtPropertiesFeatureDescriptor           Debug/usbd_desc.o
USBD_USR_Init                                     Debug/usbd_usr.o
USBD_USR_InterfaceStrDescriptor                   Debug/usbd_desc.o
USBD_USR_LangIDStrDescriptor                      Debug/usbd_desc.o
USBD_USR_ManufacturerStrDescriptor                Debug/usbd_desc.o
USBD_USR_OSStrDescriptor                          Debug/usbd_desc.o
USBD_USR_ProductStrDescriptor                     Debug/usbd_desc.o
USBD_USR_SerialStrDescriptor                      Debug/usbd_desc.o
USBD_VendDevReq                                   Debug/usbd_req.o
                                                  Debug/usbd_core.o
USBD_cfg_status                                   Debug/usbd_req.o
USBD_default_cfg                                  Debug/usbd_req.o
USBD_ep_status                                    Debug/usbd_req.o
USB_Console_Buffer                                Debug/usbd_cdc_core.o
                                                  Debug/cli.o
                                                  Debug/twb_usb.o
USB_Debug_Buffer                                  Debug/usbd_cdc_core.o
                                                  Debug/twb_usb.o
USB_OTG_ActiveRemoteWakeup                        Debug/usb_core.o
USB_OTG_BSP_ConfigVBUS                            Debug/usb_bsp.o
USB_OTG_BSP_DriveVBUS                             Debug/usb_bsp.o
USB_OTG_BSP_EnableInterrupt                       Debug/usb_bsp.o
                                                  Debug/usbd_core.o
USB_OTG_BSP_Init                                  Debug/usb_bsp.o
                                                  Debug/usbd_core.o
USB_OTG_BSP_mDelay                                Debug/usb_bsp.o
                                                  Debug/usb_core_cfg.o
                                                  Debug/usb_core.o
USB_OTG_BSP_uDelay                                Debug/usb_bsp.o
                                                  Debug/usb_core_io.o
                                                  Debug/usb_core_cfg.o
USB_OTG_CoreInit                                  Debug/usb_core_cfg.o
                                                  Debug/usb_dcd.o
USB_OTG_CoreInitDev                               Debug/usb_core.o
                                                  Debug/usb_dcd.o
USB_OTG_CoreReset                                 Debug/usb_core_cfg.o
USB_OTG_DisableGlobalInt                          Debug/usb_core_int.o
                                                  Debug/usb_dcd.o
USB_OTG_EP0Activate                               Debug/usb_core_ep.o
                                                  Debug/usb_dcd_int.o
USB_OTG_EP0StartXfer                              Debug/usb_core_io.o
                                                  Debug/usb_dcd.o
USB_OTG_EP0_OutStart                              Debug/usb_core_ep.o
                                                  Debug/usb_dcd_int.o
                                                  Debug/usbd_req.o
                                                  Debug/usbd_ioreq.o
USB_OTG_EPActivate                                Debug/usb_core_ep.o
                                                  Debug/usb_dcd.o
USB_OTG_EPClearStall                              Debug/usb_core_ep.o
                                                  Debug/usb_dcd.o
USB_OTG_EPDeactivate                              Debug/usb_core_ep.o
                                                  Debug/usb_dcd.o
USB_OTG_EPSetStall                                Debug/usb_core_ep.o
                                                  Debug/usb_dcd.o
USB_OTG_EPStartXfer                               Debug/usb_core_io.o
                                                  Debug/usb_dcd.o
USB_OTG_EnableCommonInt                           Debug/usb_core_int.o
                                                  Debug/usb_core_cfg.o
USB_OTG_EnableDevInt                              Debug/usb_core_int.o
                                                  Debug/usb_core.o
USB_OTG_EnableGlobalInt                           Debug/usb_core_int.o
                                                  Debug/usb_dcd.o
USB_OTG_FlushRxFifo                               Debug/usb_core_io.o
                                                  Debug/usb_dcd.o
                                                  Debug/usb_core.o
USB_OTG_FlushTxFifo                               Debug/usb_core_io.o
                                                  Debug/usb_dcd_int.o
                                                  Debug/usb_dcd.o
                                                  Debug/usb_core.o
USB_OTG_GetDeviceSpeed                            Debug/usb_core.o
USB_OTG_GetEPStatus                               Debug/usb_core_ep.o
                                                  Debug/usb_dcd.o
USB_OTG_GetMode                                   Debug/usb_core.o
USB_OTG_InitDevSpeed                              Debug/usb_core.o
USB_OTG_IsDeviceMode                              Debug/usb_core.o
USB_OTG_IsHostMode                                Debug/usb_core.o
USB_OTG_ReadCoreItr                               Debug/usb_core.o
                                                  Debug/usb_dcd_int.o
USB_OTG_ReadDevAllInEPItr                         Debug/usb_core.o
                                                  Debug/usb_dcd_int.o
USB_OTG_ReadDevAllOutEp_itr                       Debug/usb_core.o
                                                  Debug/usb_dcd_int.o
USB_OTG_ReadDevOutEP_itr                          Debug/usb_core.o
                                                  Debug/usb_dcd_int.o
USB_OTG_ReadOtgItr                                Debug/usb_core.o
USB_OTG_ReadPacket                                Debug/usb_core_io.o
                                                  Debug/usb_dcd_int.o
USB_OTG_SelectCore                                Debug/usb_core_cfg.o
                                                  Debug/usb_dcd.o
USB_OTG_SetCurrentMode                            Debug/usb_core_cfg.o
                                                  Debug/usb_dcd.o
USB_OTG_SetEPStatus                               Debug/usb_core_ep.o
                                                  Debug/usb_dcd.o
USB_OTG_StopDevice                                Debug/usb_core.o
USB_OTG_UngateClock                               Debug/usb_core.o
USB_OTG_WritePacket                               Debug/usb_core_io.o
                                                  Debug/usb_dcd_int.o
USB_OTG_dev                                       Debug/twb_usb.o
USB_Telemetry_Buffer                              Debug/usbd_cdc_core.o
                                                  Debug/twb_usb.o
USR_cb                                            Debug/usbd_usr.o
                                                  Debug/twb_usb.o
USR_desc                                          Debug/usbd_desc.o
                                                  Debug/twb_usb.o
UsageFault_Handler                                Debug/startup_stm32f4xx.o
WWDG_IRQHandler                                   Debug/startup_stm32f4xx.o
WiFiActionTimer                                   Debug/twb_timer.o
                                                  Debug/wifi.o
WiFiAux1                                          Debug/twb_config.o
WiFiAux2                                          Debug/twb_config.o
WiFiCmds                                          Debug/twb_timer.o
                                                  Debug/wifi.o
WiFiHeartBeatTimer                                Debug/twb_timer.o
                                                  Debug/msg_parser.o
                                                  Debug/commo.o
WiFiInWatchDog                                    Debug/twb_timer.o
                                                  Debug/nivek_system.o
                                                  Debug/commo.o
WiFiIsConnected                                   Debug/twb_config.o
                                                  Debug/nivek_system.o
                                                  Debug/main.o
                                                  Debug/commo.o
WiFiPitch                                         Debug/twb_config.o
                                                  Debug/nivek_system.o
                                                  Debug/pwm_capture.o
                                                  Debug/ctrl_loop_pid.o
                                                  Debug/ctrl_loop_commo.o
WiFiRoll                                          Debug/twb_config.o
                                                  Debug/nivek_system.o
                                                  Debug/pwm_capture.o
                                                  Debug/ctrl_loop_pid.o
                                                  Debug/ctrl_loop_commo.o
WiFiState                                         Debug/wifi.o
                                                  Debug/cli.o
                                                  Debug/stm32f4xx_it.o
                                                  Debug/msg_parser.o
WiFiThrottle                                      Debug/twb_config.o
                                                  Debug/nivek_system.o
                                                  Debug/pwm_capture.o
                                                  Debug/ctrl_loop_pid.o
                                                  Debug/ctrl_loop_commo.o
WiFiYaw                                           Debug/twb_config.o
                                                  Debug/nivek_system.o
                                                  Debug/pwm_capture.o
                                                  Debug/ctrl_loop_commo.o
                                                  Debug/autopilot.o
Xh                                                Debug/lsm303_mag.o
Yh                                                Debug/lsm303_mag.o
_GPIOC                                            Debug/pwm_source.o
__MagDenom                                        Debug/lsm303_mag.o
__MagPitch                                        Debug/lsm303_mag.o
__MagRoll                                         Debug/lsm303_mag.o
__adcCell1                                        Debug/lipo_adc.o
__adcCell2                                        Debug/lipo_adc.o
__adcCell3                                        Debug/lipo_adc.o
__adcChannelSeq                                   Debug/lipo_adc.o
__addSensor                                       Debug/snsr_mgmt.o
__adddf3                                          k:/electronics/sysgcc/arm-eabi/bin/../lib/gcc/arm-eabi/5.2.0/thumb/fpu/cortex_m4\libgcc.a(_arm_addsubdf3.o)
__addsf3                                          k:/electronics/sysgcc/arm-eabi/bin/../lib/gcc/arm-eabi/5.2.0/thumb/fpu/cortex_m4\libgcc.a(_arm_addsubsf3.o)
__adxlAcc_currentRaw                              Debug/adxl345.o
__adxlAcc_offset                                  Debug/adxl345.o
__aeabi_cdcmpeq                                   k:/electronics/sysgcc/arm-eabi/bin/../lib/gcc/arm-eabi/5.2.0/thumb/fpu/cortex_m4\libgcc.a(_arm_cmpdf2.o)
__aeabi_cdcmple                                   k:/electronics/sysgcc/arm-eabi/bin/../lib/gcc/arm-eabi/5.2.0/thumb/fpu/cortex_m4\libgcc.a(_arm_cmpdf2.o)
__aeabi_cdrcmple                                  k:/electronics/sysgcc/arm-eabi/bin/../lib/gcc/arm-eabi/5.2.0/thumb/fpu/cortex_m4\libgcc.a(_arm_cmpdf2.o)
__aeabi_d2f                                       k:/electronics/sysgcc/arm-eabi/bin/../lib/gcc/arm-eabi/5.2.0/thumb/fpu/cortex_m4\libgcc.a(_arm_truncdfsf2.o)
                                                  k:/electronics/sysgcc/arm-eabi/bin/../lib/gcc/arm-eabi/5.2.0/../../../../arm-eabi/lib/thumb/fpu/cortex_m4\libm.a(lib_a-wf_pow.o)
                                                  Debug/twb_math.o
__aeabi_d2iz                                      k:/electronics/sysgcc/arm-eabi/bin/../lib/gcc/arm-eabi/5.2.0/thumb/fpu/cortex_m4\libgcc.a(_arm_fixdfsi.o)
                                                  Debug/twb_math.o
__aeabi_dadd                                      k:/electronics/sysgcc/arm-eabi/bin/../lib/gcc/arm-eabi/5.2.0/thumb/fpu/cortex_m4\libgcc.a(_arm_addsubdf3.o)
                                                  k:/electronics/sysgcc/arm-eabi/bin/../lib/gcc/arm-eabi/5.2.0/../../../../arm-eabi/lib/thumb/fpu/cortex_m4\libm.a(lib_a-s_rint.o)
                                                  k:/electronics/sysgcc/arm-eabi/bin/../lib/gcc/arm-eabi/5.2.0/../../../../arm-eabi/lib/thumb/fpu/cortex_m4\libm.a(lib_a-e_sqrt.o)
                                                  Debug/kalman_calc.o
                                                  Debug/twb_math.o
                                                  Debug/matmath.o
__aeabi_dcmpeq                                    k:/electronics/sysgcc/arm-eabi/bin/../lib/gcc/arm-eabi/5.2.0/thumb/fpu/cortex_m4\libgcc.a(_arm_cmpdf2.o)
                                                  k:/electronics/sysgcc/arm-eabi/bin/../lib/gcc/arm-eabi/5.2.0/../../../../arm-eabi/lib/thumb/fpu/cortex_m4\libm.a(lib_a-wf_pow.o)
                                                  Debug/twb_math.o
                                                  Debug/matmath.o
__aeabi_dcmpge                                    k:/electronics/sysgcc/arm-eabi/bin/../lib/gcc/arm-eabi/5.2.0/thumb/fpu/cortex_m4\libgcc.a(_arm_cmpdf2.o)
                                                  Debug/matmath.o
__aeabi_dcmpgt                                    k:/electronics/sysgcc/arm-eabi/bin/../lib/gcc/arm-eabi/5.2.0/thumb/fpu/cortex_m4\libgcc.a(_arm_cmpdf2.o)
                                                  Debug/twb_math.o
__aeabi_dcmple                                    k:/electronics/sysgcc/arm-eabi/bin/../lib/gcc/arm-eabi/5.2.0/thumb/fpu/cortex_m4\libgcc.a(_arm_cmpdf2.o)
__aeabi_dcmplt                                    k:/electronics/sysgcc/arm-eabi/bin/../lib/gcc/arm-eabi/5.2.0/thumb/fpu/cortex_m4\libgcc.a(_arm_cmpdf2.o)
                                                  k:/electronics/sysgcc/arm-eabi/bin/../lib/gcc/arm-eabi/5.2.0/../../../../arm-eabi/lib/thumb/fpu/cortex_m4\libm.a(lib_a-w_sqrt.o)
                                                  Debug/kalman_calc.o
                                                  Debug/twb_math.o
                                                  Debug/matmath.o
__aeabi_ddiv                                      k:/electronics/sysgcc/arm-eabi/bin/../lib/gcc/arm-eabi/5.2.0/thumb/fpu/cortex_m4\libgcc.a(_arm_muldivdf3.o)
                                                  k:/electronics/sysgcc/arm-eabi/bin/../lib/gcc/arm-eabi/5.2.0/../../../../arm-eabi/lib/thumb/fpu/cortex_m4\libm.a(lib_a-e_sqrt.o)
                                                  k:/electronics/sysgcc/arm-eabi/bin/../lib/gcc/arm-eabi/5.2.0/../../../../arm-eabi/lib/thumb/fpu/cortex_m4\libm.a(lib_a-wf_pow.o)
                                                  k:/electronics/sysgcc/arm-eabi/bin/../lib/gcc/arm-eabi/5.2.0/../../../../arm-eabi/lib/thumb/fpu/cortex_m4\libm.a(lib_a-w_sqrt.o)
                                                  Debug/twb_math.o
                                                  Debug/matmath.o
__aeabi_dmul                                      k:/electronics/sysgcc/arm-eabi/bin/../lib/gcc/arm-eabi/5.2.0/thumb/fpu/cortex_m4\libgcc.a(_arm_muldivdf3.o)
                                                  k:/electronics/sysgcc/arm-eabi/bin/../lib/gcc/arm-eabi/5.2.0/../../../../arm-eabi/lib/thumb/fpu/cortex_m4\libm.a(lib_a-e_sqrt.o)
                                                  Debug/matmath.o
__aeabi_drsub                                     k:/electronics/sysgcc/arm-eabi/bin/../lib/gcc/arm-eabi/5.2.0/thumb/fpu/cortex_m4\libgcc.a(_arm_addsubdf3.o)
__aeabi_dsub                                      k:/electronics/sysgcc/arm-eabi/bin/../lib/gcc/arm-eabi/5.2.0/thumb/fpu/cortex_m4\libgcc.a(_arm_addsubdf3.o)
                                                  k:/electronics/sysgcc/arm-eabi/bin/../lib/gcc/arm-eabi/5.2.0/../../../../arm-eabi/lib/thumb/fpu/cortex_m4\libm.a(lib_a-s_rint.o)
                                                  k:/electronics/sysgcc/arm-eabi/bin/../lib/gcc/arm-eabi/5.2.0/../../../../arm-eabi/lib/thumb/fpu/cortex_m4\libm.a(lib_a-e_sqrt.o)
                                                  Debug/kalman_calc.o
                                                  Debug/twb_math.o
                                                  Debug/matmath.o
__aeabi_f2d                                       k:/electronics/sysgcc/arm-eabi/bin/../lib/gcc/arm-eabi/5.2.0/thumb/fpu/cortex_m4\libgcc.a(_arm_addsubdf3.o)
                                                  k:/electronics/sysgcc/arm-eabi/bin/../lib/gcc/arm-eabi/5.2.0/../../../../arm-eabi/lib/thumb/fpu/cortex_m4\libm.a(lib_a-wf_pow.o)
                                                  Debug/twb_math.o
__aeabi_fadd                                      k:/electronics/sysgcc/arm-eabi/bin/../lib/gcc/arm-eabi/5.2.0/thumb/fpu/cortex_m4\libgcc.a(_arm_addsubsf3.o)
__aeabi_frsub                                     k:/electronics/sysgcc/arm-eabi/bin/../lib/gcc/arm-eabi/5.2.0/thumb/fpu/cortex_m4\libgcc.a(_arm_addsubsf3.o)
__aeabi_fsub                                      k:/electronics/sysgcc/arm-eabi/bin/../lib/gcc/arm-eabi/5.2.0/thumb/fpu/cortex_m4\libgcc.a(_arm_addsubsf3.o)
__aeabi_i2d                                       k:/electronics/sysgcc/arm-eabi/bin/../lib/gcc/arm-eabi/5.2.0/thumb/fpu/cortex_m4\libgcc.a(_arm_addsubdf3.o)
                                                  Debug/twb_math.o
__aeabi_i2f                                       k:/electronics/sysgcc/arm-eabi/bin/../lib/gcc/arm-eabi/5.2.0/thumb/fpu/cortex_m4\libgcc.a(_arm_addsubsf3.o)
__aeabi_l2d                                       k:/electronics/sysgcc/arm-eabi/bin/../lib/gcc/arm-eabi/5.2.0/thumb/fpu/cortex_m4\libgcc.a(_arm_addsubdf3.o)
__aeabi_l2f                                       k:/electronics/sysgcc/arm-eabi/bin/../lib/gcc/arm-eabi/5.2.0/thumb/fpu/cortex_m4\libgcc.a(_arm_addsubsf3.o)
                                                  Debug/ms5611.o
__aeabi_ui2d                                      k:/electronics/sysgcc/arm-eabi/bin/../lib/gcc/arm-eabi/5.2.0/thumb/fpu/cortex_m4\libgcc.a(_arm_addsubdf3.o)
__aeabi_ui2f                                      k:/electronics/sysgcc/arm-eabi/bin/../lib/gcc/arm-eabi/5.2.0/thumb/fpu/cortex_m4\libgcc.a(_arm_addsubsf3.o)
__aeabi_ul2d                                      k:/electronics/sysgcc/arm-eabi/bin/../lib/gcc/arm-eabi/5.2.0/thumb/fpu/cortex_m4\libgcc.a(_arm_addsubdf3.o)
__aeabi_ul2f                                      k:/electronics/sysgcc/arm-eabi/bin/../lib/gcc/arm-eabi/5.2.0/thumb/fpu/cortex_m4\libgcc.a(_arm_addsubsf3.o)
__asinLookup                                      Debug/twb_math.o
__autopilotDeltaT                                 Debug/autopilot.o
__bmp085Calib                                     Debug/bmp085.o
__bmp085Filter                                    Debug/bmp085.o
__bmp085ParamB5                                   Debug/bmp085.o
__bmp085ReadState                                 Debug/bmp085.o
__bmp085_altitudeM                                Debug/bmp085.o
__bmp085_altitudeRaw                              Debug/bmp085.o
__bmp085_altitudeZero                             Debug/bmp085.o
__bmp085_defaultAltitudeZero                      Debug/bmp085.o
__bmp085_pressure                                 Debug/bmp085.o
__bmp085_temperature                              Debug/bmp085.o
__cli_temp_IntBuffer                              Debug/cli.o
__cmpdf2                                          k:/electronics/sysgcc/arm-eabi/bin/../lib/gcc/arm-eabi/5.2.0/thumb/fpu/cortex_m4\libgcc.a(_arm_cmpdf2.o)
__commandIdx                                      Debug/wifi.o
__commandLength                                   Debug/wifi.o
__commo_MsgBegin                                  Debug/commo.o
__commo_MsgCommit                                 Debug/commo.o
__commonSensorBuffer                              Debug/snsr_main.o
                                                  Debug/itg3200.o
                                                  Debug/hmc5883.o
                                                  Debug/adxl345.o
__configureEXTI                                   Debug/main.o
__createTimer                                     Debug/twb_timer.o
__ctrlLoopDeltaT                                  Debug/ctrl_loop_pid.o
__ctrlLoop_resolve_DFilter                        Debug/ctrl_loop_commo.o
                                                  Debug/ctrl_loop.o
__ctrlLoop_setPIDConstant                         Debug/ctrl_loop_commo.o
__ctype_ptr__                                     k:/electronics/sysgcc/arm-eabi/bin/../lib/gcc/arm-eabi/5.2.0/../../../../arm-eabi/lib/thumb/fpu/cortex_m4\libc.a(lib_a-ctype_.o)
                                                  k:/electronics/sysgcc/arm-eabi/bin/../lib/gcc/arm-eabi/5.2.0/../../../../arm-eabi/lib/thumb/fpu/cortex_m4\libc.a(lib_a-strtol.o)
__customHeap                                      Debug/memory_mgmt.o
__dbg_Buffer                                      Debug/twb_debug.o
__dbg_BufferHead                                  Debug/twb_debug.o
__dbg_BufferTail                                  Debug/twb_debug.o
__debugReady                                      Debug/twb_debug.o
__debug_SendOverUART                              Debug/twb_debug.o
__debug_SendOverUSB                               Debug/twb_debug.o
__debug_Temp_IntBuffer                            Debug/twb_debug.o
__debug_addCh                                     Debug/twb_debug.o
__debug_shouldForward                             Debug/twb_debug.o
__disableL3GD20FiFo                               Debug/l3g20.o
__divdf3                                          k:/electronics/sysgcc/arm-eabi/bin/../lib/gcc/arm-eabi/5.2.0/thumb/fpu/cortex_m4\libgcc.a(_arm_muldivdf3.o)
__dstAddress                                      Debug/msg_parser.o
__eepromReadBuffer                                Debug/twb_serial_eeprom.o
__eepromWriteBuffer                               Debug/twb_serial_eeprom.o
__enableL3GD20FiFo                                Debug/l3g20.o
__eqdf2                                           k:/electronics/sysgcc/arm-eabi/bin/../lib/gcc/arm-eabi/5.2.0/thumb/fpu/cortex_m4\libgcc.a(_arm_cmpdf2.o)
__errno                                           Debug/twb_config.o
                                                  k:/electronics/sysgcc/arm-eabi/bin/../lib/gcc/arm-eabi/5.2.0/../../../../arm-eabi/lib/thumb/fpu/cortex_m4\libc.a(lib_a-syscalls.o)
                                                  k:/electronics/sysgcc/arm-eabi/bin/../lib/gcc/arm-eabi/5.2.0/../../../../arm-eabi/lib/thumb/fpu/cortex_m4\libm.a(lib_a-wf_pow.o)
                                                  k:/electronics/sysgcc/arm-eabi/bin/../lib/gcc/arm-eabi/5.2.0/../../../../arm-eabi/lib/thumb/fpu/cortex_m4\libm.a(lib_a-w_sqrt.o)
__escFrontTargetPower                             Debug/pwm_source.o
__escLeftTargetPower                              Debug/pwm_source.o
__escRearTargetPower                              Debug/pwm_source.o
__escRightTargetPower                             Debug/pwm_source.o
__extendsfdf2                                     k:/electronics/sysgcc/arm-eabi/bin/../lib/gcc/arm-eabi/5.2.0/thumb/fpu/cortex_m4\libgcc.a(_arm_addsubdf3.o)
__fdlib_version                                   k:/electronics/sysgcc/arm-eabi/bin/../lib/gcc/arm-eabi/5.2.0/../../../../arm-eabi/lib/thumb/fpu/cortex_m4\libm.a(lib_a-s_lib_ver.o)
                                                  k:/electronics/sysgcc/arm-eabi/bin/../lib/gcc/arm-eabi/5.2.0/../../../../arm-eabi/lib/thumb/fpu/cortex_m4\libm.a(lib_a-wf_pow.o)
                                                  k:/electronics/sysgcc/arm-eabi/bin/../lib/gcc/arm-eabi/5.2.0/../../../../arm-eabi/lib/thumb/fpu/cortex_m4\libm.a(lib_a-w_sqrt.o)
__fixdfsi                                         k:/electronics/sysgcc/arm-eabi/bin/../lib/gcc/arm-eabi/5.2.0/thumb/fpu/cortex_m4\libgcc.a(_arm_fixdfsi.o)
__flightCtrlUpdateMotor                           Debug/ctrl_loop_pid.o
__floatdidf                                       k:/electronics/sysgcc/arm-eabi/bin/../lib/gcc/arm-eabi/5.2.0/thumb/fpu/cortex_m4\libgcc.a(_arm_addsubdf3.o)
__floatdisf                                       k:/electronics/sysgcc/arm-eabi/bin/../lib/gcc/arm-eabi/5.2.0/thumb/fpu/cortex_m4\libgcc.a(_arm_addsubsf3.o)
__floatsidf                                       k:/electronics/sysgcc/arm-eabi/bin/../lib/gcc/arm-eabi/5.2.0/thumb/fpu/cortex_m4\libgcc.a(_arm_addsubdf3.o)
__floatsisf                                       k:/electronics/sysgcc/arm-eabi/bin/../lib/gcc/arm-eabi/5.2.0/thumb/fpu/cortex_m4\libgcc.a(_arm_addsubsf3.o)
__floatundidf                                     k:/electronics/sysgcc/arm-eabi/bin/../lib/gcc/arm-eabi/5.2.0/thumb/fpu/cortex_m4\libgcc.a(_arm_addsubdf3.o)
__floatundisf                                     k:/electronics/sysgcc/arm-eabi/bin/../lib/gcc/arm-eabi/5.2.0/thumb/fpu/cortex_m4\libgcc.a(_arm_addsubsf3.o)
__floatunsidf                                     k:/electronics/sysgcc/arm-eabi/bin/../lib/gcc/arm-eabi/5.2.0/thumb/fpu/cortex_m4\libgcc.a(_arm_addsubdf3.o)
__floatunsisf                                     k:/electronics/sysgcc/arm-eabi/bin/../lib/gcc/arm-eabi/5.2.0/thumb/fpu/cortex_m4\libgcc.a(_arm_addsubsf3.o)
__fp_lock_all                                     k:/electronics/sysgcc/arm-eabi/bin/../lib/gcc/arm-eabi/5.2.0/../../../../arm-eabi/lib/thumb/fpu/cortex_m4\libc.a(lib_a-findfp.o)
__fp_unlock_all                                   k:/electronics/sysgcc/arm-eabi/bin/../lib/gcc/arm-eabi/5.2.0/../../../../arm-eabi/lib/thumb/fpu/cortex_m4\libc.a(lib_a-findfp.o)
__fpclassifyd                                     k:/electronics/sysgcc/arm-eabi/bin/../lib/gcc/arm-eabi/5.2.0/../../../../arm-eabi/lib/thumb/fpu/cortex_m4\libm.a(lib_a-s_fpclassify.o)
                                                  k:/electronics/sysgcc/arm-eabi/bin/../lib/gcc/arm-eabi/5.2.0/../../../../arm-eabi/lib/thumb/fpu/cortex_m4\libm.a(lib_a-w_sqrt.o)
__fpclassifyf                                     k:/electronics/sysgcc/arm-eabi/bin/../lib/gcc/arm-eabi/5.2.0/../../../../arm-eabi/lib/thumb/fpu/cortex_m4\libm.a(lib_a-sf_fpclassify.o)
                                                  k:/electronics/sysgcc/arm-eabi/bin/../lib/gcc/arm-eabi/5.2.0/../../../../arm-eabi/lib/thumb/fpu/cortex_m4\libm.a(lib_a-wf_pow.o)
__gedf2                                           k:/electronics/sysgcc/arm-eabi/bin/../lib/gcc/arm-eabi/5.2.0/thumb/fpu/cortex_m4\libgcc.a(_arm_cmpdf2.o)
__gps_sendCommand                                 Debug/gps.o
__gtdf2                                           k:/electronics/sysgcc/arm-eabi/bin/../lib/gcc/arm-eabi/5.2.0/thumb/fpu/cortex_m4\libgcc.a(_arm_cmpdf2.o)
__heapPtr                                         Debug/memory_mgmt.o
__hexLookup                                       Debug/twb_debug.o
                                                  Debug/stm32f4xx_it.o
__hf_stacked_pc                                   Debug/stm32f4xx_it.o
__hmcMagMax                                       Debug/hmc5883.o
__hmcMagMin                                       Debug/hmc5883.o
__i2cLastError                                    Debug/twb_i2c_stm32f4.o
__i2cTempInBuffer                                 Debug/twb_i2c.o
__i2cTempOutBuffer                                Debug/twb_i2c.o
__i2c_EnableInterrupts                            Debug/twb_i2c_stm32f4.o
__ieee754_powf                                    k:/electronics/sysgcc/arm-eabi/bin/../lib/gcc/arm-eabi/5.2.0/../../../../arm-eabi/lib/thumb/fpu/cortex_m4\libm.a(lib_a-ef_pow.o)
                                                  k:/electronics/sysgcc/arm-eabi/bin/../lib/gcc/arm-eabi/5.2.0/../../../../arm-eabi/lib/thumb/fpu/cortex_m4\libm.a(lib_a-wf_pow.o)
__ieee754_sqrt                                    k:/electronics/sysgcc/arm-eabi/bin/../lib/gcc/arm-eabi/5.2.0/../../../../arm-eabi/lib/thumb/fpu/cortex_m4\libm.a(lib_a-e_sqrt.o)
                                                  k:/electronics/sysgcc/arm-eabi/bin/../lib/gcc/arm-eabi/5.2.0/../../../../arm-eabi/lib/thumb/fpu/cortex_m4\libm.a(lib_a-w_sqrt.o)
__ieee754_sqrtf                                   k:/electronics/sysgcc/arm-eabi/bin/../lib/gcc/arm-eabi/5.2.0/../../../../arm-eabi/lib/thumb/fpu/cortex_m4\libm.a(lib_a-ef_sqrt.o)
                                                  k:/electronics/sysgcc/arm-eabi/bin/../lib/gcc/arm-eabi/5.2.0/../../../../arm-eabi/lib/thumb/fpu/cortex_m4\libm.a(lib_a-ef_pow.o)
__imu_LSM303_MagCalWritten                        Debug/lsm303_mag.o
__imu_lsm303_mag_getTiltHeading                   Debug/lsm303_mag.o
__imu_mpu60x0_acc_dataReady                       Debug/mpu60x0_acc.o
__imu_ms5611_readCalibration                      Debug/ms5611.o
__imu_ms5611_readPressure                         Debug/ms5611.o
__imu_ms5611_readTemperature                      Debug/ms5611.o
__imu_ms5611_startPressureConversion              Debug/ms5611.o
__imu_ms5611_startPressureRead                    Debug/ms5611.o
__imu_ms5611_startTemperatureConversion           Debug/ms5611.o
__imu_ms5611_startTemperatureRead                 Debug/ms5611.o
__initMain                                        Debug/main.o
__initMainLoopTimer                               Debug/main.o
__initModules                                     Debug/main.o
__initSensorData                                  Debug/snsr_main.o
__ipnumb                                          Debug/usb_dcd_int.o
__itg3200XFilter                                  Debug/itg3200.o
__itg3200YFilter                                  Debug/itg3200.o
__itg3200ZFilter                                  Debug/itg3200.o
__itgOffset                                       Debug/itg3200.o
__l3gd20DataRateSeconds                           Debug/l3g20.o
__l3gd20Factor                                    Debug/l3g20.o
__l3gd20LSBSensitivity                            Debug/l3g20.o
__l3gd20Offset                                    Debug/l3g20.o
__l3gd20_calculateScaleValue                      Debug/l3g20.o
__l3gd20_getDataRateSeconds                       Debug/l3g20.o
__l3gdGyroExtendedData                            Debug/l3g20.o
__lastDebugToggle                                 Debug/twb_debug.o
__lastFlag                                        Debug/twb_i2c_stm32f4.o
__ledf2                                           k:/electronics/sysgcc/arm-eabi/bin/../lib/gcc/arm-eabi/5.2.0/thumb/fpu/cortex_m4\libgcc.a(_arm_cmpdf2.o)
__lipoADC                                         Debug/lipo_adc.o
__lipoAdcFilter1                                  Debug/lipo_adc.o
__lipoAdcFilter2                                  Debug/lipo_adc.o
__lipoAdcFilter3                                  Debug/lipo_adc.o
__lsbSensitivity                                  Debug/mpu60x0_gryo.o
__lsm303AccX                                      Debug/lsm303_acc.o
__lsm303AccXFilter                                Debug/lsm303_acc.o
__lsm303AccY                                      Debug/lsm303_acc.o
__lsm303AccYFilter                                Debug/lsm303_acc.o
__lsm303AccZ                                      Debug/lsm303_acc.o
__lsm303AccZFilter                                Debug/lsm303_acc.o
__lsm303CalibrationMagXFilter                     Debug/lsm303_mag.o
__lsm303CalibrationMagYFilter                     Debug/lsm303_mag.o
__lsm303CalibrationMagZFilter                     Debug/lsm303_mag.o
__lsm303MagMax                                    Debug/lsm303_mag.o
__lsm303MagMin                                    Debug/lsm303_mag.o
__lsm303MagXFilter                                Debug/lsm303_mag.o
__lsm303MagYFilter                                Debug/lsm303_mag.o
__lsm303MagZFilter                                Debug/lsm303_mag.o
__lsm303acc_currentRaw                            Debug/lsm303_acc.o
__lsm303acc_offset                                Debug/lsm303_acc.o
__lsmacc303_DisableFifo                           Debug/lsm303_acc.o
__lsmacc303_EnableFifo                            Debug/lsm303_acc.o
__ltdf2                                           k:/electronics/sysgcc/arm-eabi/bin/../lib/gcc/arm-eabi/5.2.0/thumb/fpu/cortex_m4\libgcc.a(_arm_cmpdf2.o)
__main_sendVersionInfo                            Debug/main.o
__malloc_av_                                      k:/electronics/sysgcc/arm-eabi/bin/../lib/gcc/arm-eabi/5.2.0/../../../../arm-eabi/lib/thumb/fpu/cortex_m4\libc.a(lib_a-mallocr.o)
                                                  k:/electronics/sysgcc/arm-eabi/bin/../lib/gcc/arm-eabi/5.2.0/../../../../arm-eabi/lib/thumb/fpu/cortex_m4\libc.a(lib_a-freer.o)
__malloc_current_mallinfo                         k:/electronics/sysgcc/arm-eabi/bin/../lib/gcc/arm-eabi/5.2.0/../../../../arm-eabi/lib/thumb/fpu/cortex_m4\libc.a(lib_a-mallocr.o)
                                                  k:/electronics/sysgcc/arm-eabi/bin/../lib/gcc/arm-eabi/5.2.0/../../../../arm-eabi/lib/thumb/fpu/cortex_m4\libc.a(lib_a-freer.o)
__malloc_lock                                     k:/electronics/sysgcc/arm-eabi/bin/../lib/gcc/arm-eabi/5.2.0/../../../../arm-eabi/lib/thumb/fpu/cortex_m4\libc.a(lib_a-mlock.o)
                                                  k:/electronics/sysgcc/arm-eabi/bin/../lib/gcc/arm-eabi/5.2.0/../../../../arm-eabi/lib/thumb/fpu/cortex_m4\libc.a(lib_a-freer.o)
                                                  k:/electronics/sysgcc/arm-eabi/bin/../lib/gcc/arm-eabi/5.2.0/../../../../arm-eabi/lib/thumb/fpu/cortex_m4\libc.a(lib_a-mallocr.o)
__malloc_max_sbrked_mem                           k:/electronics/sysgcc/arm-eabi/bin/../lib/gcc/arm-eabi/5.2.0/../../../../arm-eabi/lib/thumb/fpu/cortex_m4\libc.a(lib_a-mallocr.o)
__malloc_max_total_mem                            k:/electronics/sysgcc/arm-eabi/bin/../lib/gcc/arm-eabi/5.2.0/../../../../arm-eabi/lib/thumb/fpu/cortex_m4\libc.a(lib_a-mallocr.o)
__malloc_sbrk_base                                k:/electronics/sysgcc/arm-eabi/bin/../lib/gcc/arm-eabi/5.2.0/../../../../arm-eabi/lib/thumb/fpu/cortex_m4\libc.a(lib_a-mallocr.o)
                                                  k:/electronics/sysgcc/arm-eabi/bin/../lib/gcc/arm-eabi/5.2.0/../../../../arm-eabi/lib/thumb/fpu/cortex_m4\libc.a(lib_a-freer.o)
__malloc_top_pad                                  k:/electronics/sysgcc/arm-eabi/bin/../lib/gcc/arm-eabi/5.2.0/../../../../arm-eabi/lib/thumb/fpu/cortex_m4\libc.a(lib_a-mallocr.o)
                                                  k:/electronics/sysgcc/arm-eabi/bin/../lib/gcc/arm-eabi/5.2.0/../../../../arm-eabi/lib/thumb/fpu/cortex_m4\libc.a(lib_a-freer.o)
__malloc_trim_threshold                           k:/electronics/sysgcc/arm-eabi/bin/../lib/gcc/arm-eabi/5.2.0/../../../../arm-eabi/lib/thumb/fpu/cortex_m4\libc.a(lib_a-mallocr.o)
                                                  k:/electronics/sysgcc/arm-eabi/bin/../lib/gcc/arm-eabi/5.2.0/../../../../arm-eabi/lib/thumb/fpu/cortex_m4\libc.a(lib_a-freer.o)
__malloc_unlock                                   k:/electronics/sysgcc/arm-eabi/bin/../lib/gcc/arm-eabi/5.2.0/../../../../arm-eabi/lib/thumb/fpu/cortex_m4\libc.a(lib_a-mlock.o)
                                                  k:/electronics/sysgcc/arm-eabi/bin/../lib/gcc/arm-eabi/5.2.0/../../../../arm-eabi/lib/thumb/fpu/cortex_m4\libc.a(lib_a-freer.o)
                                                  k:/electronics/sysgcc/arm-eabi/bin/../lib/gcc/arm-eabi/5.2.0/../../../../arm-eabi/lib/thumb/fpu/cortex_m4\libc.a(lib_a-mallocr.o)
__medianFilterFloatTempHistory                    Debug/Median.o
__medianFilterSignedTempHistory                   Debug/Median.o
__medianFilterTempHistory                         Debug/Median.o
__messageInProcessFlag                            Debug/commo.o
__mpu60x0AccOffset                                Debug/mpu60x0_acc.o
__mpu60x0AccScaler                                Debug/mpu60x0_acc.o
__mpu60x0DataRateSeconds                          Debug/mpu60x0_gryo.o
__mpu60x0Factor                                   Debug/mpu60x0_gryo.o
__mpu60x0GyroExtendedData                         Debug/mpu60x0_gryo.o
__mpu60x0GyroOffset                               Debug/mpu60x0_gryo.o
__mpu60x0LSBSensitivity                           Debug/mpu60x0_gryo.o
__mpu60x0_getDataRateSeconds                      Debug/mpu60x0_gryo.o
__mpu60x0_gyro_calculateScaleValue                Debug/mpu60x0_gryo.o
__mpuAcc60x0XFilter                               Debug/mpu60x0_acc.o
__mpuAcc60x0YFilter                               Debug/mpu60x0_acc.o
__mpuAcc60x0ZFilter                               Debug/mpu60x0_acc.o
__mpuGyro60x0XFilter                              Debug/mpu60x0_gryo.o
__mpuGyro60x0YFilter                              Debug/mpu60x0_gryo.o
__mpuGyro60x0ZFilter                              Debug/mpu60x0_gryo.o
__ms5611Calib                                     Debug/ms5611.o
__ms5611Filter                                    Debug/ms5611.o
__ms5611ReadState                                 Debug/ms5611.o
__ms5611_altitudeM                                Debug/ms5611.o
__ms5611_altitudeRaw                              Debug/ms5611.o
__ms5611_altitudeZero                             Debug/ms5611.o
__ms5611_defaultAltitudeZero                      Debug/ms5611.o
__ms5611_deltaTemperature                         Debug/ms5611.o
__ms5611_pressure                                 Debug/ms5611.o
__ms5611_processPressure                          Debug/ms5611.o
__ms5611_processTemperature                       Debug/ms5611.o
__ms5611_rawPressure                              Debug/ms5611.o
__ms5611_rawTemperature                           Debug/ms5611.o
__ms5611_readRawPressure                          Debug/ms5611.o
__ms5611_readRawTemperature                       Debug/ms5611.o
__ms5611_sensorReading                            Debug/ms5611.o
__ms5611_temperature                              Debug/ms5611.o
__muldf3                                          k:/electronics/sysgcc/arm-eabi/bin/../lib/gcc/arm-eabi/5.2.0/thumb/fpu/cortex_m4\libgcc.a(_arm_muldivdf3.o)
__nedf2                                           k:/electronics/sysgcc/arm-eabi/bin/../lib/gcc/arm-eabi/5.2.0/thumb/fpu/cortex_m4\libgcc.a(_arm_cmpdf2.o)
__printHexByteSync                                Debug/stm32f4xx_it.o
__printLongSync                                   Debug/stm32f4xx_it.o
__printRegister                                   Debug/stm32f4xx_it.o
__printStrSync                                    Debug/stm32f4xx_it.o
__pwmCapture_getStickPosition                     Debug/pwm_capture.o
__pwmCapture_processRadioChannel                  Debug/pwm_capture.o
__pwmRangeScaler                                  Debug/pwm_source.o
__pwmTimer                                        Debug/pwm_capture.o
__pwm_MapUpdateRate                               Debug/pwm_source.o
__pwm_RefreshDutyCycles                           Debug/pwm_source.o
__pwm_capture_initPorts                           Debug/pwm_capture.o
__pwm_capture_initTimeBase                        Debug/pwm_capture.o
__pwm_capture_readCalibration                     Debug/pwm_capture.o
__rcInFall                                        Debug/pwm_capture.o
                                                  Debug/stm32f4xx_it.o
__rcInRise                                        Debug/pwm_capture.o
                                                  Debug/stm32f4xx_it.o
__sclose                                          k:/electronics/sysgcc/arm-eabi/bin/../lib/gcc/arm-eabi/5.2.0/../../../../arm-eabi/lib/thumb/fpu/cortex_m4\libc.a(lib_a-stdio.o)
                                                  k:/electronics/sysgcc/arm-eabi/bin/../lib/gcc/arm-eabi/5.2.0/../../../../arm-eabi/lib/thumb/fpu/cortex_m4\libc.a(lib_a-findfp.o)
__sendChSync                                      Debug/stm32f4xx_it.o
__sensorBeingZeroed                               Debug/snsr_zero.o
__sensorInFocus                                   Debug/snsr_main.o
                                                  Debug/snsr_commo.o
__sensorsUpdateSensorSetting                      Debug/snsr_commo.o
__seofread                                        k:/electronics/sysgcc/arm-eabi/bin/../lib/gcc/arm-eabi/5.2.0/../../../../arm-eabi/lib/thumb/fpu/cortex_m4\libc.a(lib_a-stdio.o)
__serialNumber                                    Debug/commo.o
__setDefaults                                     Debug/main.o
__setMPUGyroLSBSensitivity                        Debug/mpu60x0_gryo.o
__sflush_r                                        k:/electronics/sysgcc/arm-eabi/bin/../lib/gcc/arm-eabi/5.2.0/../../../../arm-eabi/lib/thumb/fpu/cortex_m4\libc.a(lib_a-fflush.o)
                                                  k:/electronics/sysgcc/arm-eabi/bin/../lib/gcc/arm-eabi/5.2.0/../../../../arm-eabi/lib/thumb/fpu/cortex_m4\libc.a(lib_a-fclose.o)
__sfmoreglue                                      k:/electronics/sysgcc/arm-eabi/bin/../lib/gcc/arm-eabi/5.2.0/../../../../arm-eabi/lib/thumb/fpu/cortex_m4\libc.a(lib_a-findfp.o)
__sfp                                             k:/electronics/sysgcc/arm-eabi/bin/../lib/gcc/arm-eabi/5.2.0/../../../../arm-eabi/lib/thumb/fpu/cortex_m4\libc.a(lib_a-findfp.o)
__sfp_lock_acquire                                k:/electronics/sysgcc/arm-eabi/bin/../lib/gcc/arm-eabi/5.2.0/../../../../arm-eabi/lib/thumb/fpu/cortex_m4\libc.a(lib_a-findfp.o)
                                                  k:/electronics/sysgcc/arm-eabi/bin/../lib/gcc/arm-eabi/5.2.0/../../../../arm-eabi/lib/thumb/fpu/cortex_m4\libc.a(lib_a-fclose.o)
__sfp_lock_release                                k:/electronics/sysgcc/arm-eabi/bin/../lib/gcc/arm-eabi/5.2.0/../../../../arm-eabi/lib/thumb/fpu/cortex_m4\libc.a(lib_a-findfp.o)
                                                  k:/electronics/sysgcc/arm-eabi/bin/../lib/gcc/arm-eabi/5.2.0/../../../../arm-eabi/lib/thumb/fpu/cortex_m4\libc.a(lib_a-fclose.o)
__sinit                                           k:/electronics/sysgcc/arm-eabi/bin/../lib/gcc/arm-eabi/5.2.0/../../../../arm-eabi/lib/thumb/fpu/cortex_m4\libc.a(lib_a-findfp.o)
                                                  k:/electronics/sysgcc/arm-eabi/bin/../lib/gcc/arm-eabi/5.2.0/../../../../arm-eabi/lib/thumb/fpu/cortex_m4\libc.a(lib_a-fflush.o)
                                                  k:/electronics/sysgcc/arm-eabi/bin/../lib/gcc/arm-eabi/5.2.0/../../../../arm-eabi/lib/thumb/fpu/cortex_m4\libc.a(lib_a-fclose.o)
                                                  k:/electronics/sysgcc/arm-eabi/bin/../lib/gcc/arm-eabi/5.2.0/../../../../arm-eabi/lib/thumb/fpu/cortex_m4\libc.a(lib_a-syscalls.o)
__sinit_lock_acquire                              k:/electronics/sysgcc/arm-eabi/bin/../lib/gcc/arm-eabi/5.2.0/../../../../arm-eabi/lib/thumb/fpu/cortex_m4\libc.a(lib_a-findfp.o)
__sinit_lock_release                              k:/electronics/sysgcc/arm-eabi/bin/../lib/gcc/arm-eabi/5.2.0/../../../../arm-eabi/lib/thumb/fpu/cortex_m4\libc.a(lib_a-findfp.o)
__sleepTimer                                      Debug/twb_timer.o
__snsr_BMP085_GetAltitude                         Debug/bmp085.o
__snsr_BMP085_ProcessPressure                     Debug/bmp085.o
__snsr_BMP085_ProcessTemperature                  Debug/bmp085.o
__snsr_Configure_Incoming_IRQs                    Debug/snsr_main.o
__snsr_Configure_Timer                            Debug/snsr_main.o
__snsr_MS5611_GetAltitude                         Debug/ms5611.o
__snsr_ResolveCompFilter                          Debug/complementary.o
__snsr_bmp085_startPressureConversion             Debug/bmp085.o
__snsr_bmp085_startTemperatureConversion          Debug/bmp085.o
__snsr_compFilter_ResolveCompFilters              Debug/complementary.o
__snsr_compFilter_ResolveSensor                   Debug/complementary.o
__snsr_compFilter_ResolveSensors                  Debug/complementary.o
__sonarFilter                                     Debug/sonar.o
__sonarTimer                                      Debug/sonar.o
__sonar_CountDelta                                Debug/sonar.o
__sonar_LastCount                                 Debug/sonar.o
__sonar_LastEdge                                  Debug/sonar.o
__sonar_Meters                                    Debug/sonar.o
__sonar_PWM_uSeconds                              Debug/sonar.o
__sonar_ThisCount                                 Debug/sonar.o
__sonar_initTimeBase                              Debug/sonar.o
__srcAddress                                      Debug/msg_parser.o
__sread                                           k:/electronics/sysgcc/arm-eabi/bin/../lib/gcc/arm-eabi/5.2.0/../../../../arm-eabi/lib/thumb/fpu/cortex_m4\libc.a(lib_a-stdio.o)
                                                  k:/electronics/sysgcc/arm-eabi/bin/../lib/gcc/arm-eabi/5.2.0/../../../../arm-eabi/lib/thumb/fpu/cortex_m4\libc.a(lib_a-findfp.o)
__sseek                                           k:/electronics/sysgcc/arm-eabi/bin/../lib/gcc/arm-eabi/5.2.0/../../../../arm-eabi/lib/thumb/fpu/cortex_m4\libc.a(lib_a-stdio.o)
                                                  k:/electronics/sysgcc/arm-eabi/bin/../lib/gcc/arm-eabi/5.2.0/../../../../arm-eabi/lib/thumb/fpu/cortex_m4\libc.a(lib_a-findfp.o)
__startMainLoop                                   Debug/main.o
__subdf3                                          k:/electronics/sysgcc/arm-eabi/bin/../lib/gcc/arm-eabi/5.2.0/thumb/fpu/cortex_m4\libgcc.a(_arm_addsubdf3.o)
__subsf3                                          k:/electronics/sysgcc/arm-eabi/bin/../lib/gcc/arm-eabi/5.2.0/thumb/fpu/cortex_m4\libgcc.a(_arm_addsubsf3.o)
__swrite                                          k:/electronics/sysgcc/arm-eabi/bin/../lib/gcc/arm-eabi/5.2.0/../../../../arm-eabi/lib/thumb/fpu/cortex_m4\libc.a(lib_a-stdio.o)
                                                  k:/electronics/sysgcc/arm-eabi/bin/../lib/gcc/arm-eabi/5.2.0/../../../../arm-eabi/lib/thumb/fpu/cortex_m4\libc.a(lib_a-findfp.o)
__truncdfsf2                                      k:/electronics/sysgcc/arm-eabi/bin/../lib/gcc/arm-eabi/5.2.0/thumb/fpu/cortex_m4\libgcc.a(_arm_truncdfsf2.o)
__twbI2CCurrentJob                                Debug/twb_i2c_stm32f4.o
__twbI2CSyncJob                                   Debug/twb_i2c_stm32f4.o
                                                  Debug/twb_i2c.o
__twb_PID_get_rate_d                              Debug/pid.o
__twb_PID_get_rate_i                              Debug/pid.o
__twb_PID_get_rate_p                              Debug/pid.o
__twb_PID_get_steady_i                            Debug/pid.o
__twb_PID_get_steady_p                            Debug/pid.o
__twb_Sensors_BeginZero                           Debug/snsr_zero.o
__twb_autoPilot_manage_throttle                   Debug/autopilot.o
__twb_ctrl_loop_xfer_function                     Debug/ctrl_loop_pid.o
__twb_debug_sendStringSync                        Debug/twb_debug.o
__twb_debug_setBaudRate                           Debug/twb_debug.o
__twb_gpio_manage_yaw                             Debug/autopilot.o
__twb_gpio_set_safe                               Debug/ctrl_loop_pid.o
__twb_gpio_update_telemetry                       Debug/ctrl_loop_pid.o
__twb_i2c_SendAddress                             Debug/twb_i2c_stm32f4.o
__twb_i2c_SetAckFlag                              Debug/twb_i2c_stm32f4.o
__twb_i2c_completeJob                             Debug/twb_i2c_stm32f4.o
__twb_i2c_pauseBetweenTxAndRx                     Debug/twb_i2c_stm32f4.o
__twb_i2c_startNextJob                            Debug/twb_i2c_stm32f4.o
__twb_i2c_startNextJobIfNecessary                 Debug/twb_i2c_stm32f4.o
__twb_i2c_switchToReceiveMode                     Debug/twb_i2c_stm32f4.o
__twb_i2c_waitUntilDone                           Debug/twb_i2c_stm32f4.o
__twb_imu_L3GD20_InitPeriph                       Debug/l3g20.o
__twb_imu_MPU60x0_Acc_Read                        Debug/mpu60x0_acc.o
__twb_imu_MPU60x0_Gyro_InitPeriph                 Debug/mpu60x0_gryo.o
__twb_imu_bmp085_init_Periph                      Debug/bmp085.o
__twb_imu_l3gd20_ProcessSlot                      Debug/l3g20.o
__twb_imu_l3gd20_QueueFiFoRead                    Debug/l3g20.o
__twb_imu_l3gd20_QueueRead                        Debug/l3g20.o
__twb_imu_l3gd20_QueueSizeRead                    Debug/l3g20.o
__twb_imu_l3gd20_Read                             Debug/l3g20.o
__twb_imu_l3gd20_RegisterRead                     Debug/l3g20.o
__twb_imu_lsm303_acc_CalcAttitude                 Debug/lsm303_acc.o
__twb_imu_lsm303_acc_ProcessSlot                  Debug/lsm303_acc.o
__twb_imu_lsm303_acc_QueueFiFoRead                Debug/lsm303_acc.o
__twb_imu_lsm303_acc_QueueRead                    Debug/lsm303_acc.o
__twb_imu_lsm303_acc_QueueSizeRead                Debug/lsm303_acc.o
__twb_imu_lsm303_acc_Read                         Debug/lsm303_acc.o
__twb_imu_lsm303_acc_RegisterRead                 Debug/lsm303_acc.o
__twb_imu_lsm303_acc_init_periph                  Debug/lsm303_acc.o
__twb_imu_lsm303_mag_I2CReadComplete              Debug/lsm303_mag.o
__twb_imu_lsm303_mag_init_Periph                  Debug/lsm303_mag.o
__twb_imu_lsm303_mag_setFullScaleRange            Debug/lsm303_mag.o
__twb_imu_mpu60x0_Acc_InitPerip                   Debug/mpu60x0_acc.o
__twb_imu_mpu60x0_gyro_ProcessSlot                Debug/mpu60x0_gryo.o
__twb_imu_mpu60x0_gyro_QueueFiFoRead              Debug/mpu60x0_gryo.o
__twb_imu_mpu60x0_gyro_QueueRead                  Debug/mpu60x0_gryo.o
__twb_imu_mpu60x0_gyro_QueueSizeRead              Debug/mpu60x0_gryo.o
__twb_imu_mpu60x0_gyro_Read                       Debug/mpu60x0_gryo.o
__twb_imu_mpu60x0_gyro_RegisterRead               Debug/mpu60x0_gryo.o
__twb_imu_ms5611_init_Periph                      Debug/ms5611.o
__twb_main_AllocateMemory                         Debug/main.o
__twb_math_asinfTbl                               Debug/asinf.o
__twb_sensorCalComplete                           Debug/snsr_zero.o
__twb_sensorWriteCalComplete                      Debug/snsr_zero.o
__usb_ep_setFeature                               Debug/usbd_req.o
__usb_otg_SetInEpStatus                           Debug/usb_core_ep.o
__usb_otg_SetOutEpStatus                          Debug/usb_core_ep.o
__usb_otg_ep0StartInXfer                          Debug/usb_core_io.o
__usb_otg_ep0StartOutXfer                         Debug/usb_core_io.o
__usb_otg_epStartInXfer                           Debug/usb_core_io.o
__usb_otg_epStartOutXfer                          Debug/usb_core_io.o
__usb_txState                                     Debug/usbd_cdc_core.o
__usbd_cdc_createBuffer                           Debug/twb_usb.o
__usp_ep_clearFeature                             Debug/usbd_req.o
__usp_ep_getStatus                                Debug/usbd_req.o
__wiFiCommandBuffer                               Debug/wifi.o
__wiFiCommandIdx                                  Debug/wifi.o
__wiFiCommandLength                               Debug/wifi.o
__wiFi_Config                                     Debug/wifi.o
__wifiResolveBaudRate                             Debug/wifi.o
__wifi_AddCmd                                     Debug/wifi.o
__writeCalibrationFactorsI2CJob                   Debug/lsm303_mag.o
__xfer_len                                        Debug/usb_dcd_int.o
__zeroMsAccum                                     Debug/snsr_zero.o
__zero_BigEndian                                  Debug/snsr_zero.o
__zero_CurrentState                               Debug/snsr_zero.o
__zero_EEPROM_Address                             Debug/snsr_zero.o
__zero_PauseMS                                    Debug/snsr_zero.o
__zero_SamplesIndex                               Debug/snsr_zero.o
__zero_TempCounts                                 Debug/snsr_zero.o
__zero_TotalSampleCount                           Debug/snsr_zero.o
_accX                                             Debug/lsm303_acc.o
_accY                                             Debug/lsm303_acc.o
_accZ                                             Debug/lsm303_acc.o
_adxlXFilter                                      Debug/adxl345.o
_adxlYFilter                                      Debug/adxl345.o
_adxlZFilter                                      Debug/adxl345.o
_atoi_r                                           k:/electronics/sysgcc/arm-eabi/bin/../lib/gcc/arm-eabi/5.2.0/../../../../arm-eabi/lib/thumb/fpu/cortex_m4\libc.a(lib_a-atoi.o)
_bmp085_RawTemperature                            Debug/bmp085.o
_bmp085_pressureLaunchAltitude                    Debug/autopilot.o
_cleanup                                          k:/electronics/sysgcc/arm-eabi/bin/../lib/gcc/arm-eabi/5.2.0/../../../../arm-eabi/lib/thumb/fpu/cortex_m4\libc.a(lib_a-findfp.o)
_cleanup_r                                        k:/electronics/sysgcc/arm-eabi/bin/../lib/gcc/arm-eabi/5.2.0/../../../../arm-eabi/lib/thumb/fpu/cortex_m4\libc.a(lib_a-findfp.o)
_cli_commandQueue                                 Debug/cli.o
_cli_commandQueue_head                            Debug/cli.o
_cli_commandQueue_tail                            Debug/cli.o
_cli_in_buffer                                    Debug/cli.o
_cli_in_buffer_idx                                Debug/cli.o
_cli_out_buffer                                   Debug/cli.o
_cli_out_buffer_head                              Debug/cli.o
_cli_out_buffer_tail                              Debug/cli.o
_close                                            k:/electronics/sysgcc/arm-eabi/bin/../lib/gcc/arm-eabi/5.2.0/../../../../arm-eabi/lib/thumb/fpu/cortex_m4\libc.a(lib_a-syscalls.o)
                                                  k:/electronics/sysgcc/arm-eabi/bin/../lib/gcc/arm-eabi/5.2.0/../../../../arm-eabi/lib/thumb/fpu/cortex_m4\libc.a(lib_a-closer.o)
_close_r                                          k:/electronics/sysgcc/arm-eabi/bin/../lib/gcc/arm-eabi/5.2.0/../../../../arm-eabi/lib/thumb/fpu/cortex_m4\libc.a(lib_a-closer.o)
                                                  k:/electronics/sysgcc/arm-eabi/bin/../lib/gcc/arm-eabi/5.2.0/../../../../arm-eabi/lib/thumb/fpu/cortex_m4\libc.a(lib_a-stdio.o)
_commoParserState                                 Debug/msg_parser.o
_commoTXState                                     Debug/msg_parser.o
_commonDiagBuffer                                 Debug/twb_config.o
                                                  Debug/sonar.o
                                                  Debug/ms5611.o
                                                  Debug/mpu60x0_gryo.o
                                                  Debug/mpu60x0_acc.o
                                                  Debug/lsm303_mag.o
                                                  Debug/lsm303_acc.o
                                                  Debug/lipo_adc.o
                                                  Debug/l3g20.o
                                                  Debug/itg3200.o
                                                  Debug/hmc5883.o
                                                  Debug/bmp085.o
                                                  Debug/adxl345.o
                                                  Debug/main.o
_ctype_                                           k:/electronics/sysgcc/arm-eabi/bin/../lib/gcc/arm-eabi/5.2.0/../../../../arm-eabi/lib/thumb/fpu/cortex_m4\libc.a(lib_a-ctype_.o)
_currentBaudRate                                  Debug/wifi.o
_deltaX                                           Debug/lsm303_mag.o
_deltaY                                           Debug/lsm303_mag.o
_deltaZ                                           Debug/lsm303_mag.o
_ebss                                             Debug/startup_stm32f4xx.o
_edata                                            Debug/startup_stm32f4xx.o
_estack                                           Debug/startup_stm32f4xx.o
_exit                                             k:/electronics/sysgcc/arm-eabi/bin/../lib/gcc/arm-eabi/5.2.0/../../../../arm-eabi/lib/thumb/fpu/cortex_m4\libc.a(lib_a-syscalls.o)
_fatanresult                                      Debug/lsm303_mag.o
_fclose_r                                         k:/electronics/sysgcc/arm-eabi/bin/../lib/gcc/arm-eabi/5.2.0/../../../../arm-eabi/lib/thumb/fpu/cortex_m4\libc.a(lib_a-fclose.o)
                                                  k:/electronics/sysgcc/arm-eabi/bin/../lib/gcc/arm-eabi/5.2.0/../../../../arm-eabi/lib/thumb/fpu/cortex_m4\libc.a(lib_a-findfp.o)
_fflush_r                                         k:/electronics/sysgcc/arm-eabi/bin/../lib/gcc/arm-eabi/5.2.0/../../../../arm-eabi/lib/thumb/fpu/cortex_m4\libc.a(lib_a-fflush.o)
_fheading                                         Debug/lsm303_mag.o
_fratio                                           Debug/lsm303_mag.o
_free_r                                           k:/electronics/sysgcc/arm-eabi/bin/../lib/gcc/arm-eabi/5.2.0/../../../../arm-eabi/lib/thumb/fpu/cortex_m4\libc.a(lib_a-freer.o)
                                                  k:/electronics/sysgcc/arm-eabi/bin/../lib/gcc/arm-eabi/5.2.0/../../../../arm-eabi/lib/thumb/fpu/cortex_m4\libc.a(lib_a-fflush.o)
                                                  k:/electronics/sysgcc/arm-eabi/bin/../lib/gcc/arm-eabi/5.2.0/../../../../arm-eabi/lib/thumb/fpu/cortex_m4\libc.a(lib_a-fclose.o)
                                                  k:/electronics/sysgcc/arm-eabi/bin/../lib/gcc/arm-eabi/5.2.0/../../../../arm-eabi/lib/thumb/fpu/cortex_m4\libc.a(lib_a-reent.o)
                                                  k:/electronics/sysgcc/arm-eabi/bin/../lib/gcc/arm-eabi/5.2.0/../../../../arm-eabi/lib/thumb/fpu/cortex_m4\libc.a(lib_a-mallocr.o)
                                                  k:/electronics/sysgcc/arm-eabi/bin/../lib/gcc/arm-eabi/5.2.0/../../../../arm-eabi/lib/thumb/fpu/cortex_m4\libc.a(lib_a-malloc.o)
_fstat                                            k:/electronics/sysgcc/arm-eabi/bin/../lib/gcc/arm-eabi/5.2.0/../../../../arm-eabi/lib/thumb/fpu/cortex_m4\libc.a(lib_a-syscalls.o)
_fwalk                                            k:/electronics/sysgcc/arm-eabi/bin/../lib/gcc/arm-eabi/5.2.0/../../../../arm-eabi/lib/thumb/fpu/cortex_m4\libc.a(lib_a-fwalk.o)
                                                  k:/electronics/sysgcc/arm-eabi/bin/../lib/gcc/arm-eabi/5.2.0/../../../../arm-eabi/lib/thumb/fpu/cortex_m4\libc.a(lib_a-findfp.o)
_fwalk_reent                                      k:/electronics/sysgcc/arm-eabi/bin/../lib/gcc/arm-eabi/5.2.0/../../../../arm-eabi/lib/thumb/fpu/cortex_m4\libc.a(lib_a-fwalk.o)
                                                  k:/electronics/sysgcc/arm-eabi/bin/../lib/gcc/arm-eabi/5.2.0/../../../../arm-eabi/lib/thumb/fpu/cortex_m4\libc.a(lib_a-fflush.o)
                                                  k:/electronics/sysgcc/arm-eabi/bin/../lib/gcc/arm-eabi/5.2.0/../../../../arm-eabi/lib/thumb/fpu/cortex_m4\libc.a(lib_a-findfp.o)
_getpid                                           k:/electronics/sysgcc/arm-eabi/bin/../lib/gcc/arm-eabi/5.2.0/../../../../arm-eabi/lib/thumb/fpu/cortex_m4\libc.a(lib_a-syscalls.o)
_gettimeofday                                     k:/electronics/sysgcc/arm-eabi/bin/../lib/gcc/arm-eabi/5.2.0/../../../../arm-eabi/lib/thumb/fpu/cortex_m4\libc.a(lib_a-syscalls.o)
_global_impure_ptr                                k:/electronics/sysgcc/arm-eabi/bin/../lib/gcc/arm-eabi/5.2.0/../../../../arm-eabi/lib/thumb/fpu/cortex_m4\libc.a(lib_a-impure.o)
                                                  k:/electronics/sysgcc/arm-eabi/bin/../lib/gcc/arm-eabi/5.2.0/../../../../arm-eabi/lib/thumb/fpu/cortex_m4\libc.a(lib_a-fflush.o)
                                                  k:/electronics/sysgcc/arm-eabi/bin/../lib/gcc/arm-eabi/5.2.0/../../../../arm-eabi/lib/thumb/fpu/cortex_m4\libc.a(lib_a-findfp.o)
_gpsLaunchAltitude                                Debug/autopilot.o
_hmc5883XFilter                                   Debug/hmc5883.o
_hmc5883YFilter                                   Debug/hmc5883.o
_hmc5883ZFilter                                   Debug/hmc5883.o
_impure_ptr                                       k:/electronics/sysgcc/arm-eabi/bin/../lib/gcc/arm-eabi/5.2.0/../../../../arm-eabi/lib/thumb/fpu/cortex_m4\libc.a(lib_a-impure.o)
                                                  k:/electronics/sysgcc/arm-eabi/bin/../lib/gcc/arm-eabi/5.2.0/../../../../arm-eabi/lib/thumb/fpu/cortex_m4\libc.a(lib_a-fflush.o)
                                                  k:/electronics/sysgcc/arm-eabi/bin/../lib/gcc/arm-eabi/5.2.0/../../../../arm-eabi/lib/thumb/fpu/cortex_m4\libc.a(lib_a-fclose.o)
                                                  k:/electronics/sysgcc/arm-eabi/bin/../lib/gcc/arm-eabi/5.2.0/../../../../arm-eabi/lib/thumb/fpu/cortex_m4\libc.a(lib_a-reent.o)
                                                  k:/electronics/sysgcc/arm-eabi/bin/../lib/gcc/arm-eabi/5.2.0/../../../../arm-eabi/lib/thumb/fpu/cortex_m4\libc.a(lib_a-findfp.o)
                                                  k:/electronics/sysgcc/arm-eabi/bin/../lib/gcc/arm-eabi/5.2.0/../../../../arm-eabi/lib/thumb/fpu/cortex_m4\libc.a(lib_a-syscalls.o)
                                                  k:/electronics/sysgcc/arm-eabi/bin/../lib/gcc/arm-eabi/5.2.0/../../../../arm-eabi/lib/thumb/fpu/cortex_m4\libc.a(lib_a-strtol.o)
                                                  k:/electronics/sysgcc/arm-eabi/bin/../lib/gcc/arm-eabi/5.2.0/../../../../arm-eabi/lib/thumb/fpu/cortex_m4\libc.a(lib_a-malloc.o)
_isatty                                           k:/electronics/sysgcc/arm-eabi/bin/../lib/gcc/arm-eabi/5.2.0/../../../../arm-eabi/lib/thumb/fpu/cortex_m4\libc.a(lib_a-syscalls.o)
_kill                                             k:/electronics/sysgcc/arm-eabi/bin/../lib/gcc/arm-eabi/5.2.0/../../../../arm-eabi/lib/thumb/fpu/cortex_m4\libc.a(lib_a-syscalls.o)
_l3gd20XFilter                                    Debug/l3g20.o
_l3gd20YFilter                                    Debug/l3g20.o
_l3gd20ZFilter                                    Debug/l3g20.o
_lastCountInitilized                              Debug/ctrl_loop_pid.o
_lastCountTimer3                                  Debug/ctrl_loop_pid.o
_link                                             k:/electronics/sysgcc/arm-eabi/bin/../lib/gcc/arm-eabi/5.2.0/../../../../arm-eabi/lib/thumb/fpu/cortex_m4\libc.a(lib_a-syscalls.o)
_lseek                                            k:/electronics/sysgcc/arm-eabi/bin/../lib/gcc/arm-eabi/5.2.0/../../../../arm-eabi/lib/thumb/fpu/cortex_m4\libc.a(lib_a-syscalls.o)
                                                  k:/electronics/sysgcc/arm-eabi/bin/../lib/gcc/arm-eabi/5.2.0/../../../../arm-eabi/lib/thumb/fpu/cortex_m4\libc.a(lib_a-lseekr.o)
_lseek_r                                          k:/electronics/sysgcc/arm-eabi/bin/../lib/gcc/arm-eabi/5.2.0/../../../../arm-eabi/lib/thumb/fpu/cortex_m4\libc.a(lib_a-lseekr.o)
                                                  k:/electronics/sysgcc/arm-eabi/bin/../lib/gcc/arm-eabi/5.2.0/../../../../arm-eabi/lib/thumb/fpu/cortex_m4\libc.a(lib_a-stdio.o)
_lsm303FullScaleRange                             Debug/lsm303_mag.o
_malloc_r                                         k:/electronics/sysgcc/arm-eabi/bin/../lib/gcc/arm-eabi/5.2.0/../../../../arm-eabi/lib/thumb/fpu/cortex_m4\libc.a(lib_a-mallocr.o)
                                                  k:/electronics/sysgcc/arm-eabi/bin/../lib/gcc/arm-eabi/5.2.0/../../../../arm-eabi/lib/thumb/fpu/cortex_m4\libc.a(lib_a-findfp.o)
                                                  k:/electronics/sysgcc/arm-eabi/bin/../lib/gcc/arm-eabi/5.2.0/../../../../arm-eabi/lib/thumb/fpu/cortex_m4\libc.a(lib_a-malloc.o)
_malloc_trim_r                                    k:/electronics/sysgcc/arm-eabi/bin/../lib/gcc/arm-eabi/5.2.0/../../../../arm-eabi/lib/thumb/fpu/cortex_m4\libc.a(lib_a-freer.o)
_mpuAccX                                          Debug/mpu60x0_acc.o
_mpuAccY                                          Debug/mpu60x0_acc.o
_mpuAccZ                                          Debug/mpu60x0_acc.o
_ms5611_pressureLaunchAltitude                    Debug/autopilot.o
_msThreshold                                      Debug/snsr_main.o
_msgType                                          Debug/gps.o
_myI2C                                            Debug/twb_i2c_stm32f4.o
_open                                             k:/electronics/sysgcc/arm-eabi/bin/../lib/gcc/arm-eabi/5.2.0/../../../../arm-eabi/lib/thumb/fpu/cortex_m4\libc.a(lib_a-syscalls.o)
_otherHeading                                     Debug/lsm303_mag.o
_raise                                            k:/electronics/sysgcc/arm-eabi/bin/../lib/gcc/arm-eabi/5.2.0/../../../../arm-eabi/lib/thumb/fpu/cortex_m4\libc.a(lib_a-syscalls.o)
_rangeX                                           Debug/lsm303_mag.o
_rangeY                                           Debug/lsm303_mag.o
_rangeZ                                           Debug/lsm303_mag.o
_ratioX                                           Debug/lsm303_mag.o
_ratioY                                           Debug/lsm303_mag.o
_ratioZ                                           Debug/lsm303_mag.o
_rawX                                             Debug/lsm303_mag.o
_rawY                                             Debug/lsm303_mag.o
_rawZ                                             Debug/lsm303_mag.o
_read                                             k:/electronics/sysgcc/arm-eabi/bin/../lib/gcc/arm-eabi/5.2.0/../../../../arm-eabi/lib/thumb/fpu/cortex_m4\libc.a(lib_a-syscalls.o)
                                                  k:/electronics/sysgcc/arm-eabi/bin/../lib/gcc/arm-eabi/5.2.0/../../../../arm-eabi/lib/thumb/fpu/cortex_m4\libc.a(lib_a-readr.o)
_read_r                                           k:/electronics/sysgcc/arm-eabi/bin/../lib/gcc/arm-eabi/5.2.0/../../../../arm-eabi/lib/thumb/fpu/cortex_m4\libc.a(lib_a-readr.o)
                                                  k:/electronics/sysgcc/arm-eabi/bin/../lib/gcc/arm-eabi/5.2.0/../../../../arm-eabi/lib/thumb/fpu/cortex_m4\libc.a(lib_a-stdio.o)
_reclaim_reent                                    k:/electronics/sysgcc/arm-eabi/bin/../lib/gcc/arm-eabi/5.2.0/../../../../arm-eabi/lib/thumb/fpu/cortex_m4\libc.a(lib_a-reent.o)
_rename                                           k:/electronics/sysgcc/arm-eabi/bin/../lib/gcc/arm-eabi/5.2.0/../../../../arm-eabi/lib/thumb/fpu/cortex_m4\libc.a(lib_a-syscalls.o)
_resultF                                          Debug/lsm303_acc.o
_sbrk                                             k:/electronics/sysgcc/arm-eabi/bin/../lib/gcc/arm-eabi/5.2.0/../../../../arm-eabi/lib/thumb/fpu/cortex_m4\libc.a(lib_a-syscalls.o)
                                                  k:/electronics/sysgcc/arm-eabi/bin/../lib/gcc/arm-eabi/5.2.0/../../../../arm-eabi/lib/thumb/fpu/cortex_m4\libc.a(lib_a-sbrkr.o)
_sbrk_r                                           k:/electronics/sysgcc/arm-eabi/bin/../lib/gcc/arm-eabi/5.2.0/../../../../arm-eabi/lib/thumb/fpu/cortex_m4\libc.a(lib_a-sbrkr.o)
                                                  k:/electronics/sysgcc/arm-eabi/bin/../lib/gcc/arm-eabi/5.2.0/../../../../arm-eabi/lib/thumb/fpu/cortex_m4\libc.a(lib_a-freer.o)
                                                  k:/electronics/sysgcc/arm-eabi/bin/../lib/gcc/arm-eabi/5.2.0/../../../../arm-eabi/lib/thumb/fpu/cortex_m4\libc.a(lib_a-mallocr.o)
_sbss                                             Debug/startup_stm32f4xx.o
_sdata                                            Debug/startup_stm32f4xx.o
_sensorStateBeforePause                           Debug/snsr_actions.o
_sidata                                           Debug/startup_stm32f4xx.o
_stat                                             k:/electronics/sysgcc/arm-eabi/bin/../lib/gcc/arm-eabi/5.2.0/../../../../arm-eabi/lib/thumb/fpu/cortex_m4\libc.a(lib_a-syscalls.o)
_state                                            Debug/gps.o
_strtol_r                                         k:/electronics/sysgcc/arm-eabi/bin/../lib/gcc/arm-eabi/5.2.0/../../../../arm-eabi/lib/thumb/fpu/cortex_m4\libc.a(lib_a-strtol.o)
                                                  k:/electronics/sysgcc/arm-eabi/bin/../lib/gcc/arm-eabi/5.2.0/../../../../arm-eabi/lib/thumb/fpu/cortex_m4\libc.a(lib_a-atoi.o)
_swiclose                                         k:/electronics/sysgcc/arm-eabi/bin/../lib/gcc/arm-eabi/5.2.0/../../../../arm-eabi/lib/thumb/fpu/cortex_m4\libc.a(lib_a-syscalls.o)
_swilseek                                         k:/electronics/sysgcc/arm-eabi/bin/../lib/gcc/arm-eabi/5.2.0/../../../../arm-eabi/lib/thumb/fpu/cortex_m4\libc.a(lib_a-syscalls.o)
_swiopen                                          k:/electronics/sysgcc/arm-eabi/bin/../lib/gcc/arm-eabi/5.2.0/../../../../arm-eabi/lib/thumb/fpu/cortex_m4\libc.a(lib_a-syscalls.o)
_swiread                                          k:/electronics/sysgcc/arm-eabi/bin/../lib/gcc/arm-eabi/5.2.0/../../../../arm-eabi/lib/thumb/fpu/cortex_m4\libc.a(lib_a-syscalls.o)
_swiwrite                                         k:/electronics/sysgcc/arm-eabi/bin/../lib/gcc/arm-eabi/5.2.0/../../../../arm-eabi/lib/thumb/fpu/cortex_m4\libc.a(lib_a-syscalls.o)
_system                                           k:/electronics/sysgcc/arm-eabi/bin/../lib/gcc/arm-eabi/5.2.0/../../../../arm-eabi/lib/thumb/fpu/cortex_m4\libc.a(lib_a-syscalls.o)
_targetHeadingPrecise                             Debug/ctrl_loop_pid.o
_temp_sub                                         Debug/ms5611.o
_timer14                                          Debug/pwm_source.o
_timer3                                           Debug/pwm_source.o
_times                                            k:/electronics/sysgcc/arm-eabi/bin/../lib/gcc/arm-eabi/5.2.0/../../../../arm-eabi/lib/thumb/fpu/cortex_m4\libc.a(lib_a-syscalls.o)
_tmpBuffer                                        Debug/snsr_zero.o
_tmpX                                             Debug/lsm303_mag.o
_tmpY                                             Debug/lsm303_mag.o
_tmpZ                                             Debug/lsm303_mag.o
_transitionedToFlightMode                         Debug/ctrl_loop_pid.o
_uartRXBuffer                                     Debug/gps.o
_uartRXBufferIndex                                Debug/gps.o
_unlink                                           k:/electronics/sysgcc/arm-eabi/bin/../lib/gcc/arm-eabi/5.2.0/../../../../arm-eabi/lib/thumb/fpu/cortex_m4\libc.a(lib_a-syscalls.o)
_valueIndex                                       Debug/gps.o
_watchDogHead                                     Debug/twb_timer.o
_wifiCLIEcho                                      Debug/wifi.o
_write                                            k:/electronics/sysgcc/arm-eabi/bin/../lib/gcc/arm-eabi/5.2.0/../../../../arm-eabi/lib/thumb/fpu/cortex_m4\libc.a(lib_a-syscalls.o)
                                                  k:/electronics/sysgcc/arm-eabi/bin/../lib/gcc/arm-eabi/5.2.0/../../../../arm-eabi/lib/thumb/fpu/cortex_m4\libc.a(lib_a-writer.o)
_write_r                                          k:/electronics/sysgcc/arm-eabi/bin/../lib/gcc/arm-eabi/5.2.0/../../../../arm-eabi/lib/thumb/fpu/cortex_m4\libc.a(lib_a-writer.o)
                                                  k:/electronics/sysgcc/arm-eabi/bin/../lib/gcc/arm-eabi/5.2.0/../../../../arm-eabi/lib/thumb/fpu/cortex_m4\libc.a(lib_a-stdio.o)
_xComponent                                       Debug/lsm303_mag.o
_yComponent                                       Debug/lsm303_mag.o
_zComponent                                       Debug/lsm303_mag.o
acc                                               Debug/lsm303_mag.o
acc_norm                                          Debug/lsm303_mag.o
accxnorm                                          Debug/lsm303_mag.o
accynorm                                          Debug/lsm303_mag.o
apply_measurement                                 Debug/kalman_calc.o
apply_system                                      Debug/kalman_calc.o
asinf_tbl                                         Debug/asinf.o
assert_param                                      Debug/stm32f4xx_dma.o
atoi                                              k:/electronics/sysgcc/arm-eabi/bin/../lib/gcc/arm-eabi/5.2.0/../../../../arm-eabi/lib/thumb/fpu/cortex_m4\libc.a(lib_a-atoi.o)
                                                  Debug/cli.o
bmp085_get_cal_param                              Debug/bmp085.o
checkSum                                          Debug/gps.o
cleanup_glue                                      k:/electronics/sysgcc/arm-eabi/bin/../lib/gcc/arm-eabi/5.2.0/../../../../arm-eabi/lib/thumb/fpu/cortex_m4\libc.a(lib_a-reent.o)
clearBuffer                                       Debug/gps.o
convert_matrix                                    Debug/matmath.o
copysignf                                         k:/electronics/sysgcc/arm-eabi/bin/../lib/gcc/arm-eabi/5.2.0/../../../../arm-eabi/lib/thumb/fpu/cortex_m4\libm.a(lib_a-sf_copysign.o)
                                                  k:/electronics/sysgcc/arm-eabi/bin/../lib/gcc/arm-eabi/5.2.0/../../../../arm-eabi/lib/thumb/fpu/cortex_m4\libm.a(lib_a-sf_scalbn.o)
cosPitch                                          Debug/lsm303_mag.o
cosRoll                                           Debug/lsm303_mag.o
cosValue                                          Debug/twb_math.o
countsPer                                         Debug/ctrl_loop_pid.o
createStr                                         Debug/memory_mgmt.o
currentTimer                                      Debug/ctrl_loop_pid.o
cvector                                           Debug/matmath.o
deltaCount                                        Debug/ctrl_loop_pid.o
deltaT                                            Debug/snsr_main.o
determineMessageType                              Debug/gps.o
dmatrix                                           Debug/matmath.o
dvector                                           Debug/matmath.o
end                                               k:/electronics/sysgcc/arm-eabi/bin/../lib/gcc/arm-eabi/5.2.0/../../../../arm-eabi/lib/thumb/fpu/cortex_m4\libc.a(lib_a-syscalls.o)
errno                                             k:/electronics/sysgcc/arm-eabi/bin/../lib/gcc/arm-eabi/5.2.0/../../../../arm-eabi/lib/thumb/fpu/cortex_m4\libc.a(lib_a-reent.o)
                                                  k:/electronics/sysgcc/arm-eabi/bin/../lib/gcc/arm-eabi/5.2.0/../../../../arm-eabi/lib/thumb/fpu/cortex_m4\libc.a(lib_a-readr.o)
                                                  k:/electronics/sysgcc/arm-eabi/bin/../lib/gcc/arm-eabi/5.2.0/../../../../arm-eabi/lib/thumb/fpu/cortex_m4\libc.a(lib_a-lseekr.o)
                                                  k:/electronics/sysgcc/arm-eabi/bin/../lib/gcc/arm-eabi/5.2.0/../../../../arm-eabi/lib/thumb/fpu/cortex_m4\libc.a(lib_a-closer.o)
                                                  k:/electronics/sysgcc/arm-eabi/bin/../lib/gcc/arm-eabi/5.2.0/../../../../arm-eabi/lib/thumb/fpu/cortex_m4\libc.a(lib_a-writer.o)
                                                  k:/electronics/sysgcc/arm-eabi/bin/../lib/gcc/arm-eabi/5.2.0/../../../../arm-eabi/lib/thumb/fpu/cortex_m4\libc.a(lib_a-sbrkr.o)
extended_kalman_init                              Debug/kalman_calc.o
extended_kalman_step                              Debug/kalman_calc.o
fabsf                                             k:/electronics/sysgcc/arm-eabi/bin/../lib/gcc/arm-eabi/5.2.0/../../../../arm-eabi/lib/thumb/fpu/cortex_m4\libm.a(lib_a-sf_fabs.o)
                                                  k:/electronics/sysgcc/arm-eabi/bin/../lib/gcc/arm-eabi/5.2.0/../../../../arm-eabi/lib/thumb/fpu/cortex_m4\libm.a(lib_a-ef_pow.o)
fclose                                            k:/electronics/sysgcc/arm-eabi/bin/../lib/gcc/arm-eabi/5.2.0/../../../../arm-eabi/lib/thumb/fpu/cortex_m4\libc.a(lib_a-fclose.o)
fflush                                            k:/electronics/sysgcc/arm-eabi/bin/../lib/gcc/arm-eabi/5.2.0/../../../../arm-eabi/lib/thumb/fpu/cortex_m4\libc.a(lib_a-fflush.o)
finitef                                           k:/electronics/sysgcc/arm-eabi/bin/../lib/gcc/arm-eabi/5.2.0/../../../../arm-eabi/lib/thumb/fpu/cortex_m4\libm.a(lib_a-sf_finite.o)
                                                  k:/electronics/sysgcc/arm-eabi/bin/../lib/gcc/arm-eabi/5.2.0/../../../../arm-eabi/lib/thumb/fpu/cortex_m4\libm.a(lib_a-wf_pow.o)
fmatrix                                           Debug/matmath.o
free                                              k:/electronics/sysgcc/arm-eabi/bin/../lib/gcc/arm-eabi/5.2.0/../../../../arm-eabi/lib/thumb/fpu/cortex_m4\libc.a(lib_a-malloc.o)
                                                  Debug/matmath.o
free_convert_matrix                               Debug/matmath.o
free_cvector                                      Debug/matmath.o
free_dmatrix                                      Debug/matmath.o
free_dvector                                      Debug/matmath.o
free_fmatrix                                      Debug/matmath.o
free_fvector                                      Debug/matmath.o
free_imatrix                                      Debug/matmath.o
free_ivector                                      Debug/matmath.o
free_lvector                                      Debug/matmath.o
free_matrix                                       Debug/matmath.o
free_submatrix                                    Debug/matmath.o
free_vector                                       Debug/matmath.o
from                                              Debug/lsm303_mag.o
fvector                                           Debug/matmath.o
g_pfnVectors                                      Debug/startup_stm32f4xx.o
gaussj                                            Debug/matmath.o
                                                  Debug/kalman_calc.o
generate_measurement_transfer                     Debug/kalman_calc.o
generate_system_transfer                          Debug/kalman_calc.o
global_step                                       Debug/kalman_calc.o
hard_fault_handler_c                              Debug/stm32f4xx_it.o
                                                  Debug/startup_stm32f4xx.o
i2c                                               Debug/twb_i2c.o
imatrix                                           Debug/matmath.o
initialCosValue                                   Debug/twb_math.o
initialise_monitor_handles                        k:/electronics/sysgcc/arm-eabi/bin/../lib/gcc/arm-eabi/5.2.0/../../../../arm-eabi/lib/thumb/fpu/cortex_m4\libc.a(lib_a-syscalls.o)
inputAngle                                        Debug/twb_math.o
isDone                                            Debug/twb_i2c_stm32f4.o
isnumb                                            Debug/gps.o
isr                                               Debug/stm32f4xx_it.o
iter_ext_kalman_init                              Debug/kalman_calc.o
iter_ext_kalman_step                              Debug/kalman_calc.o
ivector                                           Debug/matmath.o
kalman_get_state                                  Debug/kalman_calc.o
kalman_init                                       Debug/kalman_calc.o
kalman_step                                       Debug/kalman_calc.o
lastSensorCount                                   Debug/snsr_main.o
lvector                                           Debug/matmath.o
m                                                 Debug/lsm303_mag.o
magxcomp                                          Debug/lsm303_mag.o
magycomp                                          Debug/lsm303_mag.o
main                                              Debug/main.o
                                                  Debug/startup_stm32f4xx.o
malloc                                            k:/electronics/sysgcc/arm-eabi/bin/../lib/gcc/arm-eabi/5.2.0/../../../../arm-eabi/lib/thumb/fpu/cortex_m4\libc.a(lib_a-malloc.o)
                                                  Debug/matmath.o
mat_add                                           Debug/matmath.o
                                                  Debug/kalman_calc.o
mat_copy                                          Debug/matmath.o
                                                  Debug/kalman_calc.o
mat_mult                                          Debug/matmath.o
                                                  Debug/kalman_calc.o
mat_mult_transpose                                Debug/matmath.o
                                                  Debug/kalman_calc.o
mat_mult_vector                                   Debug/matmath.o
                                                  Debug/kalman_calc.o
mat_sub                                           Debug/matmath.o
mat_transpose_mult                                Debug/matmath.o
                                                  Debug/kalman_calc.o
matherr                                           k:/electronics/sysgcc/arm-eabi/bin/../lib/gcc/arm-eabi/5.2.0/../../../../arm-eabi/lib/thumb/fpu/cortex_m4\libm.a(lib_a-s_matherr.o)
                                                  k:/electronics/sysgcc/arm-eabi/bin/../lib/gcc/arm-eabi/5.2.0/../../../../arm-eabi/lib/thumb/fpu/cortex_m4\libm.a(lib_a-wf_pow.o)
                                                  k:/electronics/sysgcc/arm-eabi/bin/../lib/gcc/arm-eabi/5.2.0/../../../../arm-eabi/lib/thumb/fpu/cortex_m4\libm.a(lib_a-w_sqrt.o)
matrix                                            Debug/matmath.o
                                                  Debug/kalman_calc.o
measurement_size                                  Debug/kalman_calc.o
memcpy                                            k:/electronics/sysgcc/arm-eabi/bin/../lib/gcc/arm-eabi/5.2.0/../../../../arm-eabi/lib/thumb/fpu/cortex_m4\libc.a(lib_a-memcpy.o)
                                                  Debug/nivek_system.o
                                                  Debug/Median.o
                                                  Debug/commo.o
memset                                            k:/electronics/sysgcc/arm-eabi/bin/../lib/gcc/arm-eabi/5.2.0/../../../../arm-eabi/lib/thumb/fpu/cortex_m4\libc.a(lib_a-memset.o)
                                                  k:/electronics/sysgcc/arm-eabi/bin/../lib/gcc/arm-eabi/5.2.0/../../../../arm-eabi/lib/thumb/fpu/cortex_m4\libc.a(lib_a-findfp.o)
                                                  k:/electronics/sysgcc/arm-eabi/bin/../lib/gcc/arm-eabi/5.2.0/../../../../arm-eabi/lib/thumb/fpu/cortex_m4\libc.a(lib_a-syscalls.o)
                                                  Debug/gps.o
minf                                              Debug/twb_common.o
ms                                                Debug/snsr_main.o
msgTypes                                          Debug/gps.o
nanf                                              k:/electronics/sysgcc/arm-eabi/bin/../lib/gcc/arm-eabi/5.2.0/../../../../arm-eabi/lib/thumb/fpu/cortex_m4\libm.a(lib_a-sf_nan.o)
                                                  k:/electronics/sysgcc/arm-eabi/bin/../lib/gcc/arm-eabi/5.2.0/../../../../arm-eabi/lib/thumb/fpu/cortex_m4\libm.a(lib_a-ef_pow.o)
nrerror                                           Debug/matmath.o
parseValue                                        Debug/gps.o
pitchRadians                                      Debug/lsm303_mag.o
pm_malloc                                         Debug/memory_mgmt.o
                                                  Debug/cli.o
                                                  Debug/snsr_mgmt.o
                                                  Debug/snsr_main.o
                                                  Debug/ms5611.o
                                                  Debug/mpu60x0_gryo.o
                                                  Debug/mpu60x0_acc.o
                                                  Debug/lsm303_mag.o
                                                  Debug/lsm303_acc.o
                                                  Debug/l3g20.o
                                                  Debug/complementary.o
                                                  Debug/bmp085.o
                                                  Debug/main.o
                                                  Debug/ctrl_loop.o
                                                  Debug/twb_usb.o
                                                  Debug/commo.o
                                                  Debug/twb_timer.o
                                                  Debug/twb_i2c_stm32f4.o
                                                  Debug/twb_debug.o
pm_printHeapSize                                  Debug/memory_mgmt.o
                                                  Debug/main.o
                                                  Debug/commo.o
powf                                              k:/electronics/sysgcc/arm-eabi/bin/../lib/gcc/arm-eabi/5.2.0/../../../../arm-eabi/lib/thumb/fpu/cortex_m4\libm.a(lib_a-wf_pow.o)
                                                  Debug/ms5611.o
                                                  Debug/bmp085.o
quaternion                                        Debug/matmath.o
quaternion_to_rotation                            Debug/matmath.o
quaternion_update                                 Debug/matmath.o
reset                                             Debug/ms5611.o
rint                                              k:/electronics/sysgcc/arm-eabi/bin/../lib/gcc/arm-eabi/5.2.0/../../../../arm-eabi/lib/thumb/fpu/cortex_m4\libm.a(lib_a-s_rint.o)
                                                  k:/electronics/sysgcc/arm-eabi/bin/../lib/gcc/arm-eabi/5.2.0/../../../../arm-eabi/lib/thumb/fpu/cortex_m4\libm.a(lib_a-wf_pow.o)
rollRadians                                       Debug/lsm303_mag.o
scalbnf                                           k:/electronics/sysgcc/arm-eabi/bin/../lib/gcc/arm-eabi/5.2.0/../../../../arm-eabi/lib/thumb/fpu/cortex_m4\libm.a(lib_a-sf_scalbn.o)
                                                  k:/electronics/sysgcc/arm-eabi/bin/../lib/gcc/arm-eabi/5.2.0/../../../../arm-eabi/lib/thumb/fpu/cortex_m4\libm.a(lib_a-ef_pow.o)
sensorIndex                                       Debug/snsr_main.o
sinPitch                                          Debug/lsm303_mag.o
sinRoll                                           Debug/lsm303_mag.o
sqrt                                              k:/electronics/sysgcc/arm-eabi/bin/../lib/gcc/arm-eabi/5.2.0/../../../../arm-eabi/lib/thumb/fpu/cortex_m4\libm.a(lib_a-w_sqrt.o)
                                                  Debug/twb_math.o
                                                  Debug/matmath.o
state_size                                        Debug/kalman_calc.o
strcmp                                            k:/electronics/sysgcc/arm-eabi/bin/../lib/gcc/arm-eabi/5.2.0/../../../../arm-eabi/lib/thumb/fpu/cortex_m4\libc.a(lib_a-strcmp.o)
                                                  Debug/cli.o
strcpy                                            k:/electronics/sysgcc/arm-eabi/bin/../lib/gcc/arm-eabi/5.2.0/../../../../arm-eabi/lib/thumb/fpu/cortex_m4\libc.a(lib_a-strcpy.o)
                                                  Debug/snsr_mgmt.o
                                                  Debug/wifi.o
                                                  Debug/twb_timer.o
strlen                                            k:/electronics/sysgcc/arm-eabi/bin/../lib/gcc/arm-eabi/5.2.0/../../../../arm-eabi/lib/thumb/fpu/cortex_m4\libc.a(lib_a-strlen.o)
                                                  k:/electronics/sysgcc/arm-eabi/bin/../lib/gcc/arm-eabi/5.2.0/../../../../arm-eabi/lib/thumb/fpu/cortex_m4\libc.a(lib_a-syscalls.o)
                                                  Debug/cli.o
                                                  Debug/snsr_mgmt.o
                                                  Debug/wifi.o
                                                  Debug/twb_timer.o
                                                  Debug/memory_mgmt.o
strncmp                                           k:/electronics/sysgcc/arm-eabi/bin/../lib/gcc/arm-eabi/5.2.0/../../../../arm-eabi/lib/thumb/fpu/cortex_m4\libc.a(lib_a-strncmp.o)
                                                  Debug/cli.o
                                                  Debug/gps.o
strncpy                                           k:/electronics/sysgcc/arm-eabi/bin/../lib/gcc/arm-eabi/5.2.0/../../../../arm-eabi/lib/thumb/fpu/cortex_m4\libc.a(lib_a-strncpy.o)
                                                  Debug/cli.o
                                                  Debug/gps.o
strtol                                            k:/electronics/sysgcc/arm-eabi/bin/../lib/gcc/arm-eabi/5.2.0/../../../../arm-eabi/lib/thumb/fpu/cortex_m4\libc.a(lib_a-strtol.o)
                                                  k:/electronics/sysgcc/arm-eabi/bin/../lib/gcc/arm-eabi/5.2.0/../../../../arm-eabi/lib/thumb/fpu/cortex_m4\libc.a(lib_a-atoi.o)
submatrix                                         Debug/matmath.o
tanRatio                                          Debug/lsm303_mag.o
tbid                                              Debug/snsr_main.o
tempArcTan                                        Debug/lsm303_mag.o
tempHeading                                       Debug/lsm303_mag.o
thisCount                                         Debug/stm32f4xx_it.o
thisCountHere                                     Debug/snsr_main.o
tickCounter                                       Debug/main.o
tickTimer                                         Debug/snsr_main.o
ticks                                             Debug/snsr_main.o
tmpX                                              Debug/lsm303_acc.o
tmpY                                              Debug/lsm303_acc.o
tmpZ                                              Debug/lsm303_acc.o
toDegrees                                         Debug/twb_math.o
                                                  Debug/lsm303_mag.o
toRadians                                         Debug/twb_math.o
                                                  Debug/lsm303_mag.o
twb_asinf                                         Debug/asinf.o
                                                  Debug/mpu60x0_acc.o
                                                  Debug/lsm303_acc.o
twb_atan2f                                        Debug/twb_math.o
                                                  Debug/lsm303_mag.o
twb_atanf                                         Debug/twb_math.o
twb_atof                                          Debug/gps.o
twb_clampf                                        Debug/twb_math.o
                                                  Debug/pid.o
                                                  Debug/ctrl_loop_pid.o
                                                  Debug/autopilot.o
twb_cosf                                          Debug/twb_math.o
                                                  Debug/lsm303_mag.o
twb_itoa                                          Debug/twb_strings.o
                                                  Debug/cli.o
                                                  Debug/main.o
                                                  Debug/twb_debug.o
twb_sinf                                          Debug/twb_math.o
                                                  Debug/lsm303_mag.o
twb_sqrt                                          Debug/twb_math.o
twb_strreverse                                    Debug/twb_strings.o
usbd_cdc_CfgDesc                                  Debug/usbd_cdc_core.o
usbd_cdc_DataIn                                   Debug/usbd_cdc_core.o
usbd_cdc_DataOut                                  Debug/usbd_cdc_core.o
usbd_cdc_DeInit                                   Debug/usbd_cdc_core.o
usbd_cdc_EP0_RxReady                              Debug/usbd_cdc_core.o
usbd_cdc_Init                                     Debug/usbd_cdc_core.o
usbd_cdc_OtherCfgDesc                             Debug/usbd_cdc_core.o
usbd_cdc_SOF                                      Debug/usbd_cdc_core.o
usbd_cdc_Setup                                    Debug/usbd_cdc_core.o
usbd_cdc_iso_in_incomplete                        Debug/usbd_cdc_core.o
usbd_cdc_iso_out_incomplete                       Debug/usbd_cdc_core.o
vec_add                                           Debug/matmath.o
                                                  Debug/kalman_calc.o
vec_copy                                          Debug/matmath.o
                                                  Debug/kalman_calc.o
vec_sub                                           Debug/matmath.o
                                                  Debug/kalman_calc.o
vector                                            Debug/matmath.o
                                                  Debug/kalman_calc.o
vector_cross                                      Debug/twb_math.o
vector_dot                                        Debug/twb_math.o
vector_normalize                                  Debug/twb_math.o
