ARM GAS  C:\Users\Kevin\AppData\Local\Temp\ccAJH9Rf.s 			page 1


   1              		.syntax unified
   2              		.cpu cortex-m4
   3              		.eabi_attribute 27, 3	@ Tag_ABI_HardFP_use
   4              		.eabi_attribute 28, 1	@ Tag_ABI_VFP_args
   5              		.fpu fpv4-sp-d16
   6              		.eabi_attribute 20, 1	@ Tag_ABI_FP_denormal
   7              		.eabi_attribute 21, 1	@ Tag_ABI_FP_exceptions
   8              		.eabi_attribute 23, 3	@ Tag_ABI_FP_number_model
   9              		.eabi_attribute 24, 1	@ Tag_ABI_align8_needed
  10              		.eabi_attribute 25, 1	@ Tag_ABI_align8_preserved
  11              		.eabi_attribute 26, 1	@ Tag_ABI_enum_size
  12              		.eabi_attribute 30, 4	@ Tag_ABI_optimization_goals
  13              		.eabi_attribute 34, 1	@ Tag_CPU_unaligned_access
  14              		.eabi_attribute 18, 4	@ Tag_ABI_PCS_wchar_t
  15              		.file	"median.c"
  16              	@ GNU C (Sourcery CodeBench Lite 2012.09-63) version 4.7.2 (arm-none-eabi)
  17              	@	compiled by GNU C version 4.3.2, GMP version 5.0.5, MPFR version 3.1.1-p2, MPC version 1.0.1
  18              	@ GGC heuristics: --param ggc-min-expand=100 --param ggc-min-heapsize=131072
  19              	@ options passed:  -I . -I \STMSPINCDDIR -I .\stm32f4periph\inc
  20              	@ -I .\CMSIS\Include -I .\inc\commo\usb -I .\inc\commo -I .\inc\common
  21              	@ -I .\inc -imultilib thumb2
  22              	@ -iprefix k:\electronics\gcc\bin\../lib/gcc/arm-none-eabi/4.7.2/
  23              	@ -isysroot k:\electronics\gcc\bin\../arm-none-eabi
  24              	@ -MD .\src\filters\median.d -MF .dep\median.o.d -MP
  25              	@ -MQ .\src\filters\median.o -D__USES_INITFINI__ -D STM32F0XX
  26              	@ -D USE_STDPERIPH_DRIVER -D RUN_FROM_FLASH=1
  27              	@ -D __CS_SOURCERYGXX_MAJ__=2012 -D __CS_SOURCERYGXX_MIN__=9
  28              	@ -D __CS_SOURCERYGXX_REV__=63 .\src\filters\median.c -mcpu=cortex-m4
  29              	@ -mfpu=fpv4-sp-d16 -mfloat-abi=hard -mthumb
  30              	@ -auxbase-strip .\src\filters\median.o -gdwarf-2 -Os -Wall
  31              	@ -Wstrict-prototypes -std=gnu99 -fomit-frame-pointer -fverbose-asm
  32              	@ options enabled:  -fauto-inc-dec -fbranch-count-reg -fcaller-saves
  33              	@ -fcombine-stack-adjustments -fcommon -fcompare-elim -fcprop-registers
  34              	@ -fcrossjumping -fcse-follow-jumps -fdebug-types-section -fdefer-pop
  35              	@ -fdelete-null-pointer-checks -fdevirtualize -fdwarf2-cfi-asm
  36              	@ -fearly-inlining -feliminate-unused-debug-types -fexpensive-optimizations
  37              	@ -fextension-elimination -fforward-propagate -ffunction-cse -fgcse
  38              	@ -fgcse-lm -fgnu-runtime -fguess-branch-probability -fident
  39              	@ -fif-conversion -fif-conversion2 -findirect-inlining -finline
  40              	@ -finline-atomics -finline-functions -finline-functions-called-once
  41              	@ -finline-small-functions -fipa-cp -fipa-profile -fipa-pure-const
  42              	@ -fipa-reference -fipa-sra -fira-share-save-slots -fira-share-spill-slots
  43              	@ -fivopts -fkeep-static-consts -fleading-underscore -fmath-errno
  44              	@ -fmerge-constants -fmerge-debug-strings -fmove-loop-invariants
  45              	@ -fomit-frame-pointer -foptimize-register-move -foptimize-sibling-calls
  46              	@ -fpartial-inlining -fpeephole -fpeephole2 -fprefetch-loop-arrays
  47              	@ -freg-struct-return -fregmove -freorder-blocks -freorder-functions
  48              	@ -frerun-cse-after-loop -fsched-critical-path-heuristic
  49              	@ -fsched-dep-count-heuristic -fsched-group-heuristic -fsched-interblock
  50              	@ -fsched-last-insn-heuristic -fsched-rank-heuristic -fsched-spec
  51              	@ -fsched-spec-insn-heuristic -fsched-stalled-insns-dep -fschedule-insns2
  52              	@ -fsection-anchors -fshow-column -fshrink-wrap -fsigned-zeros
  53              	@ -fsplit-ivs-in-unroller -fsplit-wide-types -fstrict-aliasing
  54              	@ -fstrict-overflow -fstrict-volatile-bitfields -fthread-jumps
  55              	@ -ftoplevel-reorder -ftrapping-math -ftree-bit-ccp -ftree-builtin-call-dce
  56              	@ -ftree-ccp -ftree-ch -ftree-copy-prop -ftree-copyrename -ftree-cselim
  57              	@ -ftree-dce -ftree-dominator-opts -ftree-dse -ftree-forwprop -ftree-fre
ARM GAS  C:\Users\Kevin\AppData\Local\Temp\ccAJH9Rf.s 			page 2


  58              	@ -ftree-if-to-switch-conversion -ftree-loop-if-convert -ftree-loop-im
  59              	@ -ftree-loop-ivcanon -ftree-loop-optimize -ftree-parallelize-loops=
  60              	@ -ftree-phiprop -ftree-pre -ftree-pta -ftree-reassoc -ftree-scev-cprop
  61              	@ -ftree-sink -ftree-slp-vectorize -ftree-sra -ftree-switch-conversion
  62              	@ -ftree-tail-merge -ftree-ter -ftree-vect-loop-version -ftree-vrp
  63              	@ -funit-at-a-time -fvar-tracking -fvar-tracking-assignments -fverbose-asm
  64              	@ -fzero-initialized-in-bss -mlittle-endian -msched-prolog -mthumb
  65              	@ -munaligned-access -mvectorize-with-neon-quad
  66              	
  67              		.text
  68              	.Ltext0:
  69              		.cfi_sections	.debug_frame
  70              		.align	1
  71              		.global	TWB_Filter_Median_Apply_Float
  72              		.thumb
  73              		.thumb_func
  74              		.type	TWB_Filter_Median_Apply_Float, %function
  75              	TWB_Filter_Median_Apply_Float:
  76              	.LFB110:
  77              		.file 1 ".\\src\\filters\\median.c"
   1:.\src\filters/median.c **** /*
   2:.\src\filters/median.c ****  * Median.c
   3:.\src\filters/median.c ****  *
   4:.\src\filters/median.c ****  *  Created on: Nov 25, 2012
   5:.\src\filters/median.c ****  *      Author: kevinw
   6:.\src\filters/median.c ****  */
   7:.\src\filters/median.c **** 
   8:.\src\filters/median.c **** #include "Filters/Filter.h"
   9:.\src\filters/median.c **** #include <string.h>
  10:.\src\filters/median.c **** #include "common/twb_debug.h"
  11:.\src\filters/median.c **** 
  12:.\src\filters/median.c **** /*
  13:.\src\filters/median.c **** 	FilterOption_None = 0,
  14:.\src\filters/median.c **** 	FilterOption_Median_3_Sample = 1,
  15:.\src\filters/median.c **** 	FilterOption_Median_5_Sample = 2,
  16:.\src\filters/median.c **** 	FilterOption_Median_7_Sample = 3,
  17:.\src\filters/median.c **** 	FilterOption_Median_9_Sample = 4,
  18:.\src\filters/median.c **** 	FilterOption_Moving_Average_0_01 = 20,
  19:.\src\filters/median.c **** 	FilterOption_Moving_Average_0_1 = 21,
  20:.\src\filters/median.c **** 	FilterOption_Moving_Average_1 = 22,
  21:.\src\filters/median.c **** 	FilterOption_Moving_Average_2 = 23,
  22:.\src\filters/median.c **** 	FilterOption_Moving_Average_5 = 24,
  23:.\src\filters/median.c **** 	FilterOption_Moving_Average_10 = 25,
  24:.\src\filters/median.c **** 	FilterOption_Moving_Average_15 = 26,
  25:.\src\filters/median.c **** 	FilterOption_Moving_Average_20 = 27,
  26:.\src\filters/median.c **** 	FilterOption_Moving_Average_25 = 28,
  27:.\src\filters/median.c **** 	FilterOption_Moving_Average_33 = 29,
  28:.\src\filters/median.c **** 	FilterOption_Moving_Average_50 = 30,
  29:.\src\filters/median.c **** */
  30:.\src\filters/median.c **** 
  31:.\src\filters/median.c **** uint16_t __medianFilterTempHistory[MAX_HISTORY];
  32:.\src\filters/median.c **** int16_t __medianFilterSignedTempHistory[MAX_HISTORY];
  33:.\src\filters/median.c **** float __medianFilterFloatTempHistory[MAX_HISTORY];
  34:.\src\filters/median.c **** 
  35:.\src\filters/median.c **** void TWB_Filter_Median_Apply_Float(FilterFloat_t *filter, float currentValue){
  78              		.loc 1 35 0
  79              		.cfi_startproc
ARM GAS  C:\Users\Kevin\AppData\Local\Temp\ccAJH9Rf.s 			page 3


  80              		@ args = 0, pretend = 0, frame = 0
  81              		@ frame_needed = 0, uses_anonymous_args = 0
  82              	.LVL0:
  83 0000 F8B5     		push	{r3, r4, r5, r6, r7, lr}	@
  84              	.LCFI0:
  85              		.cfi_def_cfa_offset 24
  86              		.cfi_offset 3, -24
  87              		.cfi_offset 4, -20
  88              		.cfi_offset 5, -16
  89              		.cfi_offset 6, -12
  90              		.cfi_offset 7, -8
  91              		.cfi_offset 14, -4
  36:.\src\filters/median.c **** 	if(filter->FilterType == FilterOption_None){
  92              		.loc 1 36 0
  93 0002 4378     		ldrb	r3, [r0, #1]	@ zero_extendqisi2	@ D.9088, filter_4(D)->FilterType
  35:.\src\filters/median.c **** void TWB_Filter_Median_Apply_Float(FilterFloat_t *filter, float currentValue){
  94              		.loc 1 35 0
  95 0004 2DED028B 		fstmfdd	sp!, {d8}	@,
  96              	.LCFI1:
  97              		.cfi_def_cfa_offset 32
  98              		.cfi_offset 80, -32
  35:.\src\filters/median.c **** void TWB_Filter_Median_Apply_Float(FilterFloat_t *filter, float currentValue){
  99              		.loc 1 35 0
 100 0008 0446     		mov	r4, r0	@ filter, filter
 101 000a B0EE408A 		fcpys	s16, s0	@ currentValue, currentValue
 102              		.loc 1 36 0
 103 000e 13B9     		cbnz	r3, .L2	@ D.9088,
  37:.\src\filters/median.c **** 		filter->Current = currentValue;
 104              		.loc 1 37 0
 105 0010 84ED0A0A 		fsts	s0, [r4, #40]	@ currentValue, filter_4(D)->Current
  38:.\src\filters/median.c **** 		return;
 106              		.loc 1 38 0
 107 0014 CEE0     		b	.L1	@
 108              	.L2:
 109              	.LVL1:
  39:.\src\filters/median.c **** 	}
  40:.\src\filters/median.c **** 
  41:.\src\filters/median.c **** 	FilterOptions_t medianFilterType = filter->FilterType & 0x0F;
  42:.\src\filters/median.c **** 	FilterOptions_t movingAverageFilterType = filter->FilterType & 0xF0;
  43:.\src\filters/median.c **** 
  44:.\src\filters/median.c **** 	if(medianFilterType != FilterOption_None){
 110              		.loc 1 44 0
 111 0016 13F00F07 		ands	r7, r3, #15	@ medianFilterType, D.9088,
  42:.\src\filters/median.c **** 	FilterOptions_t movingAverageFilterType = filter->FilterType & 0xF0;
 112              		.loc 1 42 0
 113 001a 03F0F005 		and	r5, r3, #240	@ movingAverageFilterType, D.9088,
 114              	.LVL2:
 115              		.loc 1 44 0
 116 001e 3FD0     		beq	.L4	@,
 117              	.LBB2:
  45:.\src\filters/median.c **** 		uint8_t maxSize = medianFilterType * 2 + 1;
 118              		.loc 1 45 0
 119 0020 7E00     		lsls	r6, r7, #1	@ tmp203, medianFilterType,
 120 0022 0136     		adds	r6, r6, #1	@ maxSize, tmp203,
 121              	.LVL3:
  46:.\src\filters/median.c **** 		uint8_t idx = 0;
  47:.\src\filters/median.c **** 		float tmp;
ARM GAS  C:\Users\Kevin\AppData\Local\Temp\ccAJH9Rf.s 			page 4


  48:.\src\filters/median.c **** 
  49:.\src\filters/median.c **** 		if(maxSize > 9){
 122              		.loc 1 49 0
 123 0024 092E     		cmp	r6, #9	@ maxSize,
 124 0026 03D9     		bls	.L5	@,
  50:.\src\filters/median.c **** 			filter->CurrentSlot = 0;
  51:.\src\filters/median.c **** 			filter->History[filter->CurrentSlot++] = currentValue;
 125              		.loc 1 51 0
 126 0028 84ED010A 		fsts	s0, [r4, #4]	@ currentValue, filter_4(D)->History
 127 002c 0123     		movs	r3, #1	@ tmp206,
 128              	.LVL4:
 129 002e 05E0     		b	.L42	@
 130              	.LVL5:
 131              	.L5:
  52:.\src\filters/median.c **** 		}
  53:.\src\filters/median.c **** 		else
  54:.\src\filters/median.c **** 			filter->History[filter->CurrentSlot++] = currentValue;
 132              		.loc 1 54 0
 133 0030 0378     		ldrb	r3, [r0, #0]	@ zero_extendqisi2	@ D.9096, filter_4(D)->CurrentSlot
 134              	.LVL6:
 135 0032 00EB8302 		add	r2, r0, r3, lsl #2	@, tmp209, filter, D.9096,
 136 0036 82ED010A 		fsts	s0, [r2, #4]	@ currentValue, filter_4(D)->History
 137 003a 0133     		adds	r3, r3, #1	@ tmp211, D.9096,
 138              	.L42:
 139 003c 2370     		strb	r3, [r4, #0]	@ tmp211, filter_4(D)->CurrentSlot
  55:.\src\filters/median.c **** 
  56:.\src\filters/median.c **** 		if(filter->CurrentSlot == maxSize){
 140              		.loc 1 56 0
 141 003e 2378     		ldrb	r3, [r4, #0]	@ zero_extendqisi2	@ filter_4(D)->CurrentSlot, filter_4(D)->CurrentSlot
 142 0040 B342     		cmp	r3, r6	@ filter_4(D)->CurrentSlot, maxSize
 143 0042 04D1     		bne	.L7	@,
  57:.\src\filters/median.c **** 			filter->CurrentSlot = 0;
 144              		.loc 1 57 0
 145 0044 0023     		movs	r3, #0	@ tmp214,
 146 0046 2370     		strb	r3, [r4, #0]	@ tmp214, filter_4(D)->CurrentSlot
  58:.\src\filters/median.c **** 			filter->IsInitialized = true;
 147              		.loc 1 58 0
 148 0048 FF23     		movs	r3, #255	@ tmp216,
 149 004a 84F83030 		strb	r3, [r4, #48]	@ tmp216, filter_4(D)->IsInitialized
 150              	.L7:
  59:.\src\filters/median.c **** 		}
  60:.\src\filters/median.c **** 
  61:.\src\filters/median.c **** 		memcpy(__medianFilterFloatTempHistory, filter->History, maxSize * sizeof(float));
 151              		.loc 1 61 0
 152 004e B200     		lsls	r2, r6, #2	@, maxSize,
 153 0050 5A48     		ldr	r0, .L43	@,
 154              	.LVL7:
 155 0052 211D     		adds	r1, r4, #4	@, filter,
 156 0054 FFF7FEFF 		bl	memcpy	@
 157              	.LVL8:
  62:.\src\filters/median.c **** 
  63:.\src\filters/median.c **** 		//TODO implement a faster sort
  64:.\src\filters/median.c **** 		//Simple, inefficient bubble sort, but we only have a max of 9 items
  65:.\src\filters/median.c **** 		while(idx < maxSize - 1){
 158              		.loc 1 65 0
 159 0058 013E     		subs	r6, r6, #1	@ tmp251, maxSize,
 160              	.LVL9:
ARM GAS  C:\Users\Kevin\AppData\Local\Temp\ccAJH9Rf.s 			page 5


  46:.\src\filters/median.c **** 		uint8_t idx = 0;
 161              		.loc 1 46 0
 162 005a 0023     		movs	r3, #0	@ idx,
  66:.\src\filters/median.c **** 			if(__medianFilterFloatTempHistory[idx] > __medianFilterFloatTempHistory[idx + 1]){
 163              		.loc 1 66 0
 164 005c 574A     		ldr	r2, .L43	@ tmp252,
  65:.\src\filters/median.c **** 		while(idx < maxSize - 1){
 165              		.loc 1 65 0
 166 005e 14E0     		b	.L40	@
 167              	.LVL10:
 168              	.L12:
 169              		.loc 1 66 0
 170 0060 02EB8300 		add	r0, r2, r3, lsl #2	@, tmp228, tmp252, idx,
 171 0064 0133     		adds	r3, r3, #1	@ D.9107, idx,
 172              	.LVL11:
 173 0066 02EB8301 		add	r1, r2, r3, lsl #2	@, tmp231, tmp252, D.9107,
 174 006a D0ED007A 		flds	s15, [r0, #0]	@ D.9106, __medianFilterFloatTempHistory
 175 006e 91ED007A 		flds	s14, [r1, #0]	@ D.9108, __medianFilterFloatTempHistory
 176 0072 F4EEC77A 		fcmpes	s15, s14	@ D.9106, D.9108
 177 0076 F1EE10FA 		fmstat
 178 007a 05DD     		ble	.L41	@,
 179              	.LVL12:
  67:.\src\filters/median.c **** 				tmp = __medianFilterFloatTempHistory[idx];
  68:.\src\filters/median.c **** 				__medianFilterFloatTempHistory[idx] = __medianFilterFloatTempHistory[idx + 1];
 180              		.loc 1 68 0
 181 007c 80ED007A 		fsts	s14, [r0, #0]	@ D.9108, __medianFilterFloatTempHistory
  69:.\src\filters/median.c **** 				__medianFilterFloatTempHistory[idx + 1] = tmp;
  70:.\src\filters/median.c **** 				idx = 0;
 182              		.loc 1 70 0
 183 0080 0023     		movs	r3, #0	@ idx,
 184              	.LVL13:
  69:.\src\filters/median.c **** 				__medianFilterFloatTempHistory[idx + 1] = tmp;
 185              		.loc 1 69 0
 186 0082 C1ED007A 		fsts	s15, [r1, #0]	@ D.9106, __medianFilterFloatTempHistory
 187              	.LVL14:
 188 0086 00E0     		b	.L40	@
 189              	.LVL15:
 190              	.L41:
  71:.\src\filters/median.c **** 			}
  72:.\src\filters/median.c **** 			else
  73:.\src\filters/median.c **** 				idx++;
 191              		.loc 1 73 0
 192 0088 DBB2     		uxtb	r3, r3	@ idx, D.9107
 193              	.LVL16:
 194              	.L40:
  65:.\src\filters/median.c **** 		while(idx < maxSize - 1){
 195              		.loc 1 65 0 discriminator 1
 196 008a B342     		cmp	r3, r6	@ idx, tmp251
 197 008c E8DB     		blt	.L12	@,
  74:.\src\filters/median.c **** 		}
  75:.\src\filters/median.c **** 
  76:.\src\filters/median.c **** 		if(filter->IsInitialized == 0)
 198              		.loc 1 76 0
 199 008e 94F83030 		ldrb	r3, [r4, #48]	@ zero_extendqisi2	@ filter_4(D)->IsInitialized, filter_4(D)->IsInitialized
 200              	.LVL17:
 201 0092 2BB9     		cbnz	r3, .L4	@ filter_4(D)->IsInitialized,
  77:.\src\filters/median.c **** 			filter->Current = __medianFilterFloatTempHistory[medianFilterType]; //FilterType just so happens
ARM GAS  C:\Users\Kevin\AppData\Local\Temp\ccAJH9Rf.s 			page 6


 202              		.loc 1 77 0
 203 0094 494B     		ldr	r3, .L43	@ tmp241,
 204 0096 03EB8707 		add	r7, r3, r7, lsl #2	@, tmp243, tmp241, medianFilterType,
 205 009a 3B68     		ldr	r3, [r7, #0]	@ float	@ tmp244, __medianFilterFloatTempHistory
 206 009c A362     		str	r3, [r4, #40]	@ float	@ tmp244, filter_4(D)->Current
 207 009e 01E0     		b	.L14	@
 208              	.LVL18:
 209              	.L4:
 210              	.LBE2:
  78:.\src\filters/median.c **** 		else
  79:.\src\filters/median.c **** 			filter->Current = currentValue;
  80:.\src\filters/median.c **** 	}
  81:.\src\filters/median.c **** 	else
  82:.\src\filters/median.c **** 		filter->Current = currentValue;
 211              		.loc 1 82 0
 212 00a0 84ED0A8A 		fsts	s16, [r4, #40]	@ currentValue, filter_4(D)->Current
 213              	.L14:
  83:.\src\filters/median.c **** 
  84:.\src\filters/median.c **** 	//TODO: These need to really be compensated for by sample rate.
  85:.\src\filters/median.c **** 	if(movingAverageFilterType != FilterOption_None && filter->Previous != 0.0f){
 214              		.loc 1 85 0
 215 00a4 002D     		cmp	r5, #0	@ movingAverageFilterType
 216 00a6 00F08380 		beq	.L15	@
 217              		.loc 1 85 0 is_stmt 0 discriminator 1
 218 00aa D4ED0B6A 		flds	s13, [r4, #44]	@ D.9123, filter_4(D)->Previous
 219 00ae F5EE406A 		fcmpzs	s13	@ D.9123
 220 00b2 F1EE10FA 		fmstat
 221 00b6 7BD0     		beq	.L15	@,
 222              	.LVL19:
 223              	.LBB3:
  86:.\src\filters/median.c **** 		float currentFactor = 1.0f;
  87:.\src\filters/median.c **** 		float previousFactor = 0.0f;
  88:.\src\filters/median.c **** 
  89:.\src\filters/median.c **** 		switch(movingAverageFilterType){
 224              		.loc 1 89 0 is_stmt 1
 225 00b8 802D     		cmp	r5, #128	@ movingAverageFilterType,
 226 00ba 40D0     		beq	.L24	@,
 227 00bc 10D8     		bhi	.L32	@,
 228 00be 402D     		cmp	r5, #64	@ movingAverageFilterType,
 229 00c0 29D0     		beq	.L20	@,
 230 00c2 06D8     		bhi	.L33	@,
 231 00c4 202D     		cmp	r5, #32	@ movingAverageFilterType,
 232 00c6 67D0     		beq	.L35	@,
 233 00c8 302D     		cmp	r5, #48	@ movingAverageFilterType,
 234 00ca 1FD0     		beq	.L19	@,
 235 00cc 102D     		cmp	r5, #16	@ movingAverageFilterType,
 236 00ce 5ED1     		bne	.L16	@,
 237 00d0 17E0     		b	.L17	@
 238              	.L33:
 239 00d2 602D     		cmp	r5, #96	@ movingAverageFilterType,
 240 00d4 29D0     		beq	.L22	@,
 241 00d6 702D     		cmp	r5, #112	@ movingAverageFilterType,
 242 00d8 2CD0     		beq	.L23	@,
 243 00da 502D     		cmp	r5, #80	@ movingAverageFilterType,
 244 00dc 57D1     		bne	.L16	@,
 245 00de 1FE0     		b	.L21	@
 246              	.L32:
ARM GAS  C:\Users\Kevin\AppData\Local\Temp\ccAJH9Rf.s 			page 7


 247 00e0 C02D     		cmp	r5, #192	@ movingAverageFilterType,
 248 00e2 40D0     		beq	.L28	@,
 249 00e4 06D8     		bhi	.L34	@,
 250 00e6 A02D     		cmp	r5, #160	@ movingAverageFilterType,
 251 00e8 33D0     		beq	.L26	@,
 252 00ea B02D     		cmp	r5, #176	@ movingAverageFilterType,
 253 00ec 36D0     		beq	.L27	@,
 254 00ee 902D     		cmp	r5, #144	@ movingAverageFilterType,
 255 00f0 4DD1     		bne	.L16	@,
 256 00f2 29E0     		b	.L25	@
 257              	.L34:
 258 00f4 E02D     		cmp	r5, #224	@ movingAverageFilterType,
 259 00f6 40D0     		beq	.L30	@,
 260 00f8 F02D     		cmp	r5, #240	@ movingAverageFilterType,
 261 00fa 43D0     		beq	.L31	@,
 262 00fc D02D     		cmp	r5, #208	@ movingAverageFilterType,
 263 00fe 46D1     		bne	.L16	@,
 264 0100 36E0     		b	.L29	@
 265              	.L17:
  90:.\src\filters/median.c **** 			case FilterOption_Moving_Average_0_01: previousFactor = 0.9999f; currentFactor = 0.0001f; break;
 266              		.loc 1 90 0
 267 0102 DFED2F7A 		flds	s15, .L43+4	@ previousFactor,
 268 0106 9FED2F7A 		flds	s14, .L43+8	@ currentFactor,
 269 010a 49E0     		b	.L18	@
 270              	.L19:
 271              	.LVL20:
  91:.\src\filters/median.c **** 			case FilterOption_Moving_Average_0_1: previousFactor = 0.999f; currentFactor = 0.001f; break;
  92:.\src\filters/median.c **** 			case FilterOption_Moving_Average_1: previousFactor = 0.99f; currentFactor = 0.01f; break;
 272              		.loc 1 92 0
 273 010c DFED2E7A 		flds	s15, .L43+12	@ previousFactor,
 274 0110 9FED2E7A 		flds	s14, .L43+16	@ currentFactor,
 275 0114 44E0     		b	.L18	@
 276              	.LVL21:
 277              	.L20:
  93:.\src\filters/median.c **** 			case FilterOption_Moving_Average_2: previousFactor = 0.98f; currentFactor = 0.02f; break;
 278              		.loc 1 93 0
 279 0116 DFED2E7A 		flds	s15, .L43+20	@ previousFactor,
 280 011a 9FED2E7A 		flds	s14, .L43+24	@ currentFactor,
 281 011e 3FE0     		b	.L18	@
 282              	.LVL22:
 283              	.L21:
  94:.\src\filters/median.c **** 			case FilterOption_Moving_Average_5: previousFactor = 0.95f; currentFactor = 0.05f; break;
 284              		.loc 1 94 0
 285 0120 DFED2D7A 		flds	s15, .L43+28	@ previousFactor,
 286 0124 9FED2D7A 		flds	s14, .L43+32	@ currentFactor,
 287 0128 3AE0     		b	.L18	@
 288              	.LVL23:
 289              	.L22:
  95:.\src\filters/median.c **** 			case FilterOption_Moving_Average_10: previousFactor = 0.90f; currentFactor = 0.10f; break;
 290              		.loc 1 95 0
 291 012a DFED2D7A 		flds	s15, .L43+36	@ previousFactor,
 292 012e 9FED2D7A 		flds	s14, .L43+40	@ currentFactor,
 293 0132 35E0     		b	.L18	@
 294              	.LVL24:
 295              	.L23:
  96:.\src\filters/median.c **** 			case FilterOption_Moving_Average_15: previousFactor = 0.85f; currentFactor = 0.15f; break;
 296              		.loc 1 96 0
ARM GAS  C:\Users\Kevin\AppData\Local\Temp\ccAJH9Rf.s 			page 8


 297 0134 DFED2C7A 		flds	s15, .L43+44	@ previousFactor,
 298 0138 9FED2C7A 		flds	s14, .L43+48	@ currentFactor,
 299 013c 30E0     		b	.L18	@
 300              	.LVL25:
 301              	.L24:
  97:.\src\filters/median.c **** 			case FilterOption_Moving_Average_20: previousFactor = 0.80f; currentFactor = 0.2f; break;
 302              		.loc 1 97 0
 303 013e DFED2C7A 		flds	s15, .L43+52	@ previousFactor,
 304 0142 9FED2C7A 		flds	s14, .L43+56	@ currentFactor,
 305 0146 2BE0     		b	.L18	@
 306              	.LVL26:
 307              	.L25:
  98:.\src\filters/median.c **** 			case FilterOption_Moving_Average_30: previousFactor = 0.70f; currentFactor = 0.3f; break;
 308              		.loc 1 98 0
 309 0148 DFED2B7A 		flds	s15, .L43+60	@ previousFactor,
 310 014c 9FED2B7A 		flds	s14, .L43+64	@ currentFactor,
 311 0150 26E0     		b	.L18	@
 312              	.LVL27:
 313              	.L26:
  99:.\src\filters/median.c **** 			case FilterOption_Moving_Average_40: previousFactor = 0.6f; currentFactor = 0.4f; break;
 314              		.loc 1 99 0
 315 0152 DFED2B7A 		flds	s15, .L43+68	@ previousFactor,
 316 0156 9FED2B7A 		flds	s14, .L43+72	@ currentFactor,
 317 015a 21E0     		b	.L18	@
 318              	.LVL28:
 319              	.L27:
 100:.\src\filters/median.c **** 			case FilterOption_Moving_Average_50: previousFactor = 0.5f; currentFactor = 0.5f; break;
 320              		.loc 1 100 0
 321 015c F6EE007A 		fconsts	s15, #96	@ previousFactor,
 322 0160 B0EE677A 		fcpys	s14, s15	@ currentFactor, previousFactor
 323 0164 1CE0     		b	.L18	@
 324              	.LVL29:
 325              	.L28:
 101:.\src\filters/median.c **** 			case FilterOption_Moving_Average_60: previousFactor = 0.4f; currentFactor = 0.6f; break;
 326              		.loc 1 101 0
 327 0166 DFED277A 		flds	s15, .L43+72	@ previousFactor,
 328 016a 9FED257A 		flds	s14, .L43+68	@ currentFactor,
 329 016e 17E0     		b	.L18	@
 330              	.LVL30:
 331              	.L29:
 102:.\src\filters/median.c **** 			case FilterOption_Moving_Average_70: previousFactor = 0.3f; currentFactor = 0.7f; break;
 332              		.loc 1 102 0
 333 0170 DFED227A 		flds	s15, .L43+64	@ previousFactor,
 334 0174 9FED207A 		flds	s14, .L43+60	@ currentFactor,
 335 0178 12E0     		b	.L18	@
 336              	.LVL31:
 337              	.L30:
 103:.\src\filters/median.c **** 			case FilterOption_Moving_Average_80: previousFactor = 0.2f; currentFactor = 0.8f; break;
 338              		.loc 1 103 0
 339 017a DFED1E7A 		flds	s15, .L43+56	@ previousFactor,
 340 017e 9FED1C7A 		flds	s14, .L43+52	@ currentFactor,
 341 0182 0DE0     		b	.L18	@
 342              	.LVL32:
 343              	.L31:
 104:.\src\filters/median.c **** 			case FilterOption_Moving_Average_90: previousFactor = 0.1f; currentFactor = 0.9f; break;
 344              		.loc 1 104 0
 345 0184 DFED177A 		flds	s15, .L43+40	@ previousFactor,
ARM GAS  C:\Users\Kevin\AppData\Local\Temp\ccAJH9Rf.s 			page 9


 346 0188 9FED157A 		flds	s14, .L43+36	@ currentFactor,
 347 018c 08E0     		b	.L18	@
 348              	.LVL33:
 349              	.L16:
 105:.\src\filters/median.c **** 			default: previousFactor = 0.0f; currentFactor = 1.0f; break;
 350              		.loc 1 105 0
 351 018e DFED1E7A 		flds	s15, .L43+76	@ previousFactor,
 352 0192 B7EE007A 		fconsts	s14, #112	@ currentFactor,
 353 0196 03E0     		b	.L18	@
 354              	.L35:
  91:.\src\filters/median.c **** 			case FilterOption_Moving_Average_0_1: previousFactor = 0.999f; currentFactor = 0.001f; break;
 355              		.loc 1 91 0
 356 0198 DFED1C7A 		flds	s15, .L43+80	@ previousFactor,
 357 019c 9FED1C7A 		flds	s14, .L43+84	@ currentFactor,
 358              	.LVL34:
 359              	.L18:
 106:.\src\filters/median.c **** 		}
 107:.\src\filters/median.c **** 
 108:.\src\filters/median.c **** 		filter->Current = filter->Current * currentFactor + filter->Previous * previousFactor;
 360              		.loc 1 108 0
 361 01a0 94ED0A6A 		flds	s12, [r4, #40]	@ filter_4(D)->Current, filter_4(D)->Current
 362 01a4 66EEA77A 		fmuls	s15, s13, s15	@ tmp249, D.9123, previousFactor
 363              	.LVL35:
 364 01a8 47EE067A 		fmacs	s15, s14, s12	@ tmp249, currentFactor, filter_4(D)->Current
 365 01ac C4ED0A7A 		fsts	s15, [r4, #40]	@ tmp249, filter_4(D)->Current
 366              	.LVL36:
 367              	.L15:
 368              	.LBE3:
 109:.\src\filters/median.c **** 	}
 110:.\src\filters/median.c **** 
 111:.\src\filters/median.c **** 	filter->Previous = filter->Current;
 369              		.loc 1 111 0
 370 01b0 A36A     		ldr	r3, [r4, #40]	@ float	@ filter_4(D)->Current, filter_4(D)->Current
 371 01b2 E362     		str	r3, [r4, #44]	@ float	@ filter_4(D)->Current, filter_4(D)->Previous
 372              	.LVL37:
 373              	.L1:
 112:.\src\filters/median.c **** }
 374              		.loc 1 112 0
 375 01b4 BDEC028B 		fldmfdd	sp!, {d8}
 376 01b8 F8BD     		pop	{r3, r4, r5, r6, r7, pc}
 377              	.L44:
 378 01ba 00BF     		.align	2
 379              	.L43:
 380 01bc 00000000 		.word	__medianFilterFloatTempHistory
 381 01c0 72F97F3F 		.word	1065351538
 382 01c4 17B7D138 		.word	953267991
 383 01c8 A4707D3F 		.word	1065185444
 384 01cc 0AD7233C 		.word	1008981770
 385 01d0 48E17A3F 		.word	1065017672
 386 01d4 0AD7A33C 		.word	1017370378
 387 01d8 3333733F 		.word	1064514355
 388 01dc CDCC4C3D 		.word	1028443341
 389 01e0 6666663F 		.word	1063675494
 390 01e4 CDCCCC3D 		.word	1036831949
 391 01e8 9A99593F 		.word	1062836634
 392 01ec 9A99193E 		.word	1041865114
 393 01f0 CDCC4C3F 		.word	1061997773
ARM GAS  C:\Users\Kevin\AppData\Local\Temp\ccAJH9Rf.s 			page 10


 394 01f4 CDCC4C3E 		.word	1045220557
 395 01f8 3333333F 		.word	1060320051
 396 01fc 9A99993E 		.word	1050253722
 397 0200 9A99193F 		.word	1058642330
 398 0204 CDCCCC3E 		.word	1053609165
 399 0208 00000000 		.word	0
 400 020c 77BE7F3F 		.word	1065336439
 401 0210 6F12833A 		.word	981668463
 402              		.cfi_endproc
 403              	.LFE110:
 404              		.size	TWB_Filter_Median_Apply_Float, .-TWB_Filter_Median_Apply_Float
 405              		.align	1
 406              		.global	TWB_Filter_Median_Apply
 407              		.thumb
 408              		.thumb_func
 409              		.type	TWB_Filter_Median_Apply, %function
 410              	TWB_Filter_Median_Apply:
 411              	.LFB111:
 113:.\src\filters/median.c **** 
 114:.\src\filters/median.c **** 
 115:.\src\filters/median.c **** void TWB_Filter_Median_Apply(Filter_t *filter, uint16_t currentValue){
 412              		.loc 1 115 0
 413              		.cfi_startproc
 414              		@ args = 0, pretend = 0, frame = 16
 415              		@ frame_needed = 0, uses_anonymous_args = 0
 416              	.LVL38:
 417 0214 2DE9FF41 		push	{r0, r1, r2, r3, r4, r5, r6, r7, r8, lr}	@
 418              	.LCFI2:
 419              		.cfi_def_cfa_offset 40
 420              		.cfi_offset 0, -40
 421              		.cfi_offset 1, -36
 422              		.cfi_offset 2, -32
 423              		.cfi_offset 3, -28
 424              		.cfi_offset 4, -24
 425              		.cfi_offset 5, -20
 426              		.cfi_offset 6, -16
 427              		.cfi_offset 7, -12
 428              		.cfi_offset 8, -8
 429              		.cfi_offset 14, -4
 116:.\src\filters/median.c **** 	if(filter->FilterType == FilterOption_None){
 430              		.loc 1 116 0
 431 0218 4378     		ldrb	r3, [r0, #1]	@ zero_extendqisi2	@ D.9040, filter_4(D)->FilterType
 115:.\src\filters/median.c **** void TWB_Filter_Median_Apply(Filter_t *filter, uint16_t currentValue){
 432              		.loc 1 115 0
 433 021a 0546     		mov	r5, r0	@ filter, filter
 434 021c 0E46     		mov	r6, r1	@ currentValue, currentValue
 435              		.loc 1 116 0
 436 021e 0BB9     		cbnz	r3, .L46	@ D.9040,
 117:.\src\filters/median.c **** 		filter->Current = currentValue;
 437              		.loc 1 117 0
 438 0220 A982     		strh	r1, [r5, #20]	@ movhi	@ currentValue, filter_4(D)->Current
 118:.\src\filters/median.c **** 		return;
 439              		.loc 1 118 0
 440 0222 CBE0     		b	.L45	@
 441              	.L46:
 442              	.LVL39:
 119:.\src\filters/median.c **** 	}
ARM GAS  C:\Users\Kevin\AppData\Local\Temp\ccAJH9Rf.s 			page 11


 120:.\src\filters/median.c **** 
 121:.\src\filters/median.c **** 	FilterOptions_t medianFilterType = filter->FilterType & 0x0F;
 122:.\src\filters/median.c **** 	FilterOptions_t movingAverageFilterType = filter->FilterType & 0xF0;
 123:.\src\filters/median.c **** 
 124:.\src\filters/median.c **** 	if(medianFilterType != FilterOption_None){
 443              		.loc 1 124 0
 444 0224 13F00F08 		ands	r8, r3, #15	@ medianFilterType, D.9040,
 122:.\src\filters/median.c **** 	FilterOptions_t movingAverageFilterType = filter->FilterType & 0xF0;
 445              		.loc 1 122 0
 446 0228 03F0F004 		and	r4, r3, #240	@ movingAverageFilterType, D.9040,
 447              	.LVL40:
 448              		.loc 1 124 0
 449 022c 32D0     		beq	.L49	@,
 450              	.LBB4:
 125:.\src\filters/median.c **** 		uint8_t maxSize = medianFilterType * 2 + 1;
 451              		.loc 1 125 0
 452 022e 4FEA4807 		lsl	r7, r8, #1	@ tmp174, medianFilterType,
 453 0232 0137     		adds	r7, r7, #1	@ maxSize, tmp174,
 454              	.LVL41:
 126:.\src\filters/median.c **** 		uint8_t idx = 0;
 127:.\src\filters/median.c **** 		uint16_t tmp;
 128:.\src\filters/median.c **** 
 129:.\src\filters/median.c **** 		if(maxSize > 9){
 455              		.loc 1 129 0
 456 0234 092F     		cmp	r7, #9	@ maxSize,
 457 0236 02D9     		bls	.L50	@,
 130:.\src\filters/median.c **** 			filter->CurrentSlot = 0;
 131:.\src\filters/median.c **** 			filter->History[filter->CurrentSlot++] = currentValue;
 458              		.loc 1 131 0
 459 0238 6980     		strh	r1, [r5, #2]	@ movhi	@ currentValue, filter_4(D)->History
 460 023a 0123     		movs	r3, #1	@ tmp178,
 461              	.LVL42:
 462 023c 04E0     		b	.L89	@
 463              	.LVL43:
 464              	.L50:
 132:.\src\filters/median.c **** 		}
 133:.\src\filters/median.c **** 		else
 134:.\src\filters/median.c **** 			filter->History[filter->CurrentSlot++] = currentValue;
 465              		.loc 1 134 0
 466 023e 0378     		ldrb	r3, [r0, #0]	@ zero_extendqisi2	@ D.9048, filter_4(D)->CurrentSlot
 467              	.LVL44:
 468 0240 00EB4302 		add	r2, r0, r3, lsl #1	@, tmp180, filter, D.9048,
 469 0244 0133     		adds	r3, r3, #1	@ tmp183, D.9048,
 470 0246 5180     		strh	r1, [r2, #2]	@ movhi	@ currentValue, filter_4(D)->History
 471              	.L89:
 472 0248 2B70     		strb	r3, [r5, #0]	@ tmp183, filter_4(D)->CurrentSlot
 135:.\src\filters/median.c **** 
 136:.\src\filters/median.c **** 		if(filter->CurrentSlot == maxSize){
 473              		.loc 1 136 0
 474 024a 2B78     		ldrb	r3, [r5, #0]	@ zero_extendqisi2	@ filter_4(D)->CurrentSlot, filter_4(D)->CurrentSlot
 475 024c BB42     		cmp	r3, r7	@ filter_4(D)->CurrentSlot, maxSize
 476 024e 03D1     		bne	.L52	@,
 137:.\src\filters/median.c **** 			filter->CurrentSlot = 0;
 477              		.loc 1 137 0
 478 0250 0023     		movs	r3, #0	@ tmp186,
 479 0252 2B70     		strb	r3, [r5, #0]	@ tmp186, filter_4(D)->CurrentSlot
 138:.\src\filters/median.c **** 			filter->IsInitialized = true;
ARM GAS  C:\Users\Kevin\AppData\Local\Temp\ccAJH9Rf.s 			page 12


 480              		.loc 1 138 0
 481 0254 FF23     		movs	r3, #255	@ tmp188,
 482 0256 2B76     		strb	r3, [r5, #24]	@ tmp188, filter_4(D)->IsInitialized
 483              	.L52:
 139:.\src\filters/median.c **** 		}
 140:.\src\filters/median.c **** 
 141:.\src\filters/median.c **** 		memcpy(__medianFilterTempHistory, filter->History, maxSize * sizeof(uint16_t));
 484              		.loc 1 141 0
 485 0258 7A00     		lsls	r2, r7, #1	@, maxSize,
 486 025a 5948     		ldr	r0, .L91	@,
 487              	.LVL45:
 488 025c A91C     		adds	r1, r5, #2	@, filter,
 489              	.LVL46:
 490 025e FFF7FEFF 		bl	memcpy	@
 491              	.LVL47:
 142:.\src\filters/median.c **** 
 143:.\src\filters/median.c **** 		//TODO implement a faster sort
 144:.\src\filters/median.c **** 		//Simple, inefficient bubble sort, but we only have a max of 9 items
 145:.\src\filters/median.c **** 		while(idx < maxSize - 1){
 492              		.loc 1 145 0
 493 0262 013F     		subs	r7, r7, #1	@ tmp261, maxSize,
 494              	.LVL48:
 126:.\src\filters/median.c **** 		uint8_t idx = 0;
 495              		.loc 1 126 0
 496 0264 0023     		movs	r3, #0	@ idx,
 146:.\src\filters/median.c **** 			if(__medianFilterTempHistory[idx] > __medianFilterTempHistory[idx + 1]){
 497              		.loc 1 146 0
 498 0266 564A     		ldr	r2, .L91	@ tmp262,
 145:.\src\filters/median.c **** 		while(idx < maxSize - 1){
 499              		.loc 1 145 0
 500 0268 0DE0     		b	.L88	@
 501              	.LVL49:
 502              	.L56:
 503              		.loc 1 146 0
 504 026a 591C     		adds	r1, r3, #1	@ D.9059, idx,
 505 026c 32F81300 		ldrh	r0, [r2, r3, lsl #1]	@ D.9058, __medianFilterTempHistory
 506 0270 32F811C0 		ldrh	ip, [r2, r1, lsl #1]	@ D.9060, __medianFilterTempHistory
 507 0274 6045     		cmp	r0, ip	@ D.9058, D.9060
 508 0276 05D9     		bls	.L54	@,
 509              	.LVL50:
 147:.\src\filters/median.c **** 				tmp = __medianFilterTempHistory[idx];
 148:.\src\filters/median.c **** 				__medianFilterTempHistory[idx] = __medianFilterTempHistory[idx + 1];
 510              		.loc 1 148 0
 511 0278 22F813C0 		strh	ip, [r2, r3, lsl #1]	@ movhi	@ D.9060, __medianFilterTempHistory
 149:.\src\filters/median.c **** 				__medianFilterTempHistory[idx + 1] = tmp;
 512              		.loc 1 149 0
 513 027c 22F81100 		strh	r0, [r2, r1, lsl #1]	@ movhi	@ D.9058, __medianFilterTempHistory
 514              	.LVL51:
 150:.\src\filters/median.c **** 				idx = 0;
 515              		.loc 1 150 0
 516 0280 0023     		movs	r3, #0	@ idx,
 517              	.LVL52:
 518 0282 00E0     		b	.L88	@
 519              	.LVL53:
 520              	.L54:
 151:.\src\filters/median.c **** 			}
 152:.\src\filters/median.c **** 			else
ARM GAS  C:\Users\Kevin\AppData\Local\Temp\ccAJH9Rf.s 			page 13


 153:.\src\filters/median.c **** 				idx++;
 521              		.loc 1 153 0
 522 0284 CBB2     		uxtb	r3, r1	@ idx, D.9059
 523              	.LVL54:
 524              	.L88:
 145:.\src\filters/median.c **** 		while(idx < maxSize - 1){
 525              		.loc 1 145 0 discriminator 1
 526 0286 BB42     		cmp	r3, r7	@ idx, tmp261
 527 0288 EFDB     		blt	.L56	@,
 154:.\src\filters/median.c **** 		}
 155:.\src\filters/median.c **** 
 156:.\src\filters/median.c **** 		if(filter->IsInitialized)
 528              		.loc 1 156 0
 529 028a 2B7E     		ldrb	r3, [r5, #24]	@ zero_extendqisi2	@ filter_4(D)->IsInitialized, filter_4(D)->IsInitialized
 530              	.LVL55:
 531 028c 13B1     		cbz	r3, .L49	@ filter_4(D)->IsInitialized,
 157:.\src\filters/median.c **** 			currentValue = __medianFilterTempHistory[medianFilterType]; //FilterType just so happens to be i
 532              		.loc 1 157 0
 533 028e 4C4B     		ldr	r3, .L91	@ tmp207,
 534 0290 33F81860 		ldrh	r6, [r3, r8, lsl #1]	@ currentValue, __medianFilterTempHistory
 535              	.LVL56:
 536              	.L49:
 537              	.LBE4:
 158:.\src\filters/median.c **** 
 159:.\src\filters/median.c **** 	}
 160:.\src\filters/median.c **** 
 161:.\src\filters/median.c **** 	//TODO: These need to really be compensated for by sample rate.
 162:.\src\filters/median.c **** 	if(movingAverageFilterType != FilterOption_None && filter->Previous != 0){
 538              		.loc 1 162 0
 539 0294 002C     		cmp	r4, #0	@ movingAverageFilterType
 540 0296 00F08F80 		beq	.L58	@
 541              		.loc 1 162 0 is_stmt 0 discriminator 1
 542 029a EB8A     		ldrh	r3, [r5, #22]	@ D.9072, filter_4(D)->Previous
 543 029c 002B     		cmp	r3, #0	@ D.9072
 544 029e 00F08B80 		beq	.L58	@
 545              	.LBB5:
 163:.\src\filters/median.c **** 		volatile float currentFactor = 1.0f;
 164:.\src\filters/median.c **** 		volatile float previousFactor = 0.0f;
 546              		.loc 1 164 0 is_stmt 1
 547 02a2 0022     		movs	r2, #0	@ tmp209,
 163:.\src\filters/median.c **** 		volatile float currentFactor = 1.0f;
 548              		.loc 1 163 0
 549 02a4 4FF07E51 		mov	r1, #1065353216	@ tmp208,
 165:.\src\filters/median.c **** 
 166:.\src\filters/median.c **** 		switch(movingAverageFilterType){
 550              		.loc 1 166 0
 551 02a8 802C     		cmp	r4, #128	@ movingAverageFilterType,
 163:.\src\filters/median.c **** 		volatile float currentFactor = 1.0f;
 552              		.loc 1 163 0
 553 02aa 0291     		str	r1, [sp, #8]	@ float	@ tmp208, currentFactor
 554              	.LVL57:
 164:.\src\filters/median.c **** 		volatile float previousFactor = 0.0f;
 555              		.loc 1 164 0
 556 02ac 0392     		str	r2, [sp, #12]	@ float	@ tmp209, previousFactor
 557              	.LVL58:
 558              		.loc 1 166 0
 559 02ae 3FD0     		beq	.L67	@,
ARM GAS  C:\Users\Kevin\AppData\Local\Temp\ccAJH9Rf.s 			page 14


 560 02b0 10D8     		bhi	.L75	@,
 561 02b2 402C     		cmp	r4, #64	@ movingAverageFilterType,
 562 02b4 2CD0     		beq	.L63	@,
 563 02b6 06D8     		bhi	.L76	@,
 564 02b8 202C     		cmp	r4, #32	@ movingAverageFilterType,
 565 02ba 20D0     		beq	.L61	@,
 566 02bc 302C     		cmp	r4, #48	@ movingAverageFilterType,
 567 02be 23D0     		beq	.L62	@,
 568 02c0 102C     		cmp	r4, #16	@ movingAverageFilterType,
 569 02c2 55D1     		bne	.L59	@,
 570 02c4 17E0     		b	.L60	@
 571              	.L76:
 572 02c6 602C     		cmp	r4, #96	@ movingAverageFilterType,
 573 02c8 2AD0     		beq	.L65	@,
 574 02ca 702C     		cmp	r4, #112	@ movingAverageFilterType,
 575 02cc 2CD0     		beq	.L66	@,
 576 02ce 502C     		cmp	r4, #80	@ movingAverageFilterType,
 577 02d0 4ED1     		bne	.L59	@,
 578 02d2 21E0     		b	.L64	@
 579              	.L75:
 580 02d4 C02C     		cmp	r4, #192	@ movingAverageFilterType,
 581 02d6 3BD0     		beq	.L71	@,
 582 02d8 06D8     		bhi	.L77	@,
 583 02da A02C     		cmp	r4, #160	@ movingAverageFilterType,
 584 02dc 30D0     		beq	.L69	@,
 585 02de B02C     		cmp	r4, #176	@ movingAverageFilterType,
 586 02e0 32D0     		beq	.L70	@,
 587 02e2 902C     		cmp	r4, #144	@ movingAverageFilterType,
 588 02e4 44D1     		bne	.L59	@,
 589 02e6 27E0     		b	.L68	@
 590              	.L77:
 591 02e8 E02C     		cmp	r4, #224	@ movingAverageFilterType,
 592 02ea 39D0     		beq	.L73	@,
 593 02ec F02C     		cmp	r4, #240	@ movingAverageFilterType,
 594 02ee 3BD0     		beq	.L74	@,
 595 02f0 D02C     		cmp	r4, #208	@ movingAverageFilterType,
 596 02f2 3DD1     		bne	.L59	@,
 597 02f4 30E0     		b	.L72	@
 598              	.L60:
 167:.\src\filters/median.c **** 			case FilterOption_Moving_Average_0_01: previousFactor = 0.9999f; currentFactor = 0.0001f; break;
 599              		.loc 1 167 0
 600 02f6 334A     		ldr	r2, .L91+4	@ tmp210,
 601 02f8 0392     		str	r2, [sp, #12]	@ float	@ tmp210, previousFactor
 602 02fa 334A     		ldr	r2, .L91+8	@ tmp211,
 603 02fc 02E0     		b	.L90	@
 604              	.L61:
 168:.\src\filters/median.c **** 			case FilterOption_Moving_Average_0_1: previousFactor = 0.999f; currentFactor = 0.001f; break;
 605              		.loc 1 168 0
 606 02fe 334A     		ldr	r2, .L91+12	@ tmp212,
 607 0300 0392     		str	r2, [sp, #12]	@ float	@ tmp212, previousFactor
 608 0302 334A     		ldr	r2, .L91+16	@ tmp213,
 609              	.L90:
 610 0304 0292     		str	r2, [sp, #8]	@ float	@ tmp213, currentFactor
 611 0306 35E0     		b	.L78	@
 612              	.L62:
 169:.\src\filters/median.c **** 			case FilterOption_Moving_Average_1: previousFactor = 0.99f; currentFactor = 0.01f; break;
 613              		.loc 1 169 0
ARM GAS  C:\Users\Kevin\AppData\Local\Temp\ccAJH9Rf.s 			page 15


 614 0308 324A     		ldr	r2, .L91+20	@ tmp214,
 615 030a 0392     		str	r2, [sp, #12]	@ float	@ tmp214, previousFactor
 616 030c 324A     		ldr	r2, .L91+24	@ tmp215,
 617 030e F9E7     		b	.L90	@
 618              	.L63:
 170:.\src\filters/median.c **** 			case FilterOption_Moving_Average_2: previousFactor = 0.98f; currentFactor = 0.02f; break;
 619              		.loc 1 170 0
 620 0310 324A     		ldr	r2, .L91+28	@ tmp216,
 621 0312 0392     		str	r2, [sp, #12]	@ float	@ tmp216, previousFactor
 622 0314 324A     		ldr	r2, .L91+32	@ tmp217,
 623 0316 F5E7     		b	.L90	@
 624              	.L64:
 171:.\src\filters/median.c **** 			case FilterOption_Moving_Average_5: previousFactor = 0.95f; currentFactor = 0.05f; break;
 625              		.loc 1 171 0
 626 0318 324A     		ldr	r2, .L91+36	@ tmp218,
 627 031a 0392     		str	r2, [sp, #12]	@ float	@ tmp218, previousFactor
 628 031c 324A     		ldr	r2, .L91+40	@ tmp219,
 629 031e F1E7     		b	.L90	@
 630              	.L65:
 172:.\src\filters/median.c **** 			case FilterOption_Moving_Average_10: previousFactor = 0.90f; currentFactor = 0.10f; break;
 631              		.loc 1 172 0
 632 0320 324A     		ldr	r2, .L91+44	@ tmp220,
 633 0322 0392     		str	r2, [sp, #12]	@ float	@ tmp220, previousFactor
 634 0324 324A     		ldr	r2, .L91+48	@ tmp221,
 635 0326 EDE7     		b	.L90	@
 636              	.L66:
 173:.\src\filters/median.c **** 			case FilterOption_Moving_Average_15: previousFactor = 0.85f; currentFactor = 0.15f; break;
 637              		.loc 1 173 0
 638 0328 324A     		ldr	r2, .L91+52	@ tmp222,
 639 032a 0392     		str	r2, [sp, #12]	@ float	@ tmp222, previousFactor
 640 032c 324A     		ldr	r2, .L91+56	@ tmp223,
 641 032e E9E7     		b	.L90	@
 642              	.L67:
 174:.\src\filters/median.c **** 			case FilterOption_Moving_Average_20: previousFactor = 0.80f; currentFactor = 0.2f; break;
 643              		.loc 1 174 0
 644 0330 324A     		ldr	r2, .L91+60	@ tmp224,
 645 0332 0392     		str	r2, [sp, #12]	@ float	@ tmp224, previousFactor
 646 0334 324A     		ldr	r2, .L91+64	@ tmp225,
 647 0336 E5E7     		b	.L90	@
 648              	.L68:
 175:.\src\filters/median.c **** 			case FilterOption_Moving_Average_30: previousFactor = 0.70f; currentFactor = 0.3f; break;
 649              		.loc 1 175 0
 650 0338 324A     		ldr	r2, .L91+68	@ tmp226,
 651 033a 0392     		str	r2, [sp, #12]	@ float	@ tmp226, previousFactor
 652 033c 324A     		ldr	r2, .L91+72	@ tmp227,
 653 033e E1E7     		b	.L90	@
 654              	.L69:
 176:.\src\filters/median.c **** 			case FilterOption_Moving_Average_40: previousFactor = 0.6f; currentFactor = 0.4f; break;
 655              		.loc 1 176 0
 656 0340 324A     		ldr	r2, .L91+76	@ tmp228,
 657 0342 0392     		str	r2, [sp, #12]	@ float	@ tmp228, previousFactor
 658 0344 324A     		ldr	r2, .L91+80	@ tmp229,
 659 0346 DDE7     		b	.L90	@
 660              	.L70:
 177:.\src\filters/median.c **** 			case FilterOption_Moving_Average_50: previousFactor = 0.5f; currentFactor = 0.5f; break;
 661              		.loc 1 177 0
 662 0348 4FF07C52 		mov	r2, #1056964608	@ tmp230,
ARM GAS  C:\Users\Kevin\AppData\Local\Temp\ccAJH9Rf.s 			page 16


 663 034c 0392     		str	r2, [sp, #12]	@ float	@ tmp230, previousFactor
 664 034e D9E7     		b	.L90	@
 665              	.L71:
 178:.\src\filters/median.c **** 			case FilterOption_Moving_Average_60: previousFactor = 0.4f; currentFactor = 0.6f; break;
 666              		.loc 1 178 0
 667 0350 2F4A     		ldr	r2, .L91+80	@ tmp232,
 668 0352 0392     		str	r2, [sp, #12]	@ float	@ tmp232, previousFactor
 669 0354 2D4A     		ldr	r2, .L91+76	@ tmp233,
 670 0356 D5E7     		b	.L90	@
 671              	.L72:
 179:.\src\filters/median.c **** 			case FilterOption_Moving_Average_70: previousFactor = 0.3f; currentFactor = 0.7f; break;
 672              		.loc 1 179 0
 673 0358 2B4A     		ldr	r2, .L91+72	@ tmp234,
 674 035a 0392     		str	r2, [sp, #12]	@ float	@ tmp234, previousFactor
 675 035c 294A     		ldr	r2, .L91+68	@ tmp235,
 676 035e D1E7     		b	.L90	@
 677              	.L73:
 180:.\src\filters/median.c **** 			case FilterOption_Moving_Average_80: previousFactor = 0.2f; currentFactor = 0.8f; break;
 678              		.loc 1 180 0
 679 0360 274A     		ldr	r2, .L91+64	@ tmp236,
 680 0362 0392     		str	r2, [sp, #12]	@ float	@ tmp236, previousFactor
 681 0364 254A     		ldr	r2, .L91+60	@ tmp237,
 682 0366 CDE7     		b	.L90	@
 683              	.L74:
 181:.\src\filters/median.c **** 			case FilterOption_Moving_Average_90: previousFactor = 0.1f; currentFactor = 0.9f; break;
 684              		.loc 1 181 0
 685 0368 214A     		ldr	r2, .L91+48	@ tmp238,
 686 036a 0392     		str	r2, [sp, #12]	@ float	@ tmp238, previousFactor
 687 036c 1F4A     		ldr	r2, .L91+44	@ tmp239,
 688 036e C9E7     		b	.L90	@
 689              	.L59:
 182:.\src\filters/median.c **** 
 183:.\src\filters/median.c **** 			default: previousFactor = 0.0f; currentFactor = 1.0f; break;
 690              		.loc 1 183 0
 691 0370 0392     		str	r2, [sp, #12]	@ float	@ tmp260, previousFactor
 692 0372 0291     		str	r1, [sp, #8]	@ float	@ tmp259, currentFactor
 693              	.L78:
 184:.\src\filters/median.c **** 		}
 185:.\src\filters/median.c **** 
 186:.\src\filters/median.c **** 		volatile uint16_t part1 = (uint16_t)((float)currentValue * currentFactor);
 694              		.loc 1 186 0
 695 0374 06EE906A 		fmsr	s13, r6	@ int	@, currentValue
 696 0378 DDED027A 		flds	s15, [sp, #8]	@ currentFactor.17, currentFactor
 697 037c B8EE667A 		fuitos	s14, s13	@ tmp242,
 187:.\src\filters/median.c **** 		volatile uint16_t part2 = (uint16_t)((float)filter->Previous * previousFactor);
 698              		.loc 1 187 0
 699 0380 06EE903A 		fmsr	s13, r3	@ int	@, D.9072
 186:.\src\filters/median.c **** 		volatile uint16_t part1 = (uint16_t)((float)currentValue * currentFactor);
 700              		.loc 1 186 0
 701 0384 67EE277A 		fmuls	s15, s14, s15	@ tmp243, tmp242, currentFactor.17
 702              		.loc 1 187 0
 703 0388 B8EE667A 		fuitos	s14, s13	@ tmp247,
 186:.\src\filters/median.c **** 		volatile uint16_t part1 = (uint16_t)((float)currentValue * currentFactor);
 704              		.loc 1 186 0
 705 038c FCEEE77A 		ftouizs	s15, s15	@, tmp243
 706 0390 17EE902A 		fmrs	r2, s15	@ int	@ tmp245,
 707 0394 ADF80420 		strh	r2, [sp, #4]	@ movhi	@ tmp245, part1
ARM GAS  C:\Users\Kevin\AppData\Local\Temp\ccAJH9Rf.s 			page 17


 708              	.LVL59:
 709              		.loc 1 187 0
 710 0398 DDED037A 		flds	s15, [sp, #12]	@ previousFactor.19, previousFactor
 711 039c 67EE277A 		fmuls	s15, s14, s15	@ tmp248, tmp247, previousFactor.19
 712 03a0 FCEEE77A 		ftouizs	s15, s15	@, tmp248
 713 03a4 17EE903A 		fmrs	r3, s15	@ int	@ tmp250,
 714 03a8 ADF80630 		strh	r3, [sp, #6]	@ movhi	@ tmp250, part2
 715              	.LVL60:
 188:.\src\filters/median.c **** 
 189:.\src\filters/median.c **** 		currentValue = (uint16_t)(part1 + part2);
 716              		.loc 1 189 0
 717 03ac BDF80430 		ldrh	r3, [sp, #4]	@, part1
 718 03b0 BDF80660 		ldrh	r6, [sp, #6]	@, part2
 719              	.LVL61:
 720 03b4 F618     		adds	r6, r6, r3	@ tmp256, part2, part1
 721 03b6 B6B2     		uxth	r6, r6	@ currentValue, tmp256
 722              	.LVL62:
 723              	.L58:
 724              	.LBE5:
 190:.\src\filters/median.c **** 	}
 191:.\src\filters/median.c **** 
 192:.\src\filters/median.c **** 	filter->Current = currentValue;
 725              		.loc 1 192 0
 726 03b8 AE82     		strh	r6, [r5, #20]	@ movhi	@ currentValue, filter_4(D)->Current
 193:.\src\filters/median.c **** 	filter->Previous = filter->Current;
 727              		.loc 1 193 0
 728 03ba EE82     		strh	r6, [r5, #22]	@ movhi	@ currentValue, filter_4(D)->Previous
 729              	.LVL63:
 730              	.L45:
 194:.\src\filters/median.c **** }
 731              		.loc 1 194 0
 732 03bc BDE8FF81 		pop	{r0, r1, r2, r3, r4, r5, r6, r7, r8, pc}
 733              	.L92:
 734              		.align	2
 735              	.L91:
 736 03c0 00000000 		.word	__medianFilterTempHistory
 737 03c4 72F97F3F 		.word	1065351538
 738 03c8 17B7D138 		.word	953267991
 739 03cc 77BE7F3F 		.word	1065336439
 740 03d0 6F12833A 		.word	981668463
 741 03d4 A4707D3F 		.word	1065185444
 742 03d8 0AD7233C 		.word	1008981770
 743 03dc 48E17A3F 		.word	1065017672
 744 03e0 0AD7A33C 		.word	1017370378
 745 03e4 3333733F 		.word	1064514355
 746 03e8 CDCC4C3D 		.word	1028443341
 747 03ec 6666663F 		.word	1063675494
 748 03f0 CDCCCC3D 		.word	1036831949
 749 03f4 9A99593F 		.word	1062836634
 750 03f8 9A99193E 		.word	1041865114
 751 03fc CDCC4C3F 		.word	1061997773
 752 0400 CDCC4C3E 		.word	1045220557
 753 0404 3333333F 		.word	1060320051
 754 0408 9A99993E 		.word	1050253722
 755 040c 9A99193F 		.word	1058642330
 756 0410 CDCCCC3E 		.word	1053609165
 757              		.cfi_endproc
ARM GAS  C:\Users\Kevin\AppData\Local\Temp\ccAJH9Rf.s 			page 18


 758              	.LFE111:
 759              		.size	TWB_Filter_Median_Apply, .-TWB_Filter_Median_Apply
 760              		.align	1
 761              		.global	TWB_Filter_Median_Apply_Signed
 762              		.thumb
 763              		.thumb_func
 764              		.type	TWB_Filter_Median_Apply_Signed, %function
 765              	TWB_Filter_Median_Apply_Signed:
 766              	.LFB112:
 195:.\src\filters/median.c **** 
 196:.\src\filters/median.c **** void TWB_Filter_Median_Apply_Signed(FilterSigned_t *filter, int16_t currentValue){
 767              		.loc 1 196 0
 768              		.cfi_startproc
 769              		@ args = 0, pretend = 0, frame = 16
 770              		@ frame_needed = 0, uses_anonymous_args = 0
 771              	.LVL64:
 772 0414 2DE9FF41 		push	{r0, r1, r2, r3, r4, r5, r6, r7, r8, lr}	@
 773              	.LCFI3:
 774              		.cfi_def_cfa_offset 40
 775              		.cfi_offset 0, -40
 776              		.cfi_offset 1, -36
 777              		.cfi_offset 2, -32
 778              		.cfi_offset 3, -28
 779              		.cfi_offset 4, -24
 780              		.cfi_offset 5, -20
 781              		.cfi_offset 6, -16
 782              		.cfi_offset 7, -12
 783              		.cfi_offset 8, -8
 784              		.cfi_offset 14, -4
 197:.\src\filters/median.c **** 	if(filter->FilterType == FilterOption_None){
 785              		.loc 1 197 0
 786 0418 4378     		ldrb	r3, [r0, #1]	@ zero_extendqisi2	@ D.8979, filter_4(D)->FilterType
 196:.\src\filters/median.c **** void TWB_Filter_Median_Apply_Signed(FilterSigned_t *filter, int16_t currentValue){
 787              		.loc 1 196 0
 788 041a 0446     		mov	r4, r0	@ filter, filter
 789 041c 0D46     		mov	r5, r1	@ currentValue, currentValue
 790              		.loc 1 197 0
 791 041e 0BB9     		cbnz	r3, .L94	@ D.8979,
 198:.\src\filters/median.c **** 		filter->Current = currentValue;
 792              		.loc 1 198 0
 793 0420 A182     		strh	r1, [r4, #20]	@ movhi	@ currentValue, filter_4(D)->Current
 199:.\src\filters/median.c **** 		return;
 794              		.loc 1 199 0
 795 0422 E7E0     		b	.L93	@
 796              	.L94:
 200:.\src\filters/median.c **** 	}
 201:.\src\filters/median.c **** 
 202:.\src\filters/median.c **** 	volatile FilterOptions_t medianFilterType = filter->FilterType & 0x0F;
 797              		.loc 1 202 0
 798 0424 03F00F02 		and	r2, r3, #15	@ medianFilterType.0, D.8979,
 799              	.LVL65:
 203:.\src\filters/median.c **** 	volatile FilterOptions_t movingAverageFilterType = filter->FilterType & 0xF0;
 800              		.loc 1 203 0
 801 0428 03F0F003 		and	r3, r3, #240	@ movingAverageFilterType.1, D.8979,
 802              	.LVL66:
 202:.\src\filters/median.c **** 	volatile FilterOptions_t medianFilterType = filter->FilterType & 0x0F;
 803              		.loc 1 202 0
ARM GAS  C:\Users\Kevin\AppData\Local\Temp\ccAJH9Rf.s 			page 19


 804 042c 8DF80020 		strb	r2, [sp, #0]	@ medianFilterType.0, medianFilterType
 805              	.LVL67:
 806              		.loc 1 203 0
 807 0430 8DF80130 		strb	r3, [sp, #1]	@ movingAverageFilterType.1, movingAverageFilterType
 204:.\src\filters/median.c **** 
 205:.\src\filters/median.c **** 	if(medianFilterType != FilterOption_None){
 808              		.loc 1 205 0
 809 0434 9DF80030 		ldrb	r3, [sp, #0]	@ zero_extendqisi2	@ medianFilterType, medianFilterType
 810              	.LVL68:
 811 0438 002B     		cmp	r3, #0	@ medianFilterType
 812 043a 3FD0     		beq	.L97	@
 813              	.LBB6:
 206:.\src\filters/median.c **** 		uint8_t maxSize = medianFilterType * 2 + 1;
 814              		.loc 1 206 0
 815 043c 9DF80060 		ldrb	r6, [sp, #0]	@ zero_extendqisi2	@ medianFilterType, medianFilterType
 816              	.LVL69:
 817 0440 7600     		lsls	r6, r6, #1	@ tmp209, medianFilterType,
 818              	.LVL70:
 819 0442 0136     		adds	r6, r6, #1	@ tmp211, tmp209,
 820 0444 F6B2     		uxtb	r6, r6	@ maxSize, tmp211
 821              	.LVL71:
 207:.\src\filters/median.c **** 		uint8_t idx = 0;
 208:.\src\filters/median.c **** 		int16_t tmp;
 209:.\src\filters/median.c **** 
 210:.\src\filters/median.c **** 		if(maxSize > 9){
 822              		.loc 1 210 0
 823 0446 092E     		cmp	r6, #9	@ maxSize,
 824 0448 02D9     		bls	.L98	@,
 211:.\src\filters/median.c **** 			filter->CurrentSlot = 0;
 212:.\src\filters/median.c **** 			filter->History[filter->CurrentSlot++] = currentValue;
 825              		.loc 1 212 0
 826 044a 6180     		strh	r1, [r4, #2]	@ movhi	@ currentValue, filter_4(D)->History
 827 044c 0123     		movs	r3, #1	@ tmp213,
 828 044e 04E0     		b	.L134	@
 829              	.L98:
 213:.\src\filters/median.c **** 		}
 214:.\src\filters/median.c **** 		else
 215:.\src\filters/median.c **** 			filter->History[filter->CurrentSlot++] = currentValue;
 830              		.loc 1 215 0
 831 0450 0378     		ldrb	r3, [r0, #0]	@ zero_extendqisi2	@ D.8991, filter_4(D)->CurrentSlot
 832 0452 00EB4302 		add	r2, r0, r3, lsl #1	@, tmp215, filter, D.8991,
 833 0456 0133     		adds	r3, r3, #1	@ tmp218, D.8991,
 834 0458 5180     		strh	r1, [r2, #2]	@ movhi	@ currentValue, filter_4(D)->History
 835              	.L134:
 836 045a 2370     		strb	r3, [r4, #0]	@ tmp218, filter_4(D)->CurrentSlot
 216:.\src\filters/median.c **** 
 217:.\src\filters/median.c **** 		if(filter->CurrentSlot == maxSize){
 837              		.loc 1 217 0
 838 045c 2378     		ldrb	r3, [r4, #0]	@ zero_extendqisi2	@ filter_4(D)->CurrentSlot, filter_4(D)->CurrentSlot
 839 045e B342     		cmp	r3, r6	@ filter_4(D)->CurrentSlot, maxSize
 840 0460 03D1     		bne	.L100	@,
 218:.\src\filters/median.c **** 			filter->CurrentSlot = 0;
 841              		.loc 1 218 0
 842 0462 0023     		movs	r3, #0	@ tmp221,
 843 0464 2370     		strb	r3, [r4, #0]	@ tmp221, filter_4(D)->CurrentSlot
 219:.\src\filters/median.c **** 			filter->IsInitialized = true;
 844              		.loc 1 219 0
ARM GAS  C:\Users\Kevin\AppData\Local\Temp\ccAJH9Rf.s 			page 20


 845 0466 FF23     		movs	r3, #255	@ tmp223,
 846 0468 2376     		strb	r3, [r4, #24]	@ tmp223, filter_4(D)->IsInitialized
 847              	.L100:
 220:.\src\filters/median.c **** 		}
 221:.\src\filters/median.c **** 
 222:.\src\filters/median.c **** 		memcpy(__medianFilterSignedTempHistory, filter->History, maxSize * sizeof(int16_t));
 848              		.loc 1 222 0
 849 046a 7200     		lsls	r2, r6, #1	@, maxSize,
 850 046c 6248     		ldr	r0, .L136	@,
 851              	.LVL72:
 852 046e A11C     		adds	r1, r4, #2	@, filter,
 853              	.LVL73:
 854 0470 FFF7FEFF 		bl	memcpy	@
 855              	.LVL74:
 223:.\src\filters/median.c **** 
 224:.\src\filters/median.c **** 		//TODO implement a faster sort
 225:.\src\filters/median.c **** 		//Simple, inefficient bubble sort, but we only have a max of 9 items
 226:.\src\filters/median.c **** 		while(idx < maxSize - 1){
 856              		.loc 1 226 0
 857 0474 013E     		subs	r6, r6, #1	@ tmp316, maxSize,
 858              	.LVL75:
 207:.\src\filters/median.c **** 		uint8_t idx = 0;
 859              		.loc 1 207 0
 860 0476 0023     		movs	r3, #0	@ idx,
 227:.\src\filters/median.c **** 			if(__medianFilterSignedTempHistory[idx] > __medianFilterSignedTempHistory[idx + 1]){
 861              		.loc 1 227 0
 862 0478 5F4A     		ldr	r2, .L136	@ tmp317,
 226:.\src\filters/median.c **** 		while(idx < maxSize - 1){
 863              		.loc 1 226 0
 864 047a 11E0     		b	.L133	@
 865              	.LVL76:
 866              	.L104:
 867              		.loc 1 227 0
 868 047c 591C     		adds	r1, r3, #1	@ D.9002, idx,
 869 047e 32F81300 		ldrh	r0, [r2, r3, lsl #1]	@ D.9001, __medianFilterSignedTempHistory
 870 0482 32F81170 		ldrh	r7, [r2, r1, lsl #1]	@ D.9003, __medianFilterSignedTempHistory
 871 0486 0FFA80F8 		sxth	r8, r0	@ D.9001, D.9001
 872 048a 0FFA87FC 		sxth	ip, r7	@ D.9003, D.9003
 873 048e E045     		cmp	r8, ip	@ D.9001, D.9003
 874 0490 05DD     		ble	.L102	@,
 875              	.LVL77:
 228:.\src\filters/median.c **** 				tmp = __medianFilterSignedTempHistory[idx];
 229:.\src\filters/median.c **** 				__medianFilterSignedTempHistory[idx] = __medianFilterSignedTempHistory[idx + 1];
 876              		.loc 1 229 0
 877 0492 22F81370 		strh	r7, [r2, r3, lsl #1]	@ movhi	@ D.9003, __medianFilterSignedTempHistory
 230:.\src\filters/median.c **** 				__medianFilterSignedTempHistory[idx + 1] = tmp;
 878              		.loc 1 230 0
 879 0496 22F81100 		strh	r0, [r2, r1, lsl #1]	@ movhi	@ D.9001, __medianFilterSignedTempHistory
 880              	.LVL78:
 231:.\src\filters/median.c **** 				idx = 0;
 881              		.loc 1 231 0
 882 049a 0023     		movs	r3, #0	@ idx,
 883              	.LVL79:
 884 049c 00E0     		b	.L133	@
 885              	.LVL80:
 886              	.L102:
 232:.\src\filters/median.c **** 			}
ARM GAS  C:\Users\Kevin\AppData\Local\Temp\ccAJH9Rf.s 			page 21


 233:.\src\filters/median.c **** 			else
 234:.\src\filters/median.c **** 				idx++;
 887              		.loc 1 234 0
 888 049e CBB2     		uxtb	r3, r1	@ idx, D.9002
 889              	.LVL81:
 890              	.L133:
 226:.\src\filters/median.c **** 		while(idx < maxSize - 1){
 891              		.loc 1 226 0 discriminator 1
 892 04a0 B342     		cmp	r3, r6	@ idx, tmp316
 893 04a2 EBDB     		blt	.L104	@,
 235:.\src\filters/median.c **** 		}
 236:.\src\filters/median.c **** 
 237:.\src\filters/median.c **** 		if(filter->IsInitialized){
 894              		.loc 1 237 0
 895 04a4 237E     		ldrb	r3, [r4, #24]	@ zero_extendqisi2	@ filter_4(D)->IsInitialized, filter_4(D)->IsInitialized
 896              	.LVL82:
 897 04a6 4BB1     		cbz	r3, .L97	@ filter_4(D)->IsInitialized,
 898              	.LBB7:
 238:.\src\filters/median.c **** 			volatile uint16_t slotIndex = medianFilterType;
 899              		.loc 1 238 0
 900 04a8 9DF80030 		ldrb	r3, [sp, #0]	@ zero_extendqisi2	@ medianFilterType, medianFilterType
 901              	.LVL83:
 902 04ac ADF80230 		strh	r3, [sp, #2]	@ movhi	@ medianFilterType.4, slotIndex
 903              	.LVL84:
 239:.\src\filters/median.c **** 			currentValue = __medianFilterSignedTempHistory[slotIndex]; //FilterType just so happens to be in
 904              		.loc 1 239 0
 905 04b0 BDF80220 		ldrh	r2, [sp, #2]	@, slotIndex
 906 04b4 504B     		ldr	r3, .L136	@ tmp250,
 907              	.LVL85:
 908 04b6 92B2     		uxth	r2, r2	@ slotIndex.6, slotIndex
 909 04b8 33F91250 		ldrsh	r5, [r3, r2, lsl #1]	@ currentValue, __medianFilterSignedTempHistory
 910              	.LVL86:
 911              	.L97:
 912              	.LBE7:
 913              	.LBE6:
 240:.\src\filters/median.c **** 		}
 241:.\src\filters/median.c **** 
 242:.\src\filters/median.c **** 	}
 243:.\src\filters/median.c **** 
 244:.\src\filters/median.c **** 		//TODO: These need to really be compensated for by sample rate.
 245:.\src\filters/median.c **** 	if(movingAverageFilterType != FilterOption_None && filter->MovingAverageInitialized == true){
 914              		.loc 1 245 0
 915 04bc 9DF80130 		ldrb	r3, [sp, #1]	@ zero_extendqisi2	@ movingAverageFilterType, movingAverageFilterType
 916              	.LVL87:
 917 04c0 002B     		cmp	r3, #0	@ movingAverageFilterType
 918 04c2 00F09380 		beq	.L106	@
 919              		.loc 1 245 0 is_stmt 0 discriminator 1
 920 04c6 637E     		ldrb	r3, [r4, #25]	@ zero_extendqisi2	@ filter_4(D)->MovingAverageInitialized, filter_4(D)->Moving
 921              	.LVL88:
 922 04c8 FF2B     		cmp	r3, #255	@ filter_4(D)->MovingAverageInitialized,
 923 04ca 40F08F80 		bne	.L106	@,
 924              	.LBB8:
 246:.\src\filters/median.c **** 		volatile float currentFactor = 1.0f;
 247:.\src\filters/median.c **** 		volatile float previousFactor = 0.0;
 925              		.loc 1 247 0 is_stmt 1
 926 04ce 0022     		movs	r2, #0	@ tmp256,
 246:.\src\filters/median.c **** 		volatile float currentFactor = 1.0f;
ARM GAS  C:\Users\Kevin\AppData\Local\Temp\ccAJH9Rf.s 			page 22


 927              		.loc 1 246 0
 928 04d0 4FF07E51 		mov	r1, #1065353216	@ tmp255,
 929 04d4 0291     		str	r1, [sp, #8]	@ float	@ tmp255, currentFactor
 930              	.LVL89:
 931              		.loc 1 247 0
 932 04d6 0392     		str	r2, [sp, #12]	@ float	@ tmp256, previousFactor
 933              	.LVL90:
 248:.\src\filters/median.c **** 
 249:.\src\filters/median.c **** 		switch(movingAverageFilterType){
 934              		.loc 1 249 0
 935 04d8 9DF80130 		ldrb	r3, [sp, #1]	@ zero_extendqisi2	@ movingAverageFilterType, movingAverageFilterType
 936              	.LVL91:
 937 04dc 802B     		cmp	r3, #128	@ movingAverageFilterType.8,
 938 04de 3FD0     		beq	.L115	@,
 939 04e0 10D8     		bhi	.L123	@,
 940 04e2 402B     		cmp	r3, #64	@ movingAverageFilterType.8,
 941              	.LVL92:
 942 04e4 2CD0     		beq	.L111	@,
 943 04e6 06D8     		bhi	.L124	@,
 944 04e8 202B     		cmp	r3, #32	@ movingAverageFilterType.8,
 945 04ea 20D0     		beq	.L109	@,
 946 04ec 302B     		cmp	r3, #48	@ movingAverageFilterType.8,
 947 04ee 23D0     		beq	.L110	@,
 948 04f0 102B     		cmp	r3, #16	@ movingAverageFilterType.8,
 949 04f2 55D1     		bne	.L107	@,
 950 04f4 17E0     		b	.L108	@
 951              	.L124:
 952 04f6 602B     		cmp	r3, #96	@ movingAverageFilterType.8,
 953 04f8 2AD0     		beq	.L113	@,
 954 04fa 702B     		cmp	r3, #112	@ movingAverageFilterType.8,
 955 04fc 2CD0     		beq	.L114	@,
 956 04fe 502B     		cmp	r3, #80	@ movingAverageFilterType.8,
 957 0500 4ED1     		bne	.L107	@,
 958 0502 21E0     		b	.L112	@
 959              	.LVL93:
 960              	.L123:
 961 0504 C02B     		cmp	r3, #192	@ movingAverageFilterType.8,
 962 0506 3BD0     		beq	.L119	@,
 963 0508 06D8     		bhi	.L125	@,
 964 050a A02B     		cmp	r3, #160	@ movingAverageFilterType.8,
 965              	.LVL94:
 966 050c 30D0     		beq	.L117	@,
 967 050e B02B     		cmp	r3, #176	@ movingAverageFilterType.8,
 968 0510 32D0     		beq	.L118	@,
 969 0512 902B     		cmp	r3, #144	@ movingAverageFilterType.8,
 970 0514 44D1     		bne	.L107	@,
 971 0516 27E0     		b	.L116	@
 972              	.LVL95:
 973              	.L125:
 974 0518 E02B     		cmp	r3, #224	@ movingAverageFilterType.8,
 975 051a 39D0     		beq	.L121	@,
 976 051c F02B     		cmp	r3, #240	@ movingAverageFilterType.8,
 977              	.LVL96:
 978 051e 3BD0     		beq	.L122	@,
 979 0520 D02B     		cmp	r3, #208	@ movingAverageFilterType.8,
 980 0522 3DD1     		bne	.L107	@,
 981 0524 30E0     		b	.L120	@
ARM GAS  C:\Users\Kevin\AppData\Local\Temp\ccAJH9Rf.s 			page 23


 982              	.L108:
 250:.\src\filters/median.c **** 			case FilterOption_Moving_Average_0_01: previousFactor = 0.9999f; currentFactor = 0.0001f; break;
 983              		.loc 1 250 0
 984 0526 354B     		ldr	r3, .L136+4	@ tmp260,
 985 0528 0393     		str	r3, [sp, #12]	@ float	@ tmp260, previousFactor
 986 052a 354B     		ldr	r3, .L136+8	@ tmp261,
 987 052c 02E0     		b	.L135	@
 988              	.L109:
 251:.\src\filters/median.c **** 			case FilterOption_Moving_Average_0_1: previousFactor = 0.999f; currentFactor = 0.001f; break;
 989              		.loc 1 251 0
 990 052e 354B     		ldr	r3, .L136+12	@ tmp262,
 991 0530 0393     		str	r3, [sp, #12]	@ float	@ tmp262, previousFactor
 992 0532 354B     		ldr	r3, .L136+16	@ tmp263,
 993              	.L135:
 994 0534 0293     		str	r3, [sp, #8]	@ float	@ tmp263, currentFactor
 995 0536 35E0     		b	.L126	@
 996              	.L110:
 252:.\src\filters/median.c **** 			case FilterOption_Moving_Average_1: previousFactor = 0.99f; currentFactor = 0.01f; break;
 997              		.loc 1 252 0
 998 0538 344B     		ldr	r3, .L136+20	@ tmp264,
 999 053a 0393     		str	r3, [sp, #12]	@ float	@ tmp264, previousFactor
 1000 053c 344B     		ldr	r3, .L136+24	@ tmp265,
 1001 053e F9E7     		b	.L135	@
 1002              	.L111:
 253:.\src\filters/median.c **** 			case FilterOption_Moving_Average_2: previousFactor = 0.98f; currentFactor = 0.02f; break;
 1003              		.loc 1 253 0
 1004 0540 344B     		ldr	r3, .L136+28	@ tmp266,
 1005 0542 0393     		str	r3, [sp, #12]	@ float	@ tmp266, previousFactor
 1006 0544 344B     		ldr	r3, .L136+32	@ tmp267,
 1007 0546 F5E7     		b	.L135	@
 1008              	.L112:
 254:.\src\filters/median.c **** 			case FilterOption_Moving_Average_5: previousFactor = 0.95f; currentFactor = 0.05; break;
 1009              		.loc 1 254 0
 1010 0548 344B     		ldr	r3, .L136+36	@ tmp268,
 1011 054a 0393     		str	r3, [sp, #12]	@ float	@ tmp268, previousFactor
 1012 054c 344B     		ldr	r3, .L136+40	@ tmp269,
 1013 054e F1E7     		b	.L135	@
 1014              	.L113:
 255:.\src\filters/median.c **** 			case FilterOption_Moving_Average_10: previousFactor = 0.90f; currentFactor = 0.10f; break;
 1015              		.loc 1 255 0
 1016 0550 344B     		ldr	r3, .L136+44	@ tmp270,
 1017 0552 0393     		str	r3, [sp, #12]	@ float	@ tmp270, previousFactor
 1018 0554 344B     		ldr	r3, .L136+48	@ tmp271,
 1019 0556 EDE7     		b	.L135	@
 1020              	.L114:
 256:.\src\filters/median.c **** 			case FilterOption_Moving_Average_15: previousFactor = 0.85f; currentFactor = 0.15f; break;
 1021              		.loc 1 256 0
 1022 0558 344B     		ldr	r3, .L136+52	@ tmp272,
 1023 055a 0393     		str	r3, [sp, #12]	@ float	@ tmp272, previousFactor
 1024 055c 344B     		ldr	r3, .L136+56	@ tmp273,
 1025 055e E9E7     		b	.L135	@
 1026              	.LVL97:
 1027              	.L115:
 257:.\src\filters/median.c **** 			case FilterOption_Moving_Average_20: previousFactor = 0.80f; currentFactor = 0.2f; break;
 1028              		.loc 1 257 0
 1029 0560 344B     		ldr	r3, .L136+60	@ tmp274,
 1030              	.LVL98:
ARM GAS  C:\Users\Kevin\AppData\Local\Temp\ccAJH9Rf.s 			page 24


 1031 0562 0393     		str	r3, [sp, #12]	@ float	@ tmp274, previousFactor
 1032 0564 344B     		ldr	r3, .L136+64	@ tmp275,
 1033 0566 E5E7     		b	.L135	@
 1034              	.L116:
 258:.\src\filters/median.c **** 			case FilterOption_Moving_Average_30: previousFactor = 0.70f; currentFactor = 0.3f; break;
 1035              		.loc 1 258 0
 1036 0568 344B     		ldr	r3, .L136+68	@ tmp276,
 1037 056a 0393     		str	r3, [sp, #12]	@ float	@ tmp276, previousFactor
 1038 056c 344B     		ldr	r3, .L136+72	@ tmp277,
 1039 056e E1E7     		b	.L135	@
 1040              	.L117:
 259:.\src\filters/median.c **** 			case FilterOption_Moving_Average_40: previousFactor = 0.6f; currentFactor = 0.4f; break;
 1041              		.loc 1 259 0
 1042 0570 344B     		ldr	r3, .L136+76	@ tmp278,
 1043 0572 0393     		str	r3, [sp, #12]	@ float	@ tmp278, previousFactor
 1044 0574 344B     		ldr	r3, .L136+80	@ tmp279,
 1045 0576 DDE7     		b	.L135	@
 1046              	.L118:
 260:.\src\filters/median.c **** 			case FilterOption_Moving_Average_50: previousFactor = 0.5f; currentFactor = 0.5f; break;
 1047              		.loc 1 260 0
 1048 0578 4FF07C53 		mov	r3, #1056964608	@ tmp280,
 1049 057c 0393     		str	r3, [sp, #12]	@ float	@ tmp280, previousFactor
 1050 057e D9E7     		b	.L135	@
 1051              	.LVL99:
 1052              	.L119:
 261:.\src\filters/median.c **** 			case FilterOption_Moving_Average_60: previousFactor = 0.4f; currentFactor = 0.6f; break;
 1053              		.loc 1 261 0
 1054 0580 314B     		ldr	r3, .L136+80	@ tmp282,
 1055              	.LVL100:
 1056 0582 0393     		str	r3, [sp, #12]	@ float	@ tmp282, previousFactor
 1057 0584 2F4B     		ldr	r3, .L136+76	@ tmp283,
 1058 0586 D5E7     		b	.L135	@
 1059              	.L120:
 262:.\src\filters/median.c **** 			case FilterOption_Moving_Average_70: previousFactor = 0.3f; currentFactor = 0.7f; break;
 1060              		.loc 1 262 0
 1061 0588 2D4B     		ldr	r3, .L136+72	@ tmp284,
 1062 058a 0393     		str	r3, [sp, #12]	@ float	@ tmp284, previousFactor
 1063 058c 2B4B     		ldr	r3, .L136+68	@ tmp285,
 1064 058e D1E7     		b	.L135	@
 1065              	.LVL101:
 1066              	.L121:
 263:.\src\filters/median.c **** 			case FilterOption_Moving_Average_80: previousFactor = 0.2f; currentFactor = 0.8f; break;
 1067              		.loc 1 263 0
 1068 0590 294B     		ldr	r3, .L136+64	@ tmp286,
 1069              	.LVL102:
 1070 0592 0393     		str	r3, [sp, #12]	@ float	@ tmp286, previousFactor
 1071 0594 274B     		ldr	r3, .L136+60	@ tmp287,
 1072 0596 CDE7     		b	.L135	@
 1073              	.L122:
 264:.\src\filters/median.c **** 			case FilterOption_Moving_Average_90: previousFactor = 0.1f; currentFactor = 0.9f; break;
 1074              		.loc 1 264 0
 1075 0598 234B     		ldr	r3, .L136+48	@ tmp288,
 1076 059a 0393     		str	r3, [sp, #12]	@ float	@ tmp288, previousFactor
 1077 059c 214B     		ldr	r3, .L136+44	@ tmp289,
 1078 059e C9E7     		b	.L135	@
 1079              	.L107:
 265:.\src\filters/median.c **** 			default: previousFactor = 0.0f; currentFactor = 1.0f; break;
ARM GAS  C:\Users\Kevin\AppData\Local\Temp\ccAJH9Rf.s 			page 25


 1080              		.loc 1 265 0
 1081 05a0 0392     		str	r2, [sp, #12]	@ float	@ tmp315, previousFactor
 1082 05a2 0291     		str	r1, [sp, #8]	@ float	@ tmp314, currentFactor
 1083              	.L126:
 266:.\src\filters/median.c **** 		}
 267:.\src\filters/median.c **** 
 268:.\src\filters/median.c **** 		volatile int16_t part1 = (int16_t)((float)currentValue * currentFactor);
 1084              		.loc 1 268 0
 1085 05a4 06EE905A 		fmsr	s13, r5	@ int	@, currentValue
 1086 05a8 DDED027A 		flds	s15, [sp, #8]	@ currentFactor.9, currentFactor
 1087 05ac B8EEE67A 		fsitos	s14, s13	@ tmp292,
 1088 05b0 67EE277A 		fmuls	s15, s14, s15	@ tmp293, tmp292, currentFactor.9
 1089 05b4 FDEEE77A 		ftosizs	s15, s15	@, tmp293
 1090 05b8 17EE903A 		fmrs	r3, s15	@ int	@ tmp295,
 1091 05bc ADF80430 		strh	r3, [sp, #4]	@ movhi	@ tmp295, part1
 1092              	.LVL103:
 269:.\src\filters/median.c **** 		volatile int16_t part2 = (int16_t)((float)filter->Previous * previousFactor);
 1093              		.loc 1 269 0
 1094 05c0 B4F91630 		ldrsh	r3, [r4, #22]	@, filter_4(D)->Previous
 1095 05c4 07EE903A 		fmsr	s15, r3	@ int	@ filter_4(D)->Previous,
 1096 05c8 9DED037A 		flds	s14, [sp, #12]	@ previousFactor.11, previousFactor
 1097 05cc F8EEE77A 		fsitos	s15, s15	@ tmp297, filter_4(D)->Previous
 1098 05d0 67EE877A 		fmuls	s15, s15, s14	@ tmp299, tmp297, previousFactor.11
 1099 05d4 FDEEE77A 		ftosizs	s15, s15	@, tmp299
 1100 05d8 17EE903A 		fmrs	r3, s15	@ int	@ tmp301,
 1101 05dc ADF80630 		strh	r3, [sp, #6]	@ movhi	@ tmp301, part2
 1102              	.LVL104:
 270:.\src\filters/median.c **** 
 271:.\src\filters/median.c **** 		currentValue = (part1 + part2);
 1103              		.loc 1 271 0
 1104 05e0 BDF80430 		ldrh	r3, [sp, #4]	@, part1
 1105 05e4 BDF80650 		ldrh	r5, [sp, #6]	@, part2
 1106              	.LVL105:
 1107 05e8 ED18     		adds	r5, r5, r3	@ tmp309, part2, part1
 1108 05ea 2DB2     		sxth	r5, r5	@ currentValue, tmp309
 1109              	.LVL106:
 1110              	.L106:
 1111              	.LBE8:
 272:.\src\filters/median.c **** 	}
 273:.\src\filters/median.c **** 
 274:.\src\filters/median.c **** 	filter->Current = currentValue;
 275:.\src\filters/median.c **** 	filter->Previous = filter->Current;
 276:.\src\filters/median.c **** 
 277:.\src\filters/median.c **** 	filter->MovingAverageInitialized = true;
 1112              		.loc 1 277 0
 1113 05ec FF23     		movs	r3, #255	@ tmp312,
 1114              	.LVL107:
 274:.\src\filters/median.c **** 	filter->Current = currentValue;
 1115              		.loc 1 274 0
 1116 05ee A582     		strh	r5, [r4, #20]	@ movhi	@ currentValue, filter_4(D)->Current
 275:.\src\filters/median.c **** 	filter->Previous = filter->Current;
 1117              		.loc 1 275 0
 1118 05f0 E582     		strh	r5, [r4, #22]	@ movhi	@ currentValue, filter_4(D)->Previous
 1119              		.loc 1 277 0
 1120 05f2 6376     		strb	r3, [r4, #25]	@ tmp312, filter_4(D)->MovingAverageInitialized
 1121              	.LVL108:
 1122              	.L93:
ARM GAS  C:\Users\Kevin\AppData\Local\Temp\ccAJH9Rf.s 			page 26


 278:.\src\filters/median.c **** }
 1123              		.loc 1 278 0
 1124 05f4 BDE8FF81 		pop	{r0, r1, r2, r3, r4, r5, r6, r7, r8, pc}
 1125              	.L137:
 1126              		.align	2
 1127              	.L136:
 1128 05f8 00000000 		.word	__medianFilterSignedTempHistory
 1129 05fc 72F97F3F 		.word	1065351538
 1130 0600 17B7D138 		.word	953267991
 1131 0604 77BE7F3F 		.word	1065336439
 1132 0608 6F12833A 		.word	981668463
 1133 060c A4707D3F 		.word	1065185444
 1134 0610 0AD7233C 		.word	1008981770
 1135 0614 48E17A3F 		.word	1065017672
 1136 0618 0AD7A33C 		.word	1017370378
 1137 061c 3333733F 		.word	1064514355
 1138 0620 CDCC4C3D 		.word	1028443341
 1139 0624 6666663F 		.word	1063675494
 1140 0628 CDCCCC3D 		.word	1036831949
 1141 062c 9A99593F 		.word	1062836634
 1142 0630 9A99193E 		.word	1041865114
 1143 0634 CDCC4C3F 		.word	1061997773
 1144 0638 CDCC4C3E 		.word	1045220557
 1145 063c 3333333F 		.word	1060320051
 1146 0640 9A99993E 		.word	1050253722
 1147 0644 9A99193F 		.word	1058642330
 1148 0648 CDCCCC3E 		.word	1053609165
 1149              		.cfi_endproc
 1150              	.LFE112:
 1151              		.size	TWB_Filter_Median_Apply_Signed, .-TWB_Filter_Median_Apply_Signed
 1152              		.comm	__medianFilterFloatTempHistory,36,4
 1153              		.comm	__medianFilterSignedTempHistory,18,2
 1154              		.comm	__medianFilterTempHistory,18,2
 1155              	.Letext0:
 1156              		.file 2 "k:\\electronics\\gcc\\bin\\../lib/gcc/arm-none-eabi/4.7.2/../../../../arm-none-eabi/inclu
 1157              		.file 3 ".\\inc/twb_config.h"
 1158              		.file 4 ".\\inc/Filters/Filter.h"
 1159              		.file 5 ".\\inc/core_cm4.h"